ARM GAS  /var/folders/_f/88qcw_5n2jl40jjphvxyt7wh0000gn/T//ccwIXLm8.s 			page 1


   1              		.cpu cortex-m4
   2              		.arch armv7e-m
   3              		.fpu softvfp
   4              		.eabi_attribute 20, 1
   5              		.eabi_attribute 21, 1
   6              		.eabi_attribute 23, 3
   7              		.eabi_attribute 24, 1
   8              		.eabi_attribute 25, 1
   9              		.eabi_attribute 26, 1
  10              		.eabi_attribute 30, 1
  11              		.eabi_attribute 34, 1
  12              		.eabi_attribute 18, 4
  13              		.file	"gd32f3x0_cmp.c"
  14              		.text
  15              	.Ltext0:
  16              		.cfi_sections	.debug_frame
  17              		.section	.text.cmp_deinit,"ax",%progbits
  18              		.align	1
  19              		.global	cmp_deinit
  20              		.syntax unified
  21              		.thumb
  22              		.thumb_func
  24              	cmp_deinit:
  25              	.LFB116:
  26              		.file 1 "lib/GD32F3x0/Source/gd32f3x0_cmp.c"
   1:lib/GD32F3x0/Source/gd32f3x0_cmp.c **** /*!
   2:lib/GD32F3x0/Source/gd32f3x0_cmp.c ****     \file    gd32f3x0_cmp.c
   3:lib/GD32F3x0/Source/gd32f3x0_cmp.c ****     \brief   CMP driver
   4:lib/GD32F3x0/Source/gd32f3x0_cmp.c **** 
   5:lib/GD32F3x0/Source/gd32f3x0_cmp.c ****     \version 2017-06-06, V1.0.0, firmware for GD32F3x0
   6:lib/GD32F3x0/Source/gd32f3x0_cmp.c ****     \version 2019-06-01, V2.0.0, firmware for GD32F3x0
   7:lib/GD32F3x0/Source/gd32f3x0_cmp.c ****     \version 2020-09-30, V2.1.0, firmware for GD32F3x0
   8:lib/GD32F3x0/Source/gd32f3x0_cmp.c ****     \version 2021-05-19, V2.1.1, firmware for GD32F3x0
   9:lib/GD32F3x0/Source/gd32f3x0_cmp.c ****     \version 2022-01-06, V2.2.0, firmware for GD32F3x0
  10:lib/GD32F3x0/Source/gd32f3x0_cmp.c **** */
  11:lib/GD32F3x0/Source/gd32f3x0_cmp.c **** 
  12:lib/GD32F3x0/Source/gd32f3x0_cmp.c **** /*
  13:lib/GD32F3x0/Source/gd32f3x0_cmp.c ****     Copyright (c) 2022, GigaDevice Semiconductor Inc.
  14:lib/GD32F3x0/Source/gd32f3x0_cmp.c **** 
  15:lib/GD32F3x0/Source/gd32f3x0_cmp.c ****     Redistribution and use in source and binary forms, with or without modification,
  16:lib/GD32F3x0/Source/gd32f3x0_cmp.c **** are permitted provided that the following conditions are met:
  17:lib/GD32F3x0/Source/gd32f3x0_cmp.c **** 
  18:lib/GD32F3x0/Source/gd32f3x0_cmp.c ****     1. Redistributions of source code must retain the above copyright notice, this
  19:lib/GD32F3x0/Source/gd32f3x0_cmp.c ****        list of conditions and the following disclaimer.
  20:lib/GD32F3x0/Source/gd32f3x0_cmp.c ****     2. Redistributions in binary form must reproduce the above copyright notice,
  21:lib/GD32F3x0/Source/gd32f3x0_cmp.c ****        this list of conditions and the following disclaimer in the documentation
  22:lib/GD32F3x0/Source/gd32f3x0_cmp.c ****        and/or other materials provided with the distribution.
  23:lib/GD32F3x0/Source/gd32f3x0_cmp.c ****     3. Neither the name of the copyright holder nor the names of its contributors
  24:lib/GD32F3x0/Source/gd32f3x0_cmp.c ****        may be used to endorse or promote products derived from this software without
  25:lib/GD32F3x0/Source/gd32f3x0_cmp.c ****        specific prior written permission.
  26:lib/GD32F3x0/Source/gd32f3x0_cmp.c **** 
  27:lib/GD32F3x0/Source/gd32f3x0_cmp.c ****     THIS SOFTWARE IS PROVIDED BY THE COPYRIGHT HOLDERS AND CONTRIBUTORS "AS IS"
  28:lib/GD32F3x0/Source/gd32f3x0_cmp.c **** AND ANY EXPRESS OR IMPLIED WARRANTIES, INCLUDING, BUT NOT LIMITED TO, THE IMPLIED
  29:lib/GD32F3x0/Source/gd32f3x0_cmp.c **** WARRANTIES OF MERCHANTABILITY AND FITNESS FOR A PARTICULAR PURPOSE ARE DISCLAIMED.
  30:lib/GD32F3x0/Source/gd32f3x0_cmp.c **** IN NO EVENT SHALL THE COPYRIGHT HOLDER OR CONTRIBUTORS BE LIABLE FOR ANY DIRECT,
  31:lib/GD32F3x0/Source/gd32f3x0_cmp.c **** INDIRECT, INCIDENTAL, SPECIAL, EXEMPLARY, OR CONSEQUENTIAL DAMAGES (INCLUDING, BUT
  32:lib/GD32F3x0/Source/gd32f3x0_cmp.c **** NOT LIMITED TO, PROCUREMENT OF SUBSTITUTE GOODS OR SERVICES; LOSS OF USE, DATA, OR
ARM GAS  /var/folders/_f/88qcw_5n2jl40jjphvxyt7wh0000gn/T//ccwIXLm8.s 			page 2


  33:lib/GD32F3x0/Source/gd32f3x0_cmp.c **** PROFITS; OR BUSINESS INTERRUPTION) HOWEVER CAUSED AND ON ANY THEORY OF LIABILITY,
  34:lib/GD32F3x0/Source/gd32f3x0_cmp.c **** WHETHER IN CONTRACT, STRICT LIABILITY, OR TORT (INCLUDING NEGLIGENCE OR OTHERWISE)
  35:lib/GD32F3x0/Source/gd32f3x0_cmp.c **** ARISING IN ANY WAY OUT OF THE USE OF THIS SOFTWARE, EVEN IF ADVISED OF THE POSSIBILITY
  36:lib/GD32F3x0/Source/gd32f3x0_cmp.c **** OF SUCH DAMAGE.
  37:lib/GD32F3x0/Source/gd32f3x0_cmp.c **** */
  38:lib/GD32F3x0/Source/gd32f3x0_cmp.c **** 
  39:lib/GD32F3x0/Source/gd32f3x0_cmp.c **** #include "gd32f3x0_cmp.h"
  40:lib/GD32F3x0/Source/gd32f3x0_cmp.c **** 
  41:lib/GD32F3x0/Source/gd32f3x0_cmp.c **** /*!
  42:lib/GD32F3x0/Source/gd32f3x0_cmp.c ****     \brief      deinitialize comparator
  43:lib/GD32F3x0/Source/gd32f3x0_cmp.c ****     \param[in]  none
  44:lib/GD32F3x0/Source/gd32f3x0_cmp.c ****     \param[out] none
  45:lib/GD32F3x0/Source/gd32f3x0_cmp.c ****     \retval     none
  46:lib/GD32F3x0/Source/gd32f3x0_cmp.c **** */
  47:lib/GD32F3x0/Source/gd32f3x0_cmp.c **** void cmp_deinit(void)
  48:lib/GD32F3x0/Source/gd32f3x0_cmp.c **** {
  27              		.loc 1 48 1 view -0
  28              		.cfi_startproc
  29              		@ args = 0, pretend = 0, frame = 0
  30              		@ frame_needed = 0, uses_anonymous_args = 0
  31              		@ link register save eliminated.
  49:lib/GD32F3x0/Source/gd32f3x0_cmp.c ****     CMP_CS = ((uint32_t)0x00000000U);
  32              		.loc 1 49 5 view .LVU1
  33              		.loc 1 49 12 is_stmt 0 view .LVU2
  34 0000 014B     		ldr	r3, .L2
  35 0002 0022     		movs	r2, #0
  36 0004 DA61     		str	r2, [r3, #28]
  50:lib/GD32F3x0/Source/gd32f3x0_cmp.c **** }
  37              		.loc 1 50 1 view .LVU3
  38 0006 7047     		bx	lr
  39              	.L3:
  40              		.align	2
  41              	.L2:
  42 0008 00000140 		.word	1073807360
  43              		.cfi_endproc
  44              	.LFE116:
  46              		.section	.text.cmp_mode_init,"ax",%progbits
  47              		.align	1
  48              		.global	cmp_mode_init
  49              		.syntax unified
  50              		.thumb
  51              		.thumb_func
  53              	cmp_mode_init:
  54              	.LVL0:
  55              	.LFB117:
  51:lib/GD32F3x0/Source/gd32f3x0_cmp.c **** 
  52:lib/GD32F3x0/Source/gd32f3x0_cmp.c **** /*!
  53:lib/GD32F3x0/Source/gd32f3x0_cmp.c ****     \brief      initialize comparator mode
  54:lib/GD32F3x0/Source/gd32f3x0_cmp.c ****     \param[in]  cmp_periph
  55:lib/GD32F3x0/Source/gd32f3x0_cmp.c ****       \arg        CMP0: comparator 0
  56:lib/GD32F3x0/Source/gd32f3x0_cmp.c ****       \arg        CMP1: comparator 1
  57:lib/GD32F3x0/Source/gd32f3x0_cmp.c ****     \param[in]  operating_mode
  58:lib/GD32F3x0/Source/gd32f3x0_cmp.c ****       \arg        CMP_HIGHSPEED: high speed mode
  59:lib/GD32F3x0/Source/gd32f3x0_cmp.c ****       \arg        CMP_MIDDLESPEED: medium speed mode
  60:lib/GD32F3x0/Source/gd32f3x0_cmp.c ****       \arg        CMP_LOWSPEED: low speed mode
  61:lib/GD32F3x0/Source/gd32f3x0_cmp.c ****       \arg        CMP_VERYLOWSPEED: very-low speed mode
  62:lib/GD32F3x0/Source/gd32f3x0_cmp.c ****     \param[in]  inverting_input
ARM GAS  /var/folders/_f/88qcw_5n2jl40jjphvxyt7wh0000gn/T//ccwIXLm8.s 			page 3


  63:lib/GD32F3x0/Source/gd32f3x0_cmp.c ****       \arg        CMP_1_4VREFINT: VREFINT *1/4 input
  64:lib/GD32F3x0/Source/gd32f3x0_cmp.c ****       \arg        CMP_1_2VREFINT: VREFINT *1/2 input
  65:lib/GD32F3x0/Source/gd32f3x0_cmp.c ****       \arg        CMP_3_4VREFINT: VREFINT *3/4 input
  66:lib/GD32F3x0/Source/gd32f3x0_cmp.c ****       \arg        CMP_VREFINT: VREFINT input
  67:lib/GD32F3x0/Source/gd32f3x0_cmp.c ****       \arg        CMP_DAC: PA4 (DAC) input
  68:lib/GD32F3x0/Source/gd32f3x0_cmp.c ****       \arg        CMP_PA5: PA5 input
  69:lib/GD32F3x0/Source/gd32f3x0_cmp.c ****       \arg        CMP_PA_0_2: PA0 or PA2 input
  70:lib/GD32F3x0/Source/gd32f3x0_cmp.c ****     \param[in]  hysteresis
  71:lib/GD32F3x0/Source/gd32f3x0_cmp.c ****       \arg        CMP_HYSTERESIS_NO: output no hysteresis
  72:lib/GD32F3x0/Source/gd32f3x0_cmp.c ****       \arg        CMP_HYSTERESIS_LOW: output low hysteresis
  73:lib/GD32F3x0/Source/gd32f3x0_cmp.c ****       \arg        CMP_HYSTERESIS_MIDDLE: output middle hysteresis
  74:lib/GD32F3x0/Source/gd32f3x0_cmp.c ****       \arg        CMP_HYSTERESIS_HIGH: output high hysteresis
  75:lib/GD32F3x0/Source/gd32f3x0_cmp.c ****     \param[out] none
  76:lib/GD32F3x0/Source/gd32f3x0_cmp.c ****     \retval     none
  77:lib/GD32F3x0/Source/gd32f3x0_cmp.c **** */
  78:lib/GD32F3x0/Source/gd32f3x0_cmp.c **** void cmp_mode_init(uint32_t cmp_periph, operating_mode_enum operating_mode, inverting_input_enum in
  79:lib/GD32F3x0/Source/gd32f3x0_cmp.c ****                    cmp_hysteresis_enum output_hysteresis)
  80:lib/GD32F3x0/Source/gd32f3x0_cmp.c **** {
  56              		.loc 1 80 1 is_stmt 1 view -0
  57              		.cfi_startproc
  58              		@ args = 0, pretend = 0, frame = 0
  59              		@ frame_needed = 0, uses_anonymous_args = 0
  60              		@ link register save eliminated.
  61              		.loc 1 80 1 is_stmt 0 view .LVU5
  62 0000 10B4     		push	{r4}
  63              	.LCFI0:
  64              		.cfi_def_cfa_offset 4
  65              		.cfi_offset 4, -4
  81:lib/GD32F3x0/Source/gd32f3x0_cmp.c ****     uint32_t CMPx_CS = 0;
  66              		.loc 1 81 5 is_stmt 1 view .LVU6
  67              	.LVL1:
  82:lib/GD32F3x0/Source/gd32f3x0_cmp.c ****     if(CMP0 == cmp_periph) {
  68              		.loc 1 82 5 view .LVU7
  69              		.loc 1 82 7 is_stmt 0 view .LVU8
  70 0002 A0B9     		cbnz	r0, .L5
  83:lib/GD32F3x0/Source/gd32f3x0_cmp.c ****         /* initialize comparator 0 mode */
  84:lib/GD32F3x0/Source/gd32f3x0_cmp.c ****         CMPx_CS = CMP_CS;
  71              		.loc 1 84 9 is_stmt 1 view .LVU9
  72              		.loc 1 84 17 is_stmt 0 view .LVU10
  73 0004 144C     		ldr	r4, .L8
  74 0006 E069     		ldr	r0, [r4, #28]
  75              	.LVL2:
  85:lib/GD32F3x0/Source/gd32f3x0_cmp.c ****         CMPx_CS &= ~(uint32_t)(CMP_CS_CMP0M | CMP_CS_CMP0MSEL | CMP_CS_CMP0HST);
  76              		.loc 1 85 9 is_stmt 1 view .LVU11
  77              		.loc 1 85 17 is_stmt 0 view .LVU12
  78 0008 20F44150 		bic	r0, r0, #12352
  79              	.LVL3:
  80              		.loc 1 85 17 view .LVU13
  81 000c 20F03C00 		bic	r0, r0, #60
  82              	.LVL4:
  86:lib/GD32F3x0/Source/gd32f3x0_cmp.c ****         CMPx_CS |= CS_CMP0M(operating_mode) | CS_CMP0MSEL(inverting_input) | CS_CMP0HST(output_hyst
  83              		.loc 1 86 9 is_stmt 1 view .LVU14
  84              		.loc 1 86 20 is_stmt 0 view .LVU15
  85 0010 8900     		lsls	r1, r1, #2
  86              	.LVL5:
  87              		.loc 1 86 20 view .LVU16
  88 0012 01F00C01 		and	r1, r1, #12
ARM GAS  /var/folders/_f/88qcw_5n2jl40jjphvxyt7wh0000gn/T//ccwIXLm8.s 			page 4


  89              		.loc 1 86 47 view .LVU17
  90 0016 1201     		lsls	r2, r2, #4
  91              	.LVL6:
  92              		.loc 1 86 47 view .LVU18
  93 0018 02F07002 		and	r2, r2, #112
  94              		.loc 1 86 45 view .LVU19
  95 001c 1143     		orrs	r1, r1, r2
  96              		.loc 1 86 78 view .LVU20
  97 001e 1B03     		lsls	r3, r3, #12
  98              	.LVL7:
  99              		.loc 1 86 78 view .LVU21
 100 0020 03F44053 		and	r3, r3, #12288
 101              		.loc 1 86 76 view .LVU22
 102 0024 0B43     		orrs	r3, r3, r1
 103              		.loc 1 86 17 view .LVU23
 104 0026 0343     		orrs	r3, r3, r0
 105              	.LVL8:
  87:lib/GD32F3x0/Source/gd32f3x0_cmp.c ****         CMP_CS = CMPx_CS;
 106              		.loc 1 87 9 is_stmt 1 view .LVU24
 107              		.loc 1 87 16 is_stmt 0 view .LVU25
 108 0028 E361     		str	r3, [r4, #28]
 109              	.L4:
  88:lib/GD32F3x0/Source/gd32f3x0_cmp.c ****     } else {
  89:lib/GD32F3x0/Source/gd32f3x0_cmp.c ****         /* initialize comparator 1 mode */
  90:lib/GD32F3x0/Source/gd32f3x0_cmp.c ****         CMPx_CS = CMP_CS;
  91:lib/GD32F3x0/Source/gd32f3x0_cmp.c ****         CMPx_CS &= ~(uint32_t)(CMP_CS_CMP1M | CMP_CS_CMP1MSEL | CMP_CS_CMP1HST);
  92:lib/GD32F3x0/Source/gd32f3x0_cmp.c ****         CMPx_CS |= CS_CMP1M(operating_mode) | CS_CMP1MSEL(inverting_input) | CS_CMP1HST(output_hyst
  93:lib/GD32F3x0/Source/gd32f3x0_cmp.c ****         CMP_CS = CMPx_CS;
  94:lib/GD32F3x0/Source/gd32f3x0_cmp.c ****     }
  95:lib/GD32F3x0/Source/gd32f3x0_cmp.c **** }
 110              		.loc 1 95 1 view .LVU26
 111 002a 10BC     		pop	{r4}
 112              	.LCFI1:
 113              		.cfi_remember_state
 114              		.cfi_restore 4
 115              		.cfi_def_cfa_offset 0
 116 002c 7047     		bx	lr
 117              	.LVL9:
 118              	.L5:
 119              	.LCFI2:
 120              		.cfi_restore_state
  90:lib/GD32F3x0/Source/gd32f3x0_cmp.c ****         CMPx_CS &= ~(uint32_t)(CMP_CS_CMP1M | CMP_CS_CMP1MSEL | CMP_CS_CMP1HST);
 121              		.loc 1 90 9 is_stmt 1 view .LVU27
  90:lib/GD32F3x0/Source/gd32f3x0_cmp.c ****         CMPx_CS &= ~(uint32_t)(CMP_CS_CMP1M | CMP_CS_CMP1MSEL | CMP_CS_CMP1HST);
 122              		.loc 1 90 17 is_stmt 0 view .LVU28
 123 002e 0A4C     		ldr	r4, .L8
 124 0030 E069     		ldr	r0, [r4, #28]
 125              	.LVL10:
  91:lib/GD32F3x0/Source/gd32f3x0_cmp.c ****         CMPx_CS |= CS_CMP1M(operating_mode) | CS_CMP1MSEL(inverting_input) | CS_CMP1HST(output_hyst
 126              		.loc 1 91 9 is_stmt 1 view .LVU29
  91:lib/GD32F3x0/Source/gd32f3x0_cmp.c ****         CMPx_CS |= CS_CMP1M(operating_mode) | CS_CMP1MSEL(inverting_input) | CS_CMP1HST(output_hyst
 127              		.loc 1 91 17 is_stmt 0 view .LVU30
 128 0032 20F04150 		bic	r0, r0, #809500672
 129              	.LVL11:
  91:lib/GD32F3x0/Source/gd32f3x0_cmp.c ****         CMPx_CS |= CS_CMP1M(operating_mode) | CS_CMP1MSEL(inverting_input) | CS_CMP1HST(output_hyst
 130              		.loc 1 91 17 view .LVU31
 131 0036 20F47010 		bic	r0, r0, #3932160
ARM GAS  /var/folders/_f/88qcw_5n2jl40jjphvxyt7wh0000gn/T//ccwIXLm8.s 			page 5


 132              	.LVL12:
  92:lib/GD32F3x0/Source/gd32f3x0_cmp.c ****         CMP_CS = CMPx_CS;
 133              		.loc 1 92 9 is_stmt 1 view .LVU32
  92:lib/GD32F3x0/Source/gd32f3x0_cmp.c ****         CMP_CS = CMPx_CS;
 134              		.loc 1 92 20 is_stmt 0 view .LVU33
 135 003a 8904     		lsls	r1, r1, #18
 136              	.LVL13:
  92:lib/GD32F3x0/Source/gd32f3x0_cmp.c ****         CMP_CS = CMPx_CS;
 137              		.loc 1 92 20 view .LVU34
 138 003c 01F44021 		and	r1, r1, #786432
  92:lib/GD32F3x0/Source/gd32f3x0_cmp.c ****         CMP_CS = CMPx_CS;
 139              		.loc 1 92 47 view .LVU35
 140 0040 1205     		lsls	r2, r2, #20
 141              	.LVL14:
  92:lib/GD32F3x0/Source/gd32f3x0_cmp.c ****         CMP_CS = CMPx_CS;
 142              		.loc 1 92 47 view .LVU36
 143 0042 02F4E002 		and	r2, r2, #7340032
  92:lib/GD32F3x0/Source/gd32f3x0_cmp.c ****         CMP_CS = CMPx_CS;
 144              		.loc 1 92 45 view .LVU37
 145 0046 1143     		orrs	r1, r1, r2
  92:lib/GD32F3x0/Source/gd32f3x0_cmp.c ****         CMP_CS = CMPx_CS;
 146              		.loc 1 92 78 view .LVU38
 147 0048 1B07     		lsls	r3, r3, #28
 148              	.LVL15:
  92:lib/GD32F3x0/Source/gd32f3x0_cmp.c ****         CMP_CS = CMPx_CS;
 149              		.loc 1 92 78 view .LVU39
 150 004a 03F04053 		and	r3, r3, #805306368
  92:lib/GD32F3x0/Source/gd32f3x0_cmp.c ****         CMP_CS = CMPx_CS;
 151              		.loc 1 92 76 view .LVU40
 152 004e 0B43     		orrs	r3, r3, r1
  92:lib/GD32F3x0/Source/gd32f3x0_cmp.c ****         CMP_CS = CMPx_CS;
 153              		.loc 1 92 17 view .LVU41
 154 0050 0343     		orrs	r3, r3, r0
 155              	.LVL16:
  93:lib/GD32F3x0/Source/gd32f3x0_cmp.c ****     }
 156              		.loc 1 93 9 is_stmt 1 view .LVU42
  93:lib/GD32F3x0/Source/gd32f3x0_cmp.c ****     }
 157              		.loc 1 93 16 is_stmt 0 view .LVU43
 158 0052 E361     		str	r3, [r4, #28]
 159              		.loc 1 95 1 view .LVU44
 160 0054 E9E7     		b	.L4
 161              	.L9:
 162 0056 00BF     		.align	2
 163              	.L8:
 164 0058 00000140 		.word	1073807360
 165              		.cfi_endproc
 166              	.LFE117:
 168              		.section	.text.cmp_output_init,"ax",%progbits
 169              		.align	1
 170              		.global	cmp_output_init
 171              		.syntax unified
 172              		.thumb
 173              		.thumb_func
 175              	cmp_output_init:
 176              	.LVL17:
 177              	.LFB118:
  96:lib/GD32F3x0/Source/gd32f3x0_cmp.c **** 
ARM GAS  /var/folders/_f/88qcw_5n2jl40jjphvxyt7wh0000gn/T//ccwIXLm8.s 			page 6


  97:lib/GD32F3x0/Source/gd32f3x0_cmp.c **** /*!
  98:lib/GD32F3x0/Source/gd32f3x0_cmp.c ****     \brief      initialize comparator output
  99:lib/GD32F3x0/Source/gd32f3x0_cmp.c ****     \param[in]  cmp_periph
 100:lib/GD32F3x0/Source/gd32f3x0_cmp.c ****       \arg        CMP0: comparator 0
 101:lib/GD32F3x0/Source/gd32f3x0_cmp.c ****       \arg        CMP1: comparator 1
 102:lib/GD32F3x0/Source/gd32f3x0_cmp.c ****     \param[in]  output_slection
 103:lib/GD32F3x0/Source/gd32f3x0_cmp.c ****       \arg        CMP_OUTPUT_NONE: output no selection
 104:lib/GD32F3x0/Source/gd32f3x0_cmp.c ****       \arg        CMP_OUTPUT_TIMER0BKIN: TIMER 0 break input
 105:lib/GD32F3x0/Source/gd32f3x0_cmp.c ****       \arg        CMP_OUTPUT_TIMER0IC0: TIMER 0 channel0 input capture
 106:lib/GD32F3x0/Source/gd32f3x0_cmp.c ****       \arg        CMP_OUTPUT_TIMER0OCPRECLR: TIMER 0 OCPRE_CLR input
 107:lib/GD32F3x0/Source/gd32f3x0_cmp.c ****       \arg        CMP_OUTPUT_TIMER1IC3: TIMER 1 channel3 input capture
 108:lib/GD32F3x0/Source/gd32f3x0_cmp.c ****       \arg        CMP_OUTPUT_TIMER1OCPRECLR: TIMER 1 OCPRE_CLR input
 109:lib/GD32F3x0/Source/gd32f3x0_cmp.c ****       \arg        CMP_OUTPUT_TIMER2IC0: TIMER 2 channel0 input capture
 110:lib/GD32F3x0/Source/gd32f3x0_cmp.c ****       \arg        CMP_OUTPUT_TIMER2OCPRECLR: TIMER 2 OCPRE_CLR input
 111:lib/GD32F3x0/Source/gd32f3x0_cmp.c ****     \param[in]  output_polarity
 112:lib/GD32F3x0/Source/gd32f3x0_cmp.c ****       \arg        CMP_OUTPUT_POLARITY_INVERTED: output is inverted
 113:lib/GD32F3x0/Source/gd32f3x0_cmp.c ****       \arg        CMP_OUTPUT_POLARITY_NOINVERTED: output is not inverted
 114:lib/GD32F3x0/Source/gd32f3x0_cmp.c ****     \param[out] none
 115:lib/GD32F3x0/Source/gd32f3x0_cmp.c ****     \retval     none
 116:lib/GD32F3x0/Source/gd32f3x0_cmp.c **** */
 117:lib/GD32F3x0/Source/gd32f3x0_cmp.c **** void cmp_output_init(uint32_t cmp_periph, cmp_output_enum output_slection, uint32_t output_polarity
 118:lib/GD32F3x0/Source/gd32f3x0_cmp.c **** {
 178              		.loc 1 118 1 is_stmt 1 view -0
 179              		.cfi_startproc
 180              		@ args = 0, pretend = 0, frame = 0
 181              		@ frame_needed = 0, uses_anonymous_args = 0
 182              		@ link register save eliminated.
 119:lib/GD32F3x0/Source/gd32f3x0_cmp.c ****     uint32_t CMPx_CS = 0;
 183              		.loc 1 119 5 view .LVU46
 120:lib/GD32F3x0/Source/gd32f3x0_cmp.c ****     /* initialize comparator 0 output */
 121:lib/GD32F3x0/Source/gd32f3x0_cmp.c ****     if(CMP0 == cmp_periph) {
 184              		.loc 1 121 5 view .LVU47
 185              		.loc 1 121 7 is_stmt 0 view .LVU48
 186 0000 88B9     		cbnz	r0, .L11
 122:lib/GD32F3x0/Source/gd32f3x0_cmp.c ****         CMPx_CS = CMP_CS;
 187              		.loc 1 122 9 is_stmt 1 view .LVU49
 188              		.loc 1 122 17 is_stmt 0 view .LVU50
 189 0002 134B     		ldr	r3, .L20
 190 0004 DB69     		ldr	r3, [r3, #28]
 191              	.LVL18:
 123:lib/GD32F3x0/Source/gd32f3x0_cmp.c ****         CMPx_CS &= ~(uint32_t)CMP_CS_CMP0OSEL;
 192              		.loc 1 123 9 is_stmt 1 view .LVU51
 193              		.loc 1 123 17 is_stmt 0 view .LVU52
 194 0006 23F4E063 		bic	r3, r3, #1792
 195              	.LVL19:
 124:lib/GD32F3x0/Source/gd32f3x0_cmp.c ****         CMPx_CS |= CS_CMP0OSEL(output_slection);
 196              		.loc 1 124 9 is_stmt 1 view .LVU53
 197              		.loc 1 124 20 is_stmt 0 view .LVU54
 198 000a 0902     		lsls	r1, r1, #8
 199              	.LVL20:
 200              		.loc 1 124 20 view .LVU55
 201 000c 01F4E061 		and	r1, r1, #1792
 202              		.loc 1 124 17 view .LVU56
 203 0010 1943     		orrs	r1, r1, r3
 204              	.LVL21:
 125:lib/GD32F3x0/Source/gd32f3x0_cmp.c ****         /* output polarity */
 126:lib/GD32F3x0/Source/gd32f3x0_cmp.c ****         if(CMP_OUTPUT_POLARITY_INVERTED == output_polarity) {
ARM GAS  /var/folders/_f/88qcw_5n2jl40jjphvxyt7wh0000gn/T//ccwIXLm8.s 			page 7


 205              		.loc 1 126 9 is_stmt 1 view .LVU57
 206              		.loc 1 126 11 is_stmt 0 view .LVU58
 207 0012 012A     		cmp	r2, #1
 208 0014 04D0     		beq	.L17
 127:lib/GD32F3x0/Source/gd32f3x0_cmp.c ****             CMPx_CS |= CMP_CS_CMP0PL;
 128:lib/GD32F3x0/Source/gd32f3x0_cmp.c ****         } else {
 129:lib/GD32F3x0/Source/gd32f3x0_cmp.c ****             CMPx_CS &= ~CMP_CS_CMP0PL;
 209              		.loc 1 129 13 is_stmt 1 view .LVU59
 210              		.loc 1 129 21 is_stmt 0 view .LVU60
 211 0016 21F40061 		bic	r1, r1, #2048
 212              	.LVL22:
 213              	.L13:
 130:lib/GD32F3x0/Source/gd32f3x0_cmp.c ****         }
 131:lib/GD32F3x0/Source/gd32f3x0_cmp.c ****         CMP_CS = CMPx_CS;
 214              		.loc 1 131 9 is_stmt 1 view .LVU61
 215              		.loc 1 131 16 is_stmt 0 view .LVU62
 216 001a 0D4B     		ldr	r3, .L20
 217 001c D961     		str	r1, [r3, #28]
 218 001e 7047     		bx	lr
 219              	.L17:
 127:lib/GD32F3x0/Source/gd32f3x0_cmp.c ****             CMPx_CS |= CMP_CS_CMP0PL;
 220              		.loc 1 127 13 is_stmt 1 view .LVU63
 127:lib/GD32F3x0/Source/gd32f3x0_cmp.c ****             CMPx_CS |= CMP_CS_CMP0PL;
 221              		.loc 1 127 21 is_stmt 0 view .LVU64
 222 0020 41F40061 		orr	r1, r1, #2048
 223              	.LVL23:
 127:lib/GD32F3x0/Source/gd32f3x0_cmp.c ****             CMPx_CS |= CMP_CS_CMP0PL;
 224              		.loc 1 127 21 view .LVU65
 225 0024 F9E7     		b	.L13
 226              	.LVL24:
 227              	.L11:
 132:lib/GD32F3x0/Source/gd32f3x0_cmp.c ****     } else if(CMP1 == cmp_periph) {
 228              		.loc 1 132 12 is_stmt 1 view .LVU66
 229              		.loc 1 132 14 is_stmt 0 view .LVU67
 230 0026 1028     		cmp	r0, #16
 231 0028 00D0     		beq	.L18
 232              	.LVL25:
 233              	.L10:
 133:lib/GD32F3x0/Source/gd32f3x0_cmp.c ****         /* initialize comparator 1 output */
 134:lib/GD32F3x0/Source/gd32f3x0_cmp.c ****         CMPx_CS = CMP_CS;
 135:lib/GD32F3x0/Source/gd32f3x0_cmp.c ****         CMPx_CS &= ~(uint32_t)CMP_CS_CMP1OSEL;
 136:lib/GD32F3x0/Source/gd32f3x0_cmp.c ****         CMPx_CS |= CS_CMP1OSEL(output_slection);
 137:lib/GD32F3x0/Source/gd32f3x0_cmp.c ****         /* output polarity */
 138:lib/GD32F3x0/Source/gd32f3x0_cmp.c ****         if(CMP_OUTPUT_POLARITY_INVERTED == output_polarity) {
 139:lib/GD32F3x0/Source/gd32f3x0_cmp.c ****             CMPx_CS |= CMP_CS_CMP1PL;
 140:lib/GD32F3x0/Source/gd32f3x0_cmp.c ****         } else {
 141:lib/GD32F3x0/Source/gd32f3x0_cmp.c ****             CMPx_CS &= ~CMP_CS_CMP1PL;
 142:lib/GD32F3x0/Source/gd32f3x0_cmp.c ****         }
 143:lib/GD32F3x0/Source/gd32f3x0_cmp.c ****         CMP_CS = CMPx_CS;
 144:lib/GD32F3x0/Source/gd32f3x0_cmp.c ****     }
 145:lib/GD32F3x0/Source/gd32f3x0_cmp.c **** }
 234              		.loc 1 145 1 view .LVU68
 235 002a 7047     		bx	lr
 236              	.LVL26:
 237              	.L18:
 134:lib/GD32F3x0/Source/gd32f3x0_cmp.c ****         CMPx_CS &= ~(uint32_t)CMP_CS_CMP1OSEL;
 238              		.loc 1 134 9 is_stmt 1 view .LVU69
ARM GAS  /var/folders/_f/88qcw_5n2jl40jjphvxyt7wh0000gn/T//ccwIXLm8.s 			page 8


 134:lib/GD32F3x0/Source/gd32f3x0_cmp.c ****         CMPx_CS &= ~(uint32_t)CMP_CS_CMP1OSEL;
 239              		.loc 1 134 17 is_stmt 0 view .LVU70
 240 002c 084B     		ldr	r3, .L20
 241 002e DB69     		ldr	r3, [r3, #28]
 242              	.LVL27:
 135:lib/GD32F3x0/Source/gd32f3x0_cmp.c ****         CMPx_CS |= CS_CMP1OSEL(output_slection);
 243              		.loc 1 135 9 is_stmt 1 view .LVU71
 135:lib/GD32F3x0/Source/gd32f3x0_cmp.c ****         CMPx_CS |= CS_CMP1OSEL(output_slection);
 244              		.loc 1 135 17 is_stmt 0 view .LVU72
 245 0030 23F0E063 		bic	r3, r3, #117440512
 246              	.LVL28:
 136:lib/GD32F3x0/Source/gd32f3x0_cmp.c ****         /* output polarity */
 247              		.loc 1 136 9 is_stmt 1 view .LVU73
 136:lib/GD32F3x0/Source/gd32f3x0_cmp.c ****         /* output polarity */
 248              		.loc 1 136 20 is_stmt 0 view .LVU74
 249 0034 0906     		lsls	r1, r1, #24
 250              	.LVL29:
 136:lib/GD32F3x0/Source/gd32f3x0_cmp.c ****         /* output polarity */
 251              		.loc 1 136 20 view .LVU75
 252 0036 01F0E061 		and	r1, r1, #117440512
 136:lib/GD32F3x0/Source/gd32f3x0_cmp.c ****         /* output polarity */
 253              		.loc 1 136 17 view .LVU76
 254 003a 1943     		orrs	r1, r1, r3
 255              	.LVL30:
 138:lib/GD32F3x0/Source/gd32f3x0_cmp.c ****             CMPx_CS |= CMP_CS_CMP1PL;
 256              		.loc 1 138 9 is_stmt 1 view .LVU77
 138:lib/GD32F3x0/Source/gd32f3x0_cmp.c ****             CMPx_CS |= CMP_CS_CMP1PL;
 257              		.loc 1 138 11 is_stmt 0 view .LVU78
 258 003c 012A     		cmp	r2, #1
 259 003e 04D0     		beq	.L19
 141:lib/GD32F3x0/Source/gd32f3x0_cmp.c ****         }
 260              		.loc 1 141 13 is_stmt 1 view .LVU79
 141:lib/GD32F3x0/Source/gd32f3x0_cmp.c ****         }
 261              		.loc 1 141 21 is_stmt 0 view .LVU80
 262 0040 21F00061 		bic	r1, r1, #134217728
 263              	.LVL31:
 264              	.L16:
 143:lib/GD32F3x0/Source/gd32f3x0_cmp.c ****     }
 265              		.loc 1 143 9 is_stmt 1 view .LVU81
 143:lib/GD32F3x0/Source/gd32f3x0_cmp.c ****     }
 266              		.loc 1 143 16 is_stmt 0 view .LVU82
 267 0044 024B     		ldr	r3, .L20
 268 0046 D961     		str	r1, [r3, #28]
 269              		.loc 1 145 1 view .LVU83
 270 0048 EFE7     		b	.L10
 271              	.L19:
 139:lib/GD32F3x0/Source/gd32f3x0_cmp.c ****         } else {
 272              		.loc 1 139 13 is_stmt 1 view .LVU84
 139:lib/GD32F3x0/Source/gd32f3x0_cmp.c ****         } else {
 273              		.loc 1 139 21 is_stmt 0 view .LVU85
 274 004a 41F00061 		orr	r1, r1, #134217728
 275              	.LVL32:
 139:lib/GD32F3x0/Source/gd32f3x0_cmp.c ****         } else {
 276              		.loc 1 139 21 view .LVU86
 277 004e F9E7     		b	.L16
 278              	.L21:
 279              		.align	2
ARM GAS  /var/folders/_f/88qcw_5n2jl40jjphvxyt7wh0000gn/T//ccwIXLm8.s 			page 9


 280              	.L20:
 281 0050 00000140 		.word	1073807360
 282              		.cfi_endproc
 283              	.LFE118:
 285              		.section	.text.cmp_enable,"ax",%progbits
 286              		.align	1
 287              		.global	cmp_enable
 288              		.syntax unified
 289              		.thumb
 290              		.thumb_func
 292              	cmp_enable:
 293              	.LVL33:
 294              	.LFB119:
 146:lib/GD32F3x0/Source/gd32f3x0_cmp.c **** 
 147:lib/GD32F3x0/Source/gd32f3x0_cmp.c **** /*!
 148:lib/GD32F3x0/Source/gd32f3x0_cmp.c ****     \brief      enable comparator
 149:lib/GD32F3x0/Source/gd32f3x0_cmp.c ****     \param[in]  cmp_periph
 150:lib/GD32F3x0/Source/gd32f3x0_cmp.c ****       \arg        CMP0: comparator 0
 151:lib/GD32F3x0/Source/gd32f3x0_cmp.c ****       \arg        CMP1: comparator 1
 152:lib/GD32F3x0/Source/gd32f3x0_cmp.c ****     \param[out] none
 153:lib/GD32F3x0/Source/gd32f3x0_cmp.c ****     \retval     none
 154:lib/GD32F3x0/Source/gd32f3x0_cmp.c **** */
 155:lib/GD32F3x0/Source/gd32f3x0_cmp.c **** void cmp_enable(uint32_t cmp_periph)
 156:lib/GD32F3x0/Source/gd32f3x0_cmp.c **** {
 295              		.loc 1 156 1 is_stmt 1 view -0
 296              		.cfi_startproc
 297              		@ args = 0, pretend = 0, frame = 0
 298              		@ frame_needed = 0, uses_anonymous_args = 0
 299              		@ link register save eliminated.
 157:lib/GD32F3x0/Source/gd32f3x0_cmp.c ****     if(CMP0 == cmp_periph) {
 300              		.loc 1 157 5 view .LVU88
 301              		.loc 1 157 7 is_stmt 0 view .LVU89
 302 0000 28B9     		cbnz	r0, .L23
 158:lib/GD32F3x0/Source/gd32f3x0_cmp.c ****         CMP_CS |= CMP_CS_CMP0EN;
 303              		.loc 1 158 9 is_stmt 1 view .LVU90
 304              		.loc 1 158 16 is_stmt 0 view .LVU91
 305 0002 064A     		ldr	r2, .L25
 306 0004 D369     		ldr	r3, [r2, #28]
 307 0006 43F00103 		orr	r3, r3, #1
 308 000a D361     		str	r3, [r2, #28]
 309 000c 7047     		bx	lr
 310              	.L23:
 159:lib/GD32F3x0/Source/gd32f3x0_cmp.c ****     } else {
 160:lib/GD32F3x0/Source/gd32f3x0_cmp.c ****         CMP_CS |= CMP_CS_CMP1EN;
 311              		.loc 1 160 9 is_stmt 1 view .LVU92
 312              		.loc 1 160 16 is_stmt 0 view .LVU93
 313 000e 034A     		ldr	r2, .L25
 314 0010 D369     		ldr	r3, [r2, #28]
 315 0012 43F48033 		orr	r3, r3, #65536
 316 0016 D361     		str	r3, [r2, #28]
 161:lib/GD32F3x0/Source/gd32f3x0_cmp.c ****     }
 162:lib/GD32F3x0/Source/gd32f3x0_cmp.c **** }
 317              		.loc 1 162 1 view .LVU94
 318 0018 7047     		bx	lr
 319              	.L26:
 320 001a 00BF     		.align	2
 321              	.L25:
ARM GAS  /var/folders/_f/88qcw_5n2jl40jjphvxyt7wh0000gn/T//ccwIXLm8.s 			page 10


 322 001c 00000140 		.word	1073807360
 323              		.cfi_endproc
 324              	.LFE119:
 326              		.section	.text.cmp_disable,"ax",%progbits
 327              		.align	1
 328              		.global	cmp_disable
 329              		.syntax unified
 330              		.thumb
 331              		.thumb_func
 333              	cmp_disable:
 334              	.LVL34:
 335              	.LFB120:
 163:lib/GD32F3x0/Source/gd32f3x0_cmp.c **** 
 164:lib/GD32F3x0/Source/gd32f3x0_cmp.c **** /*!
 165:lib/GD32F3x0/Source/gd32f3x0_cmp.c ****     \brief      disable comparator
 166:lib/GD32F3x0/Source/gd32f3x0_cmp.c ****     \param[in]  cmp_periph
 167:lib/GD32F3x0/Source/gd32f3x0_cmp.c ****       \arg        CMP0: comparator 0
 168:lib/GD32F3x0/Source/gd32f3x0_cmp.c ****       \arg        CMP1: comparator 1
 169:lib/GD32F3x0/Source/gd32f3x0_cmp.c ****     \param[out] none
 170:lib/GD32F3x0/Source/gd32f3x0_cmp.c ****     \retval     none
 171:lib/GD32F3x0/Source/gd32f3x0_cmp.c **** */
 172:lib/GD32F3x0/Source/gd32f3x0_cmp.c **** void cmp_disable(uint32_t cmp_periph)
 173:lib/GD32F3x0/Source/gd32f3x0_cmp.c **** {
 336              		.loc 1 173 1 is_stmt 1 view -0
 337              		.cfi_startproc
 338              		@ args = 0, pretend = 0, frame = 0
 339              		@ frame_needed = 0, uses_anonymous_args = 0
 340              		@ link register save eliminated.
 174:lib/GD32F3x0/Source/gd32f3x0_cmp.c ****     if(CMP0 == cmp_periph) {
 341              		.loc 1 174 5 view .LVU96
 342              		.loc 1 174 7 is_stmt 0 view .LVU97
 343 0000 28B9     		cbnz	r0, .L28
 175:lib/GD32F3x0/Source/gd32f3x0_cmp.c ****         CMP_CS &= ~CMP_CS_CMP0EN;
 344              		.loc 1 175 9 is_stmt 1 view .LVU98
 345              		.loc 1 175 16 is_stmt 0 view .LVU99
 346 0002 064A     		ldr	r2, .L30
 347 0004 D369     		ldr	r3, [r2, #28]
 348 0006 23F00103 		bic	r3, r3, #1
 349 000a D361     		str	r3, [r2, #28]
 350 000c 7047     		bx	lr
 351              	.L28:
 176:lib/GD32F3x0/Source/gd32f3x0_cmp.c ****     } else {
 177:lib/GD32F3x0/Source/gd32f3x0_cmp.c ****         CMP_CS &= ~CMP_CS_CMP1EN;
 352              		.loc 1 177 9 is_stmt 1 view .LVU100
 353              		.loc 1 177 16 is_stmt 0 view .LVU101
 354 000e 034A     		ldr	r2, .L30
 355 0010 D369     		ldr	r3, [r2, #28]
 356 0012 23F48033 		bic	r3, r3, #65536
 357 0016 D361     		str	r3, [r2, #28]
 178:lib/GD32F3x0/Source/gd32f3x0_cmp.c ****     }
 179:lib/GD32F3x0/Source/gd32f3x0_cmp.c **** }
 358              		.loc 1 179 1 view .LVU102
 359 0018 7047     		bx	lr
 360              	.L31:
 361 001a 00BF     		.align	2
 362              	.L30:
 363 001c 00000140 		.word	1073807360
ARM GAS  /var/folders/_f/88qcw_5n2jl40jjphvxyt7wh0000gn/T//ccwIXLm8.s 			page 11


 364              		.cfi_endproc
 365              	.LFE120:
 367              		.section	.text.cmp_switch_enable,"ax",%progbits
 368              		.align	1
 369              		.global	cmp_switch_enable
 370              		.syntax unified
 371              		.thumb
 372              		.thumb_func
 374              	cmp_switch_enable:
 375              	.LFB121:
 180:lib/GD32F3x0/Source/gd32f3x0_cmp.c **** 
 181:lib/GD32F3x0/Source/gd32f3x0_cmp.c **** /*!
 182:lib/GD32F3x0/Source/gd32f3x0_cmp.c ****     \brief      enable comparator switch
 183:lib/GD32F3x0/Source/gd32f3x0_cmp.c ****     \param[in]  none
 184:lib/GD32F3x0/Source/gd32f3x0_cmp.c ****     \param[out] none
 185:lib/GD32F3x0/Source/gd32f3x0_cmp.c ****     \retval     none
 186:lib/GD32F3x0/Source/gd32f3x0_cmp.c **** */
 187:lib/GD32F3x0/Source/gd32f3x0_cmp.c **** void cmp_switch_enable(void)
 188:lib/GD32F3x0/Source/gd32f3x0_cmp.c **** {
 376              		.loc 1 188 1 is_stmt 1 view -0
 377              		.cfi_startproc
 378              		@ args = 0, pretend = 0, frame = 0
 379              		@ frame_needed = 0, uses_anonymous_args = 0
 380              		@ link register save eliminated.
 189:lib/GD32F3x0/Source/gd32f3x0_cmp.c ****     CMP_CS |= CMP_CS_CMP0SW;
 381              		.loc 1 189 5 view .LVU104
 382              		.loc 1 189 12 is_stmt 0 view .LVU105
 383 0000 024A     		ldr	r2, .L33
 384 0002 D369     		ldr	r3, [r2, #28]
 385 0004 43F00203 		orr	r3, r3, #2
 386 0008 D361     		str	r3, [r2, #28]
 190:lib/GD32F3x0/Source/gd32f3x0_cmp.c **** }
 387              		.loc 1 190 1 view .LVU106
 388 000a 7047     		bx	lr
 389              	.L34:
 390              		.align	2
 391              	.L33:
 392 000c 00000140 		.word	1073807360
 393              		.cfi_endproc
 394              	.LFE121:
 396              		.section	.text.cmp_switch_disable,"ax",%progbits
 397              		.align	1
 398              		.global	cmp_switch_disable
 399              		.syntax unified
 400              		.thumb
 401              		.thumb_func
 403              	cmp_switch_disable:
 404              	.LFB122:
 191:lib/GD32F3x0/Source/gd32f3x0_cmp.c **** 
 192:lib/GD32F3x0/Source/gd32f3x0_cmp.c **** /*!
 193:lib/GD32F3x0/Source/gd32f3x0_cmp.c ****     \brief      disable comparator switch
 194:lib/GD32F3x0/Source/gd32f3x0_cmp.c ****     \param[in]  none
 195:lib/GD32F3x0/Source/gd32f3x0_cmp.c ****     \param[out] none
 196:lib/GD32F3x0/Source/gd32f3x0_cmp.c ****     \retval     none
 197:lib/GD32F3x0/Source/gd32f3x0_cmp.c **** */
 198:lib/GD32F3x0/Source/gd32f3x0_cmp.c **** void cmp_switch_disable(void)
 199:lib/GD32F3x0/Source/gd32f3x0_cmp.c **** {
ARM GAS  /var/folders/_f/88qcw_5n2jl40jjphvxyt7wh0000gn/T//ccwIXLm8.s 			page 12


 405              		.loc 1 199 1 is_stmt 1 view -0
 406              		.cfi_startproc
 407              		@ args = 0, pretend = 0, frame = 0
 408              		@ frame_needed = 0, uses_anonymous_args = 0
 409              		@ link register save eliminated.
 200:lib/GD32F3x0/Source/gd32f3x0_cmp.c ****     CMP_CS &= ~CMP_CS_CMP0SW;
 410              		.loc 1 200 5 view .LVU108
 411              		.loc 1 200 12 is_stmt 0 view .LVU109
 412 0000 024A     		ldr	r2, .L36
 413 0002 D369     		ldr	r3, [r2, #28]
 414 0004 23F00203 		bic	r3, r3, #2
 415 0008 D361     		str	r3, [r2, #28]
 201:lib/GD32F3x0/Source/gd32f3x0_cmp.c **** }
 416              		.loc 1 201 1 view .LVU110
 417 000a 7047     		bx	lr
 418              	.L37:
 419              		.align	2
 420              	.L36:
 421 000c 00000140 		.word	1073807360
 422              		.cfi_endproc
 423              	.LFE122:
 425              		.section	.text.cmp_window_enable,"ax",%progbits
 426              		.align	1
 427              		.global	cmp_window_enable
 428              		.syntax unified
 429              		.thumb
 430              		.thumb_func
 432              	cmp_window_enable:
 433              	.LFB123:
 202:lib/GD32F3x0/Source/gd32f3x0_cmp.c **** 
 203:lib/GD32F3x0/Source/gd32f3x0_cmp.c **** /*!
 204:lib/GD32F3x0/Source/gd32f3x0_cmp.c ****     \brief      enable the window mode
 205:lib/GD32F3x0/Source/gd32f3x0_cmp.c ****     \param[in]  none
 206:lib/GD32F3x0/Source/gd32f3x0_cmp.c ****     \param[out] none
 207:lib/GD32F3x0/Source/gd32f3x0_cmp.c ****     \retval     none
 208:lib/GD32F3x0/Source/gd32f3x0_cmp.c **** */
 209:lib/GD32F3x0/Source/gd32f3x0_cmp.c **** void cmp_window_enable(void)
 210:lib/GD32F3x0/Source/gd32f3x0_cmp.c **** {
 434              		.loc 1 210 1 is_stmt 1 view -0
 435              		.cfi_startproc
 436              		@ args = 0, pretend = 0, frame = 0
 437              		@ frame_needed = 0, uses_anonymous_args = 0
 438              		@ link register save eliminated.
 211:lib/GD32F3x0/Source/gd32f3x0_cmp.c ****     CMP_CS |= CMP_CS_WNDEN;
 439              		.loc 1 211 5 view .LVU112
 440              		.loc 1 211 12 is_stmt 0 view .LVU113
 441 0000 024A     		ldr	r2, .L39
 442 0002 D369     		ldr	r3, [r2, #28]
 443 0004 43F40003 		orr	r3, r3, #8388608
 444 0008 D361     		str	r3, [r2, #28]
 212:lib/GD32F3x0/Source/gd32f3x0_cmp.c **** }
 445              		.loc 1 212 1 view .LVU114
 446 000a 7047     		bx	lr
 447              	.L40:
 448              		.align	2
 449              	.L39:
 450 000c 00000140 		.word	1073807360
ARM GAS  /var/folders/_f/88qcw_5n2jl40jjphvxyt7wh0000gn/T//ccwIXLm8.s 			page 13


 451              		.cfi_endproc
 452              	.LFE123:
 454              		.section	.text.cmp_window_disable,"ax",%progbits
 455              		.align	1
 456              		.global	cmp_window_disable
 457              		.syntax unified
 458              		.thumb
 459              		.thumb_func
 461              	cmp_window_disable:
 462              	.LFB124:
 213:lib/GD32F3x0/Source/gd32f3x0_cmp.c **** 
 214:lib/GD32F3x0/Source/gd32f3x0_cmp.c **** /*!
 215:lib/GD32F3x0/Source/gd32f3x0_cmp.c ****     \brief      disable the window mode
 216:lib/GD32F3x0/Source/gd32f3x0_cmp.c ****     \param[in]  none
 217:lib/GD32F3x0/Source/gd32f3x0_cmp.c ****     \param[out] none
 218:lib/GD32F3x0/Source/gd32f3x0_cmp.c ****     \retval     none
 219:lib/GD32F3x0/Source/gd32f3x0_cmp.c **** */
 220:lib/GD32F3x0/Source/gd32f3x0_cmp.c **** void cmp_window_disable(void)
 221:lib/GD32F3x0/Source/gd32f3x0_cmp.c **** {
 463              		.loc 1 221 1 is_stmt 1 view -0
 464              		.cfi_startproc
 465              		@ args = 0, pretend = 0, frame = 0
 466              		@ frame_needed = 0, uses_anonymous_args = 0
 467              		@ link register save eliminated.
 222:lib/GD32F3x0/Source/gd32f3x0_cmp.c ****     CMP_CS &= ~CMP_CS_WNDEN;
 468              		.loc 1 222 5 view .LVU116
 469              		.loc 1 222 12 is_stmt 0 view .LVU117
 470 0000 024A     		ldr	r2, .L42
 471 0002 D369     		ldr	r3, [r2, #28]
 472 0004 23F40003 		bic	r3, r3, #8388608
 473 0008 D361     		str	r3, [r2, #28]
 223:lib/GD32F3x0/Source/gd32f3x0_cmp.c **** }
 474              		.loc 1 223 1 view .LVU118
 475 000a 7047     		bx	lr
 476              	.L43:
 477              		.align	2
 478              	.L42:
 479 000c 00000140 		.word	1073807360
 480              		.cfi_endproc
 481              	.LFE124:
 483              		.section	.text.cmp_lock_enable,"ax",%progbits
 484              		.align	1
 485              		.global	cmp_lock_enable
 486              		.syntax unified
 487              		.thumb
 488              		.thumb_func
 490              	cmp_lock_enable:
 491              	.LVL35:
 492              	.LFB125:
 224:lib/GD32F3x0/Source/gd32f3x0_cmp.c **** 
 225:lib/GD32F3x0/Source/gd32f3x0_cmp.c **** /*!
 226:lib/GD32F3x0/Source/gd32f3x0_cmp.c ****     \brief      lock the comparator
 227:lib/GD32F3x0/Source/gd32f3x0_cmp.c ****     \param[in]  cmp_periph
 228:lib/GD32F3x0/Source/gd32f3x0_cmp.c ****       \arg        CMP0: comparator 0
 229:lib/GD32F3x0/Source/gd32f3x0_cmp.c ****       \arg        CMP1: comparator 1
 230:lib/GD32F3x0/Source/gd32f3x0_cmp.c ****     \param[out] none
 231:lib/GD32F3x0/Source/gd32f3x0_cmp.c ****     \retval     none
ARM GAS  /var/folders/_f/88qcw_5n2jl40jjphvxyt7wh0000gn/T//ccwIXLm8.s 			page 14


 232:lib/GD32F3x0/Source/gd32f3x0_cmp.c **** */
 233:lib/GD32F3x0/Source/gd32f3x0_cmp.c **** void cmp_lock_enable(uint32_t cmp_periph)
 234:lib/GD32F3x0/Source/gd32f3x0_cmp.c **** {
 493              		.loc 1 234 1 is_stmt 1 view -0
 494              		.cfi_startproc
 495              		@ args = 0, pretend = 0, frame = 0
 496              		@ frame_needed = 0, uses_anonymous_args = 0
 497              		@ link register save eliminated.
 235:lib/GD32F3x0/Source/gd32f3x0_cmp.c ****     if(CMP0 == cmp_periph) {
 498              		.loc 1 235 5 view .LVU120
 499              		.loc 1 235 7 is_stmt 0 view .LVU121
 500 0000 28B9     		cbnz	r0, .L45
 236:lib/GD32F3x0/Source/gd32f3x0_cmp.c ****         /* lock CMP0 */
 237:lib/GD32F3x0/Source/gd32f3x0_cmp.c ****         CMP_CS |= CMP_CS_CMP0LK;
 501              		.loc 1 237 9 is_stmt 1 view .LVU122
 502              		.loc 1 237 16 is_stmt 0 view .LVU123
 503 0002 064A     		ldr	r2, .L47
 504 0004 D369     		ldr	r3, [r2, #28]
 505 0006 43F40043 		orr	r3, r3, #32768
 506 000a D361     		str	r3, [r2, #28]
 507 000c 7047     		bx	lr
 508              	.L45:
 238:lib/GD32F3x0/Source/gd32f3x0_cmp.c ****     } else {
 239:lib/GD32F3x0/Source/gd32f3x0_cmp.c ****         /* lock CMP1 */
 240:lib/GD32F3x0/Source/gd32f3x0_cmp.c ****         CMP_CS |= CMP_CS_CMP1LK;
 509              		.loc 1 240 9 is_stmt 1 view .LVU124
 510              		.loc 1 240 16 is_stmt 0 view .LVU125
 511 000e 034A     		ldr	r2, .L47
 512 0010 D369     		ldr	r3, [r2, #28]
 513 0012 43F00043 		orr	r3, r3, #-2147483648
 514 0016 D361     		str	r3, [r2, #28]
 241:lib/GD32F3x0/Source/gd32f3x0_cmp.c ****     }
 242:lib/GD32F3x0/Source/gd32f3x0_cmp.c **** }
 515              		.loc 1 242 1 view .LVU126
 516 0018 7047     		bx	lr
 517              	.L48:
 518 001a 00BF     		.align	2
 519              	.L47:
 520 001c 00000140 		.word	1073807360
 521              		.cfi_endproc
 522              	.LFE125:
 524              		.section	.text.cmp_output_level_get,"ax",%progbits
 525              		.align	1
 526              		.global	cmp_output_level_get
 527              		.syntax unified
 528              		.thumb
 529              		.thumb_func
 531              	cmp_output_level_get:
 532              	.LVL36:
 533              	.LFB126:
 243:lib/GD32F3x0/Source/gd32f3x0_cmp.c **** 
 244:lib/GD32F3x0/Source/gd32f3x0_cmp.c **** /*!
 245:lib/GD32F3x0/Source/gd32f3x0_cmp.c ****     \brief      get output level
 246:lib/GD32F3x0/Source/gd32f3x0_cmp.c ****     \param[in]  cmp_periph
 247:lib/GD32F3x0/Source/gd32f3x0_cmp.c ****       \arg        CMP0: comparator 0
 248:lib/GD32F3x0/Source/gd32f3x0_cmp.c ****       \arg        CMP1: comparator 1
 249:lib/GD32F3x0/Source/gd32f3x0_cmp.c ****     \param[out] none
ARM GAS  /var/folders/_f/88qcw_5n2jl40jjphvxyt7wh0000gn/T//ccwIXLm8.s 			page 15


 250:lib/GD32F3x0/Source/gd32f3x0_cmp.c ****     \retval     the output level
 251:lib/GD32F3x0/Source/gd32f3x0_cmp.c **** */
 252:lib/GD32F3x0/Source/gd32f3x0_cmp.c **** uint32_t cmp_output_level_get(uint32_t cmp_periph)
 253:lib/GD32F3x0/Source/gd32f3x0_cmp.c **** {
 534              		.loc 1 253 1 is_stmt 1 view -0
 535              		.cfi_startproc
 536              		@ args = 0, pretend = 0, frame = 0
 537              		@ frame_needed = 0, uses_anonymous_args = 0
 538              		@ link register save eliminated.
 254:lib/GD32F3x0/Source/gd32f3x0_cmp.c ****     if(CMP0 == cmp_periph) {
 539              		.loc 1 254 5 view .LVU128
 540              		.loc 1 254 7 is_stmt 0 view .LVU129
 541 0000 30B9     		cbnz	r0, .L50
 255:lib/GD32F3x0/Source/gd32f3x0_cmp.c ****         /* get output level of CMP0 */
 256:lib/GD32F3x0/Source/gd32f3x0_cmp.c ****         if(CMP_CS & CMP_CS_CMP0O) {
 542              		.loc 1 256 9 is_stmt 1 view .LVU130
 543              		.loc 1 256 12 is_stmt 0 view .LVU131
 544 0002 074B     		ldr	r3, .L52
 545 0004 D869     		ldr	r0, [r3, #28]
 546              	.LVL37:
 547              		.loc 1 256 11 view .LVU132
 548 0006 10F48040 		ands	r0, r0, #16384
 549 000a 07D0     		beq	.L49
 257:lib/GD32F3x0/Source/gd32f3x0_cmp.c ****             return CMP_OUTPUTLEVEL_HIGH;
 550              		.loc 1 257 20 view .LVU133
 551 000c 0120     		movs	r0, #1
 552 000e 7047     		bx	lr
 553              	.LVL38:
 554              	.L50:
 258:lib/GD32F3x0/Source/gd32f3x0_cmp.c ****         } else {
 259:lib/GD32F3x0/Source/gd32f3x0_cmp.c ****             return CMP_OUTPUTLEVEL_LOW;
 260:lib/GD32F3x0/Source/gd32f3x0_cmp.c ****         }
 261:lib/GD32F3x0/Source/gd32f3x0_cmp.c ****     } else {
 262:lib/GD32F3x0/Source/gd32f3x0_cmp.c ****         /* get output level of CMP1 */
 263:lib/GD32F3x0/Source/gd32f3x0_cmp.c ****         if(CMP_CS & CMP_CS_CMP1O) {
 555              		.loc 1 263 9 is_stmt 1 view .LVU134
 556              		.loc 1 263 12 is_stmt 0 view .LVU135
 557 0010 034B     		ldr	r3, .L52
 558 0012 D869     		ldr	r0, [r3, #28]
 559              	.LVL39:
 560              		.loc 1 263 11 view .LVU136
 561 0014 10F08040 		ands	r0, r0, #1073741824
 562 0018 00D0     		beq	.L49
 264:lib/GD32F3x0/Source/gd32f3x0_cmp.c ****             return CMP_OUTPUTLEVEL_HIGH;
 563              		.loc 1 264 20 view .LVU137
 564 001a 0120     		movs	r0, #1
 565              	.L49:
 265:lib/GD32F3x0/Source/gd32f3x0_cmp.c ****         } else {
 266:lib/GD32F3x0/Source/gd32f3x0_cmp.c ****             return CMP_OUTPUTLEVEL_LOW;
 267:lib/GD32F3x0/Source/gd32f3x0_cmp.c ****         }
 268:lib/GD32F3x0/Source/gd32f3x0_cmp.c ****     }
 269:lib/GD32F3x0/Source/gd32f3x0_cmp.c **** }
 566              		.loc 1 269 1 view .LVU138
 567 001c 7047     		bx	lr
 568              	.L53:
 569 001e 00BF     		.align	2
 570              	.L52:
ARM GAS  /var/folders/_f/88qcw_5n2jl40jjphvxyt7wh0000gn/T//ccwIXLm8.s 			page 16


 571 0020 00000140 		.word	1073807360
 572              		.cfi_endproc
 573              	.LFE126:
 575              		.text
 576              	.Letext0:
 577              		.file 2 "/Applications/ARM/arm-none-eabi/include/machine/_default_types.h"
 578              		.file 3 "/Applications/ARM/arm-none-eabi/include/sys/_stdint.h"
 579              		.file 4 "lib/GD32F3x0/Include/gd32f3x0_cmp.h"
ARM GAS  /var/folders/_f/88qcw_5n2jl40jjphvxyt7wh0000gn/T//ccwIXLm8.s 			page 17

