ARM GAS  /var/folders/_f/88qcw_5n2jl40jjphvxyt7wh0000gn/T//cccQmFFs.s 			page 1


   1              		.cpu cortex-m4
   2              		.arch armv7e-m
   3              		.fpu softvfp
   4              		.eabi_attribute 20, 1
   5              		.eabi_attribute 21, 1
   6              		.eabi_attribute 23, 3
   7              		.eabi_attribute 24, 1
   8              		.eabi_attribute 25, 1
   9              		.eabi_attribute 26, 1
  10              		.eabi_attribute 30, 1
  11              		.eabi_attribute 34, 1
  12              		.eabi_attribute 18, 4
  13              		.file	"main.c"
  14              		.text
  15              	.Ltext0:
  16              		.cfi_sections	.debug_frame
  17              		.section	.text.init_pin_out,"ax",%progbits
  18              		.align	1
  19              		.global	init_pin_out
  20              		.syntax unified
  21              		.thumb
  22              		.thumb_func
  24              	init_pin_out:
  25              	.LVL0:
  26              	.LFB116:
  27              		.file 1 "main.c"
   1:main.c        **** #include <stdint.h>
   2:main.c        **** 
   3:main.c        **** #include "gd32f3x0.h"
   4:main.c        **** #include "gd32f3x0_gpio.h"
   5:main.c        **** #include "gd32f3x0_rcu.h"
   6:main.c        **** 
   7:main.c        **** void init_pin_out(uint32_t port, uint32_t pin) { 
  28              		.loc 1 7 48 view -0
  29              		.cfi_startproc
  30              		@ args = 0, pretend = 0, frame = 0
  31              		@ frame_needed = 0, uses_anonymous_args = 0
  32              		.loc 1 7 48 is_stmt 0 view .LVU1
  33 0000 38B5     		push	{r3, r4, r5, lr}
  34              	.LCFI0:
  35              		.cfi_def_cfa_offset 16
  36              		.cfi_offset 3, -16
  37              		.cfi_offset 4, -12
  38              		.cfi_offset 5, -8
  39              		.cfi_offset 14, -4
  40 0002 0546     		mov	r5, r0
  41 0004 0C46     		mov	r4, r1
   8:main.c        **** 	gpio_mode_set(port, GPIO_MODE_OUTPUT, GPIO_PUPD_NONE, BIT(pin));
  42              		.loc 1 8 2 is_stmt 1 view .LVU2
  43 0006 0121     		movs	r1, #1
  44              	.LVL1:
  45              		.loc 1 8 2 is_stmt 0 view .LVU3
  46 0008 01FA04F4 		lsl	r4, r1, r4
  47              	.LVL2:
  48              		.loc 1 8 2 view .LVU4
  49 000c 2346     		mov	r3, r4
  50 000e 0022     		movs	r2, #0
ARM GAS  /var/folders/_f/88qcw_5n2jl40jjphvxyt7wh0000gn/T//cccQmFFs.s 			page 2


  51 0010 FFF7FEFF 		bl	gpio_mode_set
  52              	.LVL3:
   9:main.c        ****   gpio_output_options_set(port, GPIO_OTYPE_PP, GPIO_OSPEED_50MHZ, BIT(pin));
  53              		.loc 1 9 3 is_stmt 1 view .LVU5
  54 0014 2346     		mov	r3, r4
  55 0016 0322     		movs	r2, #3
  56 0018 0021     		movs	r1, #0
  57 001a 2846     		mov	r0, r5
  58 001c FFF7FEFF 		bl	gpio_output_options_set
  59              	.LVL4:
  10:main.c        **** 	
  11:main.c        **** }
  60              		.loc 1 11 1 is_stmt 0 view .LVU6
  61 0020 38BD     		pop	{r3, r4, r5, pc}
  62              		.loc 1 11 1 view .LVU7
  63              		.cfi_endproc
  64              	.LFE116:
  66              		.section	.text.main,"ax",%progbits
  67              		.align	1
  68              		.global	main
  69              		.syntax unified
  70              		.thumb
  71              		.thumb_func
  73              	main:
  74              	.LFB117:
  12:main.c        **** 
  13:main.c        **** int main() {
  75              		.loc 1 13 12 is_stmt 1 view -0
  76              		.cfi_startproc
  77              		@ args = 0, pretend = 0, frame = 0
  78              		@ frame_needed = 0, uses_anonymous_args = 0
  79 0000 08B5     		push	{r3, lr}
  80              	.LCFI1:
  81              		.cfi_def_cfa_offset 8
  82              		.cfi_offset 3, -8
  83              		.cfi_offset 14, -4
  14:main.c        ****   rcu_periph_clock_enable(RCU_GPIOA);
  84              		.loc 1 14 3 view .LVU9
  85 0002 40F21150 		movw	r0, #1297
  86 0006 FFF7FEFF 		bl	rcu_periph_clock_enable
  87              	.LVL5:
  15:main.c        ****   rcu_periph_clock_enable(RCU_GPIOB);
  88              		.loc 1 15 3 view .LVU10
  89 000a 40F21250 		movw	r0, #1298
  90 000e FFF7FEFF 		bl	rcu_periph_clock_enable
  91              	.LVL6:
  16:main.c        ****   gpio_mode_set(GPIOA, GPIO_MODE_OUTPUT, GPIO_PUPD_PULLDOWN, GPIO_PIN_5);
  92              		.loc 1 16 3 view .LVU11
  93 0012 2023     		movs	r3, #32
  94 0014 0222     		movs	r2, #2
  95 0016 0121     		movs	r1, #1
  96 0018 4FF09040 		mov	r0, #1207959552
  97 001c FFF7FEFF 		bl	gpio_mode_set
  98              	.LVL7:
  17:main.c        ****   gpio_output_options_set(GPIOA, GPIO_OTYPE_PP, GPIO_OSPEED_50MHZ, GPIO_PIN_5);
  99              		.loc 1 17 3 view .LVU12
 100 0020 2023     		movs	r3, #32
ARM GAS  /var/folders/_f/88qcw_5n2jl40jjphvxyt7wh0000gn/T//cccQmFFs.s 			page 3


 101 0022 0322     		movs	r2, #3
 102 0024 0021     		movs	r1, #0
 103 0026 4FF09040 		mov	r0, #1207959552
 104 002a FFF7FEFF 		bl	gpio_output_options_set
 105              	.LVL8:
  18:main.c        **** 	gpio_mode_set(GPIOA, GPIO_MODE_OUTPUT, GPIO_PUPD_PULLDOWN, GPIO_PIN_7);
 106              		.loc 1 18 2 view .LVU13
 107 002e 8023     		movs	r3, #128
 108 0030 0222     		movs	r2, #2
 109 0032 0121     		movs	r1, #1
 110 0034 4FF09040 		mov	r0, #1207959552
 111 0038 FFF7FEFF 		bl	gpio_mode_set
 112              	.LVL9:
  19:main.c        ****   gpio_output_options_set(GPIOA, GPIO_OTYPE_PP, GPIO_OSPEED_50MHZ, GPIO_PIN_7);
 113              		.loc 1 19 3 view .LVU14
 114 003c 8023     		movs	r3, #128
 115 003e 0322     		movs	r2, #3
 116 0040 0021     		movs	r1, #0
 117 0042 4FF09040 		mov	r0, #1207959552
 118 0046 FFF7FEFF 		bl	gpio_output_options_set
 119              	.LVL10:
 120 004a 24E0     		b	.L12
 121              	.LVL11:
 122              	.L5:
 123              	.LBB2:
  20:main.c        ****   while (1) {
  21:main.c        ****     gpio_bit_set(GPIOA, GPIO_PIN_5);
  22:main.c        **** 		for (uint32_t x = 0; x < 20000000; x++)
  23:main.c        **** 			;
 124              		.loc 1 23 4 discriminator 3 view .LVU15
  22:main.c        **** 			;
 125              		.loc 1 22 38 discriminator 3 view .LVU16
  22:main.c        **** 			;
 126              		.loc 1 22 39 is_stmt 0 discriminator 3 view .LVU17
 127 004c 0133     		adds	r3, r3, #1
 128              	.LVL12:
 129              	.L4:
  22:main.c        **** 			;
 130              		.loc 1 22 24 is_stmt 1 discriminator 1 view .LVU18
  22:main.c        **** 			;
 131              		.loc 1 22 3 is_stmt 0 discriminator 1 view .LVU19
 132 004e 154A     		ldr	r2, .L14
 133 0050 9342     		cmp	r3, r2
 134 0052 FBD9     		bls	.L5
 135              	.LBE2:
  24:main.c        ****     gpio_bit_reset(GPIOA, GPIO_PIN_5);
 136              		.loc 1 24 5 is_stmt 1 view .LVU20
 137 0054 2021     		movs	r1, #32
 138 0056 4FF09040 		mov	r0, #1207959552
 139 005a FFF7FEFF 		bl	gpio_bit_reset
 140              	.LVL13:
  25:main.c        ****     for (uint32_t x = 0; x < 20000000; x++)
 141              		.loc 1 25 5 view .LVU21
 142              	.LBB3:
 143              		.loc 1 25 10 view .LVU22
 144              		.loc 1 25 19 is_stmt 0 view .LVU23
 145 005e 0023     		movs	r3, #0
ARM GAS  /var/folders/_f/88qcw_5n2jl40jjphvxyt7wh0000gn/T//cccQmFFs.s 			page 4


 146              		.loc 1 25 5 view .LVU24
 147 0060 00E0     		b	.L6
 148              	.LVL14:
 149              	.L7:
  26:main.c        ****       ;
 150              		.loc 1 26 7 is_stmt 1 discriminator 3 view .LVU25
  25:main.c        ****     for (uint32_t x = 0; x < 20000000; x++)
 151              		.loc 1 25 40 discriminator 3 view .LVU26
  25:main.c        ****     for (uint32_t x = 0; x < 20000000; x++)
 152              		.loc 1 25 41 is_stmt 0 discriminator 3 view .LVU27
 153 0062 0133     		adds	r3, r3, #1
 154              	.LVL15:
 155              	.L6:
  25:main.c        ****     for (uint32_t x = 0; x < 20000000; x++)
 156              		.loc 1 25 26 is_stmt 1 discriminator 1 view .LVU28
  25:main.c        ****     for (uint32_t x = 0; x < 20000000; x++)
 157              		.loc 1 25 5 is_stmt 0 discriminator 1 view .LVU29
 158 0064 0F4A     		ldr	r2, .L14
 159 0066 9342     		cmp	r3, r2
 160 0068 FBD9     		bls	.L7
 161              	.LBE3:
  27:main.c        **** 		gpio_bit_set(GPIOA, GPIO_PIN_7);
 162              		.loc 1 27 3 is_stmt 1 view .LVU30
 163 006a 8021     		movs	r1, #128
 164 006c 4FF09040 		mov	r0, #1207959552
 165 0070 FFF7FEFF 		bl	gpio_bit_set
 166              	.LVL16:
  28:main.c        ****     for (uint32_t x = 0; x < 20000000; x++)
 167              		.loc 1 28 5 view .LVU31
 168              	.LBB4:
 169              		.loc 1 28 10 view .LVU32
 170              		.loc 1 28 19 is_stmt 0 view .LVU33
 171 0074 0023     		movs	r3, #0
 172              		.loc 1 28 5 view .LVU34
 173 0076 00E0     		b	.L8
 174              	.LVL17:
 175              	.L9:
  29:main.c        ****       ;
 176              		.loc 1 29 7 is_stmt 1 discriminator 3 view .LVU35
  28:main.c        ****     for (uint32_t x = 0; x < 20000000; x++)
 177              		.loc 1 28 40 discriminator 3 view .LVU36
  28:main.c        ****     for (uint32_t x = 0; x < 20000000; x++)
 178              		.loc 1 28 41 is_stmt 0 discriminator 3 view .LVU37
 179 0078 0133     		adds	r3, r3, #1
 180              	.LVL18:
 181              	.L8:
  28:main.c        ****     for (uint32_t x = 0; x < 20000000; x++)
 182              		.loc 1 28 26 is_stmt 1 discriminator 1 view .LVU38
  28:main.c        ****     for (uint32_t x = 0; x < 20000000; x++)
 183              		.loc 1 28 5 is_stmt 0 discriminator 1 view .LVU39
 184 007a 0A4A     		ldr	r2, .L14
 185 007c 9342     		cmp	r3, r2
 186 007e FBD9     		bls	.L9
 187              	.LBE4:
  30:main.c        ****     gpio_bit_reset(GPIOA, GPIO_PIN_7);
 188              		.loc 1 30 5 is_stmt 1 view .LVU40
 189 0080 8021     		movs	r1, #128
ARM GAS  /var/folders/_f/88qcw_5n2jl40jjphvxyt7wh0000gn/T//cccQmFFs.s 			page 5


 190 0082 4FF09040 		mov	r0, #1207959552
 191 0086 FFF7FEFF 		bl	gpio_bit_reset
 192              	.LVL19:
  31:main.c        ****     for (uint32_t x = 0; x < 20000000; x++)
 193              		.loc 1 31 5 view .LVU41
 194              	.LBB5:
 195              		.loc 1 31 10 view .LVU42
 196              		.loc 1 31 19 is_stmt 0 view .LVU43
 197 008a 0023     		movs	r3, #0
 198              		.loc 1 31 5 view .LVU44
 199 008c 00E0     		b	.L10
 200              	.LVL20:
 201              	.L11:
  32:main.c        ****       ;
 202              		.loc 1 32 7 is_stmt 1 discriminator 3 view .LVU45
  31:main.c        ****     for (uint32_t x = 0; x < 20000000; x++)
 203              		.loc 1 31 40 discriminator 3 view .LVU46
  31:main.c        ****     for (uint32_t x = 0; x < 20000000; x++)
 204              		.loc 1 31 41 is_stmt 0 discriminator 3 view .LVU47
 205 008e 0133     		adds	r3, r3, #1
 206              	.LVL21:
 207              	.L10:
  31:main.c        ****     for (uint32_t x = 0; x < 20000000; x++)
 208              		.loc 1 31 26 is_stmt 1 discriminator 1 view .LVU48
  31:main.c        ****     for (uint32_t x = 0; x < 20000000; x++)
 209              		.loc 1 31 5 is_stmt 0 discriminator 1 view .LVU49
 210 0090 044A     		ldr	r2, .L14
 211 0092 9342     		cmp	r3, r2
 212 0094 FBD9     		bls	.L11
 213              	.LVL22:
 214              	.L12:
  31:main.c        ****     for (uint32_t x = 0; x < 20000000; x++)
 215              		.loc 1 31 5 discriminator 1 view .LVU50
 216              	.LBE5:
  20:main.c        ****     gpio_bit_set(GPIOA, GPIO_PIN_5);
 217              		.loc 1 20 3 is_stmt 1 view .LVU51
  21:main.c        **** 		for (uint32_t x = 0; x < 20000000; x++)
 218              		.loc 1 21 5 view .LVU52
 219 0096 2021     		movs	r1, #32
 220 0098 4FF09040 		mov	r0, #1207959552
 221 009c FFF7FEFF 		bl	gpio_bit_set
 222              	.LVL23:
  22:main.c        **** 			;
 223              		.loc 1 22 3 view .LVU53
 224              	.LBB6:
  22:main.c        **** 			;
 225              		.loc 1 22 8 view .LVU54
  22:main.c        **** 			;
 226              		.loc 1 22 17 is_stmt 0 view .LVU55
 227 00a0 0023     		movs	r3, #0
  22:main.c        **** 			;
 228              		.loc 1 22 3 view .LVU56
 229 00a2 D4E7     		b	.L4
 230              	.L15:
 231              		.align	2
 232              	.L14:
 233 00a4 FF2C3101 		.word	19999999
ARM GAS  /var/folders/_f/88qcw_5n2jl40jjphvxyt7wh0000gn/T//cccQmFFs.s 			page 6


 234              	.LBE6:
 235              		.cfi_endproc
 236              	.LFE117:
 238              		.text
 239              	.Letext0:
 240              		.file 2 "/Applications/ARM/arm-none-eabi/include/machine/_default_types.h"
 241              		.file 3 "/Applications/ARM/arm-none-eabi/include/sys/_stdint.h"
 242              		.file 4 "lib/GD32F3x0/Include/gd32f3x0_rcu.h"
 243              		.file 5 "lib/GD32F3x0/Include/gd32f3x0_gpio.h"
ARM GAS  /var/folders/_f/88qcw_5n2jl40jjphvxyt7wh0000gn/T//cccQmFFs.s 			page 7

