ARM GAS  /var/folders/_f/88qcw_5n2jl40jjphvxyt7wh0000gn/T//cczWl83x.s 			page 1


   1              		.cpu cortex-m4
   2              		.arch armv7e-m
   3              		.fpu softvfp
   4              		.eabi_attribute 20, 1
   5              		.eabi_attribute 21, 1
   6              		.eabi_attribute 23, 3
   7              		.eabi_attribute 24, 1
   8              		.eabi_attribute 25, 1
   9              		.eabi_attribute 26, 1
  10              		.eabi_attribute 30, 2
  11              		.eabi_attribute 34, 1
  12              		.eabi_attribute 18, 4
  13              		.file	"gd32f4xx_gpio.c"
  14              		.text
  15              	.Ltext0:
  16              		.cfi_sections	.debug_frame
  17              		.section	.text.gpio_deinit,"ax",%progbits
  18              		.align	1
  19              		.p2align 2,,3
  20              		.global	gpio_deinit
  21              		.syntax unified
  22              		.thumb
  23              		.thumb_func
  25              	gpio_deinit:
  26              	.LVL0:
  27              	.LFB116:
  28              		.file 1 "../../../support/device/gd32f4xx/peripherals/src/gd32f4xx_gpio.c"
   1:../../../support/device/gd32f4xx/peripherals/src/gd32f4xx_gpio.c **** /*!
   2:../../../support/device/gd32f4xx/peripherals/src/gd32f4xx_gpio.c ****     \file    gd32f4xx_gpio.c
   3:../../../support/device/gd32f4xx/peripherals/src/gd32f4xx_gpio.c ****     \brief   GPIO driver
   4:../../../support/device/gd32f4xx/peripherals/src/gd32f4xx_gpio.c **** 
   5:../../../support/device/gd32f4xx/peripherals/src/gd32f4xx_gpio.c ****     \version 2016-08-15, V1.0.0, firmware for GD32F4xx
   6:../../../support/device/gd32f4xx/peripherals/src/gd32f4xx_gpio.c ****     \version 2018-12-12, V2.0.0, firmware for GD32F4xx
   7:../../../support/device/gd32f4xx/peripherals/src/gd32f4xx_gpio.c ****     \version 2020-09-30, V2.1.0, firmware for GD32F4xx
   8:../../../support/device/gd32f4xx/peripherals/src/gd32f4xx_gpio.c ****     \version 2022-03-09, V3.0.0, firmware for GD32F4xx
   9:../../../support/device/gd32f4xx/peripherals/src/gd32f4xx_gpio.c **** */
  10:../../../support/device/gd32f4xx/peripherals/src/gd32f4xx_gpio.c **** 
  11:../../../support/device/gd32f4xx/peripherals/src/gd32f4xx_gpio.c **** /*
  12:../../../support/device/gd32f4xx/peripherals/src/gd32f4xx_gpio.c ****     Copyright (c) 2022, GigaDevice Semiconductor Inc.
  13:../../../support/device/gd32f4xx/peripherals/src/gd32f4xx_gpio.c **** 
  14:../../../support/device/gd32f4xx/peripherals/src/gd32f4xx_gpio.c ****     Redistribution and use in source and binary forms, with or without modification,
  15:../../../support/device/gd32f4xx/peripherals/src/gd32f4xx_gpio.c **** are permitted provided that the following conditions are met:
  16:../../../support/device/gd32f4xx/peripherals/src/gd32f4xx_gpio.c **** 
  17:../../../support/device/gd32f4xx/peripherals/src/gd32f4xx_gpio.c ****     1. Redistributions of source code must retain the above copyright notice, this
  18:../../../support/device/gd32f4xx/peripherals/src/gd32f4xx_gpio.c ****        list of conditions and the following disclaimer.
  19:../../../support/device/gd32f4xx/peripherals/src/gd32f4xx_gpio.c ****     2. Redistributions in binary form must reproduce the above copyright notice,
  20:../../../support/device/gd32f4xx/peripherals/src/gd32f4xx_gpio.c ****        this list of conditions and the following disclaimer in the documentation
  21:../../../support/device/gd32f4xx/peripherals/src/gd32f4xx_gpio.c ****        and/or other materials provided with the distribution.
  22:../../../support/device/gd32f4xx/peripherals/src/gd32f4xx_gpio.c ****     3. Neither the name of the copyright holder nor the names of its contributors
  23:../../../support/device/gd32f4xx/peripherals/src/gd32f4xx_gpio.c ****        may be used to endorse or promote products derived from this software without
  24:../../../support/device/gd32f4xx/peripherals/src/gd32f4xx_gpio.c ****        specific prior written permission.
  25:../../../support/device/gd32f4xx/peripherals/src/gd32f4xx_gpio.c **** 
  26:../../../support/device/gd32f4xx/peripherals/src/gd32f4xx_gpio.c ****     THIS SOFTWARE IS PROVIDED BY THE COPYRIGHT HOLDERS AND CONTRIBUTORS "AS IS"
  27:../../../support/device/gd32f4xx/peripherals/src/gd32f4xx_gpio.c **** AND ANY EXPRESS OR IMPLIED WARRANTIES, INCLUDING, BUT NOT LIMITED TO, THE IMPLIED
  28:../../../support/device/gd32f4xx/peripherals/src/gd32f4xx_gpio.c **** WARRANTIES OF MERCHANTABILITY AND FITNESS FOR A PARTICULAR PURPOSE ARE DISCLAIMED.
  29:../../../support/device/gd32f4xx/peripherals/src/gd32f4xx_gpio.c **** IN NO EVENT SHALL THE COPYRIGHT HOLDER OR CONTRIBUTORS BE LIABLE FOR ANY DIRECT,
  30:../../../support/device/gd32f4xx/peripherals/src/gd32f4xx_gpio.c **** INDIRECT, INCIDENTAL, SPECIAL, EXEMPLARY, OR CONSEQUENTIAL DAMAGES (INCLUDING, BUT
ARM GAS  /var/folders/_f/88qcw_5n2jl40jjphvxyt7wh0000gn/T//cczWl83x.s 			page 2


  31:../../../support/device/gd32f4xx/peripherals/src/gd32f4xx_gpio.c **** NOT LIMITED TO, PROCUREMENT OF SUBSTITUTE GOODS OR SERVICES; LOSS OF USE, DATA, OR
  32:../../../support/device/gd32f4xx/peripherals/src/gd32f4xx_gpio.c **** PROFITS; OR BUSINESS INTERRUPTION) HOWEVER CAUSED AND ON ANY THEORY OF LIABILITY,
  33:../../../support/device/gd32f4xx/peripherals/src/gd32f4xx_gpio.c **** WHETHER IN CONTRACT, STRICT LIABILITY, OR TORT (INCLUDING NEGLIGENCE OR OTHERWISE)
  34:../../../support/device/gd32f4xx/peripherals/src/gd32f4xx_gpio.c **** ARISING IN ANY WAY OUT OF THE USE OF THIS SOFTWARE, EVEN IF ADVISED OF THE POSSIBILITY
  35:../../../support/device/gd32f4xx/peripherals/src/gd32f4xx_gpio.c **** OF SUCH DAMAGE.
  36:../../../support/device/gd32f4xx/peripherals/src/gd32f4xx_gpio.c **** */
  37:../../../support/device/gd32f4xx/peripherals/src/gd32f4xx_gpio.c **** 
  38:../../../support/device/gd32f4xx/peripherals/src/gd32f4xx_gpio.c **** #include "gd32f4xx_gpio.h"
  39:../../../support/device/gd32f4xx/peripherals/src/gd32f4xx_gpio.c **** 
  40:../../../support/device/gd32f4xx/peripherals/src/gd32f4xx_gpio.c **** /*!
  41:../../../support/device/gd32f4xx/peripherals/src/gd32f4xx_gpio.c ****     \brief      reset GPIO port
  42:../../../support/device/gd32f4xx/peripherals/src/gd32f4xx_gpio.c ****     \param[in]  gpio_periph: GPIO port
  43:../../../support/device/gd32f4xx/peripherals/src/gd32f4xx_gpio.c ****                 only one parameter can be selected which is shown as below:
  44:../../../support/device/gd32f4xx/peripherals/src/gd32f4xx_gpio.c ****       \arg        GPIOx(x = A,B,C,D,E,F,G,H,I)
  45:../../../support/device/gd32f4xx/peripherals/src/gd32f4xx_gpio.c ****     \param[out] none
  46:../../../support/device/gd32f4xx/peripherals/src/gd32f4xx_gpio.c ****     \retval     none
  47:../../../support/device/gd32f4xx/peripherals/src/gd32f4xx_gpio.c **** */
  48:../../../support/device/gd32f4xx/peripherals/src/gd32f4xx_gpio.c **** void gpio_deinit(uint32_t gpio_periph)
  49:../../../support/device/gd32f4xx/peripherals/src/gd32f4xx_gpio.c **** {
  29              		.loc 1 49 1 view -0
  30              		.cfi_startproc
  31              		@ args = 0, pretend = 0, frame = 0
  32              		@ frame_needed = 0, uses_anonymous_args = 0
  50:../../../support/device/gd32f4xx/peripherals/src/gd32f4xx_gpio.c ****     switch(gpio_periph) {
  33              		.loc 1 50 5 view .LVU1
  49:../../../support/device/gd32f4xx/peripherals/src/gd32f4xx_gpio.c ****     switch(gpio_periph) {
  34              		.loc 1 49 1 is_stmt 0 view .LVU2
  35 0000 08B5     		push	{r3, lr}
  36              	.LCFI0:
  37              		.cfi_def_cfa_offset 8
  38              		.cfi_offset 3, -8
  39              		.cfi_offset 14, -4
  40              		.loc 1 50 5 view .LVU3
  41 0002 3F4B     		ldr	r3, .L20
  42 0004 9842     		cmp	r0, r3
  43 0006 47D0     		beq	.L2
  44 0008 10D9     		bls	.L17
  45 000a 3E4B     		ldr	r3, .L20+4
  46 000c 9842     		cmp	r0, r3
  47 000e 4DD0     		beq	.L10
  48 0010 1ED9     		bls	.L18
  49 0012 3D4B     		ldr	r3, .L20+8
  50 0014 9842     		cmp	r0, r3
  51 0016 53D1     		bne	.L1
  51:../../../support/device/gd32f4xx/peripherals/src/gd32f4xx_gpio.c ****     case GPIOA:
  52:../../../support/device/gd32f4xx/peripherals/src/gd32f4xx_gpio.c ****         /* reset GPIOA */
  53:../../../support/device/gd32f4xx/peripherals/src/gd32f4xx_gpio.c ****         rcu_periph_reset_enable(RCU_GPIOARST);
  54:../../../support/device/gd32f4xx/peripherals/src/gd32f4xx_gpio.c ****         rcu_periph_reset_disable(RCU_GPIOARST);
  55:../../../support/device/gd32f4xx/peripherals/src/gd32f4xx_gpio.c ****         break;
  56:../../../support/device/gd32f4xx/peripherals/src/gd32f4xx_gpio.c ****     case GPIOB:
  57:../../../support/device/gd32f4xx/peripherals/src/gd32f4xx_gpio.c ****         /* reset GPIOB */
  58:../../../support/device/gd32f4xx/peripherals/src/gd32f4xx_gpio.c ****         rcu_periph_reset_enable(RCU_GPIOBRST);
  59:../../../support/device/gd32f4xx/peripherals/src/gd32f4xx_gpio.c ****         rcu_periph_reset_disable(RCU_GPIOBRST);
  60:../../../support/device/gd32f4xx/peripherals/src/gd32f4xx_gpio.c ****         break;
  61:../../../support/device/gd32f4xx/peripherals/src/gd32f4xx_gpio.c ****     case GPIOC:
  62:../../../support/device/gd32f4xx/peripherals/src/gd32f4xx_gpio.c ****         /* reset GPIOC */
  63:../../../support/device/gd32f4xx/peripherals/src/gd32f4xx_gpio.c ****         rcu_periph_reset_enable(RCU_GPIOCRST);
ARM GAS  /var/folders/_f/88qcw_5n2jl40jjphvxyt7wh0000gn/T//cczWl83x.s 			page 3


  64:../../../support/device/gd32f4xx/peripherals/src/gd32f4xx_gpio.c ****         rcu_periph_reset_disable(RCU_GPIOCRST);
  65:../../../support/device/gd32f4xx/peripherals/src/gd32f4xx_gpio.c ****         break;
  66:../../../support/device/gd32f4xx/peripherals/src/gd32f4xx_gpio.c ****     case GPIOD:
  67:../../../support/device/gd32f4xx/peripherals/src/gd32f4xx_gpio.c ****         /* reset GPIOD */
  68:../../../support/device/gd32f4xx/peripherals/src/gd32f4xx_gpio.c ****         rcu_periph_reset_enable(RCU_GPIODRST);
  69:../../../support/device/gd32f4xx/peripherals/src/gd32f4xx_gpio.c ****         rcu_periph_reset_disable(RCU_GPIODRST);
  70:../../../support/device/gd32f4xx/peripherals/src/gd32f4xx_gpio.c ****         break;
  71:../../../support/device/gd32f4xx/peripherals/src/gd32f4xx_gpio.c ****     case GPIOE:
  72:../../../support/device/gd32f4xx/peripherals/src/gd32f4xx_gpio.c ****         /* reset GPIOE */
  73:../../../support/device/gd32f4xx/peripherals/src/gd32f4xx_gpio.c ****         rcu_periph_reset_enable(RCU_GPIOERST);
  74:../../../support/device/gd32f4xx/peripherals/src/gd32f4xx_gpio.c ****         rcu_periph_reset_disable(RCU_GPIOERST);
  75:../../../support/device/gd32f4xx/peripherals/src/gd32f4xx_gpio.c ****         break;
  76:../../../support/device/gd32f4xx/peripherals/src/gd32f4xx_gpio.c ****     case GPIOF:
  77:../../../support/device/gd32f4xx/peripherals/src/gd32f4xx_gpio.c ****         /* reset GPIOF */
  78:../../../support/device/gd32f4xx/peripherals/src/gd32f4xx_gpio.c ****         rcu_periph_reset_enable(RCU_GPIOFRST);
  79:../../../support/device/gd32f4xx/peripherals/src/gd32f4xx_gpio.c ****         rcu_periph_reset_disable(RCU_GPIOFRST);
  80:../../../support/device/gd32f4xx/peripherals/src/gd32f4xx_gpio.c ****         break;
  81:../../../support/device/gd32f4xx/peripherals/src/gd32f4xx_gpio.c ****     case GPIOG:
  82:../../../support/device/gd32f4xx/peripherals/src/gd32f4xx_gpio.c ****         /* reset GPIOG */
  83:../../../support/device/gd32f4xx/peripherals/src/gd32f4xx_gpio.c ****         rcu_periph_reset_enable(RCU_GPIOGRST);
  84:../../../support/device/gd32f4xx/peripherals/src/gd32f4xx_gpio.c ****         rcu_periph_reset_disable(RCU_GPIOGRST);
  85:../../../support/device/gd32f4xx/peripherals/src/gd32f4xx_gpio.c ****         break;
  86:../../../support/device/gd32f4xx/peripherals/src/gd32f4xx_gpio.c ****     case GPIOH:
  87:../../../support/device/gd32f4xx/peripherals/src/gd32f4xx_gpio.c ****         /* reset GPIOH */
  88:../../../support/device/gd32f4xx/peripherals/src/gd32f4xx_gpio.c ****         rcu_periph_reset_enable(RCU_GPIOHRST);
  89:../../../support/device/gd32f4xx/peripherals/src/gd32f4xx_gpio.c ****         rcu_periph_reset_disable(RCU_GPIOHRST);
  90:../../../support/device/gd32f4xx/peripherals/src/gd32f4xx_gpio.c ****         break;
  91:../../../support/device/gd32f4xx/peripherals/src/gd32f4xx_gpio.c ****     case GPIOI:
  92:../../../support/device/gd32f4xx/peripherals/src/gd32f4xx_gpio.c ****         /* reset GPIOI */
  93:../../../support/device/gd32f4xx/peripherals/src/gd32f4xx_gpio.c ****         rcu_periph_reset_enable(RCU_GPIOIRST);
  52              		.loc 1 93 9 is_stmt 1 view .LVU4
  53 0018 4FF48160 		mov	r0, #1032
  54              	.LVL1:
  55              		.loc 1 93 9 is_stmt 0 view .LVU5
  56 001c FFF7FEFF 		bl	rcu_periph_reset_enable
  57              	.LVL2:
  94:../../../support/device/gd32f4xx/peripherals/src/gd32f4xx_gpio.c ****         rcu_periph_reset_disable(RCU_GPIOIRST);
  58              		.loc 1 94 9 is_stmt 1 view .LVU6
  95:../../../support/device/gd32f4xx/peripherals/src/gd32f4xx_gpio.c ****         break;
  96:../../../support/device/gd32f4xx/peripherals/src/gd32f4xx_gpio.c ****     default:
  97:../../../support/device/gd32f4xx/peripherals/src/gd32f4xx_gpio.c ****         break;
  98:../../../support/device/gd32f4xx/peripherals/src/gd32f4xx_gpio.c ****     }
  99:../../../support/device/gd32f4xx/peripherals/src/gd32f4xx_gpio.c **** }
  59              		.loc 1 99 1 is_stmt 0 view .LVU7
  60 0020 BDE80840 		pop	{r3, lr}
  61              	.LCFI1:
  62              		.cfi_remember_state
  63              		.cfi_restore 14
  64              		.cfi_restore 3
  65              		.cfi_def_cfa_offset 0
  94:../../../support/device/gd32f4xx/peripherals/src/gd32f4xx_gpio.c ****         rcu_periph_reset_disable(RCU_GPIOIRST);
  66              		.loc 1 94 9 view .LVU8
  67 0024 4FF48160 		mov	r0, #1032
  68 0028 FFF7FEBF 		b	rcu_periph_reset_disable
  69              	.LVL3:
  70              	.L17:
  71              	.LCFI2:
ARM GAS  /var/folders/_f/88qcw_5n2jl40jjphvxyt7wh0000gn/T//cczWl83x.s 			page 4


  72              		.cfi_restore_state
  50:../../../support/device/gd32f4xx/peripherals/src/gd32f4xx_gpio.c ****     case GPIOA:
  73              		.loc 1 50 5 view .LVU9
  74 002c A3F50063 		sub	r3, r3, #2048
  75 0030 9842     		cmp	r0, r3
  76 0032 46D0     		beq	.L4
  77 0034 1ED9     		bls	.L19
  78 0036 354B     		ldr	r3, .L20+12
  79 0038 9842     		cmp	r0, r3
  80 003a 41D1     		bne	.L1
  68:../../../support/device/gd32f4xx/peripherals/src/gd32f4xx_gpio.c ****         rcu_periph_reset_disable(RCU_GPIODRST);
  81              		.loc 1 68 9 is_stmt 1 view .LVU10
  82 003c 40F20340 		movw	r0, #1027
  83              	.LVL4:
  68:../../../support/device/gd32f4xx/peripherals/src/gd32f4xx_gpio.c ****         rcu_periph_reset_disable(RCU_GPIODRST);
  84              		.loc 1 68 9 is_stmt 0 view .LVU11
  85 0040 FFF7FEFF 		bl	rcu_periph_reset_enable
  86              	.LVL5:
  69:../../../support/device/gd32f4xx/peripherals/src/gd32f4xx_gpio.c ****         break;
  87              		.loc 1 69 9 is_stmt 1 view .LVU12
  88              		.loc 1 99 1 is_stmt 0 view .LVU13
  89 0044 BDE80840 		pop	{r3, lr}
  90              	.LCFI3:
  91              		.cfi_remember_state
  92              		.cfi_restore 14
  93              		.cfi_restore 3
  94              		.cfi_def_cfa_offset 0
  69:../../../support/device/gd32f4xx/peripherals/src/gd32f4xx_gpio.c ****         break;
  95              		.loc 1 69 9 view .LVU14
  96 0048 40F20340 		movw	r0, #1027
  97 004c FFF7FEBF 		b	rcu_periph_reset_disable
  98              	.LVL6:
  99              	.L18:
 100              	.LCFI4:
 101              		.cfi_restore_state
  50:../../../support/device/gd32f4xx/peripherals/src/gd32f4xx_gpio.c ****     case GPIOA:
 102              		.loc 1 50 5 view .LVU15
 103 0050 A3F50063 		sub	r3, r3, #2048
 104 0054 9842     		cmp	r0, r3
 105 0056 3ED0     		beq	.L12
 106 0058 03F58063 		add	r3, r3, #1024
 107 005c 9842     		cmp	r0, r3
 108 005e 2FD1     		bne	.L1
  83:../../../support/device/gd32f4xx/peripherals/src/gd32f4xx_gpio.c ****         rcu_periph_reset_disable(RCU_GPIOGRST);
 109              		.loc 1 83 9 is_stmt 1 view .LVU16
 110 0060 40F20640 		movw	r0, #1030
 111              	.LVL7:
  83:../../../support/device/gd32f4xx/peripherals/src/gd32f4xx_gpio.c ****         rcu_periph_reset_disable(RCU_GPIOGRST);
 112              		.loc 1 83 9 is_stmt 0 view .LVU17
 113 0064 FFF7FEFF 		bl	rcu_periph_reset_enable
 114              	.LVL8:
  84:../../../support/device/gd32f4xx/peripherals/src/gd32f4xx_gpio.c ****         break;
 115              		.loc 1 84 9 is_stmt 1 view .LVU18
 116              		.loc 1 99 1 is_stmt 0 view .LVU19
 117 0068 BDE80840 		pop	{r3, lr}
 118              	.LCFI5:
 119              		.cfi_remember_state
ARM GAS  /var/folders/_f/88qcw_5n2jl40jjphvxyt7wh0000gn/T//cczWl83x.s 			page 5


 120              		.cfi_restore 14
 121              		.cfi_restore 3
 122              		.cfi_def_cfa_offset 0
  84:../../../support/device/gd32f4xx/peripherals/src/gd32f4xx_gpio.c ****         break;
 123              		.loc 1 84 9 view .LVU20
 124 006c 40F20640 		movw	r0, #1030
 125 0070 FFF7FEBF 		b	rcu_periph_reset_disable
 126              	.LVL9:
 127              	.L19:
 128              	.LCFI6:
 129              		.cfi_restore_state
  50:../../../support/device/gd32f4xx/peripherals/src/gd32f4xx_gpio.c ****     case GPIOA:
 130              		.loc 1 50 5 view .LVU21
 131 0074 A3F50063 		sub	r3, r3, #2048
 132 0078 9842     		cmp	r0, r3
 133 007a 36D0     		beq	.L6
 134 007c 03F58063 		add	r3, r3, #1024
 135 0080 9842     		cmp	r0, r3
 136 0082 1DD1     		bne	.L1
  58:../../../support/device/gd32f4xx/peripherals/src/gd32f4xx_gpio.c ****         rcu_periph_reset_disable(RCU_GPIOBRST);
 137              		.loc 1 58 9 is_stmt 1 view .LVU22
 138 0084 40F20140 		movw	r0, #1025
 139              	.LVL10:
  58:../../../support/device/gd32f4xx/peripherals/src/gd32f4xx_gpio.c ****         rcu_periph_reset_disable(RCU_GPIOBRST);
 140              		.loc 1 58 9 is_stmt 0 view .LVU23
 141 0088 FFF7FEFF 		bl	rcu_periph_reset_enable
 142              	.LVL11:
  59:../../../support/device/gd32f4xx/peripherals/src/gd32f4xx_gpio.c ****         break;
 143              		.loc 1 59 9 is_stmt 1 view .LVU24
 144              		.loc 1 99 1 is_stmt 0 view .LVU25
 145 008c BDE80840 		pop	{r3, lr}
 146              	.LCFI7:
 147              		.cfi_remember_state
 148              		.cfi_restore 14
 149              		.cfi_restore 3
 150              		.cfi_def_cfa_offset 0
  59:../../../support/device/gd32f4xx/peripherals/src/gd32f4xx_gpio.c ****         break;
 151              		.loc 1 59 9 view .LVU26
 152 0090 40F20140 		movw	r0, #1025
 153 0094 FFF7FEBF 		b	rcu_periph_reset_disable
 154              	.LVL12:
 155              	.L2:
 156              	.LCFI8:
 157              		.cfi_restore_state
  73:../../../support/device/gd32f4xx/peripherals/src/gd32f4xx_gpio.c ****         rcu_periph_reset_disable(RCU_GPIOERST);
 158              		.loc 1 73 9 is_stmt 1 view .LVU27
 159 0098 40F20440 		movw	r0, #1028
 160              	.LVL13:
  73:../../../support/device/gd32f4xx/peripherals/src/gd32f4xx_gpio.c ****         rcu_periph_reset_disable(RCU_GPIOERST);
 161              		.loc 1 73 9 is_stmt 0 view .LVU28
 162 009c FFF7FEFF 		bl	rcu_periph_reset_enable
 163              	.LVL14:
  74:../../../support/device/gd32f4xx/peripherals/src/gd32f4xx_gpio.c ****         break;
 164              		.loc 1 74 9 is_stmt 1 view .LVU29
 165              		.loc 1 99 1 is_stmt 0 view .LVU30
 166 00a0 BDE80840 		pop	{r3, lr}
 167              	.LCFI9:
ARM GAS  /var/folders/_f/88qcw_5n2jl40jjphvxyt7wh0000gn/T//cczWl83x.s 			page 6


 168              		.cfi_remember_state
 169              		.cfi_restore 14
 170              		.cfi_restore 3
 171              		.cfi_def_cfa_offset 0
  74:../../../support/device/gd32f4xx/peripherals/src/gd32f4xx_gpio.c ****         break;
 172              		.loc 1 74 9 view .LVU31
 173 00a4 40F20440 		movw	r0, #1028
 174 00a8 FFF7FEBF 		b	rcu_periph_reset_disable
 175              	.LVL15:
 176              	.L10:
 177              	.LCFI10:
 178              		.cfi_restore_state
  88:../../../support/device/gd32f4xx/peripherals/src/gd32f4xx_gpio.c ****         rcu_periph_reset_disable(RCU_GPIOHRST);
 179              		.loc 1 88 9 is_stmt 1 view .LVU32
 180 00ac 40F20740 		movw	r0, #1031
 181              	.LVL16:
  88:../../../support/device/gd32f4xx/peripherals/src/gd32f4xx_gpio.c ****         rcu_periph_reset_disable(RCU_GPIOHRST);
 182              		.loc 1 88 9 is_stmt 0 view .LVU33
 183 00b0 FFF7FEFF 		bl	rcu_periph_reset_enable
 184              	.LVL17:
  89:../../../support/device/gd32f4xx/peripherals/src/gd32f4xx_gpio.c ****         break;
 185              		.loc 1 89 9 is_stmt 1 view .LVU34
 186              		.loc 1 99 1 is_stmt 0 view .LVU35
 187 00b4 BDE80840 		pop	{r3, lr}
 188              	.LCFI11:
 189              		.cfi_remember_state
 190              		.cfi_restore 14
 191              		.cfi_restore 3
 192              		.cfi_def_cfa_offset 0
  89:../../../support/device/gd32f4xx/peripherals/src/gd32f4xx_gpio.c ****         break;
 193              		.loc 1 89 9 view .LVU36
 194 00b8 40F20740 		movw	r0, #1031
 195 00bc FFF7FEBF 		b	rcu_periph_reset_disable
 196              	.LVL18:
 197              	.L1:
 198              	.LCFI12:
 199              		.cfi_restore_state
 200              		.loc 1 99 1 view .LVU37
 201 00c0 08BD     		pop	{r3, pc}
 202              	.L4:
  63:../../../support/device/gd32f4xx/peripherals/src/gd32f4xx_gpio.c ****         rcu_periph_reset_disable(RCU_GPIOCRST);
 203              		.loc 1 63 9 is_stmt 1 view .LVU38
 204 00c2 40F20240 		movw	r0, #1026
 205              	.LVL19:
  63:../../../support/device/gd32f4xx/peripherals/src/gd32f4xx_gpio.c ****         rcu_periph_reset_disable(RCU_GPIOCRST);
 206              		.loc 1 63 9 is_stmt 0 view .LVU39
 207 00c6 FFF7FEFF 		bl	rcu_periph_reset_enable
 208              	.LVL20:
  64:../../../support/device/gd32f4xx/peripherals/src/gd32f4xx_gpio.c ****         break;
 209              		.loc 1 64 9 is_stmt 1 view .LVU40
 210              		.loc 1 99 1 is_stmt 0 view .LVU41
 211 00ca BDE80840 		pop	{r3, lr}
 212              	.LCFI13:
 213              		.cfi_remember_state
 214              		.cfi_restore 14
 215              		.cfi_restore 3
 216              		.cfi_def_cfa_offset 0
ARM GAS  /var/folders/_f/88qcw_5n2jl40jjphvxyt7wh0000gn/T//cczWl83x.s 			page 7


  64:../../../support/device/gd32f4xx/peripherals/src/gd32f4xx_gpio.c ****         break;
 217              		.loc 1 64 9 view .LVU42
 218 00ce 40F20240 		movw	r0, #1026
 219 00d2 FFF7FEBF 		b	rcu_periph_reset_disable
 220              	.LVL21:
 221              	.L12:
 222              	.LCFI14:
 223              		.cfi_restore_state
  78:../../../support/device/gd32f4xx/peripherals/src/gd32f4xx_gpio.c ****         rcu_periph_reset_disable(RCU_GPIOFRST);
 224              		.loc 1 78 9 is_stmt 1 view .LVU43
 225 00d6 40F20540 		movw	r0, #1029
 226              	.LVL22:
  78:../../../support/device/gd32f4xx/peripherals/src/gd32f4xx_gpio.c ****         rcu_periph_reset_disable(RCU_GPIOFRST);
 227              		.loc 1 78 9 is_stmt 0 view .LVU44
 228 00da FFF7FEFF 		bl	rcu_periph_reset_enable
 229              	.LVL23:
  79:../../../support/device/gd32f4xx/peripherals/src/gd32f4xx_gpio.c ****         break;
 230              		.loc 1 79 9 is_stmt 1 view .LVU45
 231              		.loc 1 99 1 is_stmt 0 view .LVU46
 232 00de BDE80840 		pop	{r3, lr}
 233              	.LCFI15:
 234              		.cfi_remember_state
 235              		.cfi_restore 14
 236              		.cfi_restore 3
 237              		.cfi_def_cfa_offset 0
  79:../../../support/device/gd32f4xx/peripherals/src/gd32f4xx_gpio.c ****         break;
 238              		.loc 1 79 9 view .LVU47
 239 00e2 40F20540 		movw	r0, #1029
 240 00e6 FFF7FEBF 		b	rcu_periph_reset_disable
 241              	.LVL24:
 242              	.L6:
 243              	.LCFI16:
 244              		.cfi_restore_state
  53:../../../support/device/gd32f4xx/peripherals/src/gd32f4xx_gpio.c ****         rcu_periph_reset_disable(RCU_GPIOARST);
 245              		.loc 1 53 9 is_stmt 1 view .LVU48
 246 00ea 4FF48060 		mov	r0, #1024
 247              	.LVL25:
  53:../../../support/device/gd32f4xx/peripherals/src/gd32f4xx_gpio.c ****         rcu_periph_reset_disable(RCU_GPIOARST);
 248              		.loc 1 53 9 is_stmt 0 view .LVU49
 249 00ee FFF7FEFF 		bl	rcu_periph_reset_enable
 250              	.LVL26:
  54:../../../support/device/gd32f4xx/peripherals/src/gd32f4xx_gpio.c ****         break;
 251              		.loc 1 54 9 is_stmt 1 view .LVU50
 252              		.loc 1 99 1 is_stmt 0 view .LVU51
 253 00f2 BDE80840 		pop	{r3, lr}
 254              	.LCFI17:
 255              		.cfi_restore 14
 256              		.cfi_restore 3
 257              		.cfi_def_cfa_offset 0
  54:../../../support/device/gd32f4xx/peripherals/src/gd32f4xx_gpio.c ****         break;
 258              		.loc 1 54 9 view .LVU52
 259 00f6 4FF48060 		mov	r0, #1024
 260 00fa FFF7FEBF 		b	rcu_periph_reset_disable
 261              	.LVL27:
 262              	.L21:
 263 00fe 00BF     		.align	2
 264              	.L20:
ARM GAS  /var/folders/_f/88qcw_5n2jl40jjphvxyt7wh0000gn/T//cczWl83x.s 			page 8


 265 0100 00100240 		.word	1073876992
 266 0104 001C0240 		.word	1073880064
 267 0108 00200240 		.word	1073881088
 268 010c 000C0240 		.word	1073875968
 269              		.cfi_endproc
 270              	.LFE116:
 272              		.section	.text.gpio_mode_set,"ax",%progbits
 273              		.align	1
 274              		.p2align 2,,3
 275              		.global	gpio_mode_set
 276              		.syntax unified
 277              		.thumb
 278              		.thumb_func
 280              	gpio_mode_set:
 281              	.LVL28:
 282              	.LFB117:
 100:../../../support/device/gd32f4xx/peripherals/src/gd32f4xx_gpio.c **** 
 101:../../../support/device/gd32f4xx/peripherals/src/gd32f4xx_gpio.c **** /*!
 102:../../../support/device/gd32f4xx/peripherals/src/gd32f4xx_gpio.c ****     \brief      set GPIO mode
 103:../../../support/device/gd32f4xx/peripherals/src/gd32f4xx_gpio.c ****     \param[in]  gpio_periph: GPIO port
 104:../../../support/device/gd32f4xx/peripherals/src/gd32f4xx_gpio.c ****                 only one parameter can be selected which is shown as below:
 105:../../../support/device/gd32f4xx/peripherals/src/gd32f4xx_gpio.c ****       \arg        GPIOx(x = A,B,C,D,E,F,G,H,I)
 106:../../../support/device/gd32f4xx/peripherals/src/gd32f4xx_gpio.c ****     \param[in]  mode: GPIO pin mode
 107:../../../support/device/gd32f4xx/peripherals/src/gd32f4xx_gpio.c ****       \arg        GPIO_MODE_INPUT: input mode
 108:../../../support/device/gd32f4xx/peripherals/src/gd32f4xx_gpio.c ****       \arg        GPIO_MODE_OUTPUT: output mode
 109:../../../support/device/gd32f4xx/peripherals/src/gd32f4xx_gpio.c ****       \arg        GPIO_MODE_AF: alternate function mode
 110:../../../support/device/gd32f4xx/peripherals/src/gd32f4xx_gpio.c ****       \arg        GPIO_MODE_ANALOG: analog mode
 111:../../../support/device/gd32f4xx/peripherals/src/gd32f4xx_gpio.c ****     \param[in]  pull_up_down: GPIO pin with pull-up or pull-down resistor
 112:../../../support/device/gd32f4xx/peripherals/src/gd32f4xx_gpio.c ****       \arg        GPIO_PUPD_NONE: floating mode, no pull-up and pull-down resistors
 113:../../../support/device/gd32f4xx/peripherals/src/gd32f4xx_gpio.c ****       \arg        GPIO_PUPD_PULLUP: with pull-up resistor
 114:../../../support/device/gd32f4xx/peripherals/src/gd32f4xx_gpio.c ****       \arg        GPIO_PUPD_PULLDOWN:with pull-down resistor
 115:../../../support/device/gd32f4xx/peripherals/src/gd32f4xx_gpio.c ****     \param[in]  pin: GPIO pin
 116:../../../support/device/gd32f4xx/peripherals/src/gd32f4xx_gpio.c ****                 one or more parameters can be selected which are shown as below:
 117:../../../support/device/gd32f4xx/peripherals/src/gd32f4xx_gpio.c ****       \arg        GPIO_PIN_x(x=0..15), GPIO_PIN_ALL
 118:../../../support/device/gd32f4xx/peripherals/src/gd32f4xx_gpio.c ****     \param[out] none
 119:../../../support/device/gd32f4xx/peripherals/src/gd32f4xx_gpio.c ****     \retval     none
 120:../../../support/device/gd32f4xx/peripherals/src/gd32f4xx_gpio.c **** */
 121:../../../support/device/gd32f4xx/peripherals/src/gd32f4xx_gpio.c **** void gpio_mode_set(uint32_t gpio_periph, uint32_t mode, uint32_t pull_up_down, uint32_t pin)
 122:../../../support/device/gd32f4xx/peripherals/src/gd32f4xx_gpio.c **** {
 283              		.loc 1 122 1 is_stmt 1 view -0
 284              		.cfi_startproc
 285              		@ args = 0, pretend = 0, frame = 0
 286              		@ frame_needed = 0, uses_anonymous_args = 0
 287              		@ link register save eliminated.
 123:../../../support/device/gd32f4xx/peripherals/src/gd32f4xx_gpio.c ****     uint16_t i;
 288              		.loc 1 123 5 view .LVU54
 124:../../../support/device/gd32f4xx/peripherals/src/gd32f4xx_gpio.c ****     uint32_t ctl, pupd;
 289              		.loc 1 124 5 view .LVU55
 125:../../../support/device/gd32f4xx/peripherals/src/gd32f4xx_gpio.c **** 
 126:../../../support/device/gd32f4xx/peripherals/src/gd32f4xx_gpio.c ****     ctl = GPIO_CTL(gpio_periph);
 290              		.loc 1 126 5 view .LVU56
 127:../../../support/device/gd32f4xx/peripherals/src/gd32f4xx_gpio.c ****     pupd = GPIO_PUD(gpio_periph);
 128:../../../support/device/gd32f4xx/peripherals/src/gd32f4xx_gpio.c **** 
 129:../../../support/device/gd32f4xx/peripherals/src/gd32f4xx_gpio.c ****     for(i = 0U; i < 16U; i++) {
 130:../../../support/device/gd32f4xx/peripherals/src/gd32f4xx_gpio.c ****         if((1U << i) & pin) {
 291              		.loc 1 130 11 is_stmt 0 view .LVU57
 292 0000 13F0010F 		tst	r3, #1
ARM GAS  /var/folders/_f/88qcw_5n2jl40jjphvxyt7wh0000gn/T//cczWl83x.s 			page 9


 122:../../../support/device/gd32f4xx/peripherals/src/gd32f4xx_gpio.c ****     uint16_t i;
 293              		.loc 1 122 1 view .LVU58
 294 0004 30B4     		push	{r4, r5}
 295              	.LCFI18:
 296              		.cfi_def_cfa_offset 8
 297              		.cfi_offset 4, -8
 298              		.cfi_offset 5, -4
 126:../../../support/device/gd32f4xx/peripherals/src/gd32f4xx_gpio.c ****     pupd = GPIO_PUD(gpio_periph);
 299              		.loc 1 126 9 view .LVU59
 300 0006 0568     		ldr	r5, [r0]
 301              	.LVL29:
 127:../../../support/device/gd32f4xx/peripherals/src/gd32f4xx_gpio.c ****     pupd = GPIO_PUD(gpio_periph);
 302              		.loc 1 127 5 is_stmt 1 view .LVU60
 127:../../../support/device/gd32f4xx/peripherals/src/gd32f4xx_gpio.c ****     pupd = GPIO_PUD(gpio_periph);
 303              		.loc 1 127 10 is_stmt 0 view .LVU61
 304 0008 C468     		ldr	r4, [r0, #12]
 305              	.LVL30:
 129:../../../support/device/gd32f4xx/peripherals/src/gd32f4xx_gpio.c ****         if((1U << i) & pin) {
 306              		.loc 1 129 5 is_stmt 1 view .LVU62
 129:../../../support/device/gd32f4xx/peripherals/src/gd32f4xx_gpio.c ****         if((1U << i) & pin) {
 307              		.loc 1 129 17 view .LVU63
 308              		.loc 1 130 9 view .LVU64
 309              		.loc 1 130 11 is_stmt 0 view .LVU65
 310 000a 06D0     		beq	.L23
 131:../../../support/device/gd32f4xx/peripherals/src/gd32f4xx_gpio.c ****             /* clear the specified pin mode bits */
 132:../../../support/device/gd32f4xx/peripherals/src/gd32f4xx_gpio.c ****             ctl &= ~GPIO_MODE_MASK(i);
 311              		.loc 1 132 13 is_stmt 1 view .LVU66
 312              		.loc 1 132 17 is_stmt 0 view .LVU67
 313 000c 25F0030C 		bic	ip, r5, #3
 314              	.LVL31:
 133:../../../support/device/gd32f4xx/peripherals/src/gd32f4xx_gpio.c ****             /* set the specified pin mode bits */
 134:../../../support/device/gd32f4xx/peripherals/src/gd32f4xx_gpio.c ****             ctl |= GPIO_MODE_SET(i, mode);
 315              		.loc 1 134 13 is_stmt 1 view .LVU68
 135:../../../support/device/gd32f4xx/peripherals/src/gd32f4xx_gpio.c **** 
 136:../../../support/device/gd32f4xx/peripherals/src/gd32f4xx_gpio.c ****             /* clear the specified pin pupd bits */
 137:../../../support/device/gd32f4xx/peripherals/src/gd32f4xx_gpio.c ****             pupd &= ~GPIO_PUPD_MASK(i);
 316              		.loc 1 137 18 is_stmt 0 view .LVU69
 317 0010 24F00304 		bic	r4, r4, #3
 318              	.LVL32:
 134:../../../support/device/gd32f4xx/peripherals/src/gd32f4xx_gpio.c **** 
 319              		.loc 1 134 17 view .LVU70
 320 0014 4CEA0105 		orr	r5, ip, r1
 321              	.LVL33:
 322              		.loc 1 137 13 is_stmt 1 view .LVU71
 138:../../../support/device/gd32f4xx/peripherals/src/gd32f4xx_gpio.c ****             /* set the specified pin pupd bits */
 139:../../../support/device/gd32f4xx/peripherals/src/gd32f4xx_gpio.c ****             pupd |= GPIO_PUPD_SET(i, pull_up_down);
 323              		.loc 1 139 13 view .LVU72
 324              		.loc 1 139 18 is_stmt 0 view .LVU73
 325 0018 1443     		orrs	r4, r4, r2
 326              	.LVL34:
 327              	.L23:
 129:../../../support/device/gd32f4xx/peripherals/src/gd32f4xx_gpio.c ****         if((1U << i) & pin) {
 328              		.loc 1 129 26 is_stmt 1 view .LVU74
 129:../../../support/device/gd32f4xx/peripherals/src/gd32f4xx_gpio.c ****         if((1U << i) & pin) {
 329              		.loc 1 129 17 view .LVU75
 130:../../../support/device/gd32f4xx/peripherals/src/gd32f4xx_gpio.c ****             /* clear the specified pin mode bits */
 330              		.loc 1 130 9 view .LVU76
ARM GAS  /var/folders/_f/88qcw_5n2jl40jjphvxyt7wh0000gn/T//cczWl83x.s 			page 10


 130:../../../support/device/gd32f4xx/peripherals/src/gd32f4xx_gpio.c ****             /* clear the specified pin mode bits */
 331              		.loc 1 130 11 is_stmt 0 view .LVU77
 332 001a 13F0020F 		tst	r3, #2
 333 001e 07D0     		beq	.L24
 132:../../../support/device/gd32f4xx/peripherals/src/gd32f4xx_gpio.c ****             /* set the specified pin mode bits */
 334              		.loc 1 132 13 is_stmt 1 view .LVU78
 132:../../../support/device/gd32f4xx/peripherals/src/gd32f4xx_gpio.c ****             /* set the specified pin mode bits */
 335              		.loc 1 132 17 is_stmt 0 view .LVU79
 336 0020 25F00C0C 		bic	ip, r5, #12
 337              	.LVL35:
 134:../../../support/device/gd32f4xx/peripherals/src/gd32f4xx_gpio.c **** 
 338              		.loc 1 134 13 is_stmt 1 view .LVU80
 137:../../../support/device/gd32f4xx/peripherals/src/gd32f4xx_gpio.c ****             /* set the specified pin pupd bits */
 339              		.loc 1 137 18 is_stmt 0 view .LVU81
 340 0024 24F00C04 		bic	r4, r4, #12
 341              	.LVL36:
 134:../../../support/device/gd32f4xx/peripherals/src/gd32f4xx_gpio.c **** 
 342              		.loc 1 134 17 view .LVU82
 343 0028 4CEA8105 		orr	r5, ip, r1, lsl #2
 344              	.LVL37:
 137:../../../support/device/gd32f4xx/peripherals/src/gd32f4xx_gpio.c ****             /* set the specified pin pupd bits */
 345              		.loc 1 137 13 is_stmt 1 view .LVU83
 346              		.loc 1 139 13 view .LVU84
 347              		.loc 1 139 18 is_stmt 0 view .LVU85
 348 002c 44EA8204 		orr	r4, r4, r2, lsl #2
 349              	.LVL38:
 350              	.L24:
 129:../../../support/device/gd32f4xx/peripherals/src/gd32f4xx_gpio.c ****         if((1U << i) & pin) {
 351              		.loc 1 129 26 is_stmt 1 view .LVU86
 129:../../../support/device/gd32f4xx/peripherals/src/gd32f4xx_gpio.c ****         if((1U << i) & pin) {
 352              		.loc 1 129 17 view .LVU87
 130:../../../support/device/gd32f4xx/peripherals/src/gd32f4xx_gpio.c ****             /* clear the specified pin mode bits */
 353              		.loc 1 130 9 view .LVU88
 130:../../../support/device/gd32f4xx/peripherals/src/gd32f4xx_gpio.c ****             /* clear the specified pin mode bits */
 354              		.loc 1 130 11 is_stmt 0 view .LVU89
 355 0030 13F0040F 		tst	r3, #4
 356 0034 07D0     		beq	.L25
 132:../../../support/device/gd32f4xx/peripherals/src/gd32f4xx_gpio.c ****             /* set the specified pin mode bits */
 357              		.loc 1 132 13 is_stmt 1 view .LVU90
 132:../../../support/device/gd32f4xx/peripherals/src/gd32f4xx_gpio.c ****             /* set the specified pin mode bits */
 358              		.loc 1 132 17 is_stmt 0 view .LVU91
 359 0036 25F0300C 		bic	ip, r5, #48
 360              	.LVL39:
 134:../../../support/device/gd32f4xx/peripherals/src/gd32f4xx_gpio.c **** 
 361              		.loc 1 134 13 is_stmt 1 view .LVU92
 137:../../../support/device/gd32f4xx/peripherals/src/gd32f4xx_gpio.c ****             /* set the specified pin pupd bits */
 362              		.loc 1 137 18 is_stmt 0 view .LVU93
 363 003a 24F03004 		bic	r4, r4, #48
 364              	.LVL40:
 134:../../../support/device/gd32f4xx/peripherals/src/gd32f4xx_gpio.c **** 
 365              		.loc 1 134 17 view .LVU94
 366 003e 4CEA0115 		orr	r5, ip, r1, lsl #4
 367              	.LVL41:
 137:../../../support/device/gd32f4xx/peripherals/src/gd32f4xx_gpio.c ****             /* set the specified pin pupd bits */
 368              		.loc 1 137 13 is_stmt 1 view .LVU95
 369              		.loc 1 139 13 view .LVU96
 370              		.loc 1 139 18 is_stmt 0 view .LVU97
ARM GAS  /var/folders/_f/88qcw_5n2jl40jjphvxyt7wh0000gn/T//cczWl83x.s 			page 11


 371 0042 44EA0214 		orr	r4, r4, r2, lsl #4
 372              	.LVL42:
 373              	.L25:
 129:../../../support/device/gd32f4xx/peripherals/src/gd32f4xx_gpio.c ****         if((1U << i) & pin) {
 374              		.loc 1 129 26 is_stmt 1 view .LVU98
 129:../../../support/device/gd32f4xx/peripherals/src/gd32f4xx_gpio.c ****         if((1U << i) & pin) {
 375              		.loc 1 129 17 view .LVU99
 130:../../../support/device/gd32f4xx/peripherals/src/gd32f4xx_gpio.c ****             /* clear the specified pin mode bits */
 376              		.loc 1 130 9 view .LVU100
 130:../../../support/device/gd32f4xx/peripherals/src/gd32f4xx_gpio.c ****             /* clear the specified pin mode bits */
 377              		.loc 1 130 11 is_stmt 0 view .LVU101
 378 0046 13F0080F 		tst	r3, #8
 379 004a 07D0     		beq	.L26
 132:../../../support/device/gd32f4xx/peripherals/src/gd32f4xx_gpio.c ****             /* set the specified pin mode bits */
 380              		.loc 1 132 13 is_stmt 1 view .LVU102
 132:../../../support/device/gd32f4xx/peripherals/src/gd32f4xx_gpio.c ****             /* set the specified pin mode bits */
 381              		.loc 1 132 17 is_stmt 0 view .LVU103
 382 004c 25F0C00C 		bic	ip, r5, #192
 383              	.LVL43:
 134:../../../support/device/gd32f4xx/peripherals/src/gd32f4xx_gpio.c **** 
 384              		.loc 1 134 13 is_stmt 1 view .LVU104
 137:../../../support/device/gd32f4xx/peripherals/src/gd32f4xx_gpio.c ****             /* set the specified pin pupd bits */
 385              		.loc 1 137 18 is_stmt 0 view .LVU105
 386 0050 24F0C004 		bic	r4, r4, #192
 387              	.LVL44:
 134:../../../support/device/gd32f4xx/peripherals/src/gd32f4xx_gpio.c **** 
 388              		.loc 1 134 17 view .LVU106
 389 0054 4CEA8115 		orr	r5, ip, r1, lsl #6
 390              	.LVL45:
 137:../../../support/device/gd32f4xx/peripherals/src/gd32f4xx_gpio.c ****             /* set the specified pin pupd bits */
 391              		.loc 1 137 13 is_stmt 1 view .LVU107
 392              		.loc 1 139 13 view .LVU108
 393              		.loc 1 139 18 is_stmt 0 view .LVU109
 394 0058 44EA8214 		orr	r4, r4, r2, lsl #6
 395              	.LVL46:
 396              	.L26:
 129:../../../support/device/gd32f4xx/peripherals/src/gd32f4xx_gpio.c ****         if((1U << i) & pin) {
 397              		.loc 1 129 26 is_stmt 1 view .LVU110
 129:../../../support/device/gd32f4xx/peripherals/src/gd32f4xx_gpio.c ****         if((1U << i) & pin) {
 398              		.loc 1 129 17 view .LVU111
 130:../../../support/device/gd32f4xx/peripherals/src/gd32f4xx_gpio.c ****             /* clear the specified pin mode bits */
 399              		.loc 1 130 9 view .LVU112
 130:../../../support/device/gd32f4xx/peripherals/src/gd32f4xx_gpio.c ****             /* clear the specified pin mode bits */
 400              		.loc 1 130 11 is_stmt 0 view .LVU113
 401 005c 13F0100F 		tst	r3, #16
 402 0060 07D0     		beq	.L27
 132:../../../support/device/gd32f4xx/peripherals/src/gd32f4xx_gpio.c ****             /* set the specified pin mode bits */
 403              		.loc 1 132 13 is_stmt 1 view .LVU114
 132:../../../support/device/gd32f4xx/peripherals/src/gd32f4xx_gpio.c ****             /* set the specified pin mode bits */
 404              		.loc 1 132 17 is_stmt 0 view .LVU115
 405 0062 25F4407C 		bic	ip, r5, #768
 406              	.LVL47:
 134:../../../support/device/gd32f4xx/peripherals/src/gd32f4xx_gpio.c **** 
 407              		.loc 1 134 13 is_stmt 1 view .LVU116
 137:../../../support/device/gd32f4xx/peripherals/src/gd32f4xx_gpio.c ****             /* set the specified pin pupd bits */
 408              		.loc 1 137 18 is_stmt 0 view .LVU117
 409 0066 24F44074 		bic	r4, r4, #768
ARM GAS  /var/folders/_f/88qcw_5n2jl40jjphvxyt7wh0000gn/T//cczWl83x.s 			page 12


 410              	.LVL48:
 134:../../../support/device/gd32f4xx/peripherals/src/gd32f4xx_gpio.c **** 
 411              		.loc 1 134 17 view .LVU118
 412 006a 4CEA0125 		orr	r5, ip, r1, lsl #8
 413              	.LVL49:
 137:../../../support/device/gd32f4xx/peripherals/src/gd32f4xx_gpio.c ****             /* set the specified pin pupd bits */
 414              		.loc 1 137 13 is_stmt 1 view .LVU119
 415              		.loc 1 139 13 view .LVU120
 416              		.loc 1 139 18 is_stmt 0 view .LVU121
 417 006e 44EA0224 		orr	r4, r4, r2, lsl #8
 418              	.LVL50:
 419              	.L27:
 129:../../../support/device/gd32f4xx/peripherals/src/gd32f4xx_gpio.c ****         if((1U << i) & pin) {
 420              		.loc 1 129 26 is_stmt 1 view .LVU122
 129:../../../support/device/gd32f4xx/peripherals/src/gd32f4xx_gpio.c ****         if((1U << i) & pin) {
 421              		.loc 1 129 17 view .LVU123
 130:../../../support/device/gd32f4xx/peripherals/src/gd32f4xx_gpio.c ****             /* clear the specified pin mode bits */
 422              		.loc 1 130 9 view .LVU124
 130:../../../support/device/gd32f4xx/peripherals/src/gd32f4xx_gpio.c ****             /* clear the specified pin mode bits */
 423              		.loc 1 130 11 is_stmt 0 view .LVU125
 424 0072 13F0200F 		tst	r3, #32
 425 0076 07D0     		beq	.L28
 132:../../../support/device/gd32f4xx/peripherals/src/gd32f4xx_gpio.c ****             /* set the specified pin mode bits */
 426              		.loc 1 132 13 is_stmt 1 view .LVU126
 132:../../../support/device/gd32f4xx/peripherals/src/gd32f4xx_gpio.c ****             /* set the specified pin mode bits */
 427              		.loc 1 132 17 is_stmt 0 view .LVU127
 428 0078 25F4406C 		bic	ip, r5, #3072
 429              	.LVL51:
 134:../../../support/device/gd32f4xx/peripherals/src/gd32f4xx_gpio.c **** 
 430              		.loc 1 134 13 is_stmt 1 view .LVU128
 137:../../../support/device/gd32f4xx/peripherals/src/gd32f4xx_gpio.c ****             /* set the specified pin pupd bits */
 431              		.loc 1 137 18 is_stmt 0 view .LVU129
 432 007c 24F44064 		bic	r4, r4, #3072
 433              	.LVL52:
 134:../../../support/device/gd32f4xx/peripherals/src/gd32f4xx_gpio.c **** 
 434              		.loc 1 134 17 view .LVU130
 435 0080 4CEA8125 		orr	r5, ip, r1, lsl #10
 436              	.LVL53:
 137:../../../support/device/gd32f4xx/peripherals/src/gd32f4xx_gpio.c ****             /* set the specified pin pupd bits */
 437              		.loc 1 137 13 is_stmt 1 view .LVU131
 438              		.loc 1 139 13 view .LVU132
 439              		.loc 1 139 18 is_stmt 0 view .LVU133
 440 0084 44EA8224 		orr	r4, r4, r2, lsl #10
 441              	.LVL54:
 442              	.L28:
 129:../../../support/device/gd32f4xx/peripherals/src/gd32f4xx_gpio.c ****         if((1U << i) & pin) {
 443              		.loc 1 129 26 is_stmt 1 view .LVU134
 129:../../../support/device/gd32f4xx/peripherals/src/gd32f4xx_gpio.c ****         if((1U << i) & pin) {
 444              		.loc 1 129 17 view .LVU135
 130:../../../support/device/gd32f4xx/peripherals/src/gd32f4xx_gpio.c ****             /* clear the specified pin mode bits */
 445              		.loc 1 130 9 view .LVU136
 130:../../../support/device/gd32f4xx/peripherals/src/gd32f4xx_gpio.c ****             /* clear the specified pin mode bits */
 446              		.loc 1 130 11 is_stmt 0 view .LVU137
 447 0088 13F0400F 		tst	r3, #64
 448 008c 07D0     		beq	.L29
 132:../../../support/device/gd32f4xx/peripherals/src/gd32f4xx_gpio.c ****             /* set the specified pin mode bits */
 449              		.loc 1 132 13 is_stmt 1 view .LVU138
ARM GAS  /var/folders/_f/88qcw_5n2jl40jjphvxyt7wh0000gn/T//cczWl83x.s 			page 13


 132:../../../support/device/gd32f4xx/peripherals/src/gd32f4xx_gpio.c ****             /* set the specified pin mode bits */
 450              		.loc 1 132 17 is_stmt 0 view .LVU139
 451 008e 25F4405C 		bic	ip, r5, #12288
 452              	.LVL55:
 134:../../../support/device/gd32f4xx/peripherals/src/gd32f4xx_gpio.c **** 
 453              		.loc 1 134 13 is_stmt 1 view .LVU140
 137:../../../support/device/gd32f4xx/peripherals/src/gd32f4xx_gpio.c ****             /* set the specified pin pupd bits */
 454              		.loc 1 137 18 is_stmt 0 view .LVU141
 455 0092 24F44054 		bic	r4, r4, #12288
 456              	.LVL56:
 134:../../../support/device/gd32f4xx/peripherals/src/gd32f4xx_gpio.c **** 
 457              		.loc 1 134 17 view .LVU142
 458 0096 4CEA0135 		orr	r5, ip, r1, lsl #12
 459              	.LVL57:
 137:../../../support/device/gd32f4xx/peripherals/src/gd32f4xx_gpio.c ****             /* set the specified pin pupd bits */
 460              		.loc 1 137 13 is_stmt 1 view .LVU143
 461              		.loc 1 139 13 view .LVU144
 462              		.loc 1 139 18 is_stmt 0 view .LVU145
 463 009a 44EA0234 		orr	r4, r4, r2, lsl #12
 464              	.LVL58:
 465              	.L29:
 129:../../../support/device/gd32f4xx/peripherals/src/gd32f4xx_gpio.c ****         if((1U << i) & pin) {
 466              		.loc 1 129 26 is_stmt 1 view .LVU146
 129:../../../support/device/gd32f4xx/peripherals/src/gd32f4xx_gpio.c ****         if((1U << i) & pin) {
 467              		.loc 1 129 17 view .LVU147
 130:../../../support/device/gd32f4xx/peripherals/src/gd32f4xx_gpio.c ****             /* clear the specified pin mode bits */
 468              		.loc 1 130 9 view .LVU148
 130:../../../support/device/gd32f4xx/peripherals/src/gd32f4xx_gpio.c ****             /* clear the specified pin mode bits */
 469              		.loc 1 130 11 is_stmt 0 view .LVU149
 470 009e 13F0800F 		tst	r3, #128
 471 00a2 07D0     		beq	.L30
 132:../../../support/device/gd32f4xx/peripherals/src/gd32f4xx_gpio.c ****             /* set the specified pin mode bits */
 472              		.loc 1 132 13 is_stmt 1 view .LVU150
 132:../../../support/device/gd32f4xx/peripherals/src/gd32f4xx_gpio.c ****             /* set the specified pin mode bits */
 473              		.loc 1 132 17 is_stmt 0 view .LVU151
 474 00a4 25F4404C 		bic	ip, r5, #49152
 475              	.LVL59:
 134:../../../support/device/gd32f4xx/peripherals/src/gd32f4xx_gpio.c **** 
 476              		.loc 1 134 13 is_stmt 1 view .LVU152
 137:../../../support/device/gd32f4xx/peripherals/src/gd32f4xx_gpio.c ****             /* set the specified pin pupd bits */
 477              		.loc 1 137 18 is_stmt 0 view .LVU153
 478 00a8 24F44044 		bic	r4, r4, #49152
 479              	.LVL60:
 134:../../../support/device/gd32f4xx/peripherals/src/gd32f4xx_gpio.c **** 
 480              		.loc 1 134 17 view .LVU154
 481 00ac 4CEA8135 		orr	r5, ip, r1, lsl #14
 482              	.LVL61:
 137:../../../support/device/gd32f4xx/peripherals/src/gd32f4xx_gpio.c ****             /* set the specified pin pupd bits */
 483              		.loc 1 137 13 is_stmt 1 view .LVU155
 484              		.loc 1 139 13 view .LVU156
 485              		.loc 1 139 18 is_stmt 0 view .LVU157
 486 00b0 44EA8234 		orr	r4, r4, r2, lsl #14
 487              	.LVL62:
 488              	.L30:
 129:../../../support/device/gd32f4xx/peripherals/src/gd32f4xx_gpio.c ****         if((1U << i) & pin) {
 489              		.loc 1 129 26 is_stmt 1 view .LVU158
 129:../../../support/device/gd32f4xx/peripherals/src/gd32f4xx_gpio.c ****         if((1U << i) & pin) {
ARM GAS  /var/folders/_f/88qcw_5n2jl40jjphvxyt7wh0000gn/T//cczWl83x.s 			page 14


 490              		.loc 1 129 17 view .LVU159
 130:../../../support/device/gd32f4xx/peripherals/src/gd32f4xx_gpio.c ****             /* clear the specified pin mode bits */
 491              		.loc 1 130 9 view .LVU160
 130:../../../support/device/gd32f4xx/peripherals/src/gd32f4xx_gpio.c ****             /* clear the specified pin mode bits */
 492              		.loc 1 130 11 is_stmt 0 view .LVU161
 493 00b4 13F4807F 		tst	r3, #256
 494 00b8 07D0     		beq	.L31
 132:../../../support/device/gd32f4xx/peripherals/src/gd32f4xx_gpio.c ****             /* set the specified pin mode bits */
 495              		.loc 1 132 13 is_stmt 1 view .LVU162
 132:../../../support/device/gd32f4xx/peripherals/src/gd32f4xx_gpio.c ****             /* set the specified pin mode bits */
 496              		.loc 1 132 17 is_stmt 0 view .LVU163
 497 00ba 25F4403C 		bic	ip, r5, #196608
 498              	.LVL63:
 134:../../../support/device/gd32f4xx/peripherals/src/gd32f4xx_gpio.c **** 
 499              		.loc 1 134 13 is_stmt 1 view .LVU164
 137:../../../support/device/gd32f4xx/peripherals/src/gd32f4xx_gpio.c ****             /* set the specified pin pupd bits */
 500              		.loc 1 137 18 is_stmt 0 view .LVU165
 501 00be 24F44034 		bic	r4, r4, #196608
 502              	.LVL64:
 134:../../../support/device/gd32f4xx/peripherals/src/gd32f4xx_gpio.c **** 
 503              		.loc 1 134 17 view .LVU166
 504 00c2 4CEA0145 		orr	r5, ip, r1, lsl #16
 505              	.LVL65:
 137:../../../support/device/gd32f4xx/peripherals/src/gd32f4xx_gpio.c ****             /* set the specified pin pupd bits */
 506              		.loc 1 137 13 is_stmt 1 view .LVU167
 507              		.loc 1 139 13 view .LVU168
 508              		.loc 1 139 18 is_stmt 0 view .LVU169
 509 00c6 44EA0244 		orr	r4, r4, r2, lsl #16
 510              	.LVL66:
 511              	.L31:
 129:../../../support/device/gd32f4xx/peripherals/src/gd32f4xx_gpio.c ****         if((1U << i) & pin) {
 512              		.loc 1 129 26 is_stmt 1 view .LVU170
 129:../../../support/device/gd32f4xx/peripherals/src/gd32f4xx_gpio.c ****         if((1U << i) & pin) {
 513              		.loc 1 129 17 view .LVU171
 130:../../../support/device/gd32f4xx/peripherals/src/gd32f4xx_gpio.c ****             /* clear the specified pin mode bits */
 514              		.loc 1 130 9 view .LVU172
 130:../../../support/device/gd32f4xx/peripherals/src/gd32f4xx_gpio.c ****             /* clear the specified pin mode bits */
 515              		.loc 1 130 11 is_stmt 0 view .LVU173
 516 00ca 13F4007F 		tst	r3, #512
 517 00ce 07D0     		beq	.L32
 132:../../../support/device/gd32f4xx/peripherals/src/gd32f4xx_gpio.c ****             /* set the specified pin mode bits */
 518              		.loc 1 132 13 is_stmt 1 view .LVU174
 132:../../../support/device/gd32f4xx/peripherals/src/gd32f4xx_gpio.c ****             /* set the specified pin mode bits */
 519              		.loc 1 132 17 is_stmt 0 view .LVU175
 520 00d0 25F4402C 		bic	ip, r5, #786432
 521              	.LVL67:
 134:../../../support/device/gd32f4xx/peripherals/src/gd32f4xx_gpio.c **** 
 522              		.loc 1 134 13 is_stmt 1 view .LVU176
 137:../../../support/device/gd32f4xx/peripherals/src/gd32f4xx_gpio.c ****             /* set the specified pin pupd bits */
 523              		.loc 1 137 18 is_stmt 0 view .LVU177
 524 00d4 24F44024 		bic	r4, r4, #786432
 525              	.LVL68:
 134:../../../support/device/gd32f4xx/peripherals/src/gd32f4xx_gpio.c **** 
 526              		.loc 1 134 17 view .LVU178
 527 00d8 4CEA8145 		orr	r5, ip, r1, lsl #18
 528              	.LVL69:
 137:../../../support/device/gd32f4xx/peripherals/src/gd32f4xx_gpio.c ****             /* set the specified pin pupd bits */
ARM GAS  /var/folders/_f/88qcw_5n2jl40jjphvxyt7wh0000gn/T//cczWl83x.s 			page 15


 529              		.loc 1 137 13 is_stmt 1 view .LVU179
 530              		.loc 1 139 13 view .LVU180
 531              		.loc 1 139 18 is_stmt 0 view .LVU181
 532 00dc 44EA8244 		orr	r4, r4, r2, lsl #18
 533              	.LVL70:
 534              	.L32:
 129:../../../support/device/gd32f4xx/peripherals/src/gd32f4xx_gpio.c ****         if((1U << i) & pin) {
 535              		.loc 1 129 26 is_stmt 1 view .LVU182
 129:../../../support/device/gd32f4xx/peripherals/src/gd32f4xx_gpio.c ****         if((1U << i) & pin) {
 536              		.loc 1 129 17 view .LVU183
 130:../../../support/device/gd32f4xx/peripherals/src/gd32f4xx_gpio.c ****             /* clear the specified pin mode bits */
 537              		.loc 1 130 9 view .LVU184
 130:../../../support/device/gd32f4xx/peripherals/src/gd32f4xx_gpio.c ****             /* clear the specified pin mode bits */
 538              		.loc 1 130 11 is_stmt 0 view .LVU185
 539 00e0 13F4806F 		tst	r3, #1024
 540 00e4 07D0     		beq	.L33
 132:../../../support/device/gd32f4xx/peripherals/src/gd32f4xx_gpio.c ****             /* set the specified pin mode bits */
 541              		.loc 1 132 13 is_stmt 1 view .LVU186
 132:../../../support/device/gd32f4xx/peripherals/src/gd32f4xx_gpio.c ****             /* set the specified pin mode bits */
 542              		.loc 1 132 17 is_stmt 0 view .LVU187
 543 00e6 25F4401C 		bic	ip, r5, #3145728
 544              	.LVL71:
 134:../../../support/device/gd32f4xx/peripherals/src/gd32f4xx_gpio.c **** 
 545              		.loc 1 134 13 is_stmt 1 view .LVU188
 137:../../../support/device/gd32f4xx/peripherals/src/gd32f4xx_gpio.c ****             /* set the specified pin pupd bits */
 546              		.loc 1 137 18 is_stmt 0 view .LVU189
 547 00ea 24F44014 		bic	r4, r4, #3145728
 548              	.LVL72:
 134:../../../support/device/gd32f4xx/peripherals/src/gd32f4xx_gpio.c **** 
 549              		.loc 1 134 17 view .LVU190
 550 00ee 4CEA0155 		orr	r5, ip, r1, lsl #20
 551              	.LVL73:
 137:../../../support/device/gd32f4xx/peripherals/src/gd32f4xx_gpio.c ****             /* set the specified pin pupd bits */
 552              		.loc 1 137 13 is_stmt 1 view .LVU191
 553              		.loc 1 139 13 view .LVU192
 554              		.loc 1 139 18 is_stmt 0 view .LVU193
 555 00f2 44EA0254 		orr	r4, r4, r2, lsl #20
 556              	.LVL74:
 557              	.L33:
 129:../../../support/device/gd32f4xx/peripherals/src/gd32f4xx_gpio.c ****         if((1U << i) & pin) {
 558              		.loc 1 129 26 is_stmt 1 view .LVU194
 129:../../../support/device/gd32f4xx/peripherals/src/gd32f4xx_gpio.c ****         if((1U << i) & pin) {
 559              		.loc 1 129 17 view .LVU195
 130:../../../support/device/gd32f4xx/peripherals/src/gd32f4xx_gpio.c ****             /* clear the specified pin mode bits */
 560              		.loc 1 130 9 view .LVU196
 130:../../../support/device/gd32f4xx/peripherals/src/gd32f4xx_gpio.c ****             /* clear the specified pin mode bits */
 561              		.loc 1 130 11 is_stmt 0 view .LVU197
 562 00f6 13F4006F 		tst	r3, #2048
 563 00fa 07D0     		beq	.L34
 132:../../../support/device/gd32f4xx/peripherals/src/gd32f4xx_gpio.c ****             /* set the specified pin mode bits */
 564              		.loc 1 132 13 is_stmt 1 view .LVU198
 132:../../../support/device/gd32f4xx/peripherals/src/gd32f4xx_gpio.c ****             /* set the specified pin mode bits */
 565              		.loc 1 132 17 is_stmt 0 view .LVU199
 566 00fc 25F4400C 		bic	ip, r5, #12582912
 567              	.LVL75:
 134:../../../support/device/gd32f4xx/peripherals/src/gd32f4xx_gpio.c **** 
 568              		.loc 1 134 13 is_stmt 1 view .LVU200
ARM GAS  /var/folders/_f/88qcw_5n2jl40jjphvxyt7wh0000gn/T//cczWl83x.s 			page 16


 137:../../../support/device/gd32f4xx/peripherals/src/gd32f4xx_gpio.c ****             /* set the specified pin pupd bits */
 569              		.loc 1 137 18 is_stmt 0 view .LVU201
 570 0100 24F44004 		bic	r4, r4, #12582912
 571              	.LVL76:
 134:../../../support/device/gd32f4xx/peripherals/src/gd32f4xx_gpio.c **** 
 572              		.loc 1 134 17 view .LVU202
 573 0104 4CEA8155 		orr	r5, ip, r1, lsl #22
 574              	.LVL77:
 137:../../../support/device/gd32f4xx/peripherals/src/gd32f4xx_gpio.c ****             /* set the specified pin pupd bits */
 575              		.loc 1 137 13 is_stmt 1 view .LVU203
 576              		.loc 1 139 13 view .LVU204
 577              		.loc 1 139 18 is_stmt 0 view .LVU205
 578 0108 44EA8254 		orr	r4, r4, r2, lsl #22
 579              	.LVL78:
 580              	.L34:
 129:../../../support/device/gd32f4xx/peripherals/src/gd32f4xx_gpio.c ****         if((1U << i) & pin) {
 581              		.loc 1 129 26 is_stmt 1 view .LVU206
 129:../../../support/device/gd32f4xx/peripherals/src/gd32f4xx_gpio.c ****         if((1U << i) & pin) {
 582              		.loc 1 129 17 view .LVU207
 130:../../../support/device/gd32f4xx/peripherals/src/gd32f4xx_gpio.c ****             /* clear the specified pin mode bits */
 583              		.loc 1 130 9 view .LVU208
 130:../../../support/device/gd32f4xx/peripherals/src/gd32f4xx_gpio.c ****             /* clear the specified pin mode bits */
 584              		.loc 1 130 11 is_stmt 0 view .LVU209
 585 010c 13F4805F 		tst	r3, #4096
 586 0110 07D0     		beq	.L35
 132:../../../support/device/gd32f4xx/peripherals/src/gd32f4xx_gpio.c ****             /* set the specified pin mode bits */
 587              		.loc 1 132 13 is_stmt 1 view .LVU210
 132:../../../support/device/gd32f4xx/peripherals/src/gd32f4xx_gpio.c ****             /* set the specified pin mode bits */
 588              		.loc 1 132 17 is_stmt 0 view .LVU211
 589 0112 25F0407C 		bic	ip, r5, #50331648
 590              	.LVL79:
 134:../../../support/device/gd32f4xx/peripherals/src/gd32f4xx_gpio.c **** 
 591              		.loc 1 134 13 is_stmt 1 view .LVU212
 137:../../../support/device/gd32f4xx/peripherals/src/gd32f4xx_gpio.c ****             /* set the specified pin pupd bits */
 592              		.loc 1 137 18 is_stmt 0 view .LVU213
 593 0116 24F04074 		bic	r4, r4, #50331648
 594              	.LVL80:
 134:../../../support/device/gd32f4xx/peripherals/src/gd32f4xx_gpio.c **** 
 595              		.loc 1 134 17 view .LVU214
 596 011a 4CEA0165 		orr	r5, ip, r1, lsl #24
 597              	.LVL81:
 137:../../../support/device/gd32f4xx/peripherals/src/gd32f4xx_gpio.c ****             /* set the specified pin pupd bits */
 598              		.loc 1 137 13 is_stmt 1 view .LVU215
 599              		.loc 1 139 13 view .LVU216
 600              		.loc 1 139 18 is_stmt 0 view .LVU217
 601 011e 44EA0264 		orr	r4, r4, r2, lsl #24
 602              	.LVL82:
 603              	.L35:
 129:../../../support/device/gd32f4xx/peripherals/src/gd32f4xx_gpio.c ****         if((1U << i) & pin) {
 604              		.loc 1 129 26 is_stmt 1 view .LVU218
 129:../../../support/device/gd32f4xx/peripherals/src/gd32f4xx_gpio.c ****         if((1U << i) & pin) {
 605              		.loc 1 129 17 view .LVU219
 130:../../../support/device/gd32f4xx/peripherals/src/gd32f4xx_gpio.c ****             /* clear the specified pin mode bits */
 606              		.loc 1 130 9 view .LVU220
 130:../../../support/device/gd32f4xx/peripherals/src/gd32f4xx_gpio.c ****             /* clear the specified pin mode bits */
 607              		.loc 1 130 11 is_stmt 0 view .LVU221
 608 0122 13F4005F 		tst	r3, #8192
ARM GAS  /var/folders/_f/88qcw_5n2jl40jjphvxyt7wh0000gn/T//cczWl83x.s 			page 17


 609 0126 07D0     		beq	.L36
 132:../../../support/device/gd32f4xx/peripherals/src/gd32f4xx_gpio.c ****             /* set the specified pin mode bits */
 610              		.loc 1 132 13 is_stmt 1 view .LVU222
 132:../../../support/device/gd32f4xx/peripherals/src/gd32f4xx_gpio.c ****             /* set the specified pin mode bits */
 611              		.loc 1 132 17 is_stmt 0 view .LVU223
 612 0128 25F0406C 		bic	ip, r5, #201326592
 613              	.LVL83:
 134:../../../support/device/gd32f4xx/peripherals/src/gd32f4xx_gpio.c **** 
 614              		.loc 1 134 13 is_stmt 1 view .LVU224
 137:../../../support/device/gd32f4xx/peripherals/src/gd32f4xx_gpio.c ****             /* set the specified pin pupd bits */
 615              		.loc 1 137 18 is_stmt 0 view .LVU225
 616 012c 24F04064 		bic	r4, r4, #201326592
 617              	.LVL84:
 134:../../../support/device/gd32f4xx/peripherals/src/gd32f4xx_gpio.c **** 
 618              		.loc 1 134 17 view .LVU226
 619 0130 4CEA8165 		orr	r5, ip, r1, lsl #26
 620              	.LVL85:
 137:../../../support/device/gd32f4xx/peripherals/src/gd32f4xx_gpio.c ****             /* set the specified pin pupd bits */
 621              		.loc 1 137 13 is_stmt 1 view .LVU227
 622              		.loc 1 139 13 view .LVU228
 623              		.loc 1 139 18 is_stmt 0 view .LVU229
 624 0134 44EA8264 		orr	r4, r4, r2, lsl #26
 625              	.LVL86:
 626              	.L36:
 129:../../../support/device/gd32f4xx/peripherals/src/gd32f4xx_gpio.c ****         if((1U << i) & pin) {
 627              		.loc 1 129 26 is_stmt 1 view .LVU230
 129:../../../support/device/gd32f4xx/peripherals/src/gd32f4xx_gpio.c ****         if((1U << i) & pin) {
 628              		.loc 1 129 17 view .LVU231
 130:../../../support/device/gd32f4xx/peripherals/src/gd32f4xx_gpio.c ****             /* clear the specified pin mode bits */
 629              		.loc 1 130 9 view .LVU232
 130:../../../support/device/gd32f4xx/peripherals/src/gd32f4xx_gpio.c ****             /* clear the specified pin mode bits */
 630              		.loc 1 130 11 is_stmt 0 view .LVU233
 631 0138 13F4804F 		tst	r3, #16384
 632 013c 07D0     		beq	.L37
 132:../../../support/device/gd32f4xx/peripherals/src/gd32f4xx_gpio.c ****             /* set the specified pin mode bits */
 633              		.loc 1 132 13 is_stmt 1 view .LVU234
 132:../../../support/device/gd32f4xx/peripherals/src/gd32f4xx_gpio.c ****             /* set the specified pin mode bits */
 634              		.loc 1 132 17 is_stmt 0 view .LVU235
 635 013e 25F0405C 		bic	ip, r5, #805306368
 636              	.LVL87:
 134:../../../support/device/gd32f4xx/peripherals/src/gd32f4xx_gpio.c **** 
 637              		.loc 1 134 13 is_stmt 1 view .LVU236
 137:../../../support/device/gd32f4xx/peripherals/src/gd32f4xx_gpio.c ****             /* set the specified pin pupd bits */
 638              		.loc 1 137 18 is_stmt 0 view .LVU237
 639 0142 24F04054 		bic	r4, r4, #805306368
 640              	.LVL88:
 134:../../../support/device/gd32f4xx/peripherals/src/gd32f4xx_gpio.c **** 
 641              		.loc 1 134 17 view .LVU238
 642 0146 4CEA0175 		orr	r5, ip, r1, lsl #28
 643              	.LVL89:
 137:../../../support/device/gd32f4xx/peripherals/src/gd32f4xx_gpio.c ****             /* set the specified pin pupd bits */
 644              		.loc 1 137 13 is_stmt 1 view .LVU239
 645              		.loc 1 139 13 view .LVU240
 646              		.loc 1 139 18 is_stmt 0 view .LVU241
 647 014a 44EA0274 		orr	r4, r4, r2, lsl #28
 648              	.LVL90:
 649              	.L37:
ARM GAS  /var/folders/_f/88qcw_5n2jl40jjphvxyt7wh0000gn/T//cczWl83x.s 			page 18


 129:../../../support/device/gd32f4xx/peripherals/src/gd32f4xx_gpio.c ****         if((1U << i) & pin) {
 650              		.loc 1 129 26 is_stmt 1 view .LVU242
 129:../../../support/device/gd32f4xx/peripherals/src/gd32f4xx_gpio.c ****         if((1U << i) & pin) {
 651              		.loc 1 129 17 view .LVU243
 130:../../../support/device/gd32f4xx/peripherals/src/gd32f4xx_gpio.c ****             /* clear the specified pin mode bits */
 652              		.loc 1 130 9 view .LVU244
 132:../../../support/device/gd32f4xx/peripherals/src/gd32f4xx_gpio.c ****             /* set the specified pin mode bits */
 653              		.loc 1 132 13 view .LVU245
 134:../../../support/device/gd32f4xx/peripherals/src/gd32f4xx_gpio.c **** 
 654              		.loc 1 134 13 view .LVU246
 130:../../../support/device/gd32f4xx/peripherals/src/gd32f4xx_gpio.c ****             /* clear the specified pin mode bits */
 655              		.loc 1 130 11 is_stmt 0 view .LVU247
 656 014e 1B04     		lsls	r3, r3, #16
 657              	.LVL91:
 134:../../../support/device/gd32f4xx/peripherals/src/gd32f4xx_gpio.c **** 
 658              		.loc 1 134 17 view .LVU248
 659 0150 44BF     		itt	mi
 660 0152 61F39F75 		bfimi	r5, r1, #30, #2
 661              	.LVL92:
 137:../../../support/device/gd32f4xx/peripherals/src/gd32f4xx_gpio.c ****             /* set the specified pin pupd bits */
 662              		.loc 1 137 13 is_stmt 1 view .LVU249
 663              		.loc 1 139 13 view .LVU250
 664              		.loc 1 139 18 is_stmt 0 view .LVU251
 665 0156 62F39F74 		bfimi	r4, r2, #30, #2
 666              	.LVL93:
 129:../../../support/device/gd32f4xx/peripherals/src/gd32f4xx_gpio.c ****         if((1U << i) & pin) {
 667              		.loc 1 129 26 is_stmt 1 view .LVU252
 129:../../../support/device/gd32f4xx/peripherals/src/gd32f4xx_gpio.c ****         if((1U << i) & pin) {
 668              		.loc 1 129 17 view .LVU253
 140:../../../support/device/gd32f4xx/peripherals/src/gd32f4xx_gpio.c ****         }
 141:../../../support/device/gd32f4xx/peripherals/src/gd32f4xx_gpio.c ****     }
 142:../../../support/device/gd32f4xx/peripherals/src/gd32f4xx_gpio.c **** 
 143:../../../support/device/gd32f4xx/peripherals/src/gd32f4xx_gpio.c ****     GPIO_CTL(gpio_periph) = ctl;
 669              		.loc 1 143 5 view .LVU254
 670              		.loc 1 143 27 is_stmt 0 view .LVU255
 671 015a 0560     		str	r5, [r0]
 144:../../../support/device/gd32f4xx/peripherals/src/gd32f4xx_gpio.c ****     GPIO_PUD(gpio_periph) = pupd;
 672              		.loc 1 144 5 is_stmt 1 view .LVU256
 673              		.loc 1 144 27 is_stmt 0 view .LVU257
 674 015c C460     		str	r4, [r0, #12]
 145:../../../support/device/gd32f4xx/peripherals/src/gd32f4xx_gpio.c **** }
 675              		.loc 1 145 1 view .LVU258
 676 015e 30BC     		pop	{r4, r5}
 677              	.LCFI19:
 678              		.cfi_restore 5
 679              		.cfi_restore 4
 680              		.cfi_def_cfa_offset 0
 681              	.LVL94:
 682              		.loc 1 145 1 view .LVU259
 683 0160 7047     		bx	lr
 684              		.cfi_endproc
 685              	.LFE117:
 687 0162 00BF     		.section	.text.gpio_output_options_set,"ax",%progbits
 688              		.align	1
 689              		.p2align 2,,3
 690              		.global	gpio_output_options_set
 691              		.syntax unified
ARM GAS  /var/folders/_f/88qcw_5n2jl40jjphvxyt7wh0000gn/T//cczWl83x.s 			page 19


 692              		.thumb
 693              		.thumb_func
 695              	gpio_output_options_set:
 696              	.LVL95:
 697              	.LFB118:
 146:../../../support/device/gd32f4xx/peripherals/src/gd32f4xx_gpio.c **** 
 147:../../../support/device/gd32f4xx/peripherals/src/gd32f4xx_gpio.c **** /*!
 148:../../../support/device/gd32f4xx/peripherals/src/gd32f4xx_gpio.c ****     \brief      set GPIO output type and speed
 149:../../../support/device/gd32f4xx/peripherals/src/gd32f4xx_gpio.c ****     \param[in]  gpio_periph: GPIO port
 150:../../../support/device/gd32f4xx/peripherals/src/gd32f4xx_gpio.c ****                 only one parameter can be selected which is shown as below:
 151:../../../support/device/gd32f4xx/peripherals/src/gd32f4xx_gpio.c ****       \arg        GPIOx(x = A,B,C,D,E,F,G,H,I)
 152:../../../support/device/gd32f4xx/peripherals/src/gd32f4xx_gpio.c ****     \param[in]  otype: GPIO pin output mode
 153:../../../support/device/gd32f4xx/peripherals/src/gd32f4xx_gpio.c ****       \arg        GPIO_OTYPE_PP: push pull mode
 154:../../../support/device/gd32f4xx/peripherals/src/gd32f4xx_gpio.c ****       \arg        GPIO_OTYPE_OD: open drain mode
 155:../../../support/device/gd32f4xx/peripherals/src/gd32f4xx_gpio.c ****     \param[in]  speed: GPIO pin output max speed
 156:../../../support/device/gd32f4xx/peripherals/src/gd32f4xx_gpio.c ****       \arg        GPIO_OSPEED_2MHZ: output max speed 2MHz
 157:../../../support/device/gd32f4xx/peripherals/src/gd32f4xx_gpio.c ****       \arg        GPIO_OSPEED_25MHZ: output max speed 25MHz
 158:../../../support/device/gd32f4xx/peripherals/src/gd32f4xx_gpio.c ****       \arg        GPIO_OSPEED_50MHZ: output max speed 50MHz
 159:../../../support/device/gd32f4xx/peripherals/src/gd32f4xx_gpio.c ****       \arg        GPIO_OSPEED_MAX: output max speed more than 50MHz
 160:../../../support/device/gd32f4xx/peripherals/src/gd32f4xx_gpio.c ****     \param[in]  pin: GPIO pin
 161:../../../support/device/gd32f4xx/peripherals/src/gd32f4xx_gpio.c ****                 one or more parameters can be selected which are shown as below:
 162:../../../support/device/gd32f4xx/peripherals/src/gd32f4xx_gpio.c ****       \arg        GPIO_PIN_x(x=0..15), GPIO_PIN_ALL
 163:../../../support/device/gd32f4xx/peripherals/src/gd32f4xx_gpio.c ****     \param[out] none
 164:../../../support/device/gd32f4xx/peripherals/src/gd32f4xx_gpio.c ****     \retval     none
 165:../../../support/device/gd32f4xx/peripherals/src/gd32f4xx_gpio.c **** */
 166:../../../support/device/gd32f4xx/peripherals/src/gd32f4xx_gpio.c **** void gpio_output_options_set(uint32_t gpio_periph, uint8_t otype, uint32_t speed, uint32_t pin)
 167:../../../support/device/gd32f4xx/peripherals/src/gd32f4xx_gpio.c **** {
 698              		.loc 1 167 1 is_stmt 1 view -0
 699              		.cfi_startproc
 700              		@ args = 0, pretend = 0, frame = 0
 701              		@ frame_needed = 0, uses_anonymous_args = 0
 702              		@ link register save eliminated.
 168:../../../support/device/gd32f4xx/peripherals/src/gd32f4xx_gpio.c ****     uint16_t i;
 703              		.loc 1 168 5 view .LVU261
 169:../../../support/device/gd32f4xx/peripherals/src/gd32f4xx_gpio.c ****     uint32_t ospeedr;
 704              		.loc 1 169 5 view .LVU262
 170:../../../support/device/gd32f4xx/peripherals/src/gd32f4xx_gpio.c **** 
 171:../../../support/device/gd32f4xx/peripherals/src/gd32f4xx_gpio.c ****     if(GPIO_OTYPE_OD == otype) {
 705              		.loc 1 171 5 view .LVU263
 706              		.loc 1 171 7 is_stmt 0 view .LVU264
 707 0000 0129     		cmp	r1, #1
 172:../../../support/device/gd32f4xx/peripherals/src/gd32f4xx_gpio.c ****         GPIO_OMODE(gpio_periph) |= (uint32_t)pin;
 708              		.loc 1 172 33 view .LVU265
 709 0002 4168     		ldr	r1, [r0, #4]
 710              	.LVL96:
 711              		.loc 1 172 9 is_stmt 1 view .LVU266
 173:../../../support/device/gd32f4xx/peripherals/src/gd32f4xx_gpio.c ****     } else {
 174:../../../support/device/gd32f4xx/peripherals/src/gd32f4xx_gpio.c ****         GPIO_OMODE(gpio_periph) &= (uint32_t)(~pin);
 712              		.loc 1 174 9 view .LVU267
 175:../../../support/device/gd32f4xx/peripherals/src/gd32f4xx_gpio.c ****     }
 176:../../../support/device/gd32f4xx/peripherals/src/gd32f4xx_gpio.c **** 
 177:../../../support/device/gd32f4xx/peripherals/src/gd32f4xx_gpio.c ****     /* get the specified pin output speed bits value */
 178:../../../support/device/gd32f4xx/peripherals/src/gd32f4xx_gpio.c ****     ospeedr = GPIO_OSPD(gpio_periph);
 713              		.loc 1 178 5 view .LVU268
 172:../../../support/device/gd32f4xx/peripherals/src/gd32f4xx_gpio.c ****     } else {
 714              		.loc 1 172 33 is_stmt 0 view .LVU269
 715 0004 0CBF     		ite	eq
ARM GAS  /var/folders/_f/88qcw_5n2jl40jjphvxyt7wh0000gn/T//cczWl83x.s 			page 20


 716 0006 1943     		orreq	r1, r1, r3
 174:../../../support/device/gd32f4xx/peripherals/src/gd32f4xx_gpio.c ****     }
 717              		.loc 1 174 33 view .LVU270
 718 0008 9943     		bicne	r1, r1, r3
 719 000a 4160     		str	r1, [r0, #4]
 720              		.loc 1 178 13 view .LVU271
 721 000c 8168     		ldr	r1, [r0, #8]
 722              	.LVL97:
 179:../../../support/device/gd32f4xx/peripherals/src/gd32f4xx_gpio.c **** 
 180:../../../support/device/gd32f4xx/peripherals/src/gd32f4xx_gpio.c ****     for(i = 0U; i < 16U; i++) {
 723              		.loc 1 180 5 is_stmt 1 view .LVU272
 724              		.loc 1 180 17 view .LVU273
 181:../../../support/device/gd32f4xx/peripherals/src/gd32f4xx_gpio.c ****         if((1U << i) & pin) {
 725              		.loc 1 181 9 view .LVU274
 726              		.loc 1 181 11 is_stmt 0 view .LVU275
 727 000e 13F0010F 		tst	r3, #1
 182:../../../support/device/gd32f4xx/peripherals/src/gd32f4xx_gpio.c ****             /* clear the specified pin output speed bits */
 183:../../../support/device/gd32f4xx/peripherals/src/gd32f4xx_gpio.c ****             ospeedr &= ~GPIO_OSPEED_MASK(i);
 728              		.loc 1 183 13 is_stmt 1 view .LVU276
 729              		.loc 1 183 21 is_stmt 0 view .LVU277
 730 0012 1CBF     		itt	ne
 731 0014 21F00301 		bicne	r1, r1, #3
 732              	.LVL98:
 184:../../../support/device/gd32f4xx/peripherals/src/gd32f4xx_gpio.c ****             /* set the specified pin output speed bits */
 185:../../../support/device/gd32f4xx/peripherals/src/gd32f4xx_gpio.c ****             ospeedr |= GPIO_OSPEED_SET(i, speed);
 733              		.loc 1 185 13 is_stmt 1 view .LVU278
 734              		.loc 1 185 21 is_stmt 0 view .LVU279
 735 0018 1143     		orrne	r1, r1, r2
 736              	.LVL99:
 180:../../../support/device/gd32f4xx/peripherals/src/gd32f4xx_gpio.c ****         if((1U << i) & pin) {
 737              		.loc 1 180 26 is_stmt 1 view .LVU280
 180:../../../support/device/gd32f4xx/peripherals/src/gd32f4xx_gpio.c ****         if((1U << i) & pin) {
 738              		.loc 1 180 17 view .LVU281
 181:../../../support/device/gd32f4xx/peripherals/src/gd32f4xx_gpio.c ****             /* clear the specified pin output speed bits */
 739              		.loc 1 181 9 view .LVU282
 183:../../../support/device/gd32f4xx/peripherals/src/gd32f4xx_gpio.c ****             /* set the specified pin output speed bits */
 740              		.loc 1 183 13 view .LVU283
 181:../../../support/device/gd32f4xx/peripherals/src/gd32f4xx_gpio.c ****             /* clear the specified pin output speed bits */
 741              		.loc 1 181 11 is_stmt 0 view .LVU284
 742 001a 13F0020F 		tst	r3, #2
 183:../../../support/device/gd32f4xx/peripherals/src/gd32f4xx_gpio.c ****             /* set the specified pin output speed bits */
 743              		.loc 1 183 21 view .LVU285
 744 001e 1CBF     		itt	ne
 745 0020 21F00C01 		bicne	r1, r1, #12
 746              	.LVL100:
 747              		.loc 1 185 13 is_stmt 1 view .LVU286
 748              		.loc 1 185 21 is_stmt 0 view .LVU287
 749 0024 41EA8201 		orrne	r1, r1, r2, lsl #2
 750              	.LVL101:
 180:../../../support/device/gd32f4xx/peripherals/src/gd32f4xx_gpio.c ****         if((1U << i) & pin) {
 751              		.loc 1 180 26 is_stmt 1 view .LVU288
 180:../../../support/device/gd32f4xx/peripherals/src/gd32f4xx_gpio.c ****         if((1U << i) & pin) {
 752              		.loc 1 180 17 view .LVU289
 181:../../../support/device/gd32f4xx/peripherals/src/gd32f4xx_gpio.c ****             /* clear the specified pin output speed bits */
 753              		.loc 1 181 9 view .LVU290
 183:../../../support/device/gd32f4xx/peripherals/src/gd32f4xx_gpio.c ****             /* set the specified pin output speed bits */
 754              		.loc 1 183 13 view .LVU291
ARM GAS  /var/folders/_f/88qcw_5n2jl40jjphvxyt7wh0000gn/T//cczWl83x.s 			page 21


 181:../../../support/device/gd32f4xx/peripherals/src/gd32f4xx_gpio.c ****             /* clear the specified pin output speed bits */
 755              		.loc 1 181 11 is_stmt 0 view .LVU292
 756 0028 13F0040F 		tst	r3, #4
 183:../../../support/device/gd32f4xx/peripherals/src/gd32f4xx_gpio.c ****             /* set the specified pin output speed bits */
 757              		.loc 1 183 21 view .LVU293
 758 002c 1CBF     		itt	ne
 759 002e 21F03001 		bicne	r1, r1, #48
 760              	.LVL102:
 761              		.loc 1 185 13 is_stmt 1 view .LVU294
 762              		.loc 1 185 21 is_stmt 0 view .LVU295
 763 0032 41EA0211 		orrne	r1, r1, r2, lsl #4
 764              	.LVL103:
 180:../../../support/device/gd32f4xx/peripherals/src/gd32f4xx_gpio.c ****         if((1U << i) & pin) {
 765              		.loc 1 180 26 is_stmt 1 view .LVU296
 180:../../../support/device/gd32f4xx/peripherals/src/gd32f4xx_gpio.c ****         if((1U << i) & pin) {
 766              		.loc 1 180 17 view .LVU297
 181:../../../support/device/gd32f4xx/peripherals/src/gd32f4xx_gpio.c ****             /* clear the specified pin output speed bits */
 767              		.loc 1 181 9 view .LVU298
 183:../../../support/device/gd32f4xx/peripherals/src/gd32f4xx_gpio.c ****             /* set the specified pin output speed bits */
 768              		.loc 1 183 13 view .LVU299
 181:../../../support/device/gd32f4xx/peripherals/src/gd32f4xx_gpio.c ****             /* clear the specified pin output speed bits */
 769              		.loc 1 181 11 is_stmt 0 view .LVU300
 770 0036 13F0080F 		tst	r3, #8
 183:../../../support/device/gd32f4xx/peripherals/src/gd32f4xx_gpio.c ****             /* set the specified pin output speed bits */
 771              		.loc 1 183 21 view .LVU301
 772 003a 1CBF     		itt	ne
 773 003c 21F0C001 		bicne	r1, r1, #192
 774              	.LVL104:
 775              		.loc 1 185 13 is_stmt 1 view .LVU302
 776              		.loc 1 185 21 is_stmt 0 view .LVU303
 777 0040 41EA8211 		orrne	r1, r1, r2, lsl #6
 778              	.LVL105:
 180:../../../support/device/gd32f4xx/peripherals/src/gd32f4xx_gpio.c ****         if((1U << i) & pin) {
 779              		.loc 1 180 26 is_stmt 1 view .LVU304
 180:../../../support/device/gd32f4xx/peripherals/src/gd32f4xx_gpio.c ****         if((1U << i) & pin) {
 780              		.loc 1 180 17 view .LVU305
 181:../../../support/device/gd32f4xx/peripherals/src/gd32f4xx_gpio.c ****             /* clear the specified pin output speed bits */
 781              		.loc 1 181 9 view .LVU306
 183:../../../support/device/gd32f4xx/peripherals/src/gd32f4xx_gpio.c ****             /* set the specified pin output speed bits */
 782              		.loc 1 183 13 view .LVU307
 181:../../../support/device/gd32f4xx/peripherals/src/gd32f4xx_gpio.c ****             /* clear the specified pin output speed bits */
 783              		.loc 1 181 11 is_stmt 0 view .LVU308
 784 0044 13F0100F 		tst	r3, #16
 183:../../../support/device/gd32f4xx/peripherals/src/gd32f4xx_gpio.c ****             /* set the specified pin output speed bits */
 785              		.loc 1 183 21 view .LVU309
 786 0048 1CBF     		itt	ne
 787 004a 21F44071 		bicne	r1, r1, #768
 788              	.LVL106:
 789              		.loc 1 185 13 is_stmt 1 view .LVU310
 790              		.loc 1 185 21 is_stmt 0 view .LVU311
 791 004e 41EA0221 		orrne	r1, r1, r2, lsl #8
 792              	.LVL107:
 180:../../../support/device/gd32f4xx/peripherals/src/gd32f4xx_gpio.c ****         if((1U << i) & pin) {
 793              		.loc 1 180 26 is_stmt 1 view .LVU312
 180:../../../support/device/gd32f4xx/peripherals/src/gd32f4xx_gpio.c ****         if((1U << i) & pin) {
 794              		.loc 1 180 17 view .LVU313
 181:../../../support/device/gd32f4xx/peripherals/src/gd32f4xx_gpio.c ****             /* clear the specified pin output speed bits */
ARM GAS  /var/folders/_f/88qcw_5n2jl40jjphvxyt7wh0000gn/T//cczWl83x.s 			page 22


 795              		.loc 1 181 9 view .LVU314
 183:../../../support/device/gd32f4xx/peripherals/src/gd32f4xx_gpio.c ****             /* set the specified pin output speed bits */
 796              		.loc 1 183 13 view .LVU315
 181:../../../support/device/gd32f4xx/peripherals/src/gd32f4xx_gpio.c ****             /* clear the specified pin output speed bits */
 797              		.loc 1 181 11 is_stmt 0 view .LVU316
 798 0052 13F0200F 		tst	r3, #32
 183:../../../support/device/gd32f4xx/peripherals/src/gd32f4xx_gpio.c ****             /* set the specified pin output speed bits */
 799              		.loc 1 183 21 view .LVU317
 800 0056 1CBF     		itt	ne
 801 0058 21F44061 		bicne	r1, r1, #3072
 802              	.LVL108:
 803              		.loc 1 185 13 is_stmt 1 view .LVU318
 804              		.loc 1 185 21 is_stmt 0 view .LVU319
 805 005c 41EA8221 		orrne	r1, r1, r2, lsl #10
 806              	.LVL109:
 180:../../../support/device/gd32f4xx/peripherals/src/gd32f4xx_gpio.c ****         if((1U << i) & pin) {
 807              		.loc 1 180 26 is_stmt 1 view .LVU320
 180:../../../support/device/gd32f4xx/peripherals/src/gd32f4xx_gpio.c ****         if((1U << i) & pin) {
 808              		.loc 1 180 17 view .LVU321
 181:../../../support/device/gd32f4xx/peripherals/src/gd32f4xx_gpio.c ****             /* clear the specified pin output speed bits */
 809              		.loc 1 181 9 view .LVU322
 183:../../../support/device/gd32f4xx/peripherals/src/gd32f4xx_gpio.c ****             /* set the specified pin output speed bits */
 810              		.loc 1 183 13 view .LVU323
 181:../../../support/device/gd32f4xx/peripherals/src/gd32f4xx_gpio.c ****             /* clear the specified pin output speed bits */
 811              		.loc 1 181 11 is_stmt 0 view .LVU324
 812 0060 13F0400F 		tst	r3, #64
 183:../../../support/device/gd32f4xx/peripherals/src/gd32f4xx_gpio.c ****             /* set the specified pin output speed bits */
 813              		.loc 1 183 21 view .LVU325
 814 0064 1CBF     		itt	ne
 815 0066 21F44051 		bicne	r1, r1, #12288
 816              	.LVL110:
 817              		.loc 1 185 13 is_stmt 1 view .LVU326
 818              		.loc 1 185 21 is_stmt 0 view .LVU327
 819 006a 41EA0231 		orrne	r1, r1, r2, lsl #12
 820              	.LVL111:
 180:../../../support/device/gd32f4xx/peripherals/src/gd32f4xx_gpio.c ****         if((1U << i) & pin) {
 821              		.loc 1 180 26 is_stmt 1 view .LVU328
 180:../../../support/device/gd32f4xx/peripherals/src/gd32f4xx_gpio.c ****         if((1U << i) & pin) {
 822              		.loc 1 180 17 view .LVU329
 181:../../../support/device/gd32f4xx/peripherals/src/gd32f4xx_gpio.c ****             /* clear the specified pin output speed bits */
 823              		.loc 1 181 9 view .LVU330
 183:../../../support/device/gd32f4xx/peripherals/src/gd32f4xx_gpio.c ****             /* set the specified pin output speed bits */
 824              		.loc 1 183 13 view .LVU331
 181:../../../support/device/gd32f4xx/peripherals/src/gd32f4xx_gpio.c ****             /* clear the specified pin output speed bits */
 825              		.loc 1 181 11 is_stmt 0 view .LVU332
 826 006e 13F0800F 		tst	r3, #128
 183:../../../support/device/gd32f4xx/peripherals/src/gd32f4xx_gpio.c ****             /* set the specified pin output speed bits */
 827              		.loc 1 183 21 view .LVU333
 828 0072 1CBF     		itt	ne
 829 0074 21F44041 		bicne	r1, r1, #49152
 830              	.LVL112:
 831              		.loc 1 185 13 is_stmt 1 view .LVU334
 832              		.loc 1 185 21 is_stmt 0 view .LVU335
 833 0078 41EA8231 		orrne	r1, r1, r2, lsl #14
 834              	.LVL113:
 180:../../../support/device/gd32f4xx/peripherals/src/gd32f4xx_gpio.c ****         if((1U << i) & pin) {
 835              		.loc 1 180 26 is_stmt 1 view .LVU336
ARM GAS  /var/folders/_f/88qcw_5n2jl40jjphvxyt7wh0000gn/T//cczWl83x.s 			page 23


 180:../../../support/device/gd32f4xx/peripherals/src/gd32f4xx_gpio.c ****         if((1U << i) & pin) {
 836              		.loc 1 180 17 view .LVU337
 181:../../../support/device/gd32f4xx/peripherals/src/gd32f4xx_gpio.c ****             /* clear the specified pin output speed bits */
 837              		.loc 1 181 9 view .LVU338
 183:../../../support/device/gd32f4xx/peripherals/src/gd32f4xx_gpio.c ****             /* set the specified pin output speed bits */
 838              		.loc 1 183 13 view .LVU339
 181:../../../support/device/gd32f4xx/peripherals/src/gd32f4xx_gpio.c ****             /* clear the specified pin output speed bits */
 839              		.loc 1 181 11 is_stmt 0 view .LVU340
 840 007c 13F4807F 		tst	r3, #256
 183:../../../support/device/gd32f4xx/peripherals/src/gd32f4xx_gpio.c ****             /* set the specified pin output speed bits */
 841              		.loc 1 183 21 view .LVU341
 842 0080 1CBF     		itt	ne
 843 0082 21F44031 		bicne	r1, r1, #196608
 844              	.LVL114:
 845              		.loc 1 185 13 is_stmt 1 view .LVU342
 846              		.loc 1 185 21 is_stmt 0 view .LVU343
 847 0086 41EA0241 		orrne	r1, r1, r2, lsl #16
 848              	.LVL115:
 180:../../../support/device/gd32f4xx/peripherals/src/gd32f4xx_gpio.c ****         if((1U << i) & pin) {
 849              		.loc 1 180 26 is_stmt 1 view .LVU344
 180:../../../support/device/gd32f4xx/peripherals/src/gd32f4xx_gpio.c ****         if((1U << i) & pin) {
 850              		.loc 1 180 17 view .LVU345
 181:../../../support/device/gd32f4xx/peripherals/src/gd32f4xx_gpio.c ****             /* clear the specified pin output speed bits */
 851              		.loc 1 181 9 view .LVU346
 183:../../../support/device/gd32f4xx/peripherals/src/gd32f4xx_gpio.c ****             /* set the specified pin output speed bits */
 852              		.loc 1 183 13 view .LVU347
 181:../../../support/device/gd32f4xx/peripherals/src/gd32f4xx_gpio.c ****             /* clear the specified pin output speed bits */
 853              		.loc 1 181 11 is_stmt 0 view .LVU348
 854 008a 13F4007F 		tst	r3, #512
 183:../../../support/device/gd32f4xx/peripherals/src/gd32f4xx_gpio.c ****             /* set the specified pin output speed bits */
 855              		.loc 1 183 21 view .LVU349
 856 008e 1CBF     		itt	ne
 857 0090 21F44021 		bicne	r1, r1, #786432
 858              	.LVL116:
 859              		.loc 1 185 13 is_stmt 1 view .LVU350
 860              		.loc 1 185 21 is_stmt 0 view .LVU351
 861 0094 41EA8241 		orrne	r1, r1, r2, lsl #18
 862              	.LVL117:
 180:../../../support/device/gd32f4xx/peripherals/src/gd32f4xx_gpio.c ****         if((1U << i) & pin) {
 863              		.loc 1 180 26 is_stmt 1 view .LVU352
 180:../../../support/device/gd32f4xx/peripherals/src/gd32f4xx_gpio.c ****         if((1U << i) & pin) {
 864              		.loc 1 180 17 view .LVU353
 181:../../../support/device/gd32f4xx/peripherals/src/gd32f4xx_gpio.c ****             /* clear the specified pin output speed bits */
 865              		.loc 1 181 9 view .LVU354
 183:../../../support/device/gd32f4xx/peripherals/src/gd32f4xx_gpio.c ****             /* set the specified pin output speed bits */
 866              		.loc 1 183 13 view .LVU355
 181:../../../support/device/gd32f4xx/peripherals/src/gd32f4xx_gpio.c ****             /* clear the specified pin output speed bits */
 867              		.loc 1 181 11 is_stmt 0 view .LVU356
 868 0098 13F4806F 		tst	r3, #1024
 183:../../../support/device/gd32f4xx/peripherals/src/gd32f4xx_gpio.c ****             /* set the specified pin output speed bits */
 869              		.loc 1 183 21 view .LVU357
 870 009c 1CBF     		itt	ne
 871 009e 21F44011 		bicne	r1, r1, #3145728
 872              	.LVL118:
 873              		.loc 1 185 13 is_stmt 1 view .LVU358
 874              		.loc 1 185 21 is_stmt 0 view .LVU359
 875 00a2 41EA0251 		orrne	r1, r1, r2, lsl #20
ARM GAS  /var/folders/_f/88qcw_5n2jl40jjphvxyt7wh0000gn/T//cczWl83x.s 			page 24


 876              	.LVL119:
 180:../../../support/device/gd32f4xx/peripherals/src/gd32f4xx_gpio.c ****         if((1U << i) & pin) {
 877              		.loc 1 180 26 is_stmt 1 view .LVU360
 180:../../../support/device/gd32f4xx/peripherals/src/gd32f4xx_gpio.c ****         if((1U << i) & pin) {
 878              		.loc 1 180 17 view .LVU361
 181:../../../support/device/gd32f4xx/peripherals/src/gd32f4xx_gpio.c ****             /* clear the specified pin output speed bits */
 879              		.loc 1 181 9 view .LVU362
 183:../../../support/device/gd32f4xx/peripherals/src/gd32f4xx_gpio.c ****             /* set the specified pin output speed bits */
 880              		.loc 1 183 13 view .LVU363
 181:../../../support/device/gd32f4xx/peripherals/src/gd32f4xx_gpio.c ****             /* clear the specified pin output speed bits */
 881              		.loc 1 181 11 is_stmt 0 view .LVU364
 882 00a6 13F4006F 		tst	r3, #2048
 183:../../../support/device/gd32f4xx/peripherals/src/gd32f4xx_gpio.c ****             /* set the specified pin output speed bits */
 883              		.loc 1 183 21 view .LVU365
 884 00aa 1CBF     		itt	ne
 885 00ac 21F44001 		bicne	r1, r1, #12582912
 886              	.LVL120:
 887              		.loc 1 185 13 is_stmt 1 view .LVU366
 888              		.loc 1 185 21 is_stmt 0 view .LVU367
 889 00b0 41EA8251 		orrne	r1, r1, r2, lsl #22
 890              	.LVL121:
 180:../../../support/device/gd32f4xx/peripherals/src/gd32f4xx_gpio.c ****         if((1U << i) & pin) {
 891              		.loc 1 180 26 is_stmt 1 view .LVU368
 180:../../../support/device/gd32f4xx/peripherals/src/gd32f4xx_gpio.c ****         if((1U << i) & pin) {
 892              		.loc 1 180 17 view .LVU369
 181:../../../support/device/gd32f4xx/peripherals/src/gd32f4xx_gpio.c ****             /* clear the specified pin output speed bits */
 893              		.loc 1 181 9 view .LVU370
 183:../../../support/device/gd32f4xx/peripherals/src/gd32f4xx_gpio.c ****             /* set the specified pin output speed bits */
 894              		.loc 1 183 13 view .LVU371
 181:../../../support/device/gd32f4xx/peripherals/src/gd32f4xx_gpio.c ****             /* clear the specified pin output speed bits */
 895              		.loc 1 181 11 is_stmt 0 view .LVU372
 896 00b4 13F4805F 		tst	r3, #4096
 183:../../../support/device/gd32f4xx/peripherals/src/gd32f4xx_gpio.c ****             /* set the specified pin output speed bits */
 897              		.loc 1 183 21 view .LVU373
 898 00b8 1CBF     		itt	ne
 899 00ba 21F04071 		bicne	r1, r1, #50331648
 900              	.LVL122:
 901              		.loc 1 185 13 is_stmt 1 view .LVU374
 902              		.loc 1 185 21 is_stmt 0 view .LVU375
 903 00be 41EA0261 		orrne	r1, r1, r2, lsl #24
 904              	.LVL123:
 180:../../../support/device/gd32f4xx/peripherals/src/gd32f4xx_gpio.c ****         if((1U << i) & pin) {
 905              		.loc 1 180 26 is_stmt 1 view .LVU376
 180:../../../support/device/gd32f4xx/peripherals/src/gd32f4xx_gpio.c ****         if((1U << i) & pin) {
 906              		.loc 1 180 17 view .LVU377
 181:../../../support/device/gd32f4xx/peripherals/src/gd32f4xx_gpio.c ****             /* clear the specified pin output speed bits */
 907              		.loc 1 181 9 view .LVU378
 183:../../../support/device/gd32f4xx/peripherals/src/gd32f4xx_gpio.c ****             /* set the specified pin output speed bits */
 908              		.loc 1 183 13 view .LVU379
 181:../../../support/device/gd32f4xx/peripherals/src/gd32f4xx_gpio.c ****             /* clear the specified pin output speed bits */
 909              		.loc 1 181 11 is_stmt 0 view .LVU380
 910 00c2 13F4005F 		tst	r3, #8192
 183:../../../support/device/gd32f4xx/peripherals/src/gd32f4xx_gpio.c ****             /* set the specified pin output speed bits */
 911              		.loc 1 183 21 view .LVU381
 912 00c6 1CBF     		itt	ne
 913 00c8 21F04061 		bicne	r1, r1, #201326592
 914              	.LVL124:
ARM GAS  /var/folders/_f/88qcw_5n2jl40jjphvxyt7wh0000gn/T//cczWl83x.s 			page 25


 915              		.loc 1 185 13 is_stmt 1 view .LVU382
 916              		.loc 1 185 21 is_stmt 0 view .LVU383
 917 00cc 41EA8261 		orrne	r1, r1, r2, lsl #26
 918              	.LVL125:
 180:../../../support/device/gd32f4xx/peripherals/src/gd32f4xx_gpio.c ****         if((1U << i) & pin) {
 919              		.loc 1 180 26 is_stmt 1 view .LVU384
 180:../../../support/device/gd32f4xx/peripherals/src/gd32f4xx_gpio.c ****         if((1U << i) & pin) {
 920              		.loc 1 180 17 view .LVU385
 181:../../../support/device/gd32f4xx/peripherals/src/gd32f4xx_gpio.c ****             /* clear the specified pin output speed bits */
 921              		.loc 1 181 9 view .LVU386
 183:../../../support/device/gd32f4xx/peripherals/src/gd32f4xx_gpio.c ****             /* set the specified pin output speed bits */
 922              		.loc 1 183 13 view .LVU387
 181:../../../support/device/gd32f4xx/peripherals/src/gd32f4xx_gpio.c ****             /* clear the specified pin output speed bits */
 923              		.loc 1 181 11 is_stmt 0 view .LVU388
 924 00d0 13F4804F 		tst	r3, #16384
 183:../../../support/device/gd32f4xx/peripherals/src/gd32f4xx_gpio.c ****             /* set the specified pin output speed bits */
 925              		.loc 1 183 21 view .LVU389
 926 00d4 1CBF     		itt	ne
 927 00d6 21F04051 		bicne	r1, r1, #805306368
 928              	.LVL126:
 929              		.loc 1 185 13 is_stmt 1 view .LVU390
 930              		.loc 1 185 21 is_stmt 0 view .LVU391
 931 00da 41EA0271 		orrne	r1, r1, r2, lsl #28
 932              	.LVL127:
 180:../../../support/device/gd32f4xx/peripherals/src/gd32f4xx_gpio.c ****         if((1U << i) & pin) {
 933              		.loc 1 180 26 is_stmt 1 view .LVU392
 180:../../../support/device/gd32f4xx/peripherals/src/gd32f4xx_gpio.c ****         if((1U << i) & pin) {
 934              		.loc 1 180 17 view .LVU393
 181:../../../support/device/gd32f4xx/peripherals/src/gd32f4xx_gpio.c ****             /* clear the specified pin output speed bits */
 935              		.loc 1 181 9 view .LVU394
 183:../../../support/device/gd32f4xx/peripherals/src/gd32f4xx_gpio.c ****             /* set the specified pin output speed bits */
 936              		.loc 1 183 13 view .LVU395
 937              		.loc 1 185 13 view .LVU396
 181:../../../support/device/gd32f4xx/peripherals/src/gd32f4xx_gpio.c ****             /* clear the specified pin output speed bits */
 938              		.loc 1 181 11 is_stmt 0 view .LVU397
 939 00de 1B04     		lsls	r3, r3, #16
 940              	.LVL128:
 941              		.loc 1 185 21 view .LVU398
 942 00e0 48BF     		it	mi
 943 00e2 62F39F71 		bfimi	r1, r2, #30, #2
 944              	.LVL129:
 180:../../../support/device/gd32f4xx/peripherals/src/gd32f4xx_gpio.c ****         if((1U << i) & pin) {
 945              		.loc 1 180 26 is_stmt 1 view .LVU399
 180:../../../support/device/gd32f4xx/peripherals/src/gd32f4xx_gpio.c ****         if((1U << i) & pin) {
 946              		.loc 1 180 17 view .LVU400
 186:../../../support/device/gd32f4xx/peripherals/src/gd32f4xx_gpio.c ****         }
 187:../../../support/device/gd32f4xx/peripherals/src/gd32f4xx_gpio.c ****     }
 188:../../../support/device/gd32f4xx/peripherals/src/gd32f4xx_gpio.c ****     GPIO_OSPD(gpio_periph) = ospeedr;
 947              		.loc 1 188 5 view .LVU401
 948              		.loc 1 188 28 is_stmt 0 view .LVU402
 949 00e6 8160     		str	r1, [r0, #8]
 189:../../../support/device/gd32f4xx/peripherals/src/gd32f4xx_gpio.c **** }
 950              		.loc 1 189 1 view .LVU403
 951 00e8 7047     		bx	lr
 952              		.cfi_endproc
 953              	.LFE118:
 955 00ea 00BF     		.section	.text.gpio_bit_set,"ax",%progbits
ARM GAS  /var/folders/_f/88qcw_5n2jl40jjphvxyt7wh0000gn/T//cczWl83x.s 			page 26


 956              		.align	1
 957              		.p2align 2,,3
 958              		.global	gpio_bit_set
 959              		.syntax unified
 960              		.thumb
 961              		.thumb_func
 963              	gpio_bit_set:
 964              	.LVL130:
 965              	.LFB119:
 190:../../../support/device/gd32f4xx/peripherals/src/gd32f4xx_gpio.c **** 
 191:../../../support/device/gd32f4xx/peripherals/src/gd32f4xx_gpio.c **** /*!
 192:../../../support/device/gd32f4xx/peripherals/src/gd32f4xx_gpio.c ****     \brief    set GPIO pin bit
 193:../../../support/device/gd32f4xx/peripherals/src/gd32f4xx_gpio.c ****     \param[in]  gpio_periph: GPIO port
 194:../../../support/device/gd32f4xx/peripherals/src/gd32f4xx_gpio.c ****                 only one parameter can be selected which is shown as below:
 195:../../../support/device/gd32f4xx/peripherals/src/gd32f4xx_gpio.c ****       \arg        GPIOx(x = A,B,C,D,E,F,G,H,I)
 196:../../../support/device/gd32f4xx/peripherals/src/gd32f4xx_gpio.c ****     \param[in]  pin: GPIO pin
 197:../../../support/device/gd32f4xx/peripherals/src/gd32f4xx_gpio.c ****                 one or more parameters can be selected which are shown as below:
 198:../../../support/device/gd32f4xx/peripherals/src/gd32f4xx_gpio.c ****       \arg        GPIO_PIN_x(x=0..15), GPIO_PIN_ALL
 199:../../../support/device/gd32f4xx/peripherals/src/gd32f4xx_gpio.c ****     \param[out] none
 200:../../../support/device/gd32f4xx/peripherals/src/gd32f4xx_gpio.c ****     \retval     none
 201:../../../support/device/gd32f4xx/peripherals/src/gd32f4xx_gpio.c **** */
 202:../../../support/device/gd32f4xx/peripherals/src/gd32f4xx_gpio.c **** void gpio_bit_set(uint32_t gpio_periph, uint32_t pin)
 203:../../../support/device/gd32f4xx/peripherals/src/gd32f4xx_gpio.c **** {
 966              		.loc 1 203 1 is_stmt 1 view -0
 967              		.cfi_startproc
 968              		@ args = 0, pretend = 0, frame = 0
 969              		@ frame_needed = 0, uses_anonymous_args = 0
 970              		@ link register save eliminated.
 204:../../../support/device/gd32f4xx/peripherals/src/gd32f4xx_gpio.c ****     GPIO_BOP(gpio_periph) = (uint32_t)pin;
 971              		.loc 1 204 5 view .LVU405
 972              		.loc 1 204 27 is_stmt 0 view .LVU406
 973 0000 8161     		str	r1, [r0, #24]
 205:../../../support/device/gd32f4xx/peripherals/src/gd32f4xx_gpio.c **** }
 974              		.loc 1 205 1 view .LVU407
 975 0002 7047     		bx	lr
 976              		.cfi_endproc
 977              	.LFE119:
 979              		.section	.text.gpio_bit_reset,"ax",%progbits
 980              		.align	1
 981              		.p2align 2,,3
 982              		.global	gpio_bit_reset
 983              		.syntax unified
 984              		.thumb
 985              		.thumb_func
 987              	gpio_bit_reset:
 988              	.LVL131:
 989              	.LFB120:
 206:../../../support/device/gd32f4xx/peripherals/src/gd32f4xx_gpio.c **** 
 207:../../../support/device/gd32f4xx/peripherals/src/gd32f4xx_gpio.c **** /*!
 208:../../../support/device/gd32f4xx/peripherals/src/gd32f4xx_gpio.c ****     \brief      reset GPIO pin bit
 209:../../../support/device/gd32f4xx/peripherals/src/gd32f4xx_gpio.c ****     \param[in]  gpio_periph: GPIO port
 210:../../../support/device/gd32f4xx/peripherals/src/gd32f4xx_gpio.c ****                 only one parameter can be selected which is shown as below:
 211:../../../support/device/gd32f4xx/peripherals/src/gd32f4xx_gpio.c ****       \arg        GPIOx(x = A,B,C,D,E,F,G,H,I)
 212:../../../support/device/gd32f4xx/peripherals/src/gd32f4xx_gpio.c ****     \param[in]  pin: GPIO pin
 213:../../../support/device/gd32f4xx/peripherals/src/gd32f4xx_gpio.c ****                 one or more parameters can be selected which are shown as below:
 214:../../../support/device/gd32f4xx/peripherals/src/gd32f4xx_gpio.c ****       \arg        GPIO_PIN_x(x=0..15), GPIO_PIN_ALL
 215:../../../support/device/gd32f4xx/peripherals/src/gd32f4xx_gpio.c ****     \param[out] none
ARM GAS  /var/folders/_f/88qcw_5n2jl40jjphvxyt7wh0000gn/T//cczWl83x.s 			page 27


 216:../../../support/device/gd32f4xx/peripherals/src/gd32f4xx_gpio.c ****     \retval     none
 217:../../../support/device/gd32f4xx/peripherals/src/gd32f4xx_gpio.c **** */
 218:../../../support/device/gd32f4xx/peripherals/src/gd32f4xx_gpio.c **** void gpio_bit_reset(uint32_t gpio_periph, uint32_t pin)
 219:../../../support/device/gd32f4xx/peripherals/src/gd32f4xx_gpio.c **** {
 990              		.loc 1 219 1 is_stmt 1 view -0
 991              		.cfi_startproc
 992              		@ args = 0, pretend = 0, frame = 0
 993              		@ frame_needed = 0, uses_anonymous_args = 0
 994              		@ link register save eliminated.
 220:../../../support/device/gd32f4xx/peripherals/src/gd32f4xx_gpio.c ****     GPIO_BC(gpio_periph) = (uint32_t)pin;
 995              		.loc 1 220 5 view .LVU409
 996              		.loc 1 220 26 is_stmt 0 view .LVU410
 997 0000 8162     		str	r1, [r0, #40]
 221:../../../support/device/gd32f4xx/peripherals/src/gd32f4xx_gpio.c **** }
 998              		.loc 1 221 1 view .LVU411
 999 0002 7047     		bx	lr
 1000              		.cfi_endproc
 1001              	.LFE120:
 1003              		.section	.text.gpio_bit_write,"ax",%progbits
 1004              		.align	1
 1005              		.p2align 2,,3
 1006              		.global	gpio_bit_write
 1007              		.syntax unified
 1008              		.thumb
 1009              		.thumb_func
 1011              	gpio_bit_write:
 1012              	.LVL132:
 1013              	.LFB121:
 222:../../../support/device/gd32f4xx/peripherals/src/gd32f4xx_gpio.c **** 
 223:../../../support/device/gd32f4xx/peripherals/src/gd32f4xx_gpio.c **** /*!
 224:../../../support/device/gd32f4xx/peripherals/src/gd32f4xx_gpio.c ****     \brief      write data to the specified GPIO pin
 225:../../../support/device/gd32f4xx/peripherals/src/gd32f4xx_gpio.c ****     \param[in]  gpio_periph: GPIO port
 226:../../../support/device/gd32f4xx/peripherals/src/gd32f4xx_gpio.c ****                 only one parameter can be selected which is shown as below:
 227:../../../support/device/gd32f4xx/peripherals/src/gd32f4xx_gpio.c ****       \arg        GPIOx(x = A,B,C,D,E,F,G,H,I)
 228:../../../support/device/gd32f4xx/peripherals/src/gd32f4xx_gpio.c ****     \param[in]  pin: GPIO pin
 229:../../../support/device/gd32f4xx/peripherals/src/gd32f4xx_gpio.c ****                 one or more parameters can be selected which are shown as below:
 230:../../../support/device/gd32f4xx/peripherals/src/gd32f4xx_gpio.c ****       \arg        GPIO_PIN_x(x=0..15), GPIO_PIN_ALL
 231:../../../support/device/gd32f4xx/peripherals/src/gd32f4xx_gpio.c ****     \param[in]  bit_value: SET or RESET
 232:../../../support/device/gd32f4xx/peripherals/src/gd32f4xx_gpio.c ****       \arg        RESET: clear the port pin
 233:../../../support/device/gd32f4xx/peripherals/src/gd32f4xx_gpio.c ****       \arg        SET: set the port pin
 234:../../../support/device/gd32f4xx/peripherals/src/gd32f4xx_gpio.c ****     \param[out] none
 235:../../../support/device/gd32f4xx/peripherals/src/gd32f4xx_gpio.c ****     \retval     none
 236:../../../support/device/gd32f4xx/peripherals/src/gd32f4xx_gpio.c **** */
 237:../../../support/device/gd32f4xx/peripherals/src/gd32f4xx_gpio.c **** void gpio_bit_write(uint32_t gpio_periph, uint32_t pin, bit_status bit_value)
 238:../../../support/device/gd32f4xx/peripherals/src/gd32f4xx_gpio.c **** {
 1014              		.loc 1 238 1 is_stmt 1 view -0
 1015              		.cfi_startproc
 1016              		@ args = 0, pretend = 0, frame = 0
 1017              		@ frame_needed = 0, uses_anonymous_args = 0
 1018              		@ link register save eliminated.
 239:../../../support/device/gd32f4xx/peripherals/src/gd32f4xx_gpio.c ****     if(RESET != bit_value) {
 1019              		.loc 1 239 5 view .LVU413
 1020              		.loc 1 239 7 is_stmt 0 view .LVU414
 1021 0000 0AB1     		cbz	r2, .L158
 240:../../../support/device/gd32f4xx/peripherals/src/gd32f4xx_gpio.c ****         GPIO_BOP(gpio_periph) = (uint32_t)pin;
 1022              		.loc 1 240 9 is_stmt 1 view .LVU415
 1023              		.loc 1 240 31 is_stmt 0 view .LVU416
ARM GAS  /var/folders/_f/88qcw_5n2jl40jjphvxyt7wh0000gn/T//cczWl83x.s 			page 28


 1024 0002 8161     		str	r1, [r0, #24]
 1025 0004 7047     		bx	lr
 1026              	.L158:
 241:../../../support/device/gd32f4xx/peripherals/src/gd32f4xx_gpio.c ****     } else {
 242:../../../support/device/gd32f4xx/peripherals/src/gd32f4xx_gpio.c ****         GPIO_BC(gpio_periph) = (uint32_t)pin;
 1027              		.loc 1 242 9 is_stmt 1 view .LVU417
 1028              		.loc 1 242 30 is_stmt 0 view .LVU418
 1029 0006 8162     		str	r1, [r0, #40]
 243:../../../support/device/gd32f4xx/peripherals/src/gd32f4xx_gpio.c ****     }
 244:../../../support/device/gd32f4xx/peripherals/src/gd32f4xx_gpio.c **** }
 1030              		.loc 1 244 1 view .LVU419
 1031 0008 7047     		bx	lr
 1032              		.cfi_endproc
 1033              	.LFE121:
 1035 000a 00BF     		.section	.text.gpio_port_write,"ax",%progbits
 1036              		.align	1
 1037              		.p2align 2,,3
 1038              		.global	gpio_port_write
 1039              		.syntax unified
 1040              		.thumb
 1041              		.thumb_func
 1043              	gpio_port_write:
 1044              	.LVL133:
 1045              	.LFB122:
 245:../../../support/device/gd32f4xx/peripherals/src/gd32f4xx_gpio.c **** 
 246:../../../support/device/gd32f4xx/peripherals/src/gd32f4xx_gpio.c **** /*!
 247:../../../support/device/gd32f4xx/peripherals/src/gd32f4xx_gpio.c ****     \brief      write data to the specified GPIO port
 248:../../../support/device/gd32f4xx/peripherals/src/gd32f4xx_gpio.c ****     \param[in]  gpio_periph: GPIO port
 249:../../../support/device/gd32f4xx/peripherals/src/gd32f4xx_gpio.c ****                 only one parameter can be selected which is shown as below:
 250:../../../support/device/gd32f4xx/peripherals/src/gd32f4xx_gpio.c ****       \arg        GPIOx(x = A,B,C,D,E,F,G,H,I)
 251:../../../support/device/gd32f4xx/peripherals/src/gd32f4xx_gpio.c ****     \param[in]  data: specify the value to be written to the port output control register
 252:../../../support/device/gd32f4xx/peripherals/src/gd32f4xx_gpio.c ****     \param[out] none
 253:../../../support/device/gd32f4xx/peripherals/src/gd32f4xx_gpio.c ****     \retval     none
 254:../../../support/device/gd32f4xx/peripherals/src/gd32f4xx_gpio.c **** */
 255:../../../support/device/gd32f4xx/peripherals/src/gd32f4xx_gpio.c **** void gpio_port_write(uint32_t gpio_periph, uint16_t data)
 256:../../../support/device/gd32f4xx/peripherals/src/gd32f4xx_gpio.c **** {
 1046              		.loc 1 256 1 is_stmt 1 view -0
 1047              		.cfi_startproc
 1048              		@ args = 0, pretend = 0, frame = 0
 1049              		@ frame_needed = 0, uses_anonymous_args = 0
 1050              		@ link register save eliminated.
 257:../../../support/device/gd32f4xx/peripherals/src/gd32f4xx_gpio.c ****     GPIO_OCTL(gpio_periph) = (uint32_t)data;
 1051              		.loc 1 257 5 view .LVU421
 1052              		.loc 1 257 28 is_stmt 0 view .LVU422
 1053 0000 4161     		str	r1, [r0, #20]
 258:../../../support/device/gd32f4xx/peripherals/src/gd32f4xx_gpio.c **** }
 1054              		.loc 1 258 1 view .LVU423
 1055 0002 7047     		bx	lr
 1056              		.cfi_endproc
 1057              	.LFE122:
 1059              		.section	.text.gpio_input_bit_get,"ax",%progbits
 1060              		.align	1
 1061              		.p2align 2,,3
 1062              		.global	gpio_input_bit_get
 1063              		.syntax unified
 1064              		.thumb
 1065              		.thumb_func
ARM GAS  /var/folders/_f/88qcw_5n2jl40jjphvxyt7wh0000gn/T//cczWl83x.s 			page 29


 1067              	gpio_input_bit_get:
 1068              	.LVL134:
 1069              	.LFB123:
 259:../../../support/device/gd32f4xx/peripherals/src/gd32f4xx_gpio.c **** 
 260:../../../support/device/gd32f4xx/peripherals/src/gd32f4xx_gpio.c **** /*!
 261:../../../support/device/gd32f4xx/peripherals/src/gd32f4xx_gpio.c ****     \brief      get GPIO pin input status
 262:../../../support/device/gd32f4xx/peripherals/src/gd32f4xx_gpio.c ****     \param[in]  gpio_periph: GPIO port
 263:../../../support/device/gd32f4xx/peripherals/src/gd32f4xx_gpio.c ****                 only one parameter can be selected which is shown as below:
 264:../../../support/device/gd32f4xx/peripherals/src/gd32f4xx_gpio.c ****       \arg        GPIOx(x = A,B,C,D,E,F,G,H,I)
 265:../../../support/device/gd32f4xx/peripherals/src/gd32f4xx_gpio.c ****     \param[in]  pin: GPIO pin
 266:../../../support/device/gd32f4xx/peripherals/src/gd32f4xx_gpio.c ****                 one or more parameters can be selected which are shown as below:
 267:../../../support/device/gd32f4xx/peripherals/src/gd32f4xx_gpio.c ****       \arg        GPIO_PIN_x(x=0..15), GPIO_PIN_ALL
 268:../../../support/device/gd32f4xx/peripherals/src/gd32f4xx_gpio.c ****     \param[out] none
 269:../../../support/device/gd32f4xx/peripherals/src/gd32f4xx_gpio.c ****     \retval     input status of GPIO pin: SET or RESET
 270:../../../support/device/gd32f4xx/peripherals/src/gd32f4xx_gpio.c **** */
 271:../../../support/device/gd32f4xx/peripherals/src/gd32f4xx_gpio.c **** FlagStatus gpio_input_bit_get(uint32_t gpio_periph, uint32_t pin)
 272:../../../support/device/gd32f4xx/peripherals/src/gd32f4xx_gpio.c **** {
 1070              		.loc 1 272 1 is_stmt 1 view -0
 1071              		.cfi_startproc
 1072              		@ args = 0, pretend = 0, frame = 0
 1073              		@ frame_needed = 0, uses_anonymous_args = 0
 1074              		@ link register save eliminated.
 273:../../../support/device/gd32f4xx/peripherals/src/gd32f4xx_gpio.c ****     if((uint32_t)RESET != (GPIO_ISTAT(gpio_periph) & (pin))) {
 1075              		.loc 1 273 5 view .LVU425
 1076              		.loc 1 273 28 is_stmt 0 view .LVU426
 1077 0000 0369     		ldr	r3, [r0, #16]
 1078              		.loc 1 273 7 view .LVU427
 1079 0002 0B42     		tst	r3, r1
 274:../../../support/device/gd32f4xx/peripherals/src/gd32f4xx_gpio.c ****         return SET;
 275:../../../support/device/gd32f4xx/peripherals/src/gd32f4xx_gpio.c ****     } else {
 276:../../../support/device/gd32f4xx/peripherals/src/gd32f4xx_gpio.c ****         return RESET;
 277:../../../support/device/gd32f4xx/peripherals/src/gd32f4xx_gpio.c ****     }
 278:../../../support/device/gd32f4xx/peripherals/src/gd32f4xx_gpio.c **** }
 1080              		.loc 1 278 1 view .LVU428
 1081 0004 14BF     		ite	ne
 1082 0006 0120     		movne	r0, #1
 1083              	.LVL135:
 1084              		.loc 1 278 1 view .LVU429
 1085 0008 0020     		moveq	r0, #0
 1086 000a 7047     		bx	lr
 1087              		.cfi_endproc
 1088              	.LFE123:
 1090              		.section	.text.gpio_input_port_get,"ax",%progbits
 1091              		.align	1
 1092              		.p2align 2,,3
 1093              		.global	gpio_input_port_get
 1094              		.syntax unified
 1095              		.thumb
 1096              		.thumb_func
 1098              	gpio_input_port_get:
 1099              	.LVL136:
 1100              	.LFB124:
 279:../../../support/device/gd32f4xx/peripherals/src/gd32f4xx_gpio.c **** 
 280:../../../support/device/gd32f4xx/peripherals/src/gd32f4xx_gpio.c **** /*!
 281:../../../support/device/gd32f4xx/peripherals/src/gd32f4xx_gpio.c ****     \brief      get GPIO all pins input status
 282:../../../support/device/gd32f4xx/peripherals/src/gd32f4xx_gpio.c ****     \param[in]  gpio_periph: GPIO port
 283:../../../support/device/gd32f4xx/peripherals/src/gd32f4xx_gpio.c ****                 only one parameter can be selected which is shown as below:
ARM GAS  /var/folders/_f/88qcw_5n2jl40jjphvxyt7wh0000gn/T//cczWl83x.s 			page 30


 284:../../../support/device/gd32f4xx/peripherals/src/gd32f4xx_gpio.c ****       \arg        GPIOx(x = A,B,C,D,E,F,G,H,I)
 285:../../../support/device/gd32f4xx/peripherals/src/gd32f4xx_gpio.c ****     \param[out] none
 286:../../../support/device/gd32f4xx/peripherals/src/gd32f4xx_gpio.c ****     \retval     input status of GPIO all pins
 287:../../../support/device/gd32f4xx/peripherals/src/gd32f4xx_gpio.c **** */
 288:../../../support/device/gd32f4xx/peripherals/src/gd32f4xx_gpio.c **** uint16_t gpio_input_port_get(uint32_t gpio_periph)
 289:../../../support/device/gd32f4xx/peripherals/src/gd32f4xx_gpio.c **** {
 1101              		.loc 1 289 1 is_stmt 1 view -0
 1102              		.cfi_startproc
 1103              		@ args = 0, pretend = 0, frame = 0
 1104              		@ frame_needed = 0, uses_anonymous_args = 0
 1105              		@ link register save eliminated.
 290:../../../support/device/gd32f4xx/peripherals/src/gd32f4xx_gpio.c ****     return ((uint16_t)GPIO_ISTAT(gpio_periph));
 1106              		.loc 1 290 5 view .LVU431
 1107              		.loc 1 290 23 is_stmt 0 view .LVU432
 1108 0000 0069     		ldr	r0, [r0, #16]
 1109              	.LVL137:
 291:../../../support/device/gd32f4xx/peripherals/src/gd32f4xx_gpio.c **** }
 1110              		.loc 1 291 1 view .LVU433
 1111 0002 80B2     		uxth	r0, r0
 1112 0004 7047     		bx	lr
 1113              		.cfi_endproc
 1114              	.LFE124:
 1116 0006 00BF     		.section	.text.gpio_output_bit_get,"ax",%progbits
 1117              		.align	1
 1118              		.p2align 2,,3
 1119              		.global	gpio_output_bit_get
 1120              		.syntax unified
 1121              		.thumb
 1122              		.thumb_func
 1124              	gpio_output_bit_get:
 1125              	.LVL138:
 1126              	.LFB125:
 292:../../../support/device/gd32f4xx/peripherals/src/gd32f4xx_gpio.c **** 
 293:../../../support/device/gd32f4xx/peripherals/src/gd32f4xx_gpio.c **** /*!
 294:../../../support/device/gd32f4xx/peripherals/src/gd32f4xx_gpio.c ****     \brief      get GPIO pin output status
 295:../../../support/device/gd32f4xx/peripherals/src/gd32f4xx_gpio.c ****     \param[in]  gpio_periph: GPIO port
 296:../../../support/device/gd32f4xx/peripherals/src/gd32f4xx_gpio.c ****                 only one parameter can be selected which is shown as below:
 297:../../../support/device/gd32f4xx/peripherals/src/gd32f4xx_gpio.c ****       \arg        GPIOx(x = A,B,C,D,E,F,G,H,I)
 298:../../../support/device/gd32f4xx/peripherals/src/gd32f4xx_gpio.c ****     \param[in]  pin: GPIO pin
 299:../../../support/device/gd32f4xx/peripherals/src/gd32f4xx_gpio.c ****                 one or more parameters can be selected which are shown as below:
 300:../../../support/device/gd32f4xx/peripherals/src/gd32f4xx_gpio.c ****       \arg        GPIO_PIN_x(x=0..15), GPIO_PIN_ALL
 301:../../../support/device/gd32f4xx/peripherals/src/gd32f4xx_gpio.c ****     \param[out] none
 302:../../../support/device/gd32f4xx/peripherals/src/gd32f4xx_gpio.c ****     \retval     output status of GPIO pin: SET or RESET
 303:../../../support/device/gd32f4xx/peripherals/src/gd32f4xx_gpio.c **** */
 304:../../../support/device/gd32f4xx/peripherals/src/gd32f4xx_gpio.c **** FlagStatus gpio_output_bit_get(uint32_t gpio_periph, uint32_t pin)
 305:../../../support/device/gd32f4xx/peripherals/src/gd32f4xx_gpio.c **** {
 1127              		.loc 1 305 1 is_stmt 1 view -0
 1128              		.cfi_startproc
 1129              		@ args = 0, pretend = 0, frame = 0
 1130              		@ frame_needed = 0, uses_anonymous_args = 0
 1131              		@ link register save eliminated.
 306:../../../support/device/gd32f4xx/peripherals/src/gd32f4xx_gpio.c ****     if((uint32_t)RESET != (GPIO_OCTL(gpio_periph) & (pin))) {
 1132              		.loc 1 306 5 view .LVU435
 1133              		.loc 1 306 28 is_stmt 0 view .LVU436
 1134 0000 4369     		ldr	r3, [r0, #20]
 1135              		.loc 1 306 7 view .LVU437
 1136 0002 0B42     		tst	r3, r1
ARM GAS  /var/folders/_f/88qcw_5n2jl40jjphvxyt7wh0000gn/T//cczWl83x.s 			page 31


 307:../../../support/device/gd32f4xx/peripherals/src/gd32f4xx_gpio.c ****         return SET;
 308:../../../support/device/gd32f4xx/peripherals/src/gd32f4xx_gpio.c ****     } else {
 309:../../../support/device/gd32f4xx/peripherals/src/gd32f4xx_gpio.c ****         return RESET;
 310:../../../support/device/gd32f4xx/peripherals/src/gd32f4xx_gpio.c ****     }
 311:../../../support/device/gd32f4xx/peripherals/src/gd32f4xx_gpio.c **** }
 1137              		.loc 1 311 1 view .LVU438
 1138 0004 14BF     		ite	ne
 1139 0006 0120     		movne	r0, #1
 1140              	.LVL139:
 1141              		.loc 1 311 1 view .LVU439
 1142 0008 0020     		moveq	r0, #0
 1143 000a 7047     		bx	lr
 1144              		.cfi_endproc
 1145              	.LFE125:
 1147              		.section	.text.gpio_output_port_get,"ax",%progbits
 1148              		.align	1
 1149              		.p2align 2,,3
 1150              		.global	gpio_output_port_get
 1151              		.syntax unified
 1152              		.thumb
 1153              		.thumb_func
 1155              	gpio_output_port_get:
 1156              	.LVL140:
 1157              	.LFB126:
 312:../../../support/device/gd32f4xx/peripherals/src/gd32f4xx_gpio.c **** 
 313:../../../support/device/gd32f4xx/peripherals/src/gd32f4xx_gpio.c **** /*!
 314:../../../support/device/gd32f4xx/peripherals/src/gd32f4xx_gpio.c ****     \brief      get GPIO port output status
 315:../../../support/device/gd32f4xx/peripherals/src/gd32f4xx_gpio.c ****     \param[in]  gpio_periph: GPIO port
 316:../../../support/device/gd32f4xx/peripherals/src/gd32f4xx_gpio.c ****                 only one parameter can be selected which is shown as below:
 317:../../../support/device/gd32f4xx/peripherals/src/gd32f4xx_gpio.c ****       \arg        GPIOx(x = A,B,C,D,E,F,G,H,I)
 318:../../../support/device/gd32f4xx/peripherals/src/gd32f4xx_gpio.c ****     \param[out] none
 319:../../../support/device/gd32f4xx/peripherals/src/gd32f4xx_gpio.c ****     \retval     output status of GPIO all pins
 320:../../../support/device/gd32f4xx/peripherals/src/gd32f4xx_gpio.c **** */
 321:../../../support/device/gd32f4xx/peripherals/src/gd32f4xx_gpio.c **** uint16_t gpio_output_port_get(uint32_t gpio_periph)
 322:../../../support/device/gd32f4xx/peripherals/src/gd32f4xx_gpio.c **** {
 1158              		.loc 1 322 1 is_stmt 1 view -0
 1159              		.cfi_startproc
 1160              		@ args = 0, pretend = 0, frame = 0
 1161              		@ frame_needed = 0, uses_anonymous_args = 0
 1162              		@ link register save eliminated.
 323:../../../support/device/gd32f4xx/peripherals/src/gd32f4xx_gpio.c ****     return ((uint16_t)GPIO_OCTL(gpio_periph));
 1163              		.loc 1 323 5 view .LVU441
 1164              		.loc 1 323 23 is_stmt 0 view .LVU442
 1165 0000 4069     		ldr	r0, [r0, #20]
 1166              	.LVL141:
 324:../../../support/device/gd32f4xx/peripherals/src/gd32f4xx_gpio.c **** }
 1167              		.loc 1 324 1 view .LVU443
 1168 0002 80B2     		uxth	r0, r0
 1169 0004 7047     		bx	lr
 1170              		.cfi_endproc
 1171              	.LFE126:
 1173 0006 00BF     		.section	.text.gpio_af_set,"ax",%progbits
 1174              		.align	1
 1175              		.p2align 2,,3
 1176              		.global	gpio_af_set
 1177              		.syntax unified
 1178              		.thumb
ARM GAS  /var/folders/_f/88qcw_5n2jl40jjphvxyt7wh0000gn/T//cczWl83x.s 			page 32


 1179              		.thumb_func
 1181              	gpio_af_set:
 1182              	.LVL142:
 1183              	.LFB127:
 325:../../../support/device/gd32f4xx/peripherals/src/gd32f4xx_gpio.c **** 
 326:../../../support/device/gd32f4xx/peripherals/src/gd32f4xx_gpio.c **** /*!
 327:../../../support/device/gd32f4xx/peripherals/src/gd32f4xx_gpio.c ****     \brief      set GPIO alternate function
 328:../../../support/device/gd32f4xx/peripherals/src/gd32f4xx_gpio.c ****     \param[in]  gpio_periph: GPIO port
 329:../../../support/device/gd32f4xx/peripherals/src/gd32f4xx_gpio.c ****                 only one parameter can be selected which is shown as below:
 330:../../../support/device/gd32f4xx/peripherals/src/gd32f4xx_gpio.c ****       \arg        GPIOx(x = A,B,C,D,E,F,G,H,I)
 331:../../../support/device/gd32f4xx/peripherals/src/gd32f4xx_gpio.c ****     \param[in]  alt_func_num: GPIO pin af function
 332:../../../support/device/gd32f4xx/peripherals/src/gd32f4xx_gpio.c ****       \arg        GPIO_AF_0: SYSTEM
 333:../../../support/device/gd32f4xx/peripherals/src/gd32f4xx_gpio.c ****       \arg        GPIO_AF_1: TIMER0, TIMER1
 334:../../../support/device/gd32f4xx/peripherals/src/gd32f4xx_gpio.c ****       \arg        GPIO_AF_2: TIMER2, TIMER3, TIMER4
 335:../../../support/device/gd32f4xx/peripherals/src/gd32f4xx_gpio.c ****       \arg        GPIO_AF_3: TIMER7, TIMER8, TIMER9, TIMER10
 336:../../../support/device/gd32f4xx/peripherals/src/gd32f4xx_gpio.c ****       \arg        GPIO_AF_4: I2C0, I2C1, I2C2
 337:../../../support/device/gd32f4xx/peripherals/src/gd32f4xx_gpio.c ****       \arg        GPIO_AF_5: SPI0, SPI1, SPI2, SPI3, SPI4, SPI5
 338:../../../support/device/gd32f4xx/peripherals/src/gd32f4xx_gpio.c ****       \arg        GPIO_AF_6: SPI2, SPI3, SPI4
 339:../../../support/device/gd32f4xx/peripherals/src/gd32f4xx_gpio.c ****       \arg        GPIO_AF_7: USART0, USART1, USART2, SPI1, SPI2
 340:../../../support/device/gd32f4xx/peripherals/src/gd32f4xx_gpio.c ****       \arg        GPIO_AF_8: UART3, UART4, USART5, UART6, UART7
 341:../../../support/device/gd32f4xx/peripherals/src/gd32f4xx_gpio.c ****       \arg        GPIO_AF_9: CAN0, CAN1, TLI, TIMER11, TIMER12, TIMER13, I2C1, I2C2, CTC
 342:../../../support/device/gd32f4xx/peripherals/src/gd32f4xx_gpio.c ****       \arg        GPIO_AF_10: USB_FS, USB_HS
 343:../../../support/device/gd32f4xx/peripherals/src/gd32f4xx_gpio.c ****       \arg        GPIO_AF_11: ENET
 344:../../../support/device/gd32f4xx/peripherals/src/gd32f4xx_gpio.c ****       \arg        GPIO_AF_12: EXMC, SDIO, USB_HS
 345:../../../support/device/gd32f4xx/peripherals/src/gd32f4xx_gpio.c ****       \arg        GPIO_AF_13: DCI
 346:../../../support/device/gd32f4xx/peripherals/src/gd32f4xx_gpio.c ****       \arg        GPIO_AF_14: TLI
 347:../../../support/device/gd32f4xx/peripherals/src/gd32f4xx_gpio.c ****       \arg        GPIO_AF_15: EVENTOUT
 348:../../../support/device/gd32f4xx/peripherals/src/gd32f4xx_gpio.c ****     \param[in]  pin: GPIO pin
 349:../../../support/device/gd32f4xx/peripherals/src/gd32f4xx_gpio.c ****                 one or more parameters can be selected which are shown as below:
 350:../../../support/device/gd32f4xx/peripherals/src/gd32f4xx_gpio.c ****       \arg        GPIO_PIN_x(x=0..15), GPIO_PIN_ALL
 351:../../../support/device/gd32f4xx/peripherals/src/gd32f4xx_gpio.c ****     \param[out] none
 352:../../../support/device/gd32f4xx/peripherals/src/gd32f4xx_gpio.c ****     \retval     none
 353:../../../support/device/gd32f4xx/peripherals/src/gd32f4xx_gpio.c **** */
 354:../../../support/device/gd32f4xx/peripherals/src/gd32f4xx_gpio.c **** void gpio_af_set(uint32_t gpio_periph, uint32_t alt_func_num, uint32_t pin)
 355:../../../support/device/gd32f4xx/peripherals/src/gd32f4xx_gpio.c **** {
 1184              		.loc 1 355 1 is_stmt 1 view -0
 1185              		.cfi_startproc
 1186              		@ args = 0, pretend = 0, frame = 0
 1187              		@ frame_needed = 0, uses_anonymous_args = 0
 1188              		@ link register save eliminated.
 356:../../../support/device/gd32f4xx/peripherals/src/gd32f4xx_gpio.c ****     uint16_t i;
 1189              		.loc 1 356 5 view .LVU445
 357:../../../support/device/gd32f4xx/peripherals/src/gd32f4xx_gpio.c ****     uint32_t afrl, afrh;
 1190              		.loc 1 357 5 view .LVU446
 358:../../../support/device/gd32f4xx/peripherals/src/gd32f4xx_gpio.c **** 
 359:../../../support/device/gd32f4xx/peripherals/src/gd32f4xx_gpio.c ****     afrl = GPIO_AFSEL0(gpio_periph);
 1191              		.loc 1 359 5 view .LVU447
 355:../../../support/device/gd32f4xx/peripherals/src/gd32f4xx_gpio.c ****     uint16_t i;
 1192              		.loc 1 355 1 is_stmt 0 view .LVU448
 1193 0000 10B4     		push	{r4}
 1194              	.LCFI20:
 1195              		.cfi_def_cfa_offset 4
 1196              		.cfi_offset 4, -4
 1197              		.loc 1 359 10 view .LVU449
 1198 0002 046A     		ldr	r4, [r0, #32]
 1199              	.LVL143:
 360:../../../support/device/gd32f4xx/peripherals/src/gd32f4xx_gpio.c ****     afrh = GPIO_AFSEL1(gpio_periph);
ARM GAS  /var/folders/_f/88qcw_5n2jl40jjphvxyt7wh0000gn/T//cczWl83x.s 			page 33


 1200              		.loc 1 360 5 is_stmt 1 view .LVU450
 1201              		.loc 1 360 10 is_stmt 0 view .LVU451
 1202 0004 436A     		ldr	r3, [r0, #36]
 1203              	.LVL144:
 361:../../../support/device/gd32f4xx/peripherals/src/gd32f4xx_gpio.c **** 
 362:../../../support/device/gd32f4xx/peripherals/src/gd32f4xx_gpio.c ****     for(i = 0U; i < 8U; i++) {
 1204              		.loc 1 362 5 is_stmt 1 view .LVU452
 1205              		.loc 1 362 17 view .LVU453
 363:../../../support/device/gd32f4xx/peripherals/src/gd32f4xx_gpio.c ****         if((1U << i) & pin) {
 1206              		.loc 1 363 9 view .LVU454
 1207              		.loc 1 363 11 is_stmt 0 view .LVU455
 1208 0006 12F0010F 		tst	r2, #1
 364:../../../support/device/gd32f4xx/peripherals/src/gd32f4xx_gpio.c ****             /* clear the specified pin alternate function bits */
 365:../../../support/device/gd32f4xx/peripherals/src/gd32f4xx_gpio.c ****             afrl &= ~GPIO_AFR_MASK(i);
 1209              		.loc 1 365 13 is_stmt 1 view .LVU456
 1210              		.loc 1 365 18 is_stmt 0 view .LVU457
 1211 000a 1CBF     		itt	ne
 1212 000c 24F00F04 		bicne	r4, r4, #15
 1213              	.LVL145:
 366:../../../support/device/gd32f4xx/peripherals/src/gd32f4xx_gpio.c ****             afrl |= GPIO_AFR_SET(i, alt_func_num);
 1214              		.loc 1 366 13 is_stmt 1 view .LVU458
 1215              		.loc 1 366 18 is_stmt 0 view .LVU459
 1216 0010 0C43     		orrne	r4, r4, r1
 1217              	.LVL146:
 362:../../../support/device/gd32f4xx/peripherals/src/gd32f4xx_gpio.c ****         if((1U << i) & pin) {
 1218              		.loc 1 362 25 is_stmt 1 view .LVU460
 362:../../../support/device/gd32f4xx/peripherals/src/gd32f4xx_gpio.c ****         if((1U << i) & pin) {
 1219              		.loc 1 362 17 view .LVU461
 363:../../../support/device/gd32f4xx/peripherals/src/gd32f4xx_gpio.c ****             /* clear the specified pin alternate function bits */
 1220              		.loc 1 363 9 view .LVU462
 365:../../../support/device/gd32f4xx/peripherals/src/gd32f4xx_gpio.c ****             afrl |= GPIO_AFR_SET(i, alt_func_num);
 1221              		.loc 1 365 13 view .LVU463
 363:../../../support/device/gd32f4xx/peripherals/src/gd32f4xx_gpio.c ****             /* clear the specified pin alternate function bits */
 1222              		.loc 1 363 11 is_stmt 0 view .LVU464
 1223 0012 12F0020F 		tst	r2, #2
 365:../../../support/device/gd32f4xx/peripherals/src/gd32f4xx_gpio.c ****             afrl |= GPIO_AFR_SET(i, alt_func_num);
 1224              		.loc 1 365 18 view .LVU465
 1225 0016 1CBF     		itt	ne
 1226 0018 24F0F004 		bicne	r4, r4, #240
 1227              	.LVL147:
 1228              		.loc 1 366 13 is_stmt 1 view .LVU466
 1229              		.loc 1 366 18 is_stmt 0 view .LVU467
 1230 001c 44EA0114 		orrne	r4, r4, r1, lsl #4
 1231              	.LVL148:
 362:../../../support/device/gd32f4xx/peripherals/src/gd32f4xx_gpio.c ****         if((1U << i) & pin) {
 1232              		.loc 1 362 25 is_stmt 1 view .LVU468
 362:../../../support/device/gd32f4xx/peripherals/src/gd32f4xx_gpio.c ****         if((1U << i) & pin) {
 1233              		.loc 1 362 17 view .LVU469
 363:../../../support/device/gd32f4xx/peripherals/src/gd32f4xx_gpio.c ****             /* clear the specified pin alternate function bits */
 1234              		.loc 1 363 9 view .LVU470
 365:../../../support/device/gd32f4xx/peripherals/src/gd32f4xx_gpio.c ****             afrl |= GPIO_AFR_SET(i, alt_func_num);
 1235              		.loc 1 365 13 view .LVU471
 363:../../../support/device/gd32f4xx/peripherals/src/gd32f4xx_gpio.c ****             /* clear the specified pin alternate function bits */
 1236              		.loc 1 363 11 is_stmt 0 view .LVU472
 1237 0020 12F0040F 		tst	r2, #4
 365:../../../support/device/gd32f4xx/peripherals/src/gd32f4xx_gpio.c ****             afrl |= GPIO_AFR_SET(i, alt_func_num);
 1238              		.loc 1 365 18 view .LVU473
ARM GAS  /var/folders/_f/88qcw_5n2jl40jjphvxyt7wh0000gn/T//cczWl83x.s 			page 34


 1239 0024 1CBF     		itt	ne
 1240 0026 24F47064 		bicne	r4, r4, #3840
 1241              	.LVL149:
 1242              		.loc 1 366 13 is_stmt 1 view .LVU474
 1243              		.loc 1 366 18 is_stmt 0 view .LVU475
 1244 002a 44EA0124 		orrne	r4, r4, r1, lsl #8
 1245              	.LVL150:
 362:../../../support/device/gd32f4xx/peripherals/src/gd32f4xx_gpio.c ****         if((1U << i) & pin) {
 1246              		.loc 1 362 25 is_stmt 1 view .LVU476
 362:../../../support/device/gd32f4xx/peripherals/src/gd32f4xx_gpio.c ****         if((1U << i) & pin) {
 1247              		.loc 1 362 17 view .LVU477
 363:../../../support/device/gd32f4xx/peripherals/src/gd32f4xx_gpio.c ****             /* clear the specified pin alternate function bits */
 1248              		.loc 1 363 9 view .LVU478
 365:../../../support/device/gd32f4xx/peripherals/src/gd32f4xx_gpio.c ****             afrl |= GPIO_AFR_SET(i, alt_func_num);
 1249              		.loc 1 365 13 view .LVU479
 363:../../../support/device/gd32f4xx/peripherals/src/gd32f4xx_gpio.c ****             /* clear the specified pin alternate function bits */
 1250              		.loc 1 363 11 is_stmt 0 view .LVU480
 1251 002e 12F0080F 		tst	r2, #8
 365:../../../support/device/gd32f4xx/peripherals/src/gd32f4xx_gpio.c ****             afrl |= GPIO_AFR_SET(i, alt_func_num);
 1252              		.loc 1 365 18 view .LVU481
 1253 0032 1CBF     		itt	ne
 1254 0034 24F47044 		bicne	r4, r4, #61440
 1255              	.LVL151:
 1256              		.loc 1 366 13 is_stmt 1 view .LVU482
 1257              		.loc 1 366 18 is_stmt 0 view .LVU483
 1258 0038 44EA0134 		orrne	r4, r4, r1, lsl #12
 1259              	.LVL152:
 362:../../../support/device/gd32f4xx/peripherals/src/gd32f4xx_gpio.c ****         if((1U << i) & pin) {
 1260              		.loc 1 362 25 is_stmt 1 view .LVU484
 362:../../../support/device/gd32f4xx/peripherals/src/gd32f4xx_gpio.c ****         if((1U << i) & pin) {
 1261              		.loc 1 362 17 view .LVU485
 363:../../../support/device/gd32f4xx/peripherals/src/gd32f4xx_gpio.c ****             /* clear the specified pin alternate function bits */
 1262              		.loc 1 363 9 view .LVU486
 365:../../../support/device/gd32f4xx/peripherals/src/gd32f4xx_gpio.c ****             afrl |= GPIO_AFR_SET(i, alt_func_num);
 1263              		.loc 1 365 13 view .LVU487
 363:../../../support/device/gd32f4xx/peripherals/src/gd32f4xx_gpio.c ****             /* clear the specified pin alternate function bits */
 1264              		.loc 1 363 11 is_stmt 0 view .LVU488
 1265 003c 12F0100F 		tst	r2, #16
 365:../../../support/device/gd32f4xx/peripherals/src/gd32f4xx_gpio.c ****             afrl |= GPIO_AFR_SET(i, alt_func_num);
 1266              		.loc 1 365 18 view .LVU489
 1267 0040 1CBF     		itt	ne
 1268 0042 24F47024 		bicne	r4, r4, #983040
 1269              	.LVL153:
 1270              		.loc 1 366 13 is_stmt 1 view .LVU490
 1271              		.loc 1 366 18 is_stmt 0 view .LVU491
 1272 0046 44EA0144 		orrne	r4, r4, r1, lsl #16
 1273              	.LVL154:
 362:../../../support/device/gd32f4xx/peripherals/src/gd32f4xx_gpio.c ****         if((1U << i) & pin) {
 1274              		.loc 1 362 25 is_stmt 1 view .LVU492
 362:../../../support/device/gd32f4xx/peripherals/src/gd32f4xx_gpio.c ****         if((1U << i) & pin) {
 1275              		.loc 1 362 17 view .LVU493
 363:../../../support/device/gd32f4xx/peripherals/src/gd32f4xx_gpio.c ****             /* clear the specified pin alternate function bits */
 1276              		.loc 1 363 9 view .LVU494
 365:../../../support/device/gd32f4xx/peripherals/src/gd32f4xx_gpio.c ****             afrl |= GPIO_AFR_SET(i, alt_func_num);
 1277              		.loc 1 365 13 view .LVU495
 363:../../../support/device/gd32f4xx/peripherals/src/gd32f4xx_gpio.c ****             /* clear the specified pin alternate function bits */
 1278              		.loc 1 363 11 is_stmt 0 view .LVU496
ARM GAS  /var/folders/_f/88qcw_5n2jl40jjphvxyt7wh0000gn/T//cczWl83x.s 			page 35


 1279 004a 12F0200F 		tst	r2, #32
 365:../../../support/device/gd32f4xx/peripherals/src/gd32f4xx_gpio.c ****             afrl |= GPIO_AFR_SET(i, alt_func_num);
 1280              		.loc 1 365 18 view .LVU497
 1281 004e 1CBF     		itt	ne
 1282 0050 24F47004 		bicne	r4, r4, #15728640
 1283              	.LVL155:
 1284              		.loc 1 366 13 is_stmt 1 view .LVU498
 1285              		.loc 1 366 18 is_stmt 0 view .LVU499
 1286 0054 44EA0154 		orrne	r4, r4, r1, lsl #20
 1287              	.LVL156:
 362:../../../support/device/gd32f4xx/peripherals/src/gd32f4xx_gpio.c ****         if((1U << i) & pin) {
 1288              		.loc 1 362 25 is_stmt 1 view .LVU500
 362:../../../support/device/gd32f4xx/peripherals/src/gd32f4xx_gpio.c ****         if((1U << i) & pin) {
 1289              		.loc 1 362 17 view .LVU501
 363:../../../support/device/gd32f4xx/peripherals/src/gd32f4xx_gpio.c ****             /* clear the specified pin alternate function bits */
 1290              		.loc 1 363 9 view .LVU502
 365:../../../support/device/gd32f4xx/peripherals/src/gd32f4xx_gpio.c ****             afrl |= GPIO_AFR_SET(i, alt_func_num);
 1291              		.loc 1 365 13 view .LVU503
 363:../../../support/device/gd32f4xx/peripherals/src/gd32f4xx_gpio.c ****             /* clear the specified pin alternate function bits */
 1292              		.loc 1 363 11 is_stmt 0 view .LVU504
 1293 0058 12F0400F 		tst	r2, #64
 365:../../../support/device/gd32f4xx/peripherals/src/gd32f4xx_gpio.c ****             afrl |= GPIO_AFR_SET(i, alt_func_num);
 1294              		.loc 1 365 18 view .LVU505
 1295 005c 1CBF     		itt	ne
 1296 005e 24F07064 		bicne	r4, r4, #251658240
 1297              	.LVL157:
 1298              		.loc 1 366 13 is_stmt 1 view .LVU506
 1299              		.loc 1 366 18 is_stmt 0 view .LVU507
 1300 0062 44EA0164 		orrne	r4, r4, r1, lsl #24
 1301              	.LVL158:
 362:../../../support/device/gd32f4xx/peripherals/src/gd32f4xx_gpio.c ****         if((1U << i) & pin) {
 1302              		.loc 1 362 25 is_stmt 1 view .LVU508
 362:../../../support/device/gd32f4xx/peripherals/src/gd32f4xx_gpio.c ****         if((1U << i) & pin) {
 1303              		.loc 1 362 17 view .LVU509
 363:../../../support/device/gd32f4xx/peripherals/src/gd32f4xx_gpio.c ****             /* clear the specified pin alternate function bits */
 1304              		.loc 1 363 9 view .LVU510
 365:../../../support/device/gd32f4xx/peripherals/src/gd32f4xx_gpio.c ****             afrl |= GPIO_AFR_SET(i, alt_func_num);
 1305              		.loc 1 365 13 view .LVU511
 1306              		.loc 1 366 13 view .LVU512
 363:../../../support/device/gd32f4xx/peripherals/src/gd32f4xx_gpio.c ****             /* clear the specified pin alternate function bits */
 1307              		.loc 1 363 11 is_stmt 0 view .LVU513
 1308 0066 12F0800F 		tst	r2, #128
 1309              		.loc 1 366 18 view .LVU514
 1310 006a 18BF     		it	ne
 1311 006c 61F31F74 		bfine	r4, r1, #28, #4
 1312              	.LVL159:
 362:../../../support/device/gd32f4xx/peripherals/src/gd32f4xx_gpio.c ****         if((1U << i) & pin) {
 1313              		.loc 1 362 25 is_stmt 1 view .LVU515
 362:../../../support/device/gd32f4xx/peripherals/src/gd32f4xx_gpio.c ****         if((1U << i) & pin) {
 1314              		.loc 1 362 17 view .LVU516
 367:../../../support/device/gd32f4xx/peripherals/src/gd32f4xx_gpio.c ****         }
 368:../../../support/device/gd32f4xx/peripherals/src/gd32f4xx_gpio.c ****     }
 369:../../../support/device/gd32f4xx/peripherals/src/gd32f4xx_gpio.c **** 
 370:../../../support/device/gd32f4xx/peripherals/src/gd32f4xx_gpio.c ****     for(i = 8U; i < 16U; i++) {
 371:../../../support/device/gd32f4xx/peripherals/src/gd32f4xx_gpio.c ****         if((1U << i) & pin) {
 1315              		.loc 1 371 9 view .LVU517
 1316              		.loc 1 371 11 is_stmt 0 view .LVU518
ARM GAS  /var/folders/_f/88qcw_5n2jl40jjphvxyt7wh0000gn/T//cczWl83x.s 			page 36


 1317 0070 12F4807F 		tst	r2, #256
 372:../../../support/device/gd32f4xx/peripherals/src/gd32f4xx_gpio.c ****             /* clear the specified pin alternate function bits */
 373:../../../support/device/gd32f4xx/peripherals/src/gd32f4xx_gpio.c ****             afrh &= ~GPIO_AFR_MASK(i - 8U);
 1318              		.loc 1 373 13 is_stmt 1 view .LVU519
 1319              		.loc 1 373 18 is_stmt 0 view .LVU520
 1320 0074 1CBF     		itt	ne
 1321 0076 23F00F03 		bicne	r3, r3, #15
 1322              	.LVL160:
 374:../../../support/device/gd32f4xx/peripherals/src/gd32f4xx_gpio.c ****             afrh |= GPIO_AFR_SET(i - 8U, alt_func_num);
 1323              		.loc 1 374 13 is_stmt 1 view .LVU521
 1324              		.loc 1 374 18 is_stmt 0 view .LVU522
 1325 007a 0B43     		orrne	r3, r3, r1
 1326              	.LVL161:
 370:../../../support/device/gd32f4xx/peripherals/src/gd32f4xx_gpio.c ****         if((1U << i) & pin) {
 1327              		.loc 1 370 26 is_stmt 1 view .LVU523
 370:../../../support/device/gd32f4xx/peripherals/src/gd32f4xx_gpio.c ****         if((1U << i) & pin) {
 1328              		.loc 1 370 17 view .LVU524
 371:../../../support/device/gd32f4xx/peripherals/src/gd32f4xx_gpio.c ****             /* clear the specified pin alternate function bits */
 1329              		.loc 1 371 9 view .LVU525
 373:../../../support/device/gd32f4xx/peripherals/src/gd32f4xx_gpio.c ****             afrh |= GPIO_AFR_SET(i - 8U, alt_func_num);
 1330              		.loc 1 373 13 view .LVU526
 371:../../../support/device/gd32f4xx/peripherals/src/gd32f4xx_gpio.c ****             /* clear the specified pin alternate function bits */
 1331              		.loc 1 371 11 is_stmt 0 view .LVU527
 1332 007c 12F4007F 		tst	r2, #512
 373:../../../support/device/gd32f4xx/peripherals/src/gd32f4xx_gpio.c ****             afrh |= GPIO_AFR_SET(i - 8U, alt_func_num);
 1333              		.loc 1 373 18 view .LVU528
 1334 0080 1CBF     		itt	ne
 1335 0082 23F0F003 		bicne	r3, r3, #240
 1336              	.LVL162:
 1337              		.loc 1 374 13 is_stmt 1 view .LVU529
 1338              		.loc 1 374 18 is_stmt 0 view .LVU530
 1339 0086 43EA0113 		orrne	r3, r3, r1, lsl #4
 1340              	.LVL163:
 370:../../../support/device/gd32f4xx/peripherals/src/gd32f4xx_gpio.c ****         if((1U << i) & pin) {
 1341              		.loc 1 370 26 is_stmt 1 view .LVU531
 370:../../../support/device/gd32f4xx/peripherals/src/gd32f4xx_gpio.c ****         if((1U << i) & pin) {
 1342              		.loc 1 370 17 view .LVU532
 371:../../../support/device/gd32f4xx/peripherals/src/gd32f4xx_gpio.c ****             /* clear the specified pin alternate function bits */
 1343              		.loc 1 371 9 view .LVU533
 373:../../../support/device/gd32f4xx/peripherals/src/gd32f4xx_gpio.c ****             afrh |= GPIO_AFR_SET(i - 8U, alt_func_num);
 1344              		.loc 1 373 13 view .LVU534
 371:../../../support/device/gd32f4xx/peripherals/src/gd32f4xx_gpio.c ****             /* clear the specified pin alternate function bits */
 1345              		.loc 1 371 11 is_stmt 0 view .LVU535
 1346 008a 12F4806F 		tst	r2, #1024
 373:../../../support/device/gd32f4xx/peripherals/src/gd32f4xx_gpio.c ****             afrh |= GPIO_AFR_SET(i - 8U, alt_func_num);
 1347              		.loc 1 373 18 view .LVU536
 1348 008e 1CBF     		itt	ne
 1349 0090 23F47063 		bicne	r3, r3, #3840
 1350              	.LVL164:
 1351              		.loc 1 374 13 is_stmt 1 view .LVU537
 1352              		.loc 1 374 18 is_stmt 0 view .LVU538
 1353 0094 43EA0123 		orrne	r3, r3, r1, lsl #8
 1354              	.LVL165:
 370:../../../support/device/gd32f4xx/peripherals/src/gd32f4xx_gpio.c ****         if((1U << i) & pin) {
 1355              		.loc 1 370 26 is_stmt 1 view .LVU539
 370:../../../support/device/gd32f4xx/peripherals/src/gd32f4xx_gpio.c ****         if((1U << i) & pin) {
 1356              		.loc 1 370 17 view .LVU540
ARM GAS  /var/folders/_f/88qcw_5n2jl40jjphvxyt7wh0000gn/T//cczWl83x.s 			page 37


 371:../../../support/device/gd32f4xx/peripherals/src/gd32f4xx_gpio.c ****             /* clear the specified pin alternate function bits */
 1357              		.loc 1 371 9 view .LVU541
 373:../../../support/device/gd32f4xx/peripherals/src/gd32f4xx_gpio.c ****             afrh |= GPIO_AFR_SET(i - 8U, alt_func_num);
 1358              		.loc 1 373 13 view .LVU542
 371:../../../support/device/gd32f4xx/peripherals/src/gd32f4xx_gpio.c ****             /* clear the specified pin alternate function bits */
 1359              		.loc 1 371 11 is_stmt 0 view .LVU543
 1360 0098 12F4006F 		tst	r2, #2048
 373:../../../support/device/gd32f4xx/peripherals/src/gd32f4xx_gpio.c ****             afrh |= GPIO_AFR_SET(i - 8U, alt_func_num);
 1361              		.loc 1 373 18 view .LVU544
 1362 009c 1CBF     		itt	ne
 1363 009e 23F47043 		bicne	r3, r3, #61440
 1364              	.LVL166:
 1365              		.loc 1 374 13 is_stmt 1 view .LVU545
 1366              		.loc 1 374 18 is_stmt 0 view .LVU546
 1367 00a2 43EA0133 		orrne	r3, r3, r1, lsl #12
 1368              	.LVL167:
 370:../../../support/device/gd32f4xx/peripherals/src/gd32f4xx_gpio.c ****         if((1U << i) & pin) {
 1369              		.loc 1 370 26 is_stmt 1 view .LVU547
 370:../../../support/device/gd32f4xx/peripherals/src/gd32f4xx_gpio.c ****         if((1U << i) & pin) {
 1370              		.loc 1 370 17 view .LVU548
 371:../../../support/device/gd32f4xx/peripherals/src/gd32f4xx_gpio.c ****             /* clear the specified pin alternate function bits */
 1371              		.loc 1 371 9 view .LVU549
 373:../../../support/device/gd32f4xx/peripherals/src/gd32f4xx_gpio.c ****             afrh |= GPIO_AFR_SET(i - 8U, alt_func_num);
 1372              		.loc 1 373 13 view .LVU550
 371:../../../support/device/gd32f4xx/peripherals/src/gd32f4xx_gpio.c ****             /* clear the specified pin alternate function bits */
 1373              		.loc 1 371 11 is_stmt 0 view .LVU551
 1374 00a6 12F4805F 		tst	r2, #4096
 373:../../../support/device/gd32f4xx/peripherals/src/gd32f4xx_gpio.c ****             afrh |= GPIO_AFR_SET(i - 8U, alt_func_num);
 1375              		.loc 1 373 18 view .LVU552
 1376 00aa 1CBF     		itt	ne
 1377 00ac 23F47023 		bicne	r3, r3, #983040
 1378              	.LVL168:
 1379              		.loc 1 374 13 is_stmt 1 view .LVU553
 1380              		.loc 1 374 18 is_stmt 0 view .LVU554
 1381 00b0 43EA0143 		orrne	r3, r3, r1, lsl #16
 1382              	.LVL169:
 370:../../../support/device/gd32f4xx/peripherals/src/gd32f4xx_gpio.c ****         if((1U << i) & pin) {
 1383              		.loc 1 370 26 is_stmt 1 view .LVU555
 370:../../../support/device/gd32f4xx/peripherals/src/gd32f4xx_gpio.c ****         if((1U << i) & pin) {
 1384              		.loc 1 370 17 view .LVU556
 371:../../../support/device/gd32f4xx/peripherals/src/gd32f4xx_gpio.c ****             /* clear the specified pin alternate function bits */
 1385              		.loc 1 371 9 view .LVU557
 373:../../../support/device/gd32f4xx/peripherals/src/gd32f4xx_gpio.c ****             afrh |= GPIO_AFR_SET(i - 8U, alt_func_num);
 1386              		.loc 1 373 13 view .LVU558
 371:../../../support/device/gd32f4xx/peripherals/src/gd32f4xx_gpio.c ****             /* clear the specified pin alternate function bits */
 1387              		.loc 1 371 11 is_stmt 0 view .LVU559
 1388 00b4 12F4005F 		tst	r2, #8192
 373:../../../support/device/gd32f4xx/peripherals/src/gd32f4xx_gpio.c ****             afrh |= GPIO_AFR_SET(i - 8U, alt_func_num);
 1389              		.loc 1 373 18 view .LVU560
 1390 00b8 1CBF     		itt	ne
 1391 00ba 23F47003 		bicne	r3, r3, #15728640
 1392              	.LVL170:
 1393              		.loc 1 374 13 is_stmt 1 view .LVU561
 1394              		.loc 1 374 18 is_stmt 0 view .LVU562
 1395 00be 43EA0153 		orrne	r3, r3, r1, lsl #20
 1396              	.LVL171:
 370:../../../support/device/gd32f4xx/peripherals/src/gd32f4xx_gpio.c ****         if((1U << i) & pin) {
ARM GAS  /var/folders/_f/88qcw_5n2jl40jjphvxyt7wh0000gn/T//cczWl83x.s 			page 38


 1397              		.loc 1 370 26 is_stmt 1 view .LVU563
 370:../../../support/device/gd32f4xx/peripherals/src/gd32f4xx_gpio.c ****         if((1U << i) & pin) {
 1398              		.loc 1 370 17 view .LVU564
 371:../../../support/device/gd32f4xx/peripherals/src/gd32f4xx_gpio.c ****             /* clear the specified pin alternate function bits */
 1399              		.loc 1 371 9 view .LVU565
 373:../../../support/device/gd32f4xx/peripherals/src/gd32f4xx_gpio.c ****             afrh |= GPIO_AFR_SET(i - 8U, alt_func_num);
 1400              		.loc 1 373 13 view .LVU566
 371:../../../support/device/gd32f4xx/peripherals/src/gd32f4xx_gpio.c ****             /* clear the specified pin alternate function bits */
 1401              		.loc 1 371 11 is_stmt 0 view .LVU567
 1402 00c2 12F4804F 		tst	r2, #16384
 373:../../../support/device/gd32f4xx/peripherals/src/gd32f4xx_gpio.c ****             afrh |= GPIO_AFR_SET(i - 8U, alt_func_num);
 1403              		.loc 1 373 18 view .LVU568
 1404 00c6 1CBF     		itt	ne
 1405 00c8 23F07063 		bicne	r3, r3, #251658240
 1406              	.LVL172:
 1407              		.loc 1 374 13 is_stmt 1 view .LVU569
 1408              		.loc 1 374 18 is_stmt 0 view .LVU570
 1409 00cc 43EA0163 		orrne	r3, r3, r1, lsl #24
 1410              	.LVL173:
 370:../../../support/device/gd32f4xx/peripherals/src/gd32f4xx_gpio.c ****         if((1U << i) & pin) {
 1411              		.loc 1 370 26 is_stmt 1 view .LVU571
 370:../../../support/device/gd32f4xx/peripherals/src/gd32f4xx_gpio.c ****         if((1U << i) & pin) {
 1412              		.loc 1 370 17 view .LVU572
 371:../../../support/device/gd32f4xx/peripherals/src/gd32f4xx_gpio.c ****             /* clear the specified pin alternate function bits */
 1413              		.loc 1 371 9 view .LVU573
 373:../../../support/device/gd32f4xx/peripherals/src/gd32f4xx_gpio.c ****             afrh |= GPIO_AFR_SET(i - 8U, alt_func_num);
 1414              		.loc 1 373 13 view .LVU574
 1415              		.loc 1 374 13 view .LVU575
 371:../../../support/device/gd32f4xx/peripherals/src/gd32f4xx_gpio.c ****             /* clear the specified pin alternate function bits */
 1416              		.loc 1 371 11 is_stmt 0 view .LVU576
 1417 00d0 1204     		lsls	r2, r2, #16
 1418              	.LVL174:
 1419              		.loc 1 374 18 view .LVU577
 1420 00d2 48BF     		it	mi
 1421 00d4 61F31F73 		bfimi	r3, r1, #28, #4
 1422              	.LVL175:
 370:../../../support/device/gd32f4xx/peripherals/src/gd32f4xx_gpio.c ****         if((1U << i) & pin) {
 1423              		.loc 1 370 26 is_stmt 1 view .LVU578
 370:../../../support/device/gd32f4xx/peripherals/src/gd32f4xx_gpio.c ****         if((1U << i) & pin) {
 1424              		.loc 1 370 17 view .LVU579
 375:../../../support/device/gd32f4xx/peripherals/src/gd32f4xx_gpio.c ****         }
 376:../../../support/device/gd32f4xx/peripherals/src/gd32f4xx_gpio.c ****     }
 377:../../../support/device/gd32f4xx/peripherals/src/gd32f4xx_gpio.c **** 
 378:../../../support/device/gd32f4xx/peripherals/src/gd32f4xx_gpio.c ****     GPIO_AFSEL0(gpio_periph) = afrl;
 1425              		.loc 1 378 5 view .LVU580
 1426              		.loc 1 378 30 is_stmt 0 view .LVU581
 1427 00d8 0462     		str	r4, [r0, #32]
 379:../../../support/device/gd32f4xx/peripherals/src/gd32f4xx_gpio.c ****     GPIO_AFSEL1(gpio_periph) = afrh;
 1428              		.loc 1 379 5 is_stmt 1 view .LVU582
 380:../../../support/device/gd32f4xx/peripherals/src/gd32f4xx_gpio.c **** }
 1429              		.loc 1 380 1 is_stmt 0 view .LVU583
 1430 00da 10BC     		pop	{r4}
 1431              	.LCFI21:
 1432              		.cfi_restore 4
 1433              		.cfi_def_cfa_offset 0
 1434              	.LVL176:
 379:../../../support/device/gd32f4xx/peripherals/src/gd32f4xx_gpio.c ****     GPIO_AFSEL1(gpio_periph) = afrh;
ARM GAS  /var/folders/_f/88qcw_5n2jl40jjphvxyt7wh0000gn/T//cczWl83x.s 			page 39


 1435              		.loc 1 379 30 view .LVU584
 1436 00dc 4362     		str	r3, [r0, #36]
 1437              	.LVL177:
 1438              		.loc 1 380 1 view .LVU585
 1439 00de 7047     		bx	lr
 1440              		.cfi_endproc
 1441              	.LFE127:
 1443              		.section	.text.gpio_pin_lock,"ax",%progbits
 1444              		.align	1
 1445              		.p2align 2,,3
 1446              		.global	gpio_pin_lock
 1447              		.syntax unified
 1448              		.thumb
 1449              		.thumb_func
 1451              	gpio_pin_lock:
 1452              	.LVL178:
 1453              	.LFB128:
 381:../../../support/device/gd32f4xx/peripherals/src/gd32f4xx_gpio.c **** 
 382:../../../support/device/gd32f4xx/peripherals/src/gd32f4xx_gpio.c **** /*!
 383:../../../support/device/gd32f4xx/peripherals/src/gd32f4xx_gpio.c ****     \brief      lock GPIO pin bit
 384:../../../support/device/gd32f4xx/peripherals/src/gd32f4xx_gpio.c ****     \param[in]  gpio_periph: GPIO port
 385:../../../support/device/gd32f4xx/peripherals/src/gd32f4xx_gpio.c ****                 only one parameter can be selected which is shown as below:
 386:../../../support/device/gd32f4xx/peripherals/src/gd32f4xx_gpio.c ****       \arg        GPIOx(x = A,B,C,D,E,F,G,H,I)
 387:../../../support/device/gd32f4xx/peripherals/src/gd32f4xx_gpio.c ****     \param[in]  pin: GPIO pin
 388:../../../support/device/gd32f4xx/peripherals/src/gd32f4xx_gpio.c ****                 one or more parameters can be selected which are shown as below:
 389:../../../support/device/gd32f4xx/peripherals/src/gd32f4xx_gpio.c ****       \arg        GPIO_PIN_x(x=0..15), GPIO_PIN_ALL
 390:../../../support/device/gd32f4xx/peripherals/src/gd32f4xx_gpio.c ****     \param[out] none
 391:../../../support/device/gd32f4xx/peripherals/src/gd32f4xx_gpio.c ****     \retval     none
 392:../../../support/device/gd32f4xx/peripherals/src/gd32f4xx_gpio.c **** */
 393:../../../support/device/gd32f4xx/peripherals/src/gd32f4xx_gpio.c **** void gpio_pin_lock(uint32_t gpio_periph, uint32_t pin)
 394:../../../support/device/gd32f4xx/peripherals/src/gd32f4xx_gpio.c **** {
 1454              		.loc 1 394 1 is_stmt 1 view -0
 1455              		.cfi_startproc
 1456              		@ args = 0, pretend = 0, frame = 0
 1457              		@ frame_needed = 0, uses_anonymous_args = 0
 1458              		@ link register save eliminated.
 395:../../../support/device/gd32f4xx/peripherals/src/gd32f4xx_gpio.c ****     uint32_t lock = 0x00010000U;
 1459              		.loc 1 395 5 view .LVU587
 396:../../../support/device/gd32f4xx/peripherals/src/gd32f4xx_gpio.c ****     lock |= pin;
 1460              		.loc 1 396 5 view .LVU588
 1461              		.loc 1 396 10 is_stmt 0 view .LVU589
 1462 0000 41F48033 		orr	r3, r1, #65536
 1463              	.LVL179:
 397:../../../support/device/gd32f4xx/peripherals/src/gd32f4xx_gpio.c **** 
 398:../../../support/device/gd32f4xx/peripherals/src/gd32f4xx_gpio.c ****     /* lock key writing sequence: write 1->write 0->write 1->read 0->read 1 */
 399:../../../support/device/gd32f4xx/peripherals/src/gd32f4xx_gpio.c ****     GPIO_LOCK(gpio_periph) = (uint32_t)lock;
 1464              		.loc 1 399 5 is_stmt 1 view .LVU590
 1465              		.loc 1 399 28 is_stmt 0 view .LVU591
 1466 0004 C361     		str	r3, [r0, #28]
 400:../../../support/device/gd32f4xx/peripherals/src/gd32f4xx_gpio.c ****     GPIO_LOCK(gpio_periph) = (uint32_t)pin;
 1467              		.loc 1 400 5 is_stmt 1 view .LVU592
 1468              		.loc 1 400 28 is_stmt 0 view .LVU593
 1469 0006 C161     		str	r1, [r0, #28]
 401:../../../support/device/gd32f4xx/peripherals/src/gd32f4xx_gpio.c ****     GPIO_LOCK(gpio_periph) = (uint32_t)lock;
 1470              		.loc 1 401 5 is_stmt 1 view .LVU594
 1471              		.loc 1 401 28 is_stmt 0 view .LVU595
 1472 0008 C361     		str	r3, [r0, #28]
ARM GAS  /var/folders/_f/88qcw_5n2jl40jjphvxyt7wh0000gn/T//cczWl83x.s 			page 40


 402:../../../support/device/gd32f4xx/peripherals/src/gd32f4xx_gpio.c ****     lock = GPIO_LOCK(gpio_periph);
 1473              		.loc 1 402 5 is_stmt 1 view .LVU596
 1474              		.loc 1 402 10 is_stmt 0 view .LVU597
 1475 000a C369     		ldr	r3, [r0, #28]
 1476              	.LVL180:
 403:../../../support/device/gd32f4xx/peripherals/src/gd32f4xx_gpio.c ****     lock = GPIO_LOCK(gpio_periph);
 1477              		.loc 1 403 5 is_stmt 1 view .LVU598
 1478              		.loc 1 403 10 is_stmt 0 view .LVU599
 1479 000c C369     		ldr	r3, [r0, #28]
 404:../../../support/device/gd32f4xx/peripherals/src/gd32f4xx_gpio.c **** }
 1480              		.loc 1 404 1 view .LVU600
 1481 000e 7047     		bx	lr
 1482              		.cfi_endproc
 1483              	.LFE128:
 1485              		.section	.text.gpio_bit_toggle,"ax",%progbits
 1486              		.align	1
 1487              		.p2align 2,,3
 1488              		.global	gpio_bit_toggle
 1489              		.syntax unified
 1490              		.thumb
 1491              		.thumb_func
 1493              	gpio_bit_toggle:
 1494              	.LVL181:
 1495              	.LFB129:
 405:../../../support/device/gd32f4xx/peripherals/src/gd32f4xx_gpio.c **** 
 406:../../../support/device/gd32f4xx/peripherals/src/gd32f4xx_gpio.c **** /*!
 407:../../../support/device/gd32f4xx/peripherals/src/gd32f4xx_gpio.c ****     \brief      toggle GPIO pin status
 408:../../../support/device/gd32f4xx/peripherals/src/gd32f4xx_gpio.c ****     \param[in]  gpio_periph: GPIO port
 409:../../../support/device/gd32f4xx/peripherals/src/gd32f4xx_gpio.c ****                 only one parameter can be selected which is shown as below:
 410:../../../support/device/gd32f4xx/peripherals/src/gd32f4xx_gpio.c ****       \arg        GPIOx(x = A,B,C,D,E,F,G,H,I)
 411:../../../support/device/gd32f4xx/peripherals/src/gd32f4xx_gpio.c ****     \param[in]  pin: GPIO pin
 412:../../../support/device/gd32f4xx/peripherals/src/gd32f4xx_gpio.c ****                 one or more parameters can be selected which are shown as below:
 413:../../../support/device/gd32f4xx/peripherals/src/gd32f4xx_gpio.c ****       \arg        GPIO_PIN_x(x=0..15), GPIO_PIN_ALL
 414:../../../support/device/gd32f4xx/peripherals/src/gd32f4xx_gpio.c ****     \param[out] none
 415:../../../support/device/gd32f4xx/peripherals/src/gd32f4xx_gpio.c ****     \retval     none
 416:../../../support/device/gd32f4xx/peripherals/src/gd32f4xx_gpio.c **** */
 417:../../../support/device/gd32f4xx/peripherals/src/gd32f4xx_gpio.c **** void gpio_bit_toggle(uint32_t gpio_periph, uint32_t pin)
 418:../../../support/device/gd32f4xx/peripherals/src/gd32f4xx_gpio.c **** {
 1496              		.loc 1 418 1 is_stmt 1 view -0
 1497              		.cfi_startproc
 1498              		@ args = 0, pretend = 0, frame = 0
 1499              		@ frame_needed = 0, uses_anonymous_args = 0
 1500              		@ link register save eliminated.
 419:../../../support/device/gd32f4xx/peripherals/src/gd32f4xx_gpio.c ****     GPIO_TG(gpio_periph) = (uint32_t)pin;
 1501              		.loc 1 419 5 view .LVU602
 1502              		.loc 1 419 26 is_stmt 0 view .LVU603
 1503 0000 C162     		str	r1, [r0, #44]
 420:../../../support/device/gd32f4xx/peripherals/src/gd32f4xx_gpio.c **** }
 1504              		.loc 1 420 1 view .LVU604
 1505 0002 7047     		bx	lr
 1506              		.cfi_endproc
 1507              	.LFE129:
 1509              		.section	.text.gpio_port_toggle,"ax",%progbits
 1510              		.align	1
 1511              		.p2align 2,,3
 1512              		.global	gpio_port_toggle
 1513              		.syntax unified
ARM GAS  /var/folders/_f/88qcw_5n2jl40jjphvxyt7wh0000gn/T//cczWl83x.s 			page 41


 1514              		.thumb
 1515              		.thumb_func
 1517              	gpio_port_toggle:
 1518              	.LVL182:
 1519              	.LFB130:
 421:../../../support/device/gd32f4xx/peripherals/src/gd32f4xx_gpio.c **** 
 422:../../../support/device/gd32f4xx/peripherals/src/gd32f4xx_gpio.c **** /*!
 423:../../../support/device/gd32f4xx/peripherals/src/gd32f4xx_gpio.c ****     \brief      toggle GPIO port status
 424:../../../support/device/gd32f4xx/peripherals/src/gd32f4xx_gpio.c ****     \param[in]  gpio_periph: GPIO port
 425:../../../support/device/gd32f4xx/peripherals/src/gd32f4xx_gpio.c ****                 only one parameter can be selected which is shown as below:
 426:../../../support/device/gd32f4xx/peripherals/src/gd32f4xx_gpio.c ****       \arg        GPIOx(x = A,B,C,D,E,F,G,H,I)
 427:../../../support/device/gd32f4xx/peripherals/src/gd32f4xx_gpio.c **** 
 428:../../../support/device/gd32f4xx/peripherals/src/gd32f4xx_gpio.c ****     \param[out] none
 429:../../../support/device/gd32f4xx/peripherals/src/gd32f4xx_gpio.c ****     \retval     none
 430:../../../support/device/gd32f4xx/peripherals/src/gd32f4xx_gpio.c **** */
 431:../../../support/device/gd32f4xx/peripherals/src/gd32f4xx_gpio.c **** void gpio_port_toggle(uint32_t gpio_periph)
 432:../../../support/device/gd32f4xx/peripherals/src/gd32f4xx_gpio.c **** {
 1520              		.loc 1 432 1 is_stmt 1 view -0
 1521              		.cfi_startproc
 1522              		@ args = 0, pretend = 0, frame = 0
 1523              		@ frame_needed = 0, uses_anonymous_args = 0
 1524              		@ link register save eliminated.
 433:../../../support/device/gd32f4xx/peripherals/src/gd32f4xx_gpio.c ****     GPIO_TG(gpio_periph) = 0x0000FFFFU;
 1525              		.loc 1 433 5 view .LVU606
 1526              		.loc 1 433 26 is_stmt 0 view .LVU607
 1527 0000 4FF6FF73 		movw	r3, #65535
 1528 0004 C362     		str	r3, [r0, #44]
 434:../../../support/device/gd32f4xx/peripherals/src/gd32f4xx_gpio.c **** }
 1529              		.loc 1 434 1 view .LVU608
 1530 0006 7047     		bx	lr
 1531              		.cfi_endproc
 1532              	.LFE130:
 1534              		.text
 1535              	.Letext0:
 1536              		.file 2 "/Applications/ARM/arm-none-eabi/include/machine/_default_types.h"
 1537              		.file 3 "/Applications/ARM/arm-none-eabi/include/sys/_stdint.h"
 1538              		.file 4 "../../../support/device/gd32f4xx/inc/gd32f4xx.h"
 1539              		.file 5 "../../../support/device/gd32f4xx/peripherals/inc/gd32f4xx_rcu.h"
 1540              		.file 6 "../../../support/device/gd32f4xx/peripherals/inc/gd32f4xx_gpio.h"
ARM GAS  /var/folders/_f/88qcw_5n2jl40jjphvxyt7wh0000gn/T//cczWl83x.s 			page 42

