ARM GAS  /var/folders/_f/88qcw_5n2jl40jjphvxyt7wh0000gn/T//cclx8esx.s 			page 1


   1              		.cpu cortex-m4
   2              		.arch armv7e-m
   3              		.fpu softvfp
   4              		.eabi_attribute 20, 1
   5              		.eabi_attribute 21, 1
   6              		.eabi_attribute 23, 3
   7              		.eabi_attribute 24, 1
   8              		.eabi_attribute 25, 1
   9              		.eabi_attribute 26, 1
  10              		.eabi_attribute 30, 2
  11              		.eabi_attribute 34, 1
  12              		.eabi_attribute 18, 4
  13              		.file	"gd32f4xx_crc.c"
  14              		.text
  15              	.Ltext0:
  16              		.cfi_sections	.debug_frame
  17              		.section	.text.crc_deinit,"ax",%progbits
  18              		.align	1
  19              		.p2align 2,,3
  20              		.global	crc_deinit
  21              		.syntax unified
  22              		.thumb
  23              		.thumb_func
  25              	crc_deinit:
  26              	.LFB116:
  27              		.file 1 "../../../support/device/gd32f4xx/peripherals/src/gd32f4xx_crc.c"
   1:../../../support/device/gd32f4xx/peripherals/src/gd32f4xx_crc.c **** /*!
   2:../../../support/device/gd32f4xx/peripherals/src/gd32f4xx_crc.c ****     \file    gd32f4xx_crc.c
   3:../../../support/device/gd32f4xx/peripherals/src/gd32f4xx_crc.c ****     \brief   CRC driver
   4:../../../support/device/gd32f4xx/peripherals/src/gd32f4xx_crc.c **** 
   5:../../../support/device/gd32f4xx/peripherals/src/gd32f4xx_crc.c ****     \version 2016-08-15, V1.0.0, firmware for GD32F4xx
   6:../../../support/device/gd32f4xx/peripherals/src/gd32f4xx_crc.c ****     \version 2018-12-12, V2.0.0, firmware for GD32F4xx
   7:../../../support/device/gd32f4xx/peripherals/src/gd32f4xx_crc.c ****     \version 2020-09-30, V2.1.0, firmware for GD32F4xx
   8:../../../support/device/gd32f4xx/peripherals/src/gd32f4xx_crc.c ****     \version 2022-03-09, V3.0.0, firmware for GD32F4xx
   9:../../../support/device/gd32f4xx/peripherals/src/gd32f4xx_crc.c **** */
  10:../../../support/device/gd32f4xx/peripherals/src/gd32f4xx_crc.c **** 
  11:../../../support/device/gd32f4xx/peripherals/src/gd32f4xx_crc.c **** /*
  12:../../../support/device/gd32f4xx/peripherals/src/gd32f4xx_crc.c ****     Copyright (c) 2022, GigaDevice Semiconductor Inc.
  13:../../../support/device/gd32f4xx/peripherals/src/gd32f4xx_crc.c **** 
  14:../../../support/device/gd32f4xx/peripherals/src/gd32f4xx_crc.c ****     Redistribution and use in source and binary forms, with or without modification,
  15:../../../support/device/gd32f4xx/peripherals/src/gd32f4xx_crc.c **** are permitted provided that the following conditions are met:
  16:../../../support/device/gd32f4xx/peripherals/src/gd32f4xx_crc.c **** 
  17:../../../support/device/gd32f4xx/peripherals/src/gd32f4xx_crc.c ****     1. Redistributions of source code must retain the above copyright notice, this
  18:../../../support/device/gd32f4xx/peripherals/src/gd32f4xx_crc.c ****        list of conditions and the following disclaimer.
  19:../../../support/device/gd32f4xx/peripherals/src/gd32f4xx_crc.c ****     2. Redistributions in binary form must reproduce the above copyright notice,
  20:../../../support/device/gd32f4xx/peripherals/src/gd32f4xx_crc.c ****        this list of conditions and the following disclaimer in the documentation
  21:../../../support/device/gd32f4xx/peripherals/src/gd32f4xx_crc.c ****        and/or other materials provided with the distribution.
  22:../../../support/device/gd32f4xx/peripherals/src/gd32f4xx_crc.c ****     3. Neither the name of the copyright holder nor the names of its contributors
  23:../../../support/device/gd32f4xx/peripherals/src/gd32f4xx_crc.c ****        may be used to endorse or promote products derived from this software without
  24:../../../support/device/gd32f4xx/peripherals/src/gd32f4xx_crc.c ****        specific prior written permission.
  25:../../../support/device/gd32f4xx/peripherals/src/gd32f4xx_crc.c **** 
  26:../../../support/device/gd32f4xx/peripherals/src/gd32f4xx_crc.c ****     THIS SOFTWARE IS PROVIDED BY THE COPYRIGHT HOLDERS AND CONTRIBUTORS "AS IS"
  27:../../../support/device/gd32f4xx/peripherals/src/gd32f4xx_crc.c **** AND ANY EXPRESS OR IMPLIED WARRANTIES, INCLUDING, BUT NOT LIMITED TO, THE IMPLIED
  28:../../../support/device/gd32f4xx/peripherals/src/gd32f4xx_crc.c **** WARRANTIES OF MERCHANTABILITY AND FITNESS FOR A PARTICULAR PURPOSE ARE DISCLAIMED.
  29:../../../support/device/gd32f4xx/peripherals/src/gd32f4xx_crc.c **** IN NO EVENT SHALL THE COPYRIGHT HOLDER OR CONTRIBUTORS BE LIABLE FOR ANY DIRECT,
  30:../../../support/device/gd32f4xx/peripherals/src/gd32f4xx_crc.c **** INDIRECT, INCIDENTAL, SPECIAL, EXEMPLARY, OR CONSEQUENTIAL DAMAGES (INCLUDING, BUT
  31:../../../support/device/gd32f4xx/peripherals/src/gd32f4xx_crc.c **** NOT LIMITED TO, PROCUREMENT OF SUBSTITUTE GOODS OR SERVICES; LOSS OF USE, DATA, OR
ARM GAS  /var/folders/_f/88qcw_5n2jl40jjphvxyt7wh0000gn/T//cclx8esx.s 			page 2


  32:../../../support/device/gd32f4xx/peripherals/src/gd32f4xx_crc.c **** PROFITS; OR BUSINESS INTERRUPTION) HOWEVER CAUSED AND ON ANY THEORY OF LIABILITY,
  33:../../../support/device/gd32f4xx/peripherals/src/gd32f4xx_crc.c **** WHETHER IN CONTRACT, STRICT LIABILITY, OR TORT (INCLUDING NEGLIGENCE OR OTHERWISE)
  34:../../../support/device/gd32f4xx/peripherals/src/gd32f4xx_crc.c **** ARISING IN ANY WAY OUT OF THE USE OF THIS SOFTWARE, EVEN IF ADVISED OF THE POSSIBILITY
  35:../../../support/device/gd32f4xx/peripherals/src/gd32f4xx_crc.c **** OF SUCH DAMAGE.
  36:../../../support/device/gd32f4xx/peripherals/src/gd32f4xx_crc.c **** */
  37:../../../support/device/gd32f4xx/peripherals/src/gd32f4xx_crc.c **** 
  38:../../../support/device/gd32f4xx/peripherals/src/gd32f4xx_crc.c **** #include "gd32f4xx_crc.h"
  39:../../../support/device/gd32f4xx/peripherals/src/gd32f4xx_crc.c **** 
  40:../../../support/device/gd32f4xx/peripherals/src/gd32f4xx_crc.c **** #define CRC_DATA_RESET_VALUE      ((uint32_t)0xFFFFFFFFU)
  41:../../../support/device/gd32f4xx/peripherals/src/gd32f4xx_crc.c **** #define CRC_FDATA_RESET_VALUE     ((uint32_t)0x00000000U)
  42:../../../support/device/gd32f4xx/peripherals/src/gd32f4xx_crc.c **** 
  43:../../../support/device/gd32f4xx/peripherals/src/gd32f4xx_crc.c **** /*!
  44:../../../support/device/gd32f4xx/peripherals/src/gd32f4xx_crc.c ****     \brief      deinit CRC calculation unit
  45:../../../support/device/gd32f4xx/peripherals/src/gd32f4xx_crc.c ****     \param[in]  none
  46:../../../support/device/gd32f4xx/peripherals/src/gd32f4xx_crc.c ****     \param[out] none
  47:../../../support/device/gd32f4xx/peripherals/src/gd32f4xx_crc.c ****     \retval     none
  48:../../../support/device/gd32f4xx/peripherals/src/gd32f4xx_crc.c **** */
  49:../../../support/device/gd32f4xx/peripherals/src/gd32f4xx_crc.c **** void crc_deinit(void)
  50:../../../support/device/gd32f4xx/peripherals/src/gd32f4xx_crc.c **** {
  28              		.loc 1 50 1 view -0
  29              		.cfi_startproc
  30              		@ args = 0, pretend = 0, frame = 0
  31              		@ frame_needed = 0, uses_anonymous_args = 0
  32              		@ link register save eliminated.
  51:../../../support/device/gd32f4xx/peripherals/src/gd32f4xx_crc.c ****     CRC_DATA  = CRC_DATA_RESET_VALUE;
  33              		.loc 1 51 5 view .LVU1
  34              		.loc 1 51 15 is_stmt 0 view .LVU2
  35 0000 044B     		ldr	r3, .L3
  36 0002 4FF0FF30 		mov	r0, #-1
  52:../../../support/device/gd32f4xx/peripherals/src/gd32f4xx_crc.c ****     CRC_FDATA = CRC_FDATA_RESET_VALUE;
  37              		.loc 1 52 15 view .LVU3
  38 0006 0021     		movs	r1, #0
  53:../../../support/device/gd32f4xx/peripherals/src/gd32f4xx_crc.c ****     CRC_CTL   = (uint32_t)CRC_CTL_RST;
  39              		.loc 1 53 15 view .LVU4
  40 0008 0122     		movs	r2, #1
  51:../../../support/device/gd32f4xx/peripherals/src/gd32f4xx_crc.c ****     CRC_DATA  = CRC_DATA_RESET_VALUE;
  41              		.loc 1 51 15 view .LVU5
  42 000a 1860     		str	r0, [r3]
  52:../../../support/device/gd32f4xx/peripherals/src/gd32f4xx_crc.c ****     CRC_FDATA = CRC_FDATA_RESET_VALUE;
  43              		.loc 1 52 5 is_stmt 1 view .LVU6
  52:../../../support/device/gd32f4xx/peripherals/src/gd32f4xx_crc.c ****     CRC_FDATA = CRC_FDATA_RESET_VALUE;
  44              		.loc 1 52 15 is_stmt 0 view .LVU7
  45 000c 5960     		str	r1, [r3, #4]
  46              		.loc 1 53 5 is_stmt 1 view .LVU8
  47              		.loc 1 53 15 is_stmt 0 view .LVU9
  48 000e 9A60     		str	r2, [r3, #8]
  54:../../../support/device/gd32f4xx/peripherals/src/gd32f4xx_crc.c **** }
  49              		.loc 1 54 1 view .LVU10
  50 0010 7047     		bx	lr
  51              	.L4:
  52 0012 00BF     		.align	2
  53              	.L3:
  54 0014 00300240 		.word	1073885184
  55              		.cfi_endproc
  56              	.LFE116:
  58              		.section	.text.crc_data_register_reset,"ax",%progbits
  59              		.align	1
ARM GAS  /var/folders/_f/88qcw_5n2jl40jjphvxyt7wh0000gn/T//cclx8esx.s 			page 3


  60              		.p2align 2,,3
  61              		.global	crc_data_register_reset
  62              		.syntax unified
  63              		.thumb
  64              		.thumb_func
  66              	crc_data_register_reset:
  67              	.LFB117:
  55:../../../support/device/gd32f4xx/peripherals/src/gd32f4xx_crc.c **** 
  56:../../../support/device/gd32f4xx/peripherals/src/gd32f4xx_crc.c **** /*!
  57:../../../support/device/gd32f4xx/peripherals/src/gd32f4xx_crc.c ****     \brief      reset data register(CRC_DATA) to the value of 0xFFFFFFFF
  58:../../../support/device/gd32f4xx/peripherals/src/gd32f4xx_crc.c ****     \param[in]  none
  59:../../../support/device/gd32f4xx/peripherals/src/gd32f4xx_crc.c ****     \param[out] none
  60:../../../support/device/gd32f4xx/peripherals/src/gd32f4xx_crc.c ****     \retval     none
  61:../../../support/device/gd32f4xx/peripherals/src/gd32f4xx_crc.c **** */
  62:../../../support/device/gd32f4xx/peripherals/src/gd32f4xx_crc.c **** void crc_data_register_reset(void)
  63:../../../support/device/gd32f4xx/peripherals/src/gd32f4xx_crc.c **** {
  68              		.loc 1 63 1 is_stmt 1 view -0
  69              		.cfi_startproc
  70              		@ args = 0, pretend = 0, frame = 0
  71              		@ frame_needed = 0, uses_anonymous_args = 0
  72              		@ link register save eliminated.
  64:../../../support/device/gd32f4xx/peripherals/src/gd32f4xx_crc.c ****     CRC_CTL |= (uint32_t)CRC_CTL_RST;
  73              		.loc 1 64 5 view .LVU12
  74              		.loc 1 64 13 is_stmt 0 view .LVU13
  75 0000 024A     		ldr	r2, .L6
  76 0002 9368     		ldr	r3, [r2, #8]
  77 0004 43F00103 		orr	r3, r3, #1
  78 0008 9360     		str	r3, [r2, #8]
  65:../../../support/device/gd32f4xx/peripherals/src/gd32f4xx_crc.c **** }
  79              		.loc 1 65 1 view .LVU14
  80 000a 7047     		bx	lr
  81              	.L7:
  82              		.align	2
  83              	.L6:
  84 000c 00300240 		.word	1073885184
  85              		.cfi_endproc
  86              	.LFE117:
  88              		.section	.text.crc_data_register_read,"ax",%progbits
  89              		.align	1
  90              		.p2align 2,,3
  91              		.global	crc_data_register_read
  92              		.syntax unified
  93              		.thumb
  94              		.thumb_func
  96              	crc_data_register_read:
  97              	.LFB118:
  66:../../../support/device/gd32f4xx/peripherals/src/gd32f4xx_crc.c **** 
  67:../../../support/device/gd32f4xx/peripherals/src/gd32f4xx_crc.c **** /*!
  68:../../../support/device/gd32f4xx/peripherals/src/gd32f4xx_crc.c ****     \brief      read the value of the data register
  69:../../../support/device/gd32f4xx/peripherals/src/gd32f4xx_crc.c ****     \param[in]  none
  70:../../../support/device/gd32f4xx/peripherals/src/gd32f4xx_crc.c ****     \param[out] none
  71:../../../support/device/gd32f4xx/peripherals/src/gd32f4xx_crc.c ****     \retval     32-bit value of the data register
  72:../../../support/device/gd32f4xx/peripherals/src/gd32f4xx_crc.c **** */
  73:../../../support/device/gd32f4xx/peripherals/src/gd32f4xx_crc.c **** uint32_t crc_data_register_read(void)
  74:../../../support/device/gd32f4xx/peripherals/src/gd32f4xx_crc.c **** {
  98              		.loc 1 74 1 is_stmt 1 view -0
  99              		.cfi_startproc
ARM GAS  /var/folders/_f/88qcw_5n2jl40jjphvxyt7wh0000gn/T//cclx8esx.s 			page 4


 100              		@ args = 0, pretend = 0, frame = 0
 101              		@ frame_needed = 0, uses_anonymous_args = 0
 102              		@ link register save eliminated.
  75:../../../support/device/gd32f4xx/peripherals/src/gd32f4xx_crc.c ****     uint32_t data;
 103              		.loc 1 75 5 view .LVU16
  76:../../../support/device/gd32f4xx/peripherals/src/gd32f4xx_crc.c ****     data = CRC_DATA;
 104              		.loc 1 76 5 view .LVU17
 105              		.loc 1 76 10 is_stmt 0 view .LVU18
 106 0000 014B     		ldr	r3, .L9
 107 0002 1868     		ldr	r0, [r3]
 108              	.LVL0:
  77:../../../support/device/gd32f4xx/peripherals/src/gd32f4xx_crc.c ****     return (data);
 109              		.loc 1 77 5 is_stmt 1 view .LVU19
  78:../../../support/device/gd32f4xx/peripherals/src/gd32f4xx_crc.c **** }
 110              		.loc 1 78 1 is_stmt 0 view .LVU20
 111 0004 7047     		bx	lr
 112              	.L10:
 113 0006 00BF     		.align	2
 114              	.L9:
 115 0008 00300240 		.word	1073885184
 116              		.cfi_endproc
 117              	.LFE118:
 119              		.section	.text.crc_free_data_register_read,"ax",%progbits
 120              		.align	1
 121              		.p2align 2,,3
 122              		.global	crc_free_data_register_read
 123              		.syntax unified
 124              		.thumb
 125              		.thumb_func
 127              	crc_free_data_register_read:
 128              	.LFB119:
  79:../../../support/device/gd32f4xx/peripherals/src/gd32f4xx_crc.c **** 
  80:../../../support/device/gd32f4xx/peripherals/src/gd32f4xx_crc.c **** /*!
  81:../../../support/device/gd32f4xx/peripherals/src/gd32f4xx_crc.c ****     \brief      read the value of the free data register
  82:../../../support/device/gd32f4xx/peripherals/src/gd32f4xx_crc.c ****     \param[in]  none
  83:../../../support/device/gd32f4xx/peripherals/src/gd32f4xx_crc.c ****     \param[out] none
  84:../../../support/device/gd32f4xx/peripherals/src/gd32f4xx_crc.c ****     \retval     8-bit value of the free data register
  85:../../../support/device/gd32f4xx/peripherals/src/gd32f4xx_crc.c **** */
  86:../../../support/device/gd32f4xx/peripherals/src/gd32f4xx_crc.c **** uint8_t crc_free_data_register_read(void)
  87:../../../support/device/gd32f4xx/peripherals/src/gd32f4xx_crc.c **** {
 129              		.loc 1 87 1 is_stmt 1 view -0
 130              		.cfi_startproc
 131              		@ args = 0, pretend = 0, frame = 0
 132              		@ frame_needed = 0, uses_anonymous_args = 0
 133              		@ link register save eliminated.
  88:../../../support/device/gd32f4xx/peripherals/src/gd32f4xx_crc.c ****     uint8_t fdata;
 134              		.loc 1 88 5 view .LVU22
  89:../../../support/device/gd32f4xx/peripherals/src/gd32f4xx_crc.c ****     fdata = (uint8_t)CRC_FDATA;
 135              		.loc 1 89 5 view .LVU23
 136              		.loc 1 89 22 is_stmt 0 view .LVU24
 137 0000 014B     		ldr	r3, .L12
 138 0002 5868     		ldr	r0, [r3, #4]
 139              	.LVL1:
  90:../../../support/device/gd32f4xx/peripherals/src/gd32f4xx_crc.c ****     return (fdata);
 140              		.loc 1 90 5 is_stmt 1 view .LVU25
  91:../../../support/device/gd32f4xx/peripherals/src/gd32f4xx_crc.c **** }
 141              		.loc 1 91 1 is_stmt 0 view .LVU26
ARM GAS  /var/folders/_f/88qcw_5n2jl40jjphvxyt7wh0000gn/T//cclx8esx.s 			page 5


 142 0004 C0B2     		uxtb	r0, r0
 143              		.loc 1 91 1 view .LVU27
 144 0006 7047     		bx	lr
 145              	.L13:
 146              		.align	2
 147              	.L12:
 148 0008 00300240 		.word	1073885184
 149              		.cfi_endproc
 150              	.LFE119:
 152              		.section	.text.crc_free_data_register_write,"ax",%progbits
 153              		.align	1
 154              		.p2align 2,,3
 155              		.global	crc_free_data_register_write
 156              		.syntax unified
 157              		.thumb
 158              		.thumb_func
 160              	crc_free_data_register_write:
 161              	.LVL2:
 162              	.LFB120:
  92:../../../support/device/gd32f4xx/peripherals/src/gd32f4xx_crc.c **** 
  93:../../../support/device/gd32f4xx/peripherals/src/gd32f4xx_crc.c **** /*!
  94:../../../support/device/gd32f4xx/peripherals/src/gd32f4xx_crc.c ****     \brief      write data to the free data register
  95:../../../support/device/gd32f4xx/peripherals/src/gd32f4xx_crc.c ****     \param[in]  free_data: specified 8-bit data
  96:../../../support/device/gd32f4xx/peripherals/src/gd32f4xx_crc.c ****     \param[out] none
  97:../../../support/device/gd32f4xx/peripherals/src/gd32f4xx_crc.c ****     \retval     none
  98:../../../support/device/gd32f4xx/peripherals/src/gd32f4xx_crc.c **** */
  99:../../../support/device/gd32f4xx/peripherals/src/gd32f4xx_crc.c **** void crc_free_data_register_write(uint8_t free_data)
 100:../../../support/device/gd32f4xx/peripherals/src/gd32f4xx_crc.c **** {
 163              		.loc 1 100 1 is_stmt 1 view -0
 164              		.cfi_startproc
 165              		@ args = 0, pretend = 0, frame = 0
 166              		@ frame_needed = 0, uses_anonymous_args = 0
 167              		@ link register save eliminated.
 101:../../../support/device/gd32f4xx/peripherals/src/gd32f4xx_crc.c ****     CRC_FDATA = (uint32_t)free_data;
 168              		.loc 1 101 5 view .LVU29
 169              		.loc 1 101 15 is_stmt 0 view .LVU30
 170 0000 014B     		ldr	r3, .L15
 171 0002 5860     		str	r0, [r3, #4]
 102:../../../support/device/gd32f4xx/peripherals/src/gd32f4xx_crc.c **** }
 172              		.loc 1 102 1 view .LVU31
 173 0004 7047     		bx	lr
 174              	.L16:
 175 0006 00BF     		.align	2
 176              	.L15:
 177 0008 00300240 		.word	1073885184
 178              		.cfi_endproc
 179              	.LFE120:
 181              		.section	.text.crc_single_data_calculate,"ax",%progbits
 182              		.align	1
 183              		.p2align 2,,3
 184              		.global	crc_single_data_calculate
 185              		.syntax unified
 186              		.thumb
 187              		.thumb_func
 189              	crc_single_data_calculate:
 190              	.LVL3:
 191              	.LFB121:
ARM GAS  /var/folders/_f/88qcw_5n2jl40jjphvxyt7wh0000gn/T//cclx8esx.s 			page 6


 103:../../../support/device/gd32f4xx/peripherals/src/gd32f4xx_crc.c **** 
 104:../../../support/device/gd32f4xx/peripherals/src/gd32f4xx_crc.c **** /*!
 105:../../../support/device/gd32f4xx/peripherals/src/gd32f4xx_crc.c ****     \brief      calculate the CRC value of a 32-bit data
 106:../../../support/device/gd32f4xx/peripherals/src/gd32f4xx_crc.c ****     \param[in]  sdata: specified 32-bit data
 107:../../../support/device/gd32f4xx/peripherals/src/gd32f4xx_crc.c ****     \param[out] none
 108:../../../support/device/gd32f4xx/peripherals/src/gd32f4xx_crc.c ****     \retval     32-bit value calculated by CRC
 109:../../../support/device/gd32f4xx/peripherals/src/gd32f4xx_crc.c **** */
 110:../../../support/device/gd32f4xx/peripherals/src/gd32f4xx_crc.c **** uint32_t crc_single_data_calculate(uint32_t sdata)
 111:../../../support/device/gd32f4xx/peripherals/src/gd32f4xx_crc.c **** {
 192              		.loc 1 111 1 is_stmt 1 view -0
 193              		.cfi_startproc
 194              		@ args = 0, pretend = 0, frame = 0
 195              		@ frame_needed = 0, uses_anonymous_args = 0
 196              		@ link register save eliminated.
 112:../../../support/device/gd32f4xx/peripherals/src/gd32f4xx_crc.c ****     CRC_DATA = sdata;
 197              		.loc 1 112 5 view .LVU33
 198              		.loc 1 112 14 is_stmt 0 view .LVU34
 199 0000 014B     		ldr	r3, .L18
 200 0002 1860     		str	r0, [r3]
 113:../../../support/device/gd32f4xx/peripherals/src/gd32f4xx_crc.c ****     return (CRC_DATA);
 201              		.loc 1 113 5 is_stmt 1 view .LVU35
 202              		.loc 1 113 13 is_stmt 0 view .LVU36
 203 0004 1868     		ldr	r0, [r3]
 204              	.LVL4:
 114:../../../support/device/gd32f4xx/peripherals/src/gd32f4xx_crc.c **** }
 205              		.loc 1 114 1 view .LVU37
 206 0006 7047     		bx	lr
 207              	.L19:
 208              		.align	2
 209              	.L18:
 210 0008 00300240 		.word	1073885184
 211              		.cfi_endproc
 212              	.LFE121:
 214              		.section	.text.crc_block_data_calculate,"ax",%progbits
 215              		.align	1
 216              		.p2align 2,,3
 217              		.global	crc_block_data_calculate
 218              		.syntax unified
 219              		.thumb
 220              		.thumb_func
 222              	crc_block_data_calculate:
 223              	.LVL5:
 224              	.LFB122:
 115:../../../support/device/gd32f4xx/peripherals/src/gd32f4xx_crc.c **** 
 116:../../../support/device/gd32f4xx/peripherals/src/gd32f4xx_crc.c **** /*!
 117:../../../support/device/gd32f4xx/peripherals/src/gd32f4xx_crc.c ****     \brief      calculate the CRC value of an array of 32-bit values
 118:../../../support/device/gd32f4xx/peripherals/src/gd32f4xx_crc.c ****     \param[in]  array: pointer to an array of 32-bit values
 119:../../../support/device/gd32f4xx/peripherals/src/gd32f4xx_crc.c ****     \param[in]  size: size of the array
 120:../../../support/device/gd32f4xx/peripherals/src/gd32f4xx_crc.c ****     \param[out] none
 121:../../../support/device/gd32f4xx/peripherals/src/gd32f4xx_crc.c ****     \retval     32-bit value calculated by CRC
 122:../../../support/device/gd32f4xx/peripherals/src/gd32f4xx_crc.c **** */
 123:../../../support/device/gd32f4xx/peripherals/src/gd32f4xx_crc.c **** uint32_t crc_block_data_calculate(uint32_t array[], uint32_t size)
 124:../../../support/device/gd32f4xx/peripherals/src/gd32f4xx_crc.c **** {
 225              		.loc 1 124 1 is_stmt 1 view -0
 226              		.cfi_startproc
 227              		@ args = 0, pretend = 0, frame = 0
 228              		@ frame_needed = 0, uses_anonymous_args = 0
ARM GAS  /var/folders/_f/88qcw_5n2jl40jjphvxyt7wh0000gn/T//cclx8esx.s 			page 7


 229              		@ link register save eliminated.
 125:../../../support/device/gd32f4xx/peripherals/src/gd32f4xx_crc.c ****     uint32_t index;
 230              		.loc 1 125 5 view .LVU39
 126:../../../support/device/gd32f4xx/peripherals/src/gd32f4xx_crc.c ****     for(index = 0U; index < size; index++) {
 231              		.loc 1 126 5 view .LVU40
 232              		.loc 1 126 21 view .LVU41
 233              		.loc 1 126 5 is_stmt 0 view .LVU42
 234 0000 41B1     		cbz	r1, .L21
 235 0002 0438     		subs	r0, r0, #4
 236              	.LVL6:
 127:../../../support/device/gd32f4xx/peripherals/src/gd32f4xx_crc.c ****         CRC_DATA = array[index];
 237              		.loc 1 127 18 view .LVU43
 238 0004 054A     		ldr	r2, .L27
 239 0006 00EB8101 		add	r1, r0, r1, lsl #2
 240              	.LVL7:
 241              	.L22:
 242              		.loc 1 127 9 is_stmt 1 discriminator 3 view .LVU44
 243              		.loc 1 127 25 is_stmt 0 discriminator 3 view .LVU45
 244 000a 50F8043F 		ldr	r3, [r0, #4]!
 245              		.loc 1 127 18 discriminator 3 view .LVU46
 246 000e 1360     		str	r3, [r2]
 126:../../../support/device/gd32f4xx/peripherals/src/gd32f4xx_crc.c ****     for(index = 0U; index < size; index++) {
 247              		.loc 1 126 35 is_stmt 1 discriminator 3 view .LVU47
 126:../../../support/device/gd32f4xx/peripherals/src/gd32f4xx_crc.c ****     for(index = 0U; index < size; index++) {
 248              		.loc 1 126 21 discriminator 3 view .LVU48
 126:../../../support/device/gd32f4xx/peripherals/src/gd32f4xx_crc.c ****     for(index = 0U; index < size; index++) {
 249              		.loc 1 126 5 is_stmt 0 discriminator 3 view .LVU49
 250 0010 8842     		cmp	r0, r1
 251 0012 FAD1     		bne	.L22
 252              	.L21:
 128:../../../support/device/gd32f4xx/peripherals/src/gd32f4xx_crc.c ****     }
 129:../../../support/device/gd32f4xx/peripherals/src/gd32f4xx_crc.c ****     return (CRC_DATA);
 253              		.loc 1 129 5 is_stmt 1 view .LVU50
 254              		.loc 1 129 13 is_stmt 0 view .LVU51
 255 0014 014B     		ldr	r3, .L27
 256 0016 1868     		ldr	r0, [r3]
 130:../../../support/device/gd32f4xx/peripherals/src/gd32f4xx_crc.c **** }
 257              		.loc 1 130 1 view .LVU52
 258 0018 7047     		bx	lr
 259              	.L28:
 260 001a 00BF     		.align	2
 261              	.L27:
 262 001c 00300240 		.word	1073885184
 263              		.cfi_endproc
 264              	.LFE122:
 266              		.text
 267              	.Letext0:
 268              		.file 2 "/Applications/ARM/arm-none-eabi/include/machine/_default_types.h"
 269              		.file 3 "/Applications/ARM/arm-none-eabi/include/sys/_stdint.h"
ARM GAS  /var/folders/_f/88qcw_5n2jl40jjphvxyt7wh0000gn/T//cclx8esx.s 			page 8

