ARM GAS  /var/folders/_f/88qcw_5n2jl40jjphvxyt7wh0000gn/T//ccEFCCaz.s 			page 1


   1              		.cpu cortex-m4
   2              		.arch armv7e-m
   3              		.fpu softvfp
   4              		.eabi_attribute 20, 1
   5              		.eabi_attribute 21, 1
   6              		.eabi_attribute 23, 3
   7              		.eabi_attribute 24, 1
   8              		.eabi_attribute 25, 1
   9              		.eabi_attribute 26, 1
  10              		.eabi_attribute 30, 2
  11              		.eabi_attribute 34, 1
  12              		.eabi_attribute 18, 4
  13              		.file	"gd32f4xx_i2c.c"
  14              		.text
  15              	.Ltext0:
  16              		.cfi_sections	.debug_frame
  17              		.section	.text.i2c_deinit,"ax",%progbits
  18              		.align	1
  19              		.p2align 2,,3
  20              		.global	i2c_deinit
  21              		.syntax unified
  22              		.thumb
  23              		.thumb_func
  25              	i2c_deinit:
  26              	.LVL0:
  27              	.LFB116:
  28              		.file 1 "../../../support/device/gd32f4xx/peripherals/src/gd32f4xx_i2c.c"
   1:../../../support/device/gd32f4xx/peripherals/src/gd32f4xx_i2c.c **** /*!
   2:../../../support/device/gd32f4xx/peripherals/src/gd32f4xx_i2c.c ****     \file    gd32f4xx_i2c.c
   3:../../../support/device/gd32f4xx/peripherals/src/gd32f4xx_i2c.c ****     \brief   I2C driver
   4:../../../support/device/gd32f4xx/peripherals/src/gd32f4xx_i2c.c **** 
   5:../../../support/device/gd32f4xx/peripherals/src/gd32f4xx_i2c.c ****     \version 2016-08-15, V1.0.0, firmware for GD32F4xx
   6:../../../support/device/gd32f4xx/peripherals/src/gd32f4xx_i2c.c ****     \version 2018-12-12, V2.0.0, firmware for GD32F4xx
   7:../../../support/device/gd32f4xx/peripherals/src/gd32f4xx_i2c.c ****     \version 2019-04-16, V2.0.2, firmware for GD32F4xx
   8:../../../support/device/gd32f4xx/peripherals/src/gd32f4xx_i2c.c ****     \version 2020-09-30, V2.1.0, firmware for GD32F4xx
   9:../../../support/device/gd32f4xx/peripherals/src/gd32f4xx_i2c.c ****     \version 2022-03-09, V3.0.0, firmware for GD32F4xx
  10:../../../support/device/gd32f4xx/peripherals/src/gd32f4xx_i2c.c **** */
  11:../../../support/device/gd32f4xx/peripherals/src/gd32f4xx_i2c.c **** 
  12:../../../support/device/gd32f4xx/peripherals/src/gd32f4xx_i2c.c **** /*
  13:../../../support/device/gd32f4xx/peripherals/src/gd32f4xx_i2c.c ****     Copyright (c) 2022, GigaDevice Semiconductor Inc.
  14:../../../support/device/gd32f4xx/peripherals/src/gd32f4xx_i2c.c **** 
  15:../../../support/device/gd32f4xx/peripherals/src/gd32f4xx_i2c.c ****     Redistribution and use in source and binary forms, with or without modification,
  16:../../../support/device/gd32f4xx/peripherals/src/gd32f4xx_i2c.c **** are permitted provided that the following conditions are met:
  17:../../../support/device/gd32f4xx/peripherals/src/gd32f4xx_i2c.c **** 
  18:../../../support/device/gd32f4xx/peripherals/src/gd32f4xx_i2c.c ****     1. Redistributions of source code must retain the above copyright notice, this
  19:../../../support/device/gd32f4xx/peripherals/src/gd32f4xx_i2c.c ****        list of conditions and the following disclaimer.
  20:../../../support/device/gd32f4xx/peripherals/src/gd32f4xx_i2c.c ****     2. Redistributions in binary form must reproduce the above copyright notice,
  21:../../../support/device/gd32f4xx/peripherals/src/gd32f4xx_i2c.c ****        this list of conditions and the following disclaimer in the documentation
  22:../../../support/device/gd32f4xx/peripherals/src/gd32f4xx_i2c.c ****        and/or other materials provided with the distribution.
  23:../../../support/device/gd32f4xx/peripherals/src/gd32f4xx_i2c.c ****     3. Neither the name of the copyright holder nor the names of its contributors
  24:../../../support/device/gd32f4xx/peripherals/src/gd32f4xx_i2c.c ****        may be used to endorse or promote products derived from this software without
  25:../../../support/device/gd32f4xx/peripherals/src/gd32f4xx_i2c.c ****        specific prior written permission.
  26:../../../support/device/gd32f4xx/peripherals/src/gd32f4xx_i2c.c **** 
  27:../../../support/device/gd32f4xx/peripherals/src/gd32f4xx_i2c.c ****     THIS SOFTWARE IS PROVIDED BY THE COPYRIGHT HOLDERS AND CONTRIBUTORS "AS IS"
  28:../../../support/device/gd32f4xx/peripherals/src/gd32f4xx_i2c.c **** AND ANY EXPRESS OR IMPLIED WARRANTIES, INCLUDING, BUT NOT LIMITED TO, THE IMPLIED
  29:../../../support/device/gd32f4xx/peripherals/src/gd32f4xx_i2c.c **** WARRANTIES OF MERCHANTABILITY AND FITNESS FOR A PARTICULAR PURPOSE ARE DISCLAIMED.
  30:../../../support/device/gd32f4xx/peripherals/src/gd32f4xx_i2c.c **** IN NO EVENT SHALL THE COPYRIGHT HOLDER OR CONTRIBUTORS BE LIABLE FOR ANY DIRECT,
ARM GAS  /var/folders/_f/88qcw_5n2jl40jjphvxyt7wh0000gn/T//ccEFCCaz.s 			page 2


  31:../../../support/device/gd32f4xx/peripherals/src/gd32f4xx_i2c.c **** INDIRECT, INCIDENTAL, SPECIAL, EXEMPLARY, OR CONSEQUENTIAL DAMAGES (INCLUDING, BUT
  32:../../../support/device/gd32f4xx/peripherals/src/gd32f4xx_i2c.c **** NOT LIMITED TO, PROCUREMENT OF SUBSTITUTE GOODS OR SERVICES; LOSS OF USE, DATA, OR
  33:../../../support/device/gd32f4xx/peripherals/src/gd32f4xx_i2c.c **** PROFITS; OR BUSINESS INTERRUPTION) HOWEVER CAUSED AND ON ANY THEORY OF LIABILITY,
  34:../../../support/device/gd32f4xx/peripherals/src/gd32f4xx_i2c.c **** WHETHER IN CONTRACT, STRICT LIABILITY, OR TORT (INCLUDING NEGLIGENCE OR OTHERWISE)
  35:../../../support/device/gd32f4xx/peripherals/src/gd32f4xx_i2c.c **** ARISING IN ANY WAY OUT OF THE USE OF THIS SOFTWARE, EVEN IF ADVISED OF THE POSSIBILITY
  36:../../../support/device/gd32f4xx/peripherals/src/gd32f4xx_i2c.c **** OF SUCH DAMAGE.
  37:../../../support/device/gd32f4xx/peripherals/src/gd32f4xx_i2c.c **** */
  38:../../../support/device/gd32f4xx/peripherals/src/gd32f4xx_i2c.c **** 
  39:../../../support/device/gd32f4xx/peripherals/src/gd32f4xx_i2c.c **** #include "gd32f4xx_i2c.h"
  40:../../../support/device/gd32f4xx/peripherals/src/gd32f4xx_i2c.c **** 
  41:../../../support/device/gd32f4xx/peripherals/src/gd32f4xx_i2c.c **** /* I2C register bit mask */
  42:../../../support/device/gd32f4xx/peripherals/src/gd32f4xx_i2c.c **** #define I2CCLK_MAX                    ((uint32_t)0x0000003CU)             /*!< i2cclk maximum value
  43:../../../support/device/gd32f4xx/peripherals/src/gd32f4xx_i2c.c **** #define I2CCLK_MIN                    ((uint32_t)0x00000002U)             /*!< i2cclk minimum value
  44:../../../support/device/gd32f4xx/peripherals/src/gd32f4xx_i2c.c **** #define I2C_FLAG_MASK                 ((uint32_t)0x0000FFFFU)             /*!< i2c flag mask */
  45:../../../support/device/gd32f4xx/peripherals/src/gd32f4xx_i2c.c **** #define I2C_ADDRESS_MASK              ((uint32_t)0x000003FFU)             /*!< i2c address mask */
  46:../../../support/device/gd32f4xx/peripherals/src/gd32f4xx_i2c.c **** #define I2C_ADDRESS2_MASK             ((uint32_t)0x000000FEU)             /*!< the second i2c addre
  47:../../../support/device/gd32f4xx/peripherals/src/gd32f4xx_i2c.c **** 
  48:../../../support/device/gd32f4xx/peripherals/src/gd32f4xx_i2c.c **** /* I2C register bit offset */
  49:../../../support/device/gd32f4xx/peripherals/src/gd32f4xx_i2c.c **** #define STAT1_PECV_OFFSET             ((uint32_t)0x00000008U)             /* bit offset of PECV in 
  50:../../../support/device/gd32f4xx/peripherals/src/gd32f4xx_i2c.c **** 
  51:../../../support/device/gd32f4xx/peripherals/src/gd32f4xx_i2c.c **** /*!
  52:../../../support/device/gd32f4xx/peripherals/src/gd32f4xx_i2c.c ****     \brief      reset I2C
  53:../../../support/device/gd32f4xx/peripherals/src/gd32f4xx_i2c.c ****     \param[in]  i2c_periph: I2Cx(x=0,1,2)
  54:../../../support/device/gd32f4xx/peripherals/src/gd32f4xx_i2c.c ****     \param[out] none
  55:../../../support/device/gd32f4xx/peripherals/src/gd32f4xx_i2c.c ****     \retval     none
  56:../../../support/device/gd32f4xx/peripherals/src/gd32f4xx_i2c.c **** */
  57:../../../support/device/gd32f4xx/peripherals/src/gd32f4xx_i2c.c **** void i2c_deinit(uint32_t i2c_periph)
  58:../../../support/device/gd32f4xx/peripherals/src/gd32f4xx_i2c.c **** {
  29              		.loc 1 58 1 view -0
  30              		.cfi_startproc
  31              		@ args = 0, pretend = 0, frame = 0
  32              		@ frame_needed = 0, uses_anonymous_args = 0
  59:../../../support/device/gd32f4xx/peripherals/src/gd32f4xx_i2c.c ****     switch(i2c_periph) {
  33              		.loc 1 59 5 view .LVU1
  58:../../../support/device/gd32f4xx/peripherals/src/gd32f4xx_i2c.c ****     switch(i2c_periph) {
  34              		.loc 1 58 1 is_stmt 0 view .LVU2
  35 0000 08B5     		push	{r3, lr}
  36              	.LCFI0:
  37              		.cfi_def_cfa_offset 8
  38              		.cfi_offset 3, -8
  39              		.cfi_offset 14, -4
  40              		.loc 1 59 5 view .LVU3
  41 0002 154B     		ldr	r3, .L8
  42 0004 9842     		cmp	r0, r3
  43 0006 08D0     		beq	.L2
  44 0008 03F58063 		add	r3, r3, #1024
  45 000c 9842     		cmp	r0, r3
  46 000e 18D0     		beq	.L3
  47 0010 A3F50063 		sub	r3, r3, #2048
  48 0014 9842     		cmp	r0, r3
  49 0016 0AD0     		beq	.L7
  60:../../../support/device/gd32f4xx/peripherals/src/gd32f4xx_i2c.c ****     case I2C0:
  61:../../../support/device/gd32f4xx/peripherals/src/gd32f4xx_i2c.c ****         /* reset I2C0 */
  62:../../../support/device/gd32f4xx/peripherals/src/gd32f4xx_i2c.c ****         rcu_periph_reset_enable(RCU_I2C0RST);
  63:../../../support/device/gd32f4xx/peripherals/src/gd32f4xx_i2c.c ****         rcu_periph_reset_disable(RCU_I2C0RST);
  64:../../../support/device/gd32f4xx/peripherals/src/gd32f4xx_i2c.c ****         break;
  65:../../../support/device/gd32f4xx/peripherals/src/gd32f4xx_i2c.c ****     case I2C1:
ARM GAS  /var/folders/_f/88qcw_5n2jl40jjphvxyt7wh0000gn/T//ccEFCCaz.s 			page 3


  66:../../../support/device/gd32f4xx/peripherals/src/gd32f4xx_i2c.c ****         /* reset I2C1 */
  67:../../../support/device/gd32f4xx/peripherals/src/gd32f4xx_i2c.c ****         rcu_periph_reset_enable(RCU_I2C1RST);
  68:../../../support/device/gd32f4xx/peripherals/src/gd32f4xx_i2c.c ****         rcu_periph_reset_disable(RCU_I2C1RST);
  69:../../../support/device/gd32f4xx/peripherals/src/gd32f4xx_i2c.c ****         break;
  70:../../../support/device/gd32f4xx/peripherals/src/gd32f4xx_i2c.c ****     case I2C2:
  71:../../../support/device/gd32f4xx/peripherals/src/gd32f4xx_i2c.c ****         /* reset I2C2 */
  72:../../../support/device/gd32f4xx/peripherals/src/gd32f4xx_i2c.c ****         rcu_periph_reset_enable(RCU_I2C2RST);
  73:../../../support/device/gd32f4xx/peripherals/src/gd32f4xx_i2c.c ****         rcu_periph_reset_disable(RCU_I2C2RST);
  74:../../../support/device/gd32f4xx/peripherals/src/gd32f4xx_i2c.c ****         break;
  75:../../../support/device/gd32f4xx/peripherals/src/gd32f4xx_i2c.c ****     default:
  76:../../../support/device/gd32f4xx/peripherals/src/gd32f4xx_i2c.c ****         break;
  77:../../../support/device/gd32f4xx/peripherals/src/gd32f4xx_i2c.c ****     }
  78:../../../support/device/gd32f4xx/peripherals/src/gd32f4xx_i2c.c **** }
  50              		.loc 1 78 1 view .LVU4
  51 0018 08BD     		pop	{r3, pc}
  52              	.L2:
  67:../../../support/device/gd32f4xx/peripherals/src/gd32f4xx_i2c.c ****         rcu_periph_reset_disable(RCU_I2C1RST);
  53              		.loc 1 67 9 is_stmt 1 view .LVU5
  54 001a 40F61600 		movw	r0, #2070
  55              	.LVL1:
  67:../../../support/device/gd32f4xx/peripherals/src/gd32f4xx_i2c.c ****         rcu_periph_reset_disable(RCU_I2C1RST);
  56              		.loc 1 67 9 is_stmt 0 view .LVU6
  57 001e FFF7FEFF 		bl	rcu_periph_reset_enable
  58              	.LVL2:
  68:../../../support/device/gd32f4xx/peripherals/src/gd32f4xx_i2c.c ****         break;
  59              		.loc 1 68 9 is_stmt 1 view .LVU7
  60              		.loc 1 78 1 is_stmt 0 view .LVU8
  61 0022 BDE80840 		pop	{r3, lr}
  62              	.LCFI1:
  63              		.cfi_remember_state
  64              		.cfi_restore 14
  65              		.cfi_restore 3
  66              		.cfi_def_cfa_offset 0
  68:../../../support/device/gd32f4xx/peripherals/src/gd32f4xx_i2c.c ****         break;
  67              		.loc 1 68 9 view .LVU9
  68 0026 40F61600 		movw	r0, #2070
  69 002a FFF7FEBF 		b	rcu_periph_reset_disable
  70              	.LVL3:
  71              	.L7:
  72              	.LCFI2:
  73              		.cfi_restore_state
  62:../../../support/device/gd32f4xx/peripherals/src/gd32f4xx_i2c.c ****         rcu_periph_reset_disable(RCU_I2C0RST);
  74              		.loc 1 62 9 is_stmt 1 view .LVU10
  75 002e 40F61500 		movw	r0, #2069
  76              	.LVL4:
  62:../../../support/device/gd32f4xx/peripherals/src/gd32f4xx_i2c.c ****         rcu_periph_reset_disable(RCU_I2C0RST);
  77              		.loc 1 62 9 is_stmt 0 view .LVU11
  78 0032 FFF7FEFF 		bl	rcu_periph_reset_enable
  79              	.LVL5:
  63:../../../support/device/gd32f4xx/peripherals/src/gd32f4xx_i2c.c ****         break;
  80              		.loc 1 63 9 is_stmt 1 view .LVU12
  81              		.loc 1 78 1 is_stmt 0 view .LVU13
  82 0036 BDE80840 		pop	{r3, lr}
  83              	.LCFI3:
  84              		.cfi_remember_state
  85              		.cfi_restore 14
  86              		.cfi_restore 3
ARM GAS  /var/folders/_f/88qcw_5n2jl40jjphvxyt7wh0000gn/T//ccEFCCaz.s 			page 4


  87              		.cfi_def_cfa_offset 0
  63:../../../support/device/gd32f4xx/peripherals/src/gd32f4xx_i2c.c ****         break;
  88              		.loc 1 63 9 view .LVU14
  89 003a 40F61500 		movw	r0, #2069
  90 003e FFF7FEBF 		b	rcu_periph_reset_disable
  91              	.LVL6:
  92              	.L3:
  93              	.LCFI4:
  94              		.cfi_restore_state
  72:../../../support/device/gd32f4xx/peripherals/src/gd32f4xx_i2c.c ****         rcu_periph_reset_disable(RCU_I2C2RST);
  95              		.loc 1 72 9 is_stmt 1 view .LVU15
  96 0042 40F61700 		movw	r0, #2071
  97              	.LVL7:
  72:../../../support/device/gd32f4xx/peripherals/src/gd32f4xx_i2c.c ****         rcu_periph_reset_disable(RCU_I2C2RST);
  98              		.loc 1 72 9 is_stmt 0 view .LVU16
  99 0046 FFF7FEFF 		bl	rcu_periph_reset_enable
 100              	.LVL8:
  73:../../../support/device/gd32f4xx/peripherals/src/gd32f4xx_i2c.c ****         break;
 101              		.loc 1 73 9 is_stmt 1 view .LVU17
 102              		.loc 1 78 1 is_stmt 0 view .LVU18
 103 004a BDE80840 		pop	{r3, lr}
 104              	.LCFI5:
 105              		.cfi_restore 14
 106              		.cfi_restore 3
 107              		.cfi_def_cfa_offset 0
  73:../../../support/device/gd32f4xx/peripherals/src/gd32f4xx_i2c.c ****         break;
 108              		.loc 1 73 9 view .LVU19
 109 004e 40F61700 		movw	r0, #2071
 110 0052 FFF7FEBF 		b	rcu_periph_reset_disable
 111              	.LVL9:
 112              	.L9:
 113 0056 00BF     		.align	2
 114              	.L8:
 115 0058 00580040 		.word	1073764352
 116              		.cfi_endproc
 117              	.LFE116:
 119              		.section	.text.i2c_clock_config,"ax",%progbits
 120              		.align	1
 121              		.p2align 2,,3
 122              		.global	i2c_clock_config
 123              		.syntax unified
 124              		.thumb
 125              		.thumb_func
 127              	i2c_clock_config:
 128              	.LVL10:
 129              	.LFB117:
  79:../../../support/device/gd32f4xx/peripherals/src/gd32f4xx_i2c.c **** 
  80:../../../support/device/gd32f4xx/peripherals/src/gd32f4xx_i2c.c **** /*!
  81:../../../support/device/gd32f4xx/peripherals/src/gd32f4xx_i2c.c ****     \brief      configure I2C clock
  82:../../../support/device/gd32f4xx/peripherals/src/gd32f4xx_i2c.c ****     \param[in]  i2c_periph: I2Cx(x=0,1,2)
  83:../../../support/device/gd32f4xx/peripherals/src/gd32f4xx_i2c.c ****     \param[in]  clkspeed: I2C clock speed, supports standard mode (up to 100 kHz), fast mode (up to
  84:../../../support/device/gd32f4xx/peripherals/src/gd32f4xx_i2c.c ****     \param[in]  dutycyc: duty cycle in fast mode
  85:../../../support/device/gd32f4xx/peripherals/src/gd32f4xx_i2c.c ****                 only one parameter can be selected which is shown as below:
  86:../../../support/device/gd32f4xx/peripherals/src/gd32f4xx_i2c.c ****       \arg        I2C_DTCY_2: T_low/T_high = 2 in fast mode
  87:../../../support/device/gd32f4xx/peripherals/src/gd32f4xx_i2c.c ****       \arg        I2C_DTCY_16_9: T_low/T_high = 16/9 in fast mode
  88:../../../support/device/gd32f4xx/peripherals/src/gd32f4xx_i2c.c ****     \param[out] none
  89:../../../support/device/gd32f4xx/peripherals/src/gd32f4xx_i2c.c ****     \retval     none
ARM GAS  /var/folders/_f/88qcw_5n2jl40jjphvxyt7wh0000gn/T//ccEFCCaz.s 			page 5


  90:../../../support/device/gd32f4xx/peripherals/src/gd32f4xx_i2c.c **** */
  91:../../../support/device/gd32f4xx/peripherals/src/gd32f4xx_i2c.c **** void i2c_clock_config(uint32_t i2c_periph, uint32_t clkspeed, uint32_t dutycyc)
  92:../../../support/device/gd32f4xx/peripherals/src/gd32f4xx_i2c.c **** {
 130              		.loc 1 92 1 is_stmt 1 view -0
 131              		.cfi_startproc
 132              		@ args = 0, pretend = 0, frame = 0
 133              		@ frame_needed = 0, uses_anonymous_args = 0
  93:../../../support/device/gd32f4xx/peripherals/src/gd32f4xx_i2c.c ****     uint32_t pclk1, clkc, freq, risetime;
 134              		.loc 1 93 5 view .LVU21
  94:../../../support/device/gd32f4xx/peripherals/src/gd32f4xx_i2c.c ****     uint32_t temp;
 135              		.loc 1 94 5 view .LVU22
  95:../../../support/device/gd32f4xx/peripherals/src/gd32f4xx_i2c.c **** 
  96:../../../support/device/gd32f4xx/peripherals/src/gd32f4xx_i2c.c ****     pclk1 = rcu_clock_freq_get(CK_APB1);
 136              		.loc 1 96 5 view .LVU23
  92:../../../support/device/gd32f4xx/peripherals/src/gd32f4xx_i2c.c ****     uint32_t pclk1, clkc, freq, risetime;
 137              		.loc 1 92 1 is_stmt 0 view .LVU24
 138 0000 F8B5     		push	{r3, r4, r5, r6, r7, lr}
 139              	.LCFI6:
 140              		.cfi_def_cfa_offset 24
 141              		.cfi_offset 3, -24
 142              		.cfi_offset 4, -20
 143              		.cfi_offset 5, -16
 144              		.cfi_offset 6, -12
 145              		.cfi_offset 7, -8
 146              		.cfi_offset 14, -4
  92:../../../support/device/gd32f4xx/peripherals/src/gd32f4xx_i2c.c ****     uint32_t pclk1, clkc, freq, risetime;
 147              		.loc 1 92 1 view .LVU25
 148 0002 0546     		mov	r5, r0
 149              		.loc 1 96 13 view .LVU26
 150 0004 0220     		movs	r0, #2
 151              	.LVL11:
  92:../../../support/device/gd32f4xx/peripherals/src/gd32f4xx_i2c.c ****     uint32_t pclk1, clkc, freq, risetime;
 152              		.loc 1 92 1 view .LVU27
 153 0006 0C46     		mov	r4, r1
 154 0008 1646     		mov	r6, r2
 155              		.loc 1 96 13 view .LVU28
 156 000a FFF7FEFF 		bl	rcu_clock_freq_get
 157              	.LVL12:
  97:../../../support/device/gd32f4xx/peripherals/src/gd32f4xx_i2c.c ****     /* I2C peripheral clock frequency */
  98:../../../support/device/gd32f4xx/peripherals/src/gd32f4xx_i2c.c ****     freq = (uint32_t)(pclk1 / 1000000U);
 158              		.loc 1 98 10 view .LVU29
 159 000e 2C4B     		ldr	r3, .L23
 160              	.LVL13:
 161              		.loc 1 98 5 is_stmt 1 view .LVU30
  99:../../../support/device/gd32f4xx/peripherals/src/gd32f4xx_i2c.c ****     if(freq >= I2CCLK_MAX) {
 100:../../../support/device/gd32f4xx/peripherals/src/gd32f4xx_i2c.c ****         freq = I2CCLK_MAX;
 101:../../../support/device/gd32f4xx/peripherals/src/gd32f4xx_i2c.c ****     }
 102:../../../support/device/gd32f4xx/peripherals/src/gd32f4xx_i2c.c ****     temp = I2C_CTL1(i2c_periph);
 162              		.loc 1 102 10 is_stmt 0 view .LVU31
 163 0010 6968     		ldr	r1, [r5, #4]
  99:../../../support/device/gd32f4xx/peripherals/src/gd32f4xx_i2c.c ****     if(freq >= I2CCLK_MAX) {
 164              		.loc 1 99 7 view .LVU32
 165 0012 2C4F     		ldr	r7, .L23+4
  98:../../../support/device/gd32f4xx/peripherals/src/gd32f4xx_i2c.c ****     if(freq >= I2CCLK_MAX) {
 166              		.loc 1 98 10 view .LVU33
 167 0014 A3FB0023 		umull	r2, r3, r3, r0
 168 0018 9B0C     		lsrs	r3, r3, #18
ARM GAS  /var/folders/_f/88qcw_5n2jl40jjphvxyt7wh0000gn/T//ccEFCCaz.s 			page 6


 169              	.LVL14:
  99:../../../support/device/gd32f4xx/peripherals/src/gd32f4xx_i2c.c ****     if(freq >= I2CCLK_MAX) {
 170              		.loc 1 99 5 is_stmt 1 view .LVU34
 100:../../../support/device/gd32f4xx/peripherals/src/gd32f4xx_i2c.c ****     }
 171              		.loc 1 100 14 is_stmt 0 view .LVU35
 172 001a B842     		cmp	r0, r7
 173 001c 34BF     		ite	cc
 174 001e 1A46     		movcc	r2, r3
 175 0020 3C22     		movcs	r2, #60
 176              	.LVL15:
 177              		.loc 1 102 5 is_stmt 1 view .LVU36
 103:../../../support/device/gd32f4xx/peripherals/src/gd32f4xx_i2c.c ****     temp &= ~I2C_CTL1_I2CCLK;
 178              		.loc 1 103 5 view .LVU37
 179              		.loc 1 103 10 is_stmt 0 view .LVU38
 180 0022 21F03F01 		bic	r1, r1, #63
 181              	.LVL16:
 104:../../../support/device/gd32f4xx/peripherals/src/gd32f4xx_i2c.c ****     temp |= freq;
 182              		.loc 1 104 5 is_stmt 1 view .LVU39
 183              		.loc 1 104 10 is_stmt 0 view .LVU40
 184 0026 1143     		orrs	r1, r1, r2
 185              	.LVL17:
 105:../../../support/device/gd32f4xx/peripherals/src/gd32f4xx_i2c.c **** 
 106:../../../support/device/gd32f4xx/peripherals/src/gd32f4xx_i2c.c ****     I2C_CTL1(i2c_periph) = temp;
 186              		.loc 1 106 5 is_stmt 1 view .LVU41
 187              		.loc 1 106 26 is_stmt 0 view .LVU42
 188 0028 6960     		str	r1, [r5, #4]
 107:../../../support/device/gd32f4xx/peripherals/src/gd32f4xx_i2c.c **** 
 108:../../../support/device/gd32f4xx/peripherals/src/gd32f4xx_i2c.c ****     if(100000U >= clkspeed) {
 189              		.loc 1 108 5 is_stmt 1 view .LVU43
 190              		.loc 1 108 7 is_stmt 0 view .LVU44
 191 002a 2749     		ldr	r1, .L23+8
 192              	.LVL18:
 193              		.loc 1 108 7 view .LVU45
 194 002c 8C42     		cmp	r4, r1
 195 002e 12D8     		bhi	.L12
 109:../../../support/device/gd32f4xx/peripherals/src/gd32f4xx_i2c.c ****         /* the maximum SCL rise time is 1000ns in standard mode */
 110:../../../support/device/gd32f4xx/peripherals/src/gd32f4xx_i2c.c ****         risetime = (uint32_t)((pclk1 / 1000000U) + 1U);
 196              		.loc 1 110 9 is_stmt 1 view .LVU46
 197              		.loc 1 110 18 is_stmt 0 view .LVU47
 198 0030 0133     		adds	r3, r3, #1
 199              	.LVL19:
 111:../../../support/device/gd32f4xx/peripherals/src/gd32f4xx_i2c.c ****         if(risetime >= I2CCLK_MAX) {
 200              		.loc 1 111 9 is_stmt 1 view .LVU48
 201              		.loc 1 111 11 is_stmt 0 view .LVU49
 202 0032 3B2B     		cmp	r3, #59
 203 0034 34D8     		bhi	.L22
 112:../../../support/device/gd32f4xx/peripherals/src/gd32f4xx_i2c.c ****             I2C_RT(i2c_periph) = I2CCLK_MAX;
 113:../../../support/device/gd32f4xx/peripherals/src/gd32f4xx_i2c.c ****         } else if(risetime <= I2CCLK_MIN) {
 204              		.loc 1 113 16 is_stmt 1 view .LVU50
 205              		.loc 1 113 18 is_stmt 0 view .LVU51
 206 0036 022B     		cmp	r3, #2
 114:../../../support/device/gd32f4xx/peripherals/src/gd32f4xx_i2c.c ****             I2C_RT(i2c_periph) = I2CCLK_MIN;
 207              		.loc 1 114 13 is_stmt 1 view .LVU52
 208              		.loc 1 114 32 is_stmt 0 view .LVU53
 209 0038 98BF     		it	ls
 210 003a 0223     		movls	r3, #2
 211              	.LVL20:
ARM GAS  /var/folders/_f/88qcw_5n2jl40jjphvxyt7wh0000gn/T//ccEFCCaz.s 			page 7


 115:../../../support/device/gd32f4xx/peripherals/src/gd32f4xx_i2c.c ****         } else {
 116:../../../support/device/gd32f4xx/peripherals/src/gd32f4xx_i2c.c ****             I2C_RT(i2c_periph) = risetime;
 212              		.loc 1 116 13 is_stmt 1 view .LVU54
 213              		.loc 1 116 32 is_stmt 0 view .LVU55
 214 003c 2B62     		str	r3, [r5, #32]
 215              	.LVL21:
 216              	.L14:
 117:../../../support/device/gd32f4xx/peripherals/src/gd32f4xx_i2c.c ****         }
 118:../../../support/device/gd32f4xx/peripherals/src/gd32f4xx_i2c.c ****         clkc = (uint32_t)(pclk1 / (clkspeed * 2U));
 217              		.loc 1 118 9 is_stmt 1 view .LVU56
 218              		.loc 1 118 45 is_stmt 0 view .LVU57
 219 003e 6400     		lsls	r4, r4, #1
 220              	.LVL22:
 221              		.loc 1 118 14 view .LVU58
 222 0040 B0FBF4F0 		udiv	r0, r0, r4
 223              	.LVL23:
 119:../../../support/device/gd32f4xx/peripherals/src/gd32f4xx_i2c.c ****         if(clkc < 0x04U) {
 224              		.loc 1 119 9 is_stmt 1 view .LVU59
 120:../../../support/device/gd32f4xx/peripherals/src/gd32f4xx_i2c.c ****             /* the CLKC in standard mode minmum value is 4 */
 121:../../../support/device/gd32f4xx/peripherals/src/gd32f4xx_i2c.c ****             clkc = 0x04U;
 122:../../../support/device/gd32f4xx/peripherals/src/gd32f4xx_i2c.c ****         }
 123:../../../support/device/gd32f4xx/peripherals/src/gd32f4xx_i2c.c **** 
 124:../../../support/device/gd32f4xx/peripherals/src/gd32f4xx_i2c.c ****         I2C_CKCFG(i2c_periph) |= (I2C_CKCFG_CLKC & clkc);
 225              		.loc 1 124 9 view .LVU60
 226              		.loc 1 124 50 is_stmt 0 view .LVU61
 227 0044 0428     		cmp	r0, #4
 228              		.loc 1 124 31 view .LVU62
 229 0046 EB69     		ldr	r3, [r5, #28]
 230              		.loc 1 124 50 view .LVU63
 231 0048 38BF     		it	cc
 232 004a 0420     		movcc	r0, #4
 233              	.LVL24:
 234              		.loc 1 124 50 view .LVU64
 235 004c C0F30B00 		ubfx	r0, r0, #0, #12
 236              		.loc 1 124 31 view .LVU65
 237 0050 1843     		orrs	r0, r0, r3
 238 0052 E861     		str	r0, [r5, #28]
 239              	.L10:
 125:../../../support/device/gd32f4xx/peripherals/src/gd32f4xx_i2c.c **** 
 126:../../../support/device/gd32f4xx/peripherals/src/gd32f4xx_i2c.c ****     } else if(400000U >= clkspeed) {
 127:../../../support/device/gd32f4xx/peripherals/src/gd32f4xx_i2c.c ****         /* the maximum SCL rise time is 300ns in fast mode */
 128:../../../support/device/gd32f4xx/peripherals/src/gd32f4xx_i2c.c ****         I2C_RT(i2c_periph) = (uint32_t)(((freq * (uint32_t)300U) / (uint32_t)1000U) + (uint32_t)1U)
 129:../../../support/device/gd32f4xx/peripherals/src/gd32f4xx_i2c.c ****         if(I2C_DTCY_2 == dutycyc) {
 130:../../../support/device/gd32f4xx/peripherals/src/gd32f4xx_i2c.c ****             /* I2C duty cycle is 2 */
 131:../../../support/device/gd32f4xx/peripherals/src/gd32f4xx_i2c.c ****             clkc = (uint32_t)(pclk1 / (clkspeed * 3U));
 132:../../../support/device/gd32f4xx/peripherals/src/gd32f4xx_i2c.c ****             I2C_CKCFG(i2c_periph) &= ~I2C_CKCFG_DTCY;
 133:../../../support/device/gd32f4xx/peripherals/src/gd32f4xx_i2c.c ****         } else {
 134:../../../support/device/gd32f4xx/peripherals/src/gd32f4xx_i2c.c ****             /* I2C duty cycle is 16/9 */
 135:../../../support/device/gd32f4xx/peripherals/src/gd32f4xx_i2c.c ****             clkc = (uint32_t)(pclk1 / (clkspeed * 25U));
 136:../../../support/device/gd32f4xx/peripherals/src/gd32f4xx_i2c.c ****             I2C_CKCFG(i2c_periph) |= I2C_CKCFG_DTCY;
 137:../../../support/device/gd32f4xx/peripherals/src/gd32f4xx_i2c.c ****         }
 138:../../../support/device/gd32f4xx/peripherals/src/gd32f4xx_i2c.c ****         if(0U == (clkc & I2C_CKCFG_CLKC)) {
 139:../../../support/device/gd32f4xx/peripherals/src/gd32f4xx_i2c.c ****             /* the CLKC in fast mode minmum value is 1 */
 140:../../../support/device/gd32f4xx/peripherals/src/gd32f4xx_i2c.c ****             clkc |= 0x0001U;
 141:../../../support/device/gd32f4xx/peripherals/src/gd32f4xx_i2c.c ****         }
 142:../../../support/device/gd32f4xx/peripherals/src/gd32f4xx_i2c.c ****         I2C_CKCFG(i2c_periph) |= I2C_CKCFG_FAST;
 143:../../../support/device/gd32f4xx/peripherals/src/gd32f4xx_i2c.c ****         I2C_CKCFG(i2c_periph) |= clkc;
ARM GAS  /var/folders/_f/88qcw_5n2jl40jjphvxyt7wh0000gn/T//ccEFCCaz.s 			page 8


 144:../../../support/device/gd32f4xx/peripherals/src/gd32f4xx_i2c.c ****     } else {
 145:../../../support/device/gd32f4xx/peripherals/src/gd32f4xx_i2c.c ****     }
 146:../../../support/device/gd32f4xx/peripherals/src/gd32f4xx_i2c.c **** }
 240              		.loc 1 146 1 view .LVU66
 241 0054 F8BD     		pop	{r3, r4, r5, r6, r7, pc}
 242              	.LVL25:
 243              	.L12:
 126:../../../support/device/gd32f4xx/peripherals/src/gd32f4xx_i2c.c ****         /* the maximum SCL rise time is 300ns in fast mode */
 244              		.loc 1 126 12 is_stmt 1 view .LVU67
 126:../../../support/device/gd32f4xx/peripherals/src/gd32f4xx_i2c.c ****         /* the maximum SCL rise time is 300ns in fast mode */
 245              		.loc 1 126 14 is_stmt 0 view .LVU68
 246 0056 1D4B     		ldr	r3, .L23+12
 247 0058 9C42     		cmp	r4, r3
 248 005a FBD8     		bhi	.L10
 128:../../../support/device/gd32f4xx/peripherals/src/gd32f4xx_i2c.c ****         if(I2C_DTCY_2 == dutycyc) {
 249              		.loc 1 128 9 is_stmt 1 view .LVU69
 128:../../../support/device/gd32f4xx/peripherals/src/gd32f4xx_i2c.c ****         if(I2C_DTCY_2 == dutycyc) {
 250              		.loc 1 128 66 is_stmt 0 view .LVU70
 251 005c 1C49     		ldr	r1, .L23+16
 128:../../../support/device/gd32f4xx/peripherals/src/gd32f4xx_i2c.c ****         if(I2C_DTCY_2 == dutycyc) {
 252              		.loc 1 128 48 view .LVU71
 253 005e 4FF49673 		mov	r3, #300
 254 0062 02FB03F3 		mul	r3, r2, r3
 128:../../../support/device/gd32f4xx/peripherals/src/gd32f4xx_i2c.c ****         if(I2C_DTCY_2 == dutycyc) {
 255              		.loc 1 128 66 view .LVU72
 256 0066 A1FB0323 		umull	r2, r3, r1, r3
 257              	.LVL26:
 128:../../../support/device/gd32f4xx/peripherals/src/gd32f4xx_i2c.c ****         if(I2C_DTCY_2 == dutycyc) {
 258              		.loc 1 128 66 view .LVU73
 259 006a 9B09     		lsrs	r3, r3, #6
 128:../../../support/device/gd32f4xx/peripherals/src/gd32f4xx_i2c.c ****         if(I2C_DTCY_2 == dutycyc) {
 260              		.loc 1 128 30 view .LVU74
 261 006c 0133     		adds	r3, r3, #1
 128:../../../support/device/gd32f4xx/peripherals/src/gd32f4xx_i2c.c ****         if(I2C_DTCY_2 == dutycyc) {
 262              		.loc 1 128 28 view .LVU75
 263 006e 2B62     		str	r3, [r5, #32]
 264              	.LVL27:
 129:../../../support/device/gd32f4xx/peripherals/src/gd32f4xx_i2c.c ****             /* I2C duty cycle is 2 */
 265              		.loc 1 129 9 is_stmt 1 view .LVU76
 132:../../../support/device/gd32f4xx/peripherals/src/gd32f4xx_i2c.c ****         } else {
 266              		.loc 1 132 35 is_stmt 0 view .LVU77
 267 0070 EA69     		ldr	r2, [r5, #28]
 129:../../../support/device/gd32f4xx/peripherals/src/gd32f4xx_i2c.c ****             /* I2C duty cycle is 2 */
 268              		.loc 1 129 11 view .LVU78
 269 0072 C6B9     		cbnz	r6, .L17
 131:../../../support/device/gd32f4xx/peripherals/src/gd32f4xx_i2c.c ****             I2C_CKCFG(i2c_periph) &= ~I2C_CKCFG_DTCY;
 270              		.loc 1 131 13 is_stmt 1 view .LVU79
 132:../../../support/device/gd32f4xx/peripherals/src/gd32f4xx_i2c.c ****         } else {
 271              		.loc 1 132 35 is_stmt 0 view .LVU80
 272 0074 22F48042 		bic	r2, r2, #16384
 131:../../../support/device/gd32f4xx/peripherals/src/gd32f4xx_i2c.c ****             I2C_CKCFG(i2c_periph) &= ~I2C_CKCFG_DTCY;
 273              		.loc 1 131 49 view .LVU81
 274 0078 04EB4404 		add	r4, r4, r4, lsl #1
 275              	.LVL28:
 132:../../../support/device/gd32f4xx/peripherals/src/gd32f4xx_i2c.c ****         } else {
 276              		.loc 1 132 35 view .LVU82
 277 007c EA61     		str	r2, [r5, #28]
ARM GAS  /var/folders/_f/88qcw_5n2jl40jjphvxyt7wh0000gn/T//ccEFCCaz.s 			page 9


 131:../../../support/device/gd32f4xx/peripherals/src/gd32f4xx_i2c.c ****             I2C_CKCFG(i2c_periph) &= ~I2C_CKCFG_DTCY;
 278              		.loc 1 131 18 view .LVU83
 279 007e B0FBF4F0 		udiv	r0, r0, r4
 280              	.LVL29:
 132:../../../support/device/gd32f4xx/peripherals/src/gd32f4xx_i2c.c ****         } else {
 281              		.loc 1 132 13 is_stmt 1 view .LVU84
 132:../../../support/device/gd32f4xx/peripherals/src/gd32f4xx_i2c.c ****         } else {
 282              		.loc 1 132 35 is_stmt 0 view .LVU85
 283 0082 05F11C03 		add	r3, r5, #28
 138:../../../support/device/gd32f4xx/peripherals/src/gd32f4xx_i2c.c ****             /* the CLKC in fast mode minmum value is 1 */
 284              		.loc 1 138 24 view .LVU86
 285 0086 C0F30B02 		ubfx	r2, r0, #0, #12
 286              	.L18:
 138:../../../support/device/gd32f4xx/peripherals/src/gd32f4xx_i2c.c ****             /* the CLKC in fast mode minmum value is 1 */
 287              		.loc 1 138 9 is_stmt 1 view .LVU87
 138:../../../support/device/gd32f4xx/peripherals/src/gd32f4xx_i2c.c ****             /* the CLKC in fast mode minmum value is 1 */
 288              		.loc 1 138 11 is_stmt 0 view .LVU88
 289 008a 0AB9     		cbnz	r2, .L19
 140:../../../support/device/gd32f4xx/peripherals/src/gd32f4xx_i2c.c ****         }
 290              		.loc 1 140 13 is_stmt 1 view .LVU89
 140:../../../support/device/gd32f4xx/peripherals/src/gd32f4xx_i2c.c ****         }
 291              		.loc 1 140 18 is_stmt 0 view .LVU90
 292 008c 40F00100 		orr	r0, r0, #1
 293              	.LVL30:
 294              	.L19:
 142:../../../support/device/gd32f4xx/peripherals/src/gd32f4xx_i2c.c ****         I2C_CKCFG(i2c_periph) |= clkc;
 295              		.loc 1 142 9 is_stmt 1 view .LVU91
 142:../../../support/device/gd32f4xx/peripherals/src/gd32f4xx_i2c.c ****         I2C_CKCFG(i2c_periph) |= clkc;
 296              		.loc 1 142 31 is_stmt 0 view .LVU92
 297 0090 1A68     		ldr	r2, [r3]
 298 0092 42F40042 		orr	r2, r2, #32768
 299 0096 1A60     		str	r2, [r3]
 143:../../../support/device/gd32f4xx/peripherals/src/gd32f4xx_i2c.c ****     } else {
 300              		.loc 1 143 9 is_stmt 1 view .LVU93
 143:../../../support/device/gd32f4xx/peripherals/src/gd32f4xx_i2c.c ****     } else {
 301              		.loc 1 143 31 is_stmt 0 view .LVU94
 302 0098 1C68     		ldr	r4, [r3]
 303 009a 2043     		orrs	r0, r0, r4
 304              	.LVL31:
 143:../../../support/device/gd32f4xx/peripherals/src/gd32f4xx_i2c.c ****     } else {
 305              		.loc 1 143 31 view .LVU95
 306 009c 1860     		str	r0, [r3]
 145:../../../support/device/gd32f4xx/peripherals/src/gd32f4xx_i2c.c **** }
 307              		.loc 1 145 5 is_stmt 1 view .LVU96
 308              		.loc 1 146 1 is_stmt 0 view .LVU97
 309 009e F8BD     		pop	{r3, r4, r5, r6, r7, pc}
 310              	.LVL32:
 311              	.L22:
 112:../../../support/device/gd32f4xx/peripherals/src/gd32f4xx_i2c.c ****         } else if(risetime <= I2CCLK_MIN) {
 312              		.loc 1 112 13 is_stmt 1 view .LVU98
 112:../../../support/device/gd32f4xx/peripherals/src/gd32f4xx_i2c.c ****         } else if(risetime <= I2CCLK_MIN) {
 313              		.loc 1 112 32 is_stmt 0 view .LVU99
 314 00a0 3C23     		movs	r3, #60
 315              	.LVL33:
 112:../../../support/device/gd32f4xx/peripherals/src/gd32f4xx_i2c.c ****         } else if(risetime <= I2CCLK_MIN) {
 316              		.loc 1 112 32 view .LVU100
 317 00a2 2B62     		str	r3, [r5, #32]
ARM GAS  /var/folders/_f/88qcw_5n2jl40jjphvxyt7wh0000gn/T//ccEFCCaz.s 			page 10


 318              	.LVL34:
 112:../../../support/device/gd32f4xx/peripherals/src/gd32f4xx_i2c.c ****         } else if(risetime <= I2CCLK_MIN) {
 319              		.loc 1 112 32 view .LVU101
 320 00a4 CBE7     		b	.L14
 321              	.LVL35:
 322              	.L17:
 135:../../../support/device/gd32f4xx/peripherals/src/gd32f4xx_i2c.c ****             I2C_CKCFG(i2c_periph) |= I2C_CKCFG_DTCY;
 323              		.loc 1 135 13 is_stmt 1 view .LVU102
 136:../../../support/device/gd32f4xx/peripherals/src/gd32f4xx_i2c.c ****         }
 324              		.loc 1 136 35 is_stmt 0 view .LVU103
 325 00a6 42F48042 		orr	r2, r2, #16384
 135:../../../support/device/gd32f4xx/peripherals/src/gd32f4xx_i2c.c ****             I2C_CKCFG(i2c_periph) |= I2C_CKCFG_DTCY;
 326              		.loc 1 135 49 view .LVU104
 327 00aa 04EB8404 		add	r4, r4, r4, lsl #2
 328              	.LVL36:
 135:../../../support/device/gd32f4xx/peripherals/src/gd32f4xx_i2c.c ****             I2C_CKCFG(i2c_periph) |= I2C_CKCFG_DTCY;
 329              		.loc 1 135 49 view .LVU105
 330 00ae 04EB8404 		add	r4, r4, r4, lsl #2
 136:../../../support/device/gd32f4xx/peripherals/src/gd32f4xx_i2c.c ****         }
 331              		.loc 1 136 35 view .LVU106
 332 00b2 EA61     		str	r2, [r5, #28]
 135:../../../support/device/gd32f4xx/peripherals/src/gd32f4xx_i2c.c ****             I2C_CKCFG(i2c_periph) |= I2C_CKCFG_DTCY;
 333              		.loc 1 135 18 view .LVU107
 334 00b4 B0FBF4F0 		udiv	r0, r0, r4
 335              	.LVL37:
 136:../../../support/device/gd32f4xx/peripherals/src/gd32f4xx_i2c.c ****         }
 336              		.loc 1 136 13 is_stmt 1 view .LVU108
 136:../../../support/device/gd32f4xx/peripherals/src/gd32f4xx_i2c.c ****         }
 337              		.loc 1 136 35 is_stmt 0 view .LVU109
 338 00b8 05F11C03 		add	r3, r5, #28
 339 00bc 0246     		mov	r2, r0
 340 00be E4E7     		b	.L18
 341              	.L24:
 342              		.align	2
 343              	.L23:
 344 00c0 83DE1B43 		.word	1125899907
 345 00c4 00879303 		.word	60000000
 346 00c8 A0860100 		.word	100000
 347 00cc 801A0600 		.word	400000
 348 00d0 D34D6210 		.word	274877907
 349              		.cfi_endproc
 350              	.LFE117:
 352              		.section	.text.i2c_mode_addr_config,"ax",%progbits
 353              		.align	1
 354              		.p2align 2,,3
 355              		.global	i2c_mode_addr_config
 356              		.syntax unified
 357              		.thumb
 358              		.thumb_func
 360              	i2c_mode_addr_config:
 361              	.LVL38:
 362              	.LFB118:
 147:../../../support/device/gd32f4xx/peripherals/src/gd32f4xx_i2c.c **** 
 148:../../../support/device/gd32f4xx/peripherals/src/gd32f4xx_i2c.c **** /*!
 149:../../../support/device/gd32f4xx/peripherals/src/gd32f4xx_i2c.c ****     \brief      configure I2C address
 150:../../../support/device/gd32f4xx/peripherals/src/gd32f4xx_i2c.c ****     \param[in]  i2c_periph: I2Cx(x=0,1,2)
 151:../../../support/device/gd32f4xx/peripherals/src/gd32f4xx_i2c.c ****     \param[in]  mode:
ARM GAS  /var/folders/_f/88qcw_5n2jl40jjphvxyt7wh0000gn/T//ccEFCCaz.s 			page 11


 152:../../../support/device/gd32f4xx/peripherals/src/gd32f4xx_i2c.c ****                 only one parameter can be selected which is shown as below:
 153:../../../support/device/gd32f4xx/peripherals/src/gd32f4xx_i2c.c ****       \arg        I2C_I2CMODE_ENABLE: I2C mode
 154:../../../support/device/gd32f4xx/peripherals/src/gd32f4xx_i2c.c ****       \arg        I2C_SMBUSMODE_ENABLE: SMBus mode
 155:../../../support/device/gd32f4xx/peripherals/src/gd32f4xx_i2c.c ****     \param[in]  addformat: 7bits or 10bits
 156:../../../support/device/gd32f4xx/peripherals/src/gd32f4xx_i2c.c ****                 only one parameter can be selected which is shown as below:
 157:../../../support/device/gd32f4xx/peripherals/src/gd32f4xx_i2c.c ****       \arg        I2C_ADDFORMAT_7BITS: address format is 7 bits
 158:../../../support/device/gd32f4xx/peripherals/src/gd32f4xx_i2c.c ****       \arg        I2C_ADDFORMAT_10BITS: address format is 10 bits
 159:../../../support/device/gd32f4xx/peripherals/src/gd32f4xx_i2c.c ****     \param[in]  addr: I2C address
 160:../../../support/device/gd32f4xx/peripherals/src/gd32f4xx_i2c.c ****     \param[out] none
 161:../../../support/device/gd32f4xx/peripherals/src/gd32f4xx_i2c.c ****     \retval     none
 162:../../../support/device/gd32f4xx/peripherals/src/gd32f4xx_i2c.c **** */
 163:../../../support/device/gd32f4xx/peripherals/src/gd32f4xx_i2c.c **** void i2c_mode_addr_config(uint32_t i2c_periph, uint32_t mode, uint32_t addformat, uint32_t addr)
 164:../../../support/device/gd32f4xx/peripherals/src/gd32f4xx_i2c.c **** {
 363              		.loc 1 164 1 is_stmt 1 view -0
 364              		.cfi_startproc
 365              		@ args = 0, pretend = 0, frame = 0
 366              		@ frame_needed = 0, uses_anonymous_args = 0
 367              		@ link register save eliminated.
 165:../../../support/device/gd32f4xx/peripherals/src/gd32f4xx_i2c.c ****     /* SMBus/I2C mode selected */
 166:../../../support/device/gd32f4xx/peripherals/src/gd32f4xx_i2c.c ****     uint32_t ctl = 0U;
 368              		.loc 1 166 5 view .LVU111
 167:../../../support/device/gd32f4xx/peripherals/src/gd32f4xx_i2c.c **** 
 168:../../../support/device/gd32f4xx/peripherals/src/gd32f4xx_i2c.c ****     ctl = I2C_CTL0(i2c_periph);
 369              		.loc 1 168 5 view .LVU112
 164:../../../support/device/gd32f4xx/peripherals/src/gd32f4xx_i2c.c ****     /* SMBus/I2C mode selected */
 370              		.loc 1 164 1 is_stmt 0 view .LVU113
 371 0000 10B4     		push	{r4}
 372              	.LCFI7:
 373              		.cfi_def_cfa_offset 4
 374              		.cfi_offset 4, -4
 375              		.loc 1 168 9 view .LVU114
 376 0002 0468     		ldr	r4, [r0]
 377              	.LVL39:
 169:../../../support/device/gd32f4xx/peripherals/src/gd32f4xx_i2c.c ****     ctl &= ~(I2C_CTL0_SMBEN);
 378              		.loc 1 169 5 is_stmt 1 view .LVU115
 170:../../../support/device/gd32f4xx/peripherals/src/gd32f4xx_i2c.c ****     ctl |= mode;
 171:../../../support/device/gd32f4xx/peripherals/src/gd32f4xx_i2c.c ****     I2C_CTL0(i2c_periph) = ctl;
 172:../../../support/device/gd32f4xx/peripherals/src/gd32f4xx_i2c.c ****     /* configure address */
 173:../../../support/device/gd32f4xx/peripherals/src/gd32f4xx_i2c.c ****     addr = addr & I2C_ADDRESS_MASK;
 379              		.loc 1 173 10 is_stmt 0 view .LVU116
 380 0004 C3F30903 		ubfx	r3, r3, #0, #10
 381              	.LVL40:
 169:../../../support/device/gd32f4xx/peripherals/src/gd32f4xx_i2c.c ****     ctl &= ~(I2C_CTL0_SMBEN);
 382              		.loc 1 169 9 view .LVU117
 383 0008 24F00204 		bic	r4, r4, #2
 384              	.LVL41:
 170:../../../support/device/gd32f4xx/peripherals/src/gd32f4xx_i2c.c ****     ctl |= mode;
 385              		.loc 1 170 5 is_stmt 1 view .LVU118
 170:../../../support/device/gd32f4xx/peripherals/src/gd32f4xx_i2c.c ****     ctl |= mode;
 386              		.loc 1 170 9 is_stmt 0 view .LVU119
 387 000c 0C43     		orrs	r4, r4, r1
 388              	.LVL42:
 171:../../../support/device/gd32f4xx/peripherals/src/gd32f4xx_i2c.c ****     /* configure address */
 389              		.loc 1 171 5 is_stmt 1 view .LVU120
 174:../../../support/device/gd32f4xx/peripherals/src/gd32f4xx_i2c.c ****     I2C_SADDR0(i2c_periph) = (addformat | addr);
 390              		.loc 1 174 41 is_stmt 0 view .LVU121
 391 000e 1343     		orrs	r3, r3, r2
ARM GAS  /var/folders/_f/88qcw_5n2jl40jjphvxyt7wh0000gn/T//ccEFCCaz.s 			page 12


 171:../../../support/device/gd32f4xx/peripherals/src/gd32f4xx_i2c.c ****     /* configure address */
 392              		.loc 1 171 26 view .LVU122
 393 0010 0460     		str	r4, [r0]
 173:../../../support/device/gd32f4xx/peripherals/src/gd32f4xx_i2c.c ****     I2C_SADDR0(i2c_periph) = (addformat | addr);
 394              		.loc 1 173 5 is_stmt 1 view .LVU123
 395              	.LVL43:
 396              		.loc 1 174 5 view .LVU124
 175:../../../support/device/gd32f4xx/peripherals/src/gd32f4xx_i2c.c **** }
 397              		.loc 1 175 1 is_stmt 0 view .LVU125
 398 0012 10BC     		pop	{r4}
 399              	.LCFI8:
 400              		.cfi_restore 4
 401              		.cfi_def_cfa_offset 0
 402              	.LVL44:
 174:../../../support/device/gd32f4xx/peripherals/src/gd32f4xx_i2c.c ****     I2C_SADDR0(i2c_periph) = (addformat | addr);
 403              		.loc 1 174 28 view .LVU126
 404 0014 8360     		str	r3, [r0, #8]
 405              	.LVL45:
 406              		.loc 1 175 1 view .LVU127
 407 0016 7047     		bx	lr
 408              		.cfi_endproc
 409              	.LFE118:
 411              		.section	.text.i2c_smbus_type_config,"ax",%progbits
 412              		.align	1
 413              		.p2align 2,,3
 414              		.global	i2c_smbus_type_config
 415              		.syntax unified
 416              		.thumb
 417              		.thumb_func
 419              	i2c_smbus_type_config:
 420              	.LVL46:
 421              	.LFB119:
 176:../../../support/device/gd32f4xx/peripherals/src/gd32f4xx_i2c.c **** 
 177:../../../support/device/gd32f4xx/peripherals/src/gd32f4xx_i2c.c **** /*!
 178:../../../support/device/gd32f4xx/peripherals/src/gd32f4xx_i2c.c ****     \brief      select SMBus type
 179:../../../support/device/gd32f4xx/peripherals/src/gd32f4xx_i2c.c ****     \param[in]  i2c_periph: I2Cx(x=0,1,2)
 180:../../../support/device/gd32f4xx/peripherals/src/gd32f4xx_i2c.c ****     \param[in]  type:
 181:../../../support/device/gd32f4xx/peripherals/src/gd32f4xx_i2c.c ****                 only one parameter can be selected which is shown as below:
 182:../../../support/device/gd32f4xx/peripherals/src/gd32f4xx_i2c.c ****       \arg        I2C_SMBUS_DEVICE: SMBus mode device type
 183:../../../support/device/gd32f4xx/peripherals/src/gd32f4xx_i2c.c ****       \arg        I2C_SMBUS_HOST: SMBus mode host type
 184:../../../support/device/gd32f4xx/peripherals/src/gd32f4xx_i2c.c ****     \param[out] none
 185:../../../support/device/gd32f4xx/peripherals/src/gd32f4xx_i2c.c ****     \retval     none
 186:../../../support/device/gd32f4xx/peripherals/src/gd32f4xx_i2c.c **** */
 187:../../../support/device/gd32f4xx/peripherals/src/gd32f4xx_i2c.c **** void i2c_smbus_type_config(uint32_t i2c_periph, uint32_t type)
 188:../../../support/device/gd32f4xx/peripherals/src/gd32f4xx_i2c.c **** {
 422              		.loc 1 188 1 is_stmt 1 view -0
 423              		.cfi_startproc
 424              		@ args = 0, pretend = 0, frame = 0
 425              		@ frame_needed = 0, uses_anonymous_args = 0
 426              		@ link register save eliminated.
 189:../../../support/device/gd32f4xx/peripherals/src/gd32f4xx_i2c.c ****     if(I2C_SMBUS_HOST == type) {
 427              		.loc 1 189 5 view .LVU129
 190:../../../support/device/gd32f4xx/peripherals/src/gd32f4xx_i2c.c ****         I2C_CTL0(i2c_periph) |= I2C_CTL0_SMBSEL;
 428              		.loc 1 190 30 is_stmt 0 view .LVU130
 429 0000 0368     		ldr	r3, [r0]
 189:../../../support/device/gd32f4xx/peripherals/src/gd32f4xx_i2c.c ****     if(I2C_SMBUS_HOST == type) {
 430              		.loc 1 189 7 view .LVU131
ARM GAS  /var/folders/_f/88qcw_5n2jl40jjphvxyt7wh0000gn/T//ccEFCCaz.s 			page 13


 431 0002 0829     		cmp	r1, #8
 432              		.loc 1 190 9 is_stmt 1 view .LVU132
 433              		.loc 1 190 30 is_stmt 0 view .LVU133
 434 0004 0CBF     		ite	eq
 435 0006 43F00803 		orreq	r3, r3, #8
 191:../../../support/device/gd32f4xx/peripherals/src/gd32f4xx_i2c.c ****     } else {
 192:../../../support/device/gd32f4xx/peripherals/src/gd32f4xx_i2c.c ****         I2C_CTL0(i2c_periph) &= ~(I2C_CTL0_SMBSEL);
 436              		.loc 1 192 9 is_stmt 1 view .LVU134
 437              		.loc 1 192 30 is_stmt 0 view .LVU135
 438 000a 23F00803 		bicne	r3, r3, #8
 439 000e 0360     		str	r3, [r0]
 193:../../../support/device/gd32f4xx/peripherals/src/gd32f4xx_i2c.c ****     }
 194:../../../support/device/gd32f4xx/peripherals/src/gd32f4xx_i2c.c **** }
 440              		.loc 1 194 1 view .LVU136
 441 0010 7047     		bx	lr
 442              		.cfi_endproc
 443              	.LFE119:
 445              		.section	.text.i2c_ack_config,"ax",%progbits
 446              		.align	1
 447              		.p2align 2,,3
 448              		.global	i2c_ack_config
 449              		.syntax unified
 450              		.thumb
 451              		.thumb_func
 453              	i2c_ack_config:
 454              	.LVL47:
 455              	.LFB120:
 195:../../../support/device/gd32f4xx/peripherals/src/gd32f4xx_i2c.c **** 
 196:../../../support/device/gd32f4xx/peripherals/src/gd32f4xx_i2c.c **** /*!
 197:../../../support/device/gd32f4xx/peripherals/src/gd32f4xx_i2c.c ****     \brief      whether or not to send an ACK
 198:../../../support/device/gd32f4xx/peripherals/src/gd32f4xx_i2c.c ****     \param[in]  i2c_periph: I2Cx(x=0,1,2)
 199:../../../support/device/gd32f4xx/peripherals/src/gd32f4xx_i2c.c ****     \param[in]  ack:
 200:../../../support/device/gd32f4xx/peripherals/src/gd32f4xx_i2c.c ****                 only one parameter can be selected which is shown as below:
 201:../../../support/device/gd32f4xx/peripherals/src/gd32f4xx_i2c.c ****       \arg        I2C_ACK_ENABLE: ACK will be sent
 202:../../../support/device/gd32f4xx/peripherals/src/gd32f4xx_i2c.c ****       \arg        I2C_ACK_DISABLE: ACK will not be sent
 203:../../../support/device/gd32f4xx/peripherals/src/gd32f4xx_i2c.c ****     \param[out] none
 204:../../../support/device/gd32f4xx/peripherals/src/gd32f4xx_i2c.c ****     \retval     none
 205:../../../support/device/gd32f4xx/peripherals/src/gd32f4xx_i2c.c **** */
 206:../../../support/device/gd32f4xx/peripherals/src/gd32f4xx_i2c.c **** void i2c_ack_config(uint32_t i2c_periph, uint32_t ack)
 207:../../../support/device/gd32f4xx/peripherals/src/gd32f4xx_i2c.c **** {
 456              		.loc 1 207 1 is_stmt 1 view -0
 457              		.cfi_startproc
 458              		@ args = 0, pretend = 0, frame = 0
 459              		@ frame_needed = 0, uses_anonymous_args = 0
 460              		@ link register save eliminated.
 208:../../../support/device/gd32f4xx/peripherals/src/gd32f4xx_i2c.c ****     uint32_t ctl = 0U;
 461              		.loc 1 208 5 view .LVU138
 209:../../../support/device/gd32f4xx/peripherals/src/gd32f4xx_i2c.c **** 
 210:../../../support/device/gd32f4xx/peripherals/src/gd32f4xx_i2c.c ****     ctl = I2C_CTL0(i2c_periph);
 462              		.loc 1 210 5 view .LVU139
 463              		.loc 1 210 9 is_stmt 0 view .LVU140
 464 0000 0368     		ldr	r3, [r0]
 465              	.LVL48:
 211:../../../support/device/gd32f4xx/peripherals/src/gd32f4xx_i2c.c ****     ctl &= ~(I2C_CTL0_ACKEN);
 466              		.loc 1 211 5 is_stmt 1 view .LVU141
 467              		.loc 1 211 9 is_stmt 0 view .LVU142
 468 0002 23F48063 		bic	r3, r3, #1024
ARM GAS  /var/folders/_f/88qcw_5n2jl40jjphvxyt7wh0000gn/T//ccEFCCaz.s 			page 14


 469              	.LVL49:
 212:../../../support/device/gd32f4xx/peripherals/src/gd32f4xx_i2c.c ****     ctl |= ack;
 470              		.loc 1 212 5 is_stmt 1 view .LVU143
 471              		.loc 1 212 9 is_stmt 0 view .LVU144
 472 0006 0B43     		orrs	r3, r3, r1
 473              	.LVL50:
 213:../../../support/device/gd32f4xx/peripherals/src/gd32f4xx_i2c.c ****     I2C_CTL0(i2c_periph) = ctl;
 474              		.loc 1 213 5 is_stmt 1 view .LVU145
 475              		.loc 1 213 26 is_stmt 0 view .LVU146
 476 0008 0360     		str	r3, [r0]
 214:../../../support/device/gd32f4xx/peripherals/src/gd32f4xx_i2c.c **** }
 477              		.loc 1 214 1 view .LVU147
 478 000a 7047     		bx	lr
 479              		.cfi_endproc
 480              	.LFE120:
 482              		.section	.text.i2c_ackpos_config,"ax",%progbits
 483              		.align	1
 484              		.p2align 2,,3
 485              		.global	i2c_ackpos_config
 486              		.syntax unified
 487              		.thumb
 488              		.thumb_func
 490              	i2c_ackpos_config:
 491              	.LVL51:
 492              	.LFB121:
 215:../../../support/device/gd32f4xx/peripherals/src/gd32f4xx_i2c.c **** 
 216:../../../support/device/gd32f4xx/peripherals/src/gd32f4xx_i2c.c **** /*!
 217:../../../support/device/gd32f4xx/peripherals/src/gd32f4xx_i2c.c ****     \brief      configure I2C POAP position
 218:../../../support/device/gd32f4xx/peripherals/src/gd32f4xx_i2c.c ****     \param[in]  i2c_periph: I2Cx(x=0,1,2)
 219:../../../support/device/gd32f4xx/peripherals/src/gd32f4xx_i2c.c ****     \param[in]  pos:
 220:../../../support/device/gd32f4xx/peripherals/src/gd32f4xx_i2c.c ****                 only one parameter can be selected which is shown as below:
 221:../../../support/device/gd32f4xx/peripherals/src/gd32f4xx_i2c.c ****       \arg        I2C_ACKPOS_CURRENT: ACKEN bit decides whether or not to send ACK or not for the c
 222:../../../support/device/gd32f4xx/peripherals/src/gd32f4xx_i2c.c ****       \arg        I2C_ACKPOS_NEXT: ACKEN bit decides whether or not to send ACK for the next byte
 223:../../../support/device/gd32f4xx/peripherals/src/gd32f4xx_i2c.c ****     \param[out] none
 224:../../../support/device/gd32f4xx/peripherals/src/gd32f4xx_i2c.c ****     \retval     none
 225:../../../support/device/gd32f4xx/peripherals/src/gd32f4xx_i2c.c **** */
 226:../../../support/device/gd32f4xx/peripherals/src/gd32f4xx_i2c.c **** void i2c_ackpos_config(uint32_t i2c_periph, uint32_t pos)
 227:../../../support/device/gd32f4xx/peripherals/src/gd32f4xx_i2c.c **** {
 493              		.loc 1 227 1 is_stmt 1 view -0
 494              		.cfi_startproc
 495              		@ args = 0, pretend = 0, frame = 0
 496              		@ frame_needed = 0, uses_anonymous_args = 0
 497              		@ link register save eliminated.
 228:../../../support/device/gd32f4xx/peripherals/src/gd32f4xx_i2c.c ****     uint32_t ctl = 0U;
 498              		.loc 1 228 5 view .LVU149
 229:../../../support/device/gd32f4xx/peripherals/src/gd32f4xx_i2c.c ****     /* configure I2C POAP position */
 230:../../../support/device/gd32f4xx/peripherals/src/gd32f4xx_i2c.c ****     ctl = I2C_CTL0(i2c_periph);
 499              		.loc 1 230 5 view .LVU150
 500              		.loc 1 230 9 is_stmt 0 view .LVU151
 501 0000 0368     		ldr	r3, [r0]
 502              	.LVL52:
 231:../../../support/device/gd32f4xx/peripherals/src/gd32f4xx_i2c.c ****     ctl &= ~(I2C_CTL0_POAP);
 503              		.loc 1 231 5 is_stmt 1 view .LVU152
 504              		.loc 1 231 9 is_stmt 0 view .LVU153
 505 0002 23F40063 		bic	r3, r3, #2048
 506              	.LVL53:
 232:../../../support/device/gd32f4xx/peripherals/src/gd32f4xx_i2c.c ****     ctl |= pos;
ARM GAS  /var/folders/_f/88qcw_5n2jl40jjphvxyt7wh0000gn/T//ccEFCCaz.s 			page 15


 507              		.loc 1 232 5 is_stmt 1 view .LVU154
 508              		.loc 1 232 9 is_stmt 0 view .LVU155
 509 0006 0B43     		orrs	r3, r3, r1
 510              	.LVL54:
 233:../../../support/device/gd32f4xx/peripherals/src/gd32f4xx_i2c.c ****     I2C_CTL0(i2c_periph) = ctl;
 511              		.loc 1 233 5 is_stmt 1 view .LVU156
 512              		.loc 1 233 26 is_stmt 0 view .LVU157
 513 0008 0360     		str	r3, [r0]
 234:../../../support/device/gd32f4xx/peripherals/src/gd32f4xx_i2c.c **** }
 514              		.loc 1 234 1 view .LVU158
 515 000a 7047     		bx	lr
 516              		.cfi_endproc
 517              	.LFE121:
 519              		.section	.text.i2c_master_addressing,"ax",%progbits
 520              		.align	1
 521              		.p2align 2,,3
 522              		.global	i2c_master_addressing
 523              		.syntax unified
 524              		.thumb
 525              		.thumb_func
 527              	i2c_master_addressing:
 528              	.LVL55:
 529              	.LFB122:
 235:../../../support/device/gd32f4xx/peripherals/src/gd32f4xx_i2c.c **** 
 236:../../../support/device/gd32f4xx/peripherals/src/gd32f4xx_i2c.c **** /*!
 237:../../../support/device/gd32f4xx/peripherals/src/gd32f4xx_i2c.c ****     \brief      master sends slave address
 238:../../../support/device/gd32f4xx/peripherals/src/gd32f4xx_i2c.c ****     \param[in]  i2c_periph: I2Cx(x=0,1,2)
 239:../../../support/device/gd32f4xx/peripherals/src/gd32f4xx_i2c.c ****     \param[in]  addr: slave address
 240:../../../support/device/gd32f4xx/peripherals/src/gd32f4xx_i2c.c ****     \param[in]  trandirection: transmitter or receiver
 241:../../../support/device/gd32f4xx/peripherals/src/gd32f4xx_i2c.c ****                 only one parameter can be selected which is shown as below:
 242:../../../support/device/gd32f4xx/peripherals/src/gd32f4xx_i2c.c ****       \arg        I2C_TRANSMITTER: transmitter
 243:../../../support/device/gd32f4xx/peripherals/src/gd32f4xx_i2c.c ****       \arg        I2C_RECEIVER: receiver
 244:../../../support/device/gd32f4xx/peripherals/src/gd32f4xx_i2c.c ****     \param[out] none
 245:../../../support/device/gd32f4xx/peripherals/src/gd32f4xx_i2c.c ****     \retval     none
 246:../../../support/device/gd32f4xx/peripherals/src/gd32f4xx_i2c.c **** */
 247:../../../support/device/gd32f4xx/peripherals/src/gd32f4xx_i2c.c **** void i2c_master_addressing(uint32_t i2c_periph, uint32_t addr, uint32_t trandirection)
 248:../../../support/device/gd32f4xx/peripherals/src/gd32f4xx_i2c.c **** {
 530              		.loc 1 248 1 is_stmt 1 view -0
 531              		.cfi_startproc
 532              		@ args = 0, pretend = 0, frame = 0
 533              		@ frame_needed = 0, uses_anonymous_args = 0
 534              		@ link register save eliminated.
 249:../../../support/device/gd32f4xx/peripherals/src/gd32f4xx_i2c.c ****     /* master is a transmitter or a receiver */
 250:../../../support/device/gd32f4xx/peripherals/src/gd32f4xx_i2c.c ****     if(I2C_TRANSMITTER == trandirection) {
 535              		.loc 1 250 5 view .LVU160
 536              		.loc 1 250 7 is_stmt 0 view .LVU161
 537 0000 0232     		adds	r2, r2, #2
 538              	.LVL56:
 251:../../../support/device/gd32f4xx/peripherals/src/gd32f4xx_i2c.c ****         addr = addr & I2C_TRANSMITTER;
 539              		.loc 1 251 9 is_stmt 1 view .LVU162
 540              		.loc 1 251 14 is_stmt 0 view .LVU163
 541 0002 0CBF     		ite	eq
 542 0004 21F00101 		biceq	r1, r1, #1
 543              	.LVL57:
 252:../../../support/device/gd32f4xx/peripherals/src/gd32f4xx_i2c.c ****     } else {
 253:../../../support/device/gd32f4xx/peripherals/src/gd32f4xx_i2c.c ****         addr = addr | I2C_RECEIVER;
 544              		.loc 1 253 9 is_stmt 1 view .LVU164
ARM GAS  /var/folders/_f/88qcw_5n2jl40jjphvxyt7wh0000gn/T//ccEFCCaz.s 			page 16


 545              		.loc 1 253 14 is_stmt 0 view .LVU165
 546 0008 41F00101 		orrne	r1, r1, #1
 547              	.LVL58:
 254:../../../support/device/gd32f4xx/peripherals/src/gd32f4xx_i2c.c ****     }
 255:../../../support/device/gd32f4xx/peripherals/src/gd32f4xx_i2c.c ****     /* send slave address */
 256:../../../support/device/gd32f4xx/peripherals/src/gd32f4xx_i2c.c ****     I2C_DATA(i2c_periph) = addr;
 548              		.loc 1 256 5 is_stmt 1 view .LVU166
 549              		.loc 1 256 26 is_stmt 0 view .LVU167
 550 000c 0161     		str	r1, [r0, #16]
 257:../../../support/device/gd32f4xx/peripherals/src/gd32f4xx_i2c.c **** }
 551              		.loc 1 257 1 view .LVU168
 552 000e 7047     		bx	lr
 553              		.cfi_endproc
 554              	.LFE122:
 556              		.section	.text.i2c_dualaddr_enable,"ax",%progbits
 557              		.align	1
 558              		.p2align 2,,3
 559              		.global	i2c_dualaddr_enable
 560              		.syntax unified
 561              		.thumb
 562              		.thumb_func
 564              	i2c_dualaddr_enable:
 565              	.LVL59:
 566              	.LFB123:
 258:../../../support/device/gd32f4xx/peripherals/src/gd32f4xx_i2c.c **** 
 259:../../../support/device/gd32f4xx/peripherals/src/gd32f4xx_i2c.c **** /*!
 260:../../../support/device/gd32f4xx/peripherals/src/gd32f4xx_i2c.c ****     \brief      enable dual-address mode
 261:../../../support/device/gd32f4xx/peripherals/src/gd32f4xx_i2c.c ****     \param[in]  i2c_periph: I2Cx(x=0,1,2)
 262:../../../support/device/gd32f4xx/peripherals/src/gd32f4xx_i2c.c ****     \param[in]  addr: the second address in dual-address mode
 263:../../../support/device/gd32f4xx/peripherals/src/gd32f4xx_i2c.c ****     \param[out] none
 264:../../../support/device/gd32f4xx/peripherals/src/gd32f4xx_i2c.c ****     \retval     none
 265:../../../support/device/gd32f4xx/peripherals/src/gd32f4xx_i2c.c **** */
 266:../../../support/device/gd32f4xx/peripherals/src/gd32f4xx_i2c.c **** void i2c_dualaddr_enable(uint32_t i2c_periph, uint32_t addr)
 267:../../../support/device/gd32f4xx/peripherals/src/gd32f4xx_i2c.c **** {
 567              		.loc 1 267 1 is_stmt 1 view -0
 568              		.cfi_startproc
 569              		@ args = 0, pretend = 0, frame = 0
 570              		@ frame_needed = 0, uses_anonymous_args = 0
 571              		@ link register save eliminated.
 268:../../../support/device/gd32f4xx/peripherals/src/gd32f4xx_i2c.c ****     /* configure address */
 269:../../../support/device/gd32f4xx/peripherals/src/gd32f4xx_i2c.c ****     addr = addr & I2C_ADDRESS2_MASK;
 572              		.loc 1 269 5 view .LVU170
 270:../../../support/device/gd32f4xx/peripherals/src/gd32f4xx_i2c.c ****     I2C_SADDR1(i2c_periph) = (I2C_SADDR1_DUADEN | addr);
 573              		.loc 1 270 5 view .LVU171
 269:../../../support/device/gd32f4xx/peripherals/src/gd32f4xx_i2c.c ****     I2C_SADDR1(i2c_periph) = (I2C_SADDR1_DUADEN | addr);
 574              		.loc 1 269 10 is_stmt 0 view .LVU172
 575 0000 01F0FE01 		and	r1, r1, #254
 576              	.LVL60:
 577              		.loc 1 270 49 view .LVU173
 578 0004 41F00101 		orr	r1, r1, #1
 579              	.LVL61:
 580              		.loc 1 270 28 view .LVU174
 581 0008 C160     		str	r1, [r0, #12]
 271:../../../support/device/gd32f4xx/peripherals/src/gd32f4xx_i2c.c **** }
 582              		.loc 1 271 1 view .LVU175
 583 000a 7047     		bx	lr
 584              		.cfi_endproc
ARM GAS  /var/folders/_f/88qcw_5n2jl40jjphvxyt7wh0000gn/T//ccEFCCaz.s 			page 17


 585              	.LFE123:
 587              		.section	.text.i2c_dualaddr_disable,"ax",%progbits
 588              		.align	1
 589              		.p2align 2,,3
 590              		.global	i2c_dualaddr_disable
 591              		.syntax unified
 592              		.thumb
 593              		.thumb_func
 595              	i2c_dualaddr_disable:
 596              	.LVL62:
 597              	.LFB124:
 272:../../../support/device/gd32f4xx/peripherals/src/gd32f4xx_i2c.c **** 
 273:../../../support/device/gd32f4xx/peripherals/src/gd32f4xx_i2c.c **** /*!
 274:../../../support/device/gd32f4xx/peripherals/src/gd32f4xx_i2c.c ****     \brief      disable dual-address mode
 275:../../../support/device/gd32f4xx/peripherals/src/gd32f4xx_i2c.c ****     \param[in]  i2c_periph: I2Cx(x=0,1,2)
 276:../../../support/device/gd32f4xx/peripherals/src/gd32f4xx_i2c.c ****     \param[out] none
 277:../../../support/device/gd32f4xx/peripherals/src/gd32f4xx_i2c.c ****     \retval     none
 278:../../../support/device/gd32f4xx/peripherals/src/gd32f4xx_i2c.c **** */
 279:../../../support/device/gd32f4xx/peripherals/src/gd32f4xx_i2c.c **** void i2c_dualaddr_disable(uint32_t i2c_periph)
 280:../../../support/device/gd32f4xx/peripherals/src/gd32f4xx_i2c.c **** {
 598              		.loc 1 280 1 is_stmt 1 view -0
 599              		.cfi_startproc
 600              		@ args = 0, pretend = 0, frame = 0
 601              		@ frame_needed = 0, uses_anonymous_args = 0
 602              		@ link register save eliminated.
 281:../../../support/device/gd32f4xx/peripherals/src/gd32f4xx_i2c.c ****     I2C_SADDR1(i2c_periph) &= ~(I2C_SADDR1_DUADEN);
 603              		.loc 1 281 5 view .LVU177
 604              		.loc 1 281 28 is_stmt 0 view .LVU178
 605 0000 C368     		ldr	r3, [r0, #12]
 606 0002 23F00103 		bic	r3, r3, #1
 607 0006 C360     		str	r3, [r0, #12]
 282:../../../support/device/gd32f4xx/peripherals/src/gd32f4xx_i2c.c **** }
 608              		.loc 1 282 1 view .LVU179
 609 0008 7047     		bx	lr
 610              		.cfi_endproc
 611              	.LFE124:
 613 000a 00BF     		.section	.text.i2c_enable,"ax",%progbits
 614              		.align	1
 615              		.p2align 2,,3
 616              		.global	i2c_enable
 617              		.syntax unified
 618              		.thumb
 619              		.thumb_func
 621              	i2c_enable:
 622              	.LVL63:
 623              	.LFB125:
 283:../../../support/device/gd32f4xx/peripherals/src/gd32f4xx_i2c.c **** 
 284:../../../support/device/gd32f4xx/peripherals/src/gd32f4xx_i2c.c **** /*!
 285:../../../support/device/gd32f4xx/peripherals/src/gd32f4xx_i2c.c ****     \brief      enable I2C
 286:../../../support/device/gd32f4xx/peripherals/src/gd32f4xx_i2c.c ****     \param[in]  i2c_periph: I2Cx(x=0,1,2)
 287:../../../support/device/gd32f4xx/peripherals/src/gd32f4xx_i2c.c ****     \param[out] none
 288:../../../support/device/gd32f4xx/peripherals/src/gd32f4xx_i2c.c ****     \retval     none
 289:../../../support/device/gd32f4xx/peripherals/src/gd32f4xx_i2c.c **** */
 290:../../../support/device/gd32f4xx/peripherals/src/gd32f4xx_i2c.c **** void i2c_enable(uint32_t i2c_periph)
 291:../../../support/device/gd32f4xx/peripherals/src/gd32f4xx_i2c.c **** {
 624              		.loc 1 291 1 is_stmt 1 view -0
 625              		.cfi_startproc
ARM GAS  /var/folders/_f/88qcw_5n2jl40jjphvxyt7wh0000gn/T//ccEFCCaz.s 			page 18


 626              		@ args = 0, pretend = 0, frame = 0
 627              		@ frame_needed = 0, uses_anonymous_args = 0
 628              		@ link register save eliminated.
 292:../../../support/device/gd32f4xx/peripherals/src/gd32f4xx_i2c.c ****     I2C_CTL0(i2c_periph) |= I2C_CTL0_I2CEN;
 629              		.loc 1 292 5 view .LVU181
 630              		.loc 1 292 26 is_stmt 0 view .LVU182
 631 0000 0368     		ldr	r3, [r0]
 632 0002 43F00103 		orr	r3, r3, #1
 633 0006 0360     		str	r3, [r0]
 293:../../../support/device/gd32f4xx/peripherals/src/gd32f4xx_i2c.c **** }
 634              		.loc 1 293 1 view .LVU183
 635 0008 7047     		bx	lr
 636              		.cfi_endproc
 637              	.LFE125:
 639 000a 00BF     		.section	.text.i2c_disable,"ax",%progbits
 640              		.align	1
 641              		.p2align 2,,3
 642              		.global	i2c_disable
 643              		.syntax unified
 644              		.thumb
 645              		.thumb_func
 647              	i2c_disable:
 648              	.LVL64:
 649              	.LFB126:
 294:../../../support/device/gd32f4xx/peripherals/src/gd32f4xx_i2c.c **** 
 295:../../../support/device/gd32f4xx/peripherals/src/gd32f4xx_i2c.c **** /*!
 296:../../../support/device/gd32f4xx/peripherals/src/gd32f4xx_i2c.c ****     \brief      disable I2C
 297:../../../support/device/gd32f4xx/peripherals/src/gd32f4xx_i2c.c ****     \param[in]  i2c_periph: I2Cx(x=0,1,2)
 298:../../../support/device/gd32f4xx/peripherals/src/gd32f4xx_i2c.c ****     \param[out] none
 299:../../../support/device/gd32f4xx/peripherals/src/gd32f4xx_i2c.c ****     \retval     none
 300:../../../support/device/gd32f4xx/peripherals/src/gd32f4xx_i2c.c **** */
 301:../../../support/device/gd32f4xx/peripherals/src/gd32f4xx_i2c.c **** void i2c_disable(uint32_t i2c_periph)
 302:../../../support/device/gd32f4xx/peripherals/src/gd32f4xx_i2c.c **** {
 650              		.loc 1 302 1 is_stmt 1 view -0
 651              		.cfi_startproc
 652              		@ args = 0, pretend = 0, frame = 0
 653              		@ frame_needed = 0, uses_anonymous_args = 0
 654              		@ link register save eliminated.
 303:../../../support/device/gd32f4xx/peripherals/src/gd32f4xx_i2c.c ****     I2C_CTL0(i2c_periph) &= ~(I2C_CTL0_I2CEN);
 655              		.loc 1 303 5 view .LVU185
 656              		.loc 1 303 26 is_stmt 0 view .LVU186
 657 0000 0368     		ldr	r3, [r0]
 658 0002 23F00103 		bic	r3, r3, #1
 659 0006 0360     		str	r3, [r0]
 304:../../../support/device/gd32f4xx/peripherals/src/gd32f4xx_i2c.c **** }
 660              		.loc 1 304 1 view .LVU187
 661 0008 7047     		bx	lr
 662              		.cfi_endproc
 663              	.LFE126:
 665 000a 00BF     		.section	.text.i2c_start_on_bus,"ax",%progbits
 666              		.align	1
 667              		.p2align 2,,3
 668              		.global	i2c_start_on_bus
 669              		.syntax unified
 670              		.thumb
 671              		.thumb_func
 673              	i2c_start_on_bus:
ARM GAS  /var/folders/_f/88qcw_5n2jl40jjphvxyt7wh0000gn/T//ccEFCCaz.s 			page 19


 674              	.LVL65:
 675              	.LFB127:
 305:../../../support/device/gd32f4xx/peripherals/src/gd32f4xx_i2c.c **** 
 306:../../../support/device/gd32f4xx/peripherals/src/gd32f4xx_i2c.c **** /*!
 307:../../../support/device/gd32f4xx/peripherals/src/gd32f4xx_i2c.c ****     \brief      generate a START condition on I2C bus
 308:../../../support/device/gd32f4xx/peripherals/src/gd32f4xx_i2c.c ****     \param[in]  i2c_periph: I2Cx(x=0,1,2)
 309:../../../support/device/gd32f4xx/peripherals/src/gd32f4xx_i2c.c ****     \param[out] none
 310:../../../support/device/gd32f4xx/peripherals/src/gd32f4xx_i2c.c ****     \retval     none
 311:../../../support/device/gd32f4xx/peripherals/src/gd32f4xx_i2c.c **** */
 312:../../../support/device/gd32f4xx/peripherals/src/gd32f4xx_i2c.c **** void i2c_start_on_bus(uint32_t i2c_periph)
 313:../../../support/device/gd32f4xx/peripherals/src/gd32f4xx_i2c.c **** {
 676              		.loc 1 313 1 is_stmt 1 view -0
 677              		.cfi_startproc
 678              		@ args = 0, pretend = 0, frame = 0
 679              		@ frame_needed = 0, uses_anonymous_args = 0
 680              		@ link register save eliminated.
 314:../../../support/device/gd32f4xx/peripherals/src/gd32f4xx_i2c.c ****     I2C_CTL0(i2c_periph) |= I2C_CTL0_START;
 681              		.loc 1 314 5 view .LVU189
 682              		.loc 1 314 26 is_stmt 0 view .LVU190
 683 0000 0368     		ldr	r3, [r0]
 684 0002 43F48073 		orr	r3, r3, #256
 685 0006 0360     		str	r3, [r0]
 315:../../../support/device/gd32f4xx/peripherals/src/gd32f4xx_i2c.c **** }
 686              		.loc 1 315 1 view .LVU191
 687 0008 7047     		bx	lr
 688              		.cfi_endproc
 689              	.LFE127:
 691 000a 00BF     		.section	.text.i2c_stop_on_bus,"ax",%progbits
 692              		.align	1
 693              		.p2align 2,,3
 694              		.global	i2c_stop_on_bus
 695              		.syntax unified
 696              		.thumb
 697              		.thumb_func
 699              	i2c_stop_on_bus:
 700              	.LVL66:
 701              	.LFB128:
 316:../../../support/device/gd32f4xx/peripherals/src/gd32f4xx_i2c.c **** 
 317:../../../support/device/gd32f4xx/peripherals/src/gd32f4xx_i2c.c **** /*!
 318:../../../support/device/gd32f4xx/peripherals/src/gd32f4xx_i2c.c ****     \brief      generate a STOP condition on I2C bus
 319:../../../support/device/gd32f4xx/peripherals/src/gd32f4xx_i2c.c ****     \param[in]  i2c_periph: I2Cx(x=0,1,2)
 320:../../../support/device/gd32f4xx/peripherals/src/gd32f4xx_i2c.c ****     \param[out] none
 321:../../../support/device/gd32f4xx/peripherals/src/gd32f4xx_i2c.c ****     \retval     none
 322:../../../support/device/gd32f4xx/peripherals/src/gd32f4xx_i2c.c **** */
 323:../../../support/device/gd32f4xx/peripherals/src/gd32f4xx_i2c.c **** void i2c_stop_on_bus(uint32_t i2c_periph)
 324:../../../support/device/gd32f4xx/peripherals/src/gd32f4xx_i2c.c **** {
 702              		.loc 1 324 1 is_stmt 1 view -0
 703              		.cfi_startproc
 704              		@ args = 0, pretend = 0, frame = 0
 705              		@ frame_needed = 0, uses_anonymous_args = 0
 706              		@ link register save eliminated.
 325:../../../support/device/gd32f4xx/peripherals/src/gd32f4xx_i2c.c ****     I2C_CTL0(i2c_periph) |= I2C_CTL0_STOP;
 707              		.loc 1 325 5 view .LVU193
 708              		.loc 1 325 26 is_stmt 0 view .LVU194
 709 0000 0368     		ldr	r3, [r0]
 710 0002 43F40073 		orr	r3, r3, #512
 711 0006 0360     		str	r3, [r0]
ARM GAS  /var/folders/_f/88qcw_5n2jl40jjphvxyt7wh0000gn/T//ccEFCCaz.s 			page 20


 326:../../../support/device/gd32f4xx/peripherals/src/gd32f4xx_i2c.c **** }
 712              		.loc 1 326 1 view .LVU195
 713 0008 7047     		bx	lr
 714              		.cfi_endproc
 715              	.LFE128:
 717 000a 00BF     		.section	.text.i2c_data_transmit,"ax",%progbits
 718              		.align	1
 719              		.p2align 2,,3
 720              		.global	i2c_data_transmit
 721              		.syntax unified
 722              		.thumb
 723              		.thumb_func
 725              	i2c_data_transmit:
 726              	.LVL67:
 727              	.LFB129:
 327:../../../support/device/gd32f4xx/peripherals/src/gd32f4xx_i2c.c **** 
 328:../../../support/device/gd32f4xx/peripherals/src/gd32f4xx_i2c.c **** /*!
 329:../../../support/device/gd32f4xx/peripherals/src/gd32f4xx_i2c.c ****     \brief      I2C transmit data function
 330:../../../support/device/gd32f4xx/peripherals/src/gd32f4xx_i2c.c ****     \param[in]  i2c_periph: I2Cx(x=0,1,2)
 331:../../../support/device/gd32f4xx/peripherals/src/gd32f4xx_i2c.c ****     \param[in]  data: data of transmission
 332:../../../support/device/gd32f4xx/peripherals/src/gd32f4xx_i2c.c ****     \param[out] none
 333:../../../support/device/gd32f4xx/peripherals/src/gd32f4xx_i2c.c ****     \retval     none
 334:../../../support/device/gd32f4xx/peripherals/src/gd32f4xx_i2c.c **** */
 335:../../../support/device/gd32f4xx/peripherals/src/gd32f4xx_i2c.c **** void i2c_data_transmit(uint32_t i2c_periph, uint8_t data)
 336:../../../support/device/gd32f4xx/peripherals/src/gd32f4xx_i2c.c **** {
 728              		.loc 1 336 1 is_stmt 1 view -0
 729              		.cfi_startproc
 730              		@ args = 0, pretend = 0, frame = 0
 731              		@ frame_needed = 0, uses_anonymous_args = 0
 732              		@ link register save eliminated.
 337:../../../support/device/gd32f4xx/peripherals/src/gd32f4xx_i2c.c ****     I2C_DATA(i2c_periph) = DATA_TRANS(data);
 733              		.loc 1 337 5 view .LVU197
 734              		.loc 1 337 26 is_stmt 0 view .LVU198
 735 0000 0161     		str	r1, [r0, #16]
 338:../../../support/device/gd32f4xx/peripherals/src/gd32f4xx_i2c.c **** }
 736              		.loc 1 338 1 view .LVU199
 737 0002 7047     		bx	lr
 738              		.cfi_endproc
 739              	.LFE129:
 741              		.section	.text.i2c_data_receive,"ax",%progbits
 742              		.align	1
 743              		.p2align 2,,3
 744              		.global	i2c_data_receive
 745              		.syntax unified
 746              		.thumb
 747              		.thumb_func
 749              	i2c_data_receive:
 750              	.LVL68:
 751              	.LFB130:
 339:../../../support/device/gd32f4xx/peripherals/src/gd32f4xx_i2c.c **** 
 340:../../../support/device/gd32f4xx/peripherals/src/gd32f4xx_i2c.c **** /*!
 341:../../../support/device/gd32f4xx/peripherals/src/gd32f4xx_i2c.c ****     \brief      I2C receive data function
 342:../../../support/device/gd32f4xx/peripherals/src/gd32f4xx_i2c.c ****     \param[in]  i2c_periph: I2Cx(x=0,1,2)
 343:../../../support/device/gd32f4xx/peripherals/src/gd32f4xx_i2c.c ****     \param[out] none
 344:../../../support/device/gd32f4xx/peripherals/src/gd32f4xx_i2c.c ****     \retval     data of received
 345:../../../support/device/gd32f4xx/peripherals/src/gd32f4xx_i2c.c **** */
 346:../../../support/device/gd32f4xx/peripherals/src/gd32f4xx_i2c.c **** uint8_t i2c_data_receive(uint32_t i2c_periph)
ARM GAS  /var/folders/_f/88qcw_5n2jl40jjphvxyt7wh0000gn/T//ccEFCCaz.s 			page 21


 347:../../../support/device/gd32f4xx/peripherals/src/gd32f4xx_i2c.c **** {
 752              		.loc 1 347 1 is_stmt 1 view -0
 753              		.cfi_startproc
 754              		@ args = 0, pretend = 0, frame = 0
 755              		@ frame_needed = 0, uses_anonymous_args = 0
 756              		@ link register save eliminated.
 348:../../../support/device/gd32f4xx/peripherals/src/gd32f4xx_i2c.c ****     return (uint8_t)DATA_RECV(I2C_DATA(i2c_periph));
 757              		.loc 1 348 5 view .LVU201
 758              		.loc 1 348 21 is_stmt 0 view .LVU202
 759 0000 0069     		ldr	r0, [r0, #16]
 760              	.LVL69:
 349:../../../support/device/gd32f4xx/peripherals/src/gd32f4xx_i2c.c **** }
 761              		.loc 1 349 1 view .LVU203
 762 0002 C0B2     		uxtb	r0, r0
 763 0004 7047     		bx	lr
 764              		.cfi_endproc
 765              	.LFE130:
 767 0006 00BF     		.section	.text.i2c_dma_config,"ax",%progbits
 768              		.align	1
 769              		.p2align 2,,3
 770              		.global	i2c_dma_config
 771              		.syntax unified
 772              		.thumb
 773              		.thumb_func
 775              	i2c_dma_config:
 776              	.LVL70:
 777              	.LFB131:
 350:../../../support/device/gd32f4xx/peripherals/src/gd32f4xx_i2c.c **** 
 351:../../../support/device/gd32f4xx/peripherals/src/gd32f4xx_i2c.c **** /*!
 352:../../../support/device/gd32f4xx/peripherals/src/gd32f4xx_i2c.c ****     \brief      configure I2C DMA mode
 353:../../../support/device/gd32f4xx/peripherals/src/gd32f4xx_i2c.c ****     \param[in]  i2c_periph: I2Cx(x=0,1,2)
 354:../../../support/device/gd32f4xx/peripherals/src/gd32f4xx_i2c.c ****     \param[in]  dmastate:
 355:../../../support/device/gd32f4xx/peripherals/src/gd32f4xx_i2c.c ****                 only one parameter can be selected which is shown as below:
 356:../../../support/device/gd32f4xx/peripherals/src/gd32f4xx_i2c.c ****       \arg        I2C_DMA_ON: enable DMA mode
 357:../../../support/device/gd32f4xx/peripherals/src/gd32f4xx_i2c.c ****       \arg        I2C_DMA_OFF: disable DMA mode
 358:../../../support/device/gd32f4xx/peripherals/src/gd32f4xx_i2c.c ****     \param[out] none
 359:../../../support/device/gd32f4xx/peripherals/src/gd32f4xx_i2c.c ****     \retval     none
 360:../../../support/device/gd32f4xx/peripherals/src/gd32f4xx_i2c.c **** */
 361:../../../support/device/gd32f4xx/peripherals/src/gd32f4xx_i2c.c **** void i2c_dma_config(uint32_t i2c_periph, uint32_t dmastate)
 362:../../../support/device/gd32f4xx/peripherals/src/gd32f4xx_i2c.c **** {
 778              		.loc 1 362 1 is_stmt 1 view -0
 779              		.cfi_startproc
 780              		@ args = 0, pretend = 0, frame = 0
 781              		@ frame_needed = 0, uses_anonymous_args = 0
 782              		@ link register save eliminated.
 363:../../../support/device/gd32f4xx/peripherals/src/gd32f4xx_i2c.c ****     /* configure I2C DMA function */
 364:../../../support/device/gd32f4xx/peripherals/src/gd32f4xx_i2c.c ****     uint32_t ctl = 0U;
 783              		.loc 1 364 5 view .LVU205
 365:../../../support/device/gd32f4xx/peripherals/src/gd32f4xx_i2c.c **** 
 366:../../../support/device/gd32f4xx/peripherals/src/gd32f4xx_i2c.c ****     ctl = I2C_CTL1(i2c_periph);
 784              		.loc 1 366 5 view .LVU206
 785              		.loc 1 366 9 is_stmt 0 view .LVU207
 786 0000 4368     		ldr	r3, [r0, #4]
 787              	.LVL71:
 367:../../../support/device/gd32f4xx/peripherals/src/gd32f4xx_i2c.c ****     ctl &= ~(I2C_CTL1_DMAON);
 788              		.loc 1 367 5 is_stmt 1 view .LVU208
 789              		.loc 1 367 9 is_stmt 0 view .LVU209
ARM GAS  /var/folders/_f/88qcw_5n2jl40jjphvxyt7wh0000gn/T//ccEFCCaz.s 			page 22


 790 0002 23F40063 		bic	r3, r3, #2048
 791              	.LVL72:
 368:../../../support/device/gd32f4xx/peripherals/src/gd32f4xx_i2c.c ****     ctl |= dmastate;
 792              		.loc 1 368 5 is_stmt 1 view .LVU210
 793              		.loc 1 368 9 is_stmt 0 view .LVU211
 794 0006 0B43     		orrs	r3, r3, r1
 795              	.LVL73:
 369:../../../support/device/gd32f4xx/peripherals/src/gd32f4xx_i2c.c ****     I2C_CTL1(i2c_periph) = ctl;
 796              		.loc 1 369 5 is_stmt 1 view .LVU212
 797              		.loc 1 369 26 is_stmt 0 view .LVU213
 798 0008 4360     		str	r3, [r0, #4]
 370:../../../support/device/gd32f4xx/peripherals/src/gd32f4xx_i2c.c **** }
 799              		.loc 1 370 1 view .LVU214
 800 000a 7047     		bx	lr
 801              		.cfi_endproc
 802              	.LFE131:
 804              		.section	.text.i2c_dma_last_transfer_config,"ax",%progbits
 805              		.align	1
 806              		.p2align 2,,3
 807              		.global	i2c_dma_last_transfer_config
 808              		.syntax unified
 809              		.thumb
 810              		.thumb_func
 812              	i2c_dma_last_transfer_config:
 813              	.LVL74:
 814              	.LFB132:
 371:../../../support/device/gd32f4xx/peripherals/src/gd32f4xx_i2c.c **** 
 372:../../../support/device/gd32f4xx/peripherals/src/gd32f4xx_i2c.c **** /*!
 373:../../../support/device/gd32f4xx/peripherals/src/gd32f4xx_i2c.c ****     \brief      configure whether next DMA EOT is DMA last transfer or not
 374:../../../support/device/gd32f4xx/peripherals/src/gd32f4xx_i2c.c ****     \param[in]  i2c_periph: I2Cx(x=0,1,2)
 375:../../../support/device/gd32f4xx/peripherals/src/gd32f4xx_i2c.c ****     \param[in]  dmalast:
 376:../../../support/device/gd32f4xx/peripherals/src/gd32f4xx_i2c.c ****                 only one parameter can be selected which is shown as below:
 377:../../../support/device/gd32f4xx/peripherals/src/gd32f4xx_i2c.c ****       \arg        I2C_DMALST_ON: next DMA EOT is the last transfer
 378:../../../support/device/gd32f4xx/peripherals/src/gd32f4xx_i2c.c ****       \arg        I2C_DMALST_OFF: next DMA EOT is not the last transfer
 379:../../../support/device/gd32f4xx/peripherals/src/gd32f4xx_i2c.c ****     \param[out] none
 380:../../../support/device/gd32f4xx/peripherals/src/gd32f4xx_i2c.c ****     \retval     none
 381:../../../support/device/gd32f4xx/peripherals/src/gd32f4xx_i2c.c **** */
 382:../../../support/device/gd32f4xx/peripherals/src/gd32f4xx_i2c.c **** void i2c_dma_last_transfer_config(uint32_t i2c_periph, uint32_t dmalast)
 383:../../../support/device/gd32f4xx/peripherals/src/gd32f4xx_i2c.c **** {
 815              		.loc 1 383 1 is_stmt 1 view -0
 816              		.cfi_startproc
 817              		@ args = 0, pretend = 0, frame = 0
 818              		@ frame_needed = 0, uses_anonymous_args = 0
 819              		@ link register save eliminated.
 384:../../../support/device/gd32f4xx/peripherals/src/gd32f4xx_i2c.c ****     /* configure DMA last transfer */
 385:../../../support/device/gd32f4xx/peripherals/src/gd32f4xx_i2c.c ****     uint32_t ctl = 0U;
 820              		.loc 1 385 5 view .LVU216
 386:../../../support/device/gd32f4xx/peripherals/src/gd32f4xx_i2c.c **** 
 387:../../../support/device/gd32f4xx/peripherals/src/gd32f4xx_i2c.c ****     ctl = I2C_CTL1(i2c_periph);
 821              		.loc 1 387 5 view .LVU217
 822              		.loc 1 387 9 is_stmt 0 view .LVU218
 823 0000 4368     		ldr	r3, [r0, #4]
 824              	.LVL75:
 388:../../../support/device/gd32f4xx/peripherals/src/gd32f4xx_i2c.c ****     ctl &= ~(I2C_CTL1_DMALST);
 825              		.loc 1 388 5 is_stmt 1 view .LVU219
 826              		.loc 1 388 9 is_stmt 0 view .LVU220
 827 0002 23F48053 		bic	r3, r3, #4096
ARM GAS  /var/folders/_f/88qcw_5n2jl40jjphvxyt7wh0000gn/T//ccEFCCaz.s 			page 23


 828              	.LVL76:
 389:../../../support/device/gd32f4xx/peripherals/src/gd32f4xx_i2c.c ****     ctl |= dmalast;
 829              		.loc 1 389 5 is_stmt 1 view .LVU221
 830              		.loc 1 389 9 is_stmt 0 view .LVU222
 831 0006 0B43     		orrs	r3, r3, r1
 832              	.LVL77:
 390:../../../support/device/gd32f4xx/peripherals/src/gd32f4xx_i2c.c ****     I2C_CTL1(i2c_periph) = ctl;
 833              		.loc 1 390 5 is_stmt 1 view .LVU223
 834              		.loc 1 390 26 is_stmt 0 view .LVU224
 835 0008 4360     		str	r3, [r0, #4]
 391:../../../support/device/gd32f4xx/peripherals/src/gd32f4xx_i2c.c **** }
 836              		.loc 1 391 1 view .LVU225
 837 000a 7047     		bx	lr
 838              		.cfi_endproc
 839              	.LFE132:
 841              		.section	.text.i2c_stretch_scl_low_config,"ax",%progbits
 842              		.align	1
 843              		.p2align 2,,3
 844              		.global	i2c_stretch_scl_low_config
 845              		.syntax unified
 846              		.thumb
 847              		.thumb_func
 849              	i2c_stretch_scl_low_config:
 850              	.LVL78:
 851              	.LFB133:
 392:../../../support/device/gd32f4xx/peripherals/src/gd32f4xx_i2c.c **** 
 393:../../../support/device/gd32f4xx/peripherals/src/gd32f4xx_i2c.c **** /*!
 394:../../../support/device/gd32f4xx/peripherals/src/gd32f4xx_i2c.c ****     \brief      whether to stretch SCL low when data is not ready in slave mode
 395:../../../support/device/gd32f4xx/peripherals/src/gd32f4xx_i2c.c ****     \param[in]  i2c_periph: I2Cx(x=0,1,2)
 396:../../../support/device/gd32f4xx/peripherals/src/gd32f4xx_i2c.c ****     \param[in]  stretchpara:
 397:../../../support/device/gd32f4xx/peripherals/src/gd32f4xx_i2c.c ****                 only one parameter can be selected which is shown as below:
 398:../../../support/device/gd32f4xx/peripherals/src/gd32f4xx_i2c.c ****       \arg        I2C_SCLSTRETCH_ENABLE: enable SCL stretching
 399:../../../support/device/gd32f4xx/peripherals/src/gd32f4xx_i2c.c ****       \arg        I2C_SCLSTRETCH_DISABLE: disable SCL stretching
 400:../../../support/device/gd32f4xx/peripherals/src/gd32f4xx_i2c.c ****     \param[out] none
 401:../../../support/device/gd32f4xx/peripherals/src/gd32f4xx_i2c.c ****     \retval     none
 402:../../../support/device/gd32f4xx/peripherals/src/gd32f4xx_i2c.c **** */
 403:../../../support/device/gd32f4xx/peripherals/src/gd32f4xx_i2c.c **** void i2c_stretch_scl_low_config(uint32_t i2c_periph, uint32_t stretchpara)
 404:../../../support/device/gd32f4xx/peripherals/src/gd32f4xx_i2c.c **** {
 852              		.loc 1 404 1 is_stmt 1 view -0
 853              		.cfi_startproc
 854              		@ args = 0, pretend = 0, frame = 0
 855              		@ frame_needed = 0, uses_anonymous_args = 0
 856              		@ link register save eliminated.
 405:../../../support/device/gd32f4xx/peripherals/src/gd32f4xx_i2c.c ****     /* configure I2C SCL strerching */
 406:../../../support/device/gd32f4xx/peripherals/src/gd32f4xx_i2c.c ****     uint32_t ctl = 0U;
 857              		.loc 1 406 5 view .LVU227
 407:../../../support/device/gd32f4xx/peripherals/src/gd32f4xx_i2c.c **** 
 408:../../../support/device/gd32f4xx/peripherals/src/gd32f4xx_i2c.c ****     ctl = I2C_CTL0(i2c_periph);
 858              		.loc 1 408 5 view .LVU228
 859              		.loc 1 408 9 is_stmt 0 view .LVU229
 860 0000 0368     		ldr	r3, [r0]
 861              	.LVL79:
 409:../../../support/device/gd32f4xx/peripherals/src/gd32f4xx_i2c.c ****     ctl &= ~(I2C_CTL0_SS);
 862              		.loc 1 409 5 is_stmt 1 view .LVU230
 863              		.loc 1 409 9 is_stmt 0 view .LVU231
 864 0002 23F08003 		bic	r3, r3, #128
 865              	.LVL80:
ARM GAS  /var/folders/_f/88qcw_5n2jl40jjphvxyt7wh0000gn/T//ccEFCCaz.s 			page 24


 410:../../../support/device/gd32f4xx/peripherals/src/gd32f4xx_i2c.c ****     ctl |= stretchpara;
 866              		.loc 1 410 5 is_stmt 1 view .LVU232
 867              		.loc 1 410 9 is_stmt 0 view .LVU233
 868 0006 0B43     		orrs	r3, r3, r1
 869              	.LVL81:
 411:../../../support/device/gd32f4xx/peripherals/src/gd32f4xx_i2c.c ****     I2C_CTL0(i2c_periph) = ctl;
 870              		.loc 1 411 5 is_stmt 1 view .LVU234
 871              		.loc 1 411 26 is_stmt 0 view .LVU235
 872 0008 0360     		str	r3, [r0]
 412:../../../support/device/gd32f4xx/peripherals/src/gd32f4xx_i2c.c **** }
 873              		.loc 1 412 1 view .LVU236
 874 000a 7047     		bx	lr
 875              		.cfi_endproc
 876              	.LFE133:
 878              		.section	.text.i2c_slave_response_to_gcall_config,"ax",%progbits
 879              		.align	1
 880              		.p2align 2,,3
 881              		.global	i2c_slave_response_to_gcall_config
 882              		.syntax unified
 883              		.thumb
 884              		.thumb_func
 886              	i2c_slave_response_to_gcall_config:
 887              	.LVL82:
 888              	.LFB134:
 413:../../../support/device/gd32f4xx/peripherals/src/gd32f4xx_i2c.c **** 
 414:../../../support/device/gd32f4xx/peripherals/src/gd32f4xx_i2c.c **** /*!
 415:../../../support/device/gd32f4xx/peripherals/src/gd32f4xx_i2c.c ****     \brief      whether or not to response to a general call
 416:../../../support/device/gd32f4xx/peripherals/src/gd32f4xx_i2c.c ****     \param[in]  i2c_periph: I2Cx(x=0,1,2)
 417:../../../support/device/gd32f4xx/peripherals/src/gd32f4xx_i2c.c ****     \param[in]  gcallpara:
 418:../../../support/device/gd32f4xx/peripherals/src/gd32f4xx_i2c.c ****                 only one parameter can be selected which is shown as below:
 419:../../../support/device/gd32f4xx/peripherals/src/gd32f4xx_i2c.c ****       \arg        I2C_GCEN_ENABLE: slave will response to a general call
 420:../../../support/device/gd32f4xx/peripherals/src/gd32f4xx_i2c.c ****       \arg        I2C_GCEN_DISABLE: slave will not response to a general call
 421:../../../support/device/gd32f4xx/peripherals/src/gd32f4xx_i2c.c ****     \param[out] none
 422:../../../support/device/gd32f4xx/peripherals/src/gd32f4xx_i2c.c ****     \retval     none
 423:../../../support/device/gd32f4xx/peripherals/src/gd32f4xx_i2c.c **** */
 424:../../../support/device/gd32f4xx/peripherals/src/gd32f4xx_i2c.c **** void i2c_slave_response_to_gcall_config(uint32_t i2c_periph, uint32_t gcallpara)
 425:../../../support/device/gd32f4xx/peripherals/src/gd32f4xx_i2c.c **** {
 889              		.loc 1 425 1 is_stmt 1 view -0
 890              		.cfi_startproc
 891              		@ args = 0, pretend = 0, frame = 0
 892              		@ frame_needed = 0, uses_anonymous_args = 0
 893              		@ link register save eliminated.
 426:../../../support/device/gd32f4xx/peripherals/src/gd32f4xx_i2c.c ****     /* configure slave response to a general call enable or disable */
 427:../../../support/device/gd32f4xx/peripherals/src/gd32f4xx_i2c.c ****     uint32_t ctl = 0U;
 894              		.loc 1 427 5 view .LVU238
 428:../../../support/device/gd32f4xx/peripherals/src/gd32f4xx_i2c.c **** 
 429:../../../support/device/gd32f4xx/peripherals/src/gd32f4xx_i2c.c ****     ctl = I2C_CTL0(i2c_periph);
 895              		.loc 1 429 5 view .LVU239
 896              		.loc 1 429 9 is_stmt 0 view .LVU240
 897 0000 0368     		ldr	r3, [r0]
 898              	.LVL83:
 430:../../../support/device/gd32f4xx/peripherals/src/gd32f4xx_i2c.c ****     ctl &= ~(I2C_CTL0_GCEN);
 899              		.loc 1 430 5 is_stmt 1 view .LVU241
 900              		.loc 1 430 9 is_stmt 0 view .LVU242
 901 0002 23F04003 		bic	r3, r3, #64
 902              	.LVL84:
 431:../../../support/device/gd32f4xx/peripherals/src/gd32f4xx_i2c.c ****     ctl |= gcallpara;
ARM GAS  /var/folders/_f/88qcw_5n2jl40jjphvxyt7wh0000gn/T//ccEFCCaz.s 			page 25


 903              		.loc 1 431 5 is_stmt 1 view .LVU243
 904              		.loc 1 431 9 is_stmt 0 view .LVU244
 905 0006 0B43     		orrs	r3, r3, r1
 906              	.LVL85:
 432:../../../support/device/gd32f4xx/peripherals/src/gd32f4xx_i2c.c ****     I2C_CTL0(i2c_periph) = ctl;
 907              		.loc 1 432 5 is_stmt 1 view .LVU245
 908              		.loc 1 432 26 is_stmt 0 view .LVU246
 909 0008 0360     		str	r3, [r0]
 433:../../../support/device/gd32f4xx/peripherals/src/gd32f4xx_i2c.c **** }
 910              		.loc 1 433 1 view .LVU247
 911 000a 7047     		bx	lr
 912              		.cfi_endproc
 913              	.LFE134:
 915              		.section	.text.i2c_software_reset_config,"ax",%progbits
 916              		.align	1
 917              		.p2align 2,,3
 918              		.global	i2c_software_reset_config
 919              		.syntax unified
 920              		.thumb
 921              		.thumb_func
 923              	i2c_software_reset_config:
 924              	.LVL86:
 925              	.LFB135:
 434:../../../support/device/gd32f4xx/peripherals/src/gd32f4xx_i2c.c **** 
 435:../../../support/device/gd32f4xx/peripherals/src/gd32f4xx_i2c.c **** /*!
 436:../../../support/device/gd32f4xx/peripherals/src/gd32f4xx_i2c.c ****     \brief      configure software reset of I2C
 437:../../../support/device/gd32f4xx/peripherals/src/gd32f4xx_i2c.c ****     \param[in]  i2c_periph: I2Cx(x=0,1,2)
 438:../../../support/device/gd32f4xx/peripherals/src/gd32f4xx_i2c.c ****     \param[in]  sreset:
 439:../../../support/device/gd32f4xx/peripherals/src/gd32f4xx_i2c.c ****                 only one parameter can be selected which is shown as below:
 440:../../../support/device/gd32f4xx/peripherals/src/gd32f4xx_i2c.c ****       \arg        I2C_SRESET_SET: I2C is under reset
 441:../../../support/device/gd32f4xx/peripherals/src/gd32f4xx_i2c.c ****       \arg        I2C_SRESET_RESET: I2C is not under reset
 442:../../../support/device/gd32f4xx/peripherals/src/gd32f4xx_i2c.c ****     \param[out] none
 443:../../../support/device/gd32f4xx/peripherals/src/gd32f4xx_i2c.c ****     \retval     none
 444:../../../support/device/gd32f4xx/peripherals/src/gd32f4xx_i2c.c **** */
 445:../../../support/device/gd32f4xx/peripherals/src/gd32f4xx_i2c.c **** void i2c_software_reset_config(uint32_t i2c_periph, uint32_t sreset)
 446:../../../support/device/gd32f4xx/peripherals/src/gd32f4xx_i2c.c **** {
 926              		.loc 1 446 1 is_stmt 1 view -0
 927              		.cfi_startproc
 928              		@ args = 0, pretend = 0, frame = 0
 929              		@ frame_needed = 0, uses_anonymous_args = 0
 930              		@ link register save eliminated.
 447:../../../support/device/gd32f4xx/peripherals/src/gd32f4xx_i2c.c ****     /* modify CTL0 and configure software reset I2C state */
 448:../../../support/device/gd32f4xx/peripherals/src/gd32f4xx_i2c.c ****     uint32_t ctl = 0U;
 931              		.loc 1 448 5 view .LVU249
 449:../../../support/device/gd32f4xx/peripherals/src/gd32f4xx_i2c.c **** 
 450:../../../support/device/gd32f4xx/peripherals/src/gd32f4xx_i2c.c ****     ctl = I2C_CTL0(i2c_periph);
 932              		.loc 1 450 5 view .LVU250
 933              		.loc 1 450 9 is_stmt 0 view .LVU251
 934 0000 0368     		ldr	r3, [r0]
 935              	.LVL87:
 451:../../../support/device/gd32f4xx/peripherals/src/gd32f4xx_i2c.c ****     ctl &= ~(I2C_CTL0_SRESET);
 936              		.loc 1 451 5 is_stmt 1 view .LVU252
 937              		.loc 1 451 9 is_stmt 0 view .LVU253
 938 0002 23F40043 		bic	r3, r3, #32768
 939              	.LVL88:
 452:../../../support/device/gd32f4xx/peripherals/src/gd32f4xx_i2c.c ****     ctl |= sreset;
 940              		.loc 1 452 5 is_stmt 1 view .LVU254
ARM GAS  /var/folders/_f/88qcw_5n2jl40jjphvxyt7wh0000gn/T//ccEFCCaz.s 			page 26


 941              		.loc 1 452 9 is_stmt 0 view .LVU255
 942 0006 0B43     		orrs	r3, r3, r1
 943              	.LVL89:
 453:../../../support/device/gd32f4xx/peripherals/src/gd32f4xx_i2c.c ****     I2C_CTL0(i2c_periph) = ctl;
 944              		.loc 1 453 5 is_stmt 1 view .LVU256
 945              		.loc 1 453 26 is_stmt 0 view .LVU257
 946 0008 0360     		str	r3, [r0]
 454:../../../support/device/gd32f4xx/peripherals/src/gd32f4xx_i2c.c **** }
 947              		.loc 1 454 1 view .LVU258
 948 000a 7047     		bx	lr
 949              		.cfi_endproc
 950              	.LFE135:
 952              		.section	.text.i2c_pec_config,"ax",%progbits
 953              		.align	1
 954              		.p2align 2,,3
 955              		.global	i2c_pec_config
 956              		.syntax unified
 957              		.thumb
 958              		.thumb_func
 960              	i2c_pec_config:
 961              	.LVL90:
 962              	.LFB136:
 455:../../../support/device/gd32f4xx/peripherals/src/gd32f4xx_i2c.c **** 
 456:../../../support/device/gd32f4xx/peripherals/src/gd32f4xx_i2c.c **** /*!
 457:../../../support/device/gd32f4xx/peripherals/src/gd32f4xx_i2c.c ****     \brief      configure I2C PEC calculation
 458:../../../support/device/gd32f4xx/peripherals/src/gd32f4xx_i2c.c ****     \param[in]  i2c_periph: I2Cx(x=0,1,2)
 459:../../../support/device/gd32f4xx/peripherals/src/gd32f4xx_i2c.c ****     \param[in]  pecstate:
 460:../../../support/device/gd32f4xx/peripherals/src/gd32f4xx_i2c.c ****                 only one parameter can be selected which is shown as below:
 461:../../../support/device/gd32f4xx/peripherals/src/gd32f4xx_i2c.c ****       \arg        I2C_PEC_ENABLE: PEC calculation on
 462:../../../support/device/gd32f4xx/peripherals/src/gd32f4xx_i2c.c ****       \arg        I2C_PEC_DISABLE: PEC calculation off
 463:../../../support/device/gd32f4xx/peripherals/src/gd32f4xx_i2c.c ****     \param[out] none
 464:../../../support/device/gd32f4xx/peripherals/src/gd32f4xx_i2c.c ****     \retval     none
 465:../../../support/device/gd32f4xx/peripherals/src/gd32f4xx_i2c.c **** */
 466:../../../support/device/gd32f4xx/peripherals/src/gd32f4xx_i2c.c **** void i2c_pec_config(uint32_t i2c_periph, uint32_t pecstate)
 467:../../../support/device/gd32f4xx/peripherals/src/gd32f4xx_i2c.c **** {
 963              		.loc 1 467 1 is_stmt 1 view -0
 964              		.cfi_startproc
 965              		@ args = 0, pretend = 0, frame = 0
 966              		@ frame_needed = 0, uses_anonymous_args = 0
 967              		@ link register save eliminated.
 468:../../../support/device/gd32f4xx/peripherals/src/gd32f4xx_i2c.c ****     /* on/off PEC calculation */
 469:../../../support/device/gd32f4xx/peripherals/src/gd32f4xx_i2c.c ****     uint32_t ctl = 0U;
 968              		.loc 1 469 5 view .LVU260
 470:../../../support/device/gd32f4xx/peripherals/src/gd32f4xx_i2c.c **** 
 471:../../../support/device/gd32f4xx/peripherals/src/gd32f4xx_i2c.c ****     ctl = I2C_CTL0(i2c_periph);
 969              		.loc 1 471 5 view .LVU261
 970              		.loc 1 471 9 is_stmt 0 view .LVU262
 971 0000 0368     		ldr	r3, [r0]
 972              	.LVL91:
 472:../../../support/device/gd32f4xx/peripherals/src/gd32f4xx_i2c.c ****     ctl &= ~(I2C_CTL0_PECEN);
 973              		.loc 1 472 5 is_stmt 1 view .LVU263
 974              		.loc 1 472 9 is_stmt 0 view .LVU264
 975 0002 23F02003 		bic	r3, r3, #32
 976              	.LVL92:
 473:../../../support/device/gd32f4xx/peripherals/src/gd32f4xx_i2c.c ****     ctl |= pecstate;
 977              		.loc 1 473 5 is_stmt 1 view .LVU265
 978              		.loc 1 473 9 is_stmt 0 view .LVU266
ARM GAS  /var/folders/_f/88qcw_5n2jl40jjphvxyt7wh0000gn/T//ccEFCCaz.s 			page 27


 979 0006 0B43     		orrs	r3, r3, r1
 980              	.LVL93:
 474:../../../support/device/gd32f4xx/peripherals/src/gd32f4xx_i2c.c ****     I2C_CTL0(i2c_periph) = ctl;
 981              		.loc 1 474 5 is_stmt 1 view .LVU267
 982              		.loc 1 474 26 is_stmt 0 view .LVU268
 983 0008 0360     		str	r3, [r0]
 475:../../../support/device/gd32f4xx/peripherals/src/gd32f4xx_i2c.c **** }
 984              		.loc 1 475 1 view .LVU269
 985 000a 7047     		bx	lr
 986              		.cfi_endproc
 987              	.LFE136:
 989              		.section	.text.i2c_pec_transfer_config,"ax",%progbits
 990              		.align	1
 991              		.p2align 2,,3
 992              		.global	i2c_pec_transfer_config
 993              		.syntax unified
 994              		.thumb
 995              		.thumb_func
 997              	i2c_pec_transfer_config:
 998              	.LVL94:
 999              	.LFB137:
 476:../../../support/device/gd32f4xx/peripherals/src/gd32f4xx_i2c.c **** 
 477:../../../support/device/gd32f4xx/peripherals/src/gd32f4xx_i2c.c **** /*!
 478:../../../support/device/gd32f4xx/peripherals/src/gd32f4xx_i2c.c ****     \brief      configure whether to transfer PEC value
 479:../../../support/device/gd32f4xx/peripherals/src/gd32f4xx_i2c.c ****     \param[in]  i2c_periph: I2Cx(x=0,1,2)
 480:../../../support/device/gd32f4xx/peripherals/src/gd32f4xx_i2c.c ****     \param[in]  pecpara:
 481:../../../support/device/gd32f4xx/peripherals/src/gd32f4xx_i2c.c ****                 only one parameter can be selected which is shown as below:
 482:../../../support/device/gd32f4xx/peripherals/src/gd32f4xx_i2c.c ****       \arg        I2C_PECTRANS_ENABLE: transfer PEC value
 483:../../../support/device/gd32f4xx/peripherals/src/gd32f4xx_i2c.c ****       \arg        I2C_PECTRANS_DISABLE: not transfer PEC value
 484:../../../support/device/gd32f4xx/peripherals/src/gd32f4xx_i2c.c ****     \param[out] none
 485:../../../support/device/gd32f4xx/peripherals/src/gd32f4xx_i2c.c ****     \retval     none
 486:../../../support/device/gd32f4xx/peripherals/src/gd32f4xx_i2c.c **** */
 487:../../../support/device/gd32f4xx/peripherals/src/gd32f4xx_i2c.c **** void i2c_pec_transfer_config(uint32_t i2c_periph, uint32_t pecpara)
 488:../../../support/device/gd32f4xx/peripherals/src/gd32f4xx_i2c.c **** {
 1000              		.loc 1 488 1 is_stmt 1 view -0
 1001              		.cfi_startproc
 1002              		@ args = 0, pretend = 0, frame = 0
 1003              		@ frame_needed = 0, uses_anonymous_args = 0
 1004              		@ link register save eliminated.
 489:../../../support/device/gd32f4xx/peripherals/src/gd32f4xx_i2c.c ****     /* whether to transfer PEC */
 490:../../../support/device/gd32f4xx/peripherals/src/gd32f4xx_i2c.c ****     uint32_t ctl = 0U;
 1005              		.loc 1 490 5 view .LVU271
 491:../../../support/device/gd32f4xx/peripherals/src/gd32f4xx_i2c.c **** 
 492:../../../support/device/gd32f4xx/peripherals/src/gd32f4xx_i2c.c ****     ctl = I2C_CTL0(i2c_periph);
 1006              		.loc 1 492 5 view .LVU272
 1007              		.loc 1 492 9 is_stmt 0 view .LVU273
 1008 0000 0368     		ldr	r3, [r0]
 1009              	.LVL95:
 493:../../../support/device/gd32f4xx/peripherals/src/gd32f4xx_i2c.c ****     ctl &= ~(I2C_CTL0_PECTRANS);
 1010              		.loc 1 493 5 is_stmt 1 view .LVU274
 1011              		.loc 1 493 9 is_stmt 0 view .LVU275
 1012 0002 23F48053 		bic	r3, r3, #4096
 1013              	.LVL96:
 494:../../../support/device/gd32f4xx/peripherals/src/gd32f4xx_i2c.c ****     ctl |= pecpara;
 1014              		.loc 1 494 5 is_stmt 1 view .LVU276
 1015              		.loc 1 494 9 is_stmt 0 view .LVU277
 1016 0006 0B43     		orrs	r3, r3, r1
ARM GAS  /var/folders/_f/88qcw_5n2jl40jjphvxyt7wh0000gn/T//ccEFCCaz.s 			page 28


 1017              	.LVL97:
 495:../../../support/device/gd32f4xx/peripherals/src/gd32f4xx_i2c.c ****     I2C_CTL0(i2c_periph) = ctl;
 1018              		.loc 1 495 5 is_stmt 1 view .LVU278
 1019              		.loc 1 495 26 is_stmt 0 view .LVU279
 1020 0008 0360     		str	r3, [r0]
 496:../../../support/device/gd32f4xx/peripherals/src/gd32f4xx_i2c.c **** }
 1021              		.loc 1 496 1 view .LVU280
 1022 000a 7047     		bx	lr
 1023              		.cfi_endproc
 1024              	.LFE137:
 1026              		.section	.text.i2c_pec_value_get,"ax",%progbits
 1027              		.align	1
 1028              		.p2align 2,,3
 1029              		.global	i2c_pec_value_get
 1030              		.syntax unified
 1031              		.thumb
 1032              		.thumb_func
 1034              	i2c_pec_value_get:
 1035              	.LVL98:
 1036              	.LFB138:
 497:../../../support/device/gd32f4xx/peripherals/src/gd32f4xx_i2c.c **** 
 498:../../../support/device/gd32f4xx/peripherals/src/gd32f4xx_i2c.c **** /*!
 499:../../../support/device/gd32f4xx/peripherals/src/gd32f4xx_i2c.c ****     \brief      get packet error checking value
 500:../../../support/device/gd32f4xx/peripherals/src/gd32f4xx_i2c.c ****     \param[in]  i2c_periph: I2Cx(x=0,1,2)
 501:../../../support/device/gd32f4xx/peripherals/src/gd32f4xx_i2c.c ****     \param[out] none
 502:../../../support/device/gd32f4xx/peripherals/src/gd32f4xx_i2c.c ****     \retval     PEC value
 503:../../../support/device/gd32f4xx/peripherals/src/gd32f4xx_i2c.c **** */
 504:../../../support/device/gd32f4xx/peripherals/src/gd32f4xx_i2c.c **** uint8_t i2c_pec_value_get(uint32_t i2c_periph)
 505:../../../support/device/gd32f4xx/peripherals/src/gd32f4xx_i2c.c **** {
 1037              		.loc 1 505 1 is_stmt 1 view -0
 1038              		.cfi_startproc
 1039              		@ args = 0, pretend = 0, frame = 0
 1040              		@ frame_needed = 0, uses_anonymous_args = 0
 1041              		@ link register save eliminated.
 506:../../../support/device/gd32f4xx/peripherals/src/gd32f4xx_i2c.c ****     return (uint8_t)((I2C_STAT1(i2c_periph) & I2C_STAT1_PECV) >> STAT1_PECV_OFFSET);
 1042              		.loc 1 506 5 view .LVU282
 1043              		.loc 1 506 23 is_stmt 0 view .LVU283
 1044 0000 8069     		ldr	r0, [r0, #24]
 1045              	.LVL99:
 507:../../../support/device/gd32f4xx/peripherals/src/gd32f4xx_i2c.c **** }
 1046              		.loc 1 507 1 view .LVU284
 1047 0002 C0F30720 		ubfx	r0, r0, #8, #8
 1048 0006 7047     		bx	lr
 1049              		.cfi_endproc
 1050              	.LFE138:
 1052              		.section	.text.i2c_smbus_alert_config,"ax",%progbits
 1053              		.align	1
 1054              		.p2align 2,,3
 1055              		.global	i2c_smbus_alert_config
 1056              		.syntax unified
 1057              		.thumb
 1058              		.thumb_func
 1060              	i2c_smbus_alert_config:
 1061              	.LVL100:
 1062              	.LFB139:
 508:../../../support/device/gd32f4xx/peripherals/src/gd32f4xx_i2c.c **** 
 509:../../../support/device/gd32f4xx/peripherals/src/gd32f4xx_i2c.c **** /*!
ARM GAS  /var/folders/_f/88qcw_5n2jl40jjphvxyt7wh0000gn/T//ccEFCCaz.s 			page 29


 510:../../../support/device/gd32f4xx/peripherals/src/gd32f4xx_i2c.c ****     \brief      configure I2C alert through SMBA pin
 511:../../../support/device/gd32f4xx/peripherals/src/gd32f4xx_i2c.c ****     \param[in]  i2c_periph: I2Cx(x=0,1,2)
 512:../../../support/device/gd32f4xx/peripherals/src/gd32f4xx_i2c.c ****     \param[in]  smbuspara:
 513:../../../support/device/gd32f4xx/peripherals/src/gd32f4xx_i2c.c ****                 only one parameter can be selected which is shown as below:
 514:../../../support/device/gd32f4xx/peripherals/src/gd32f4xx_i2c.c ****       \arg        I2C_SALTSEND_ENABLE: issue alert through SMBA pin
 515:../../../support/device/gd32f4xx/peripherals/src/gd32f4xx_i2c.c ****       \arg        I2C_SALTSEND_DISABLE: not issue alert through SMBA pin
 516:../../../support/device/gd32f4xx/peripherals/src/gd32f4xx_i2c.c ****     \param[out] none
 517:../../../support/device/gd32f4xx/peripherals/src/gd32f4xx_i2c.c ****     \retval     none
 518:../../../support/device/gd32f4xx/peripherals/src/gd32f4xx_i2c.c **** */
 519:../../../support/device/gd32f4xx/peripherals/src/gd32f4xx_i2c.c **** void i2c_smbus_alert_config(uint32_t i2c_periph, uint32_t smbuspara)
 520:../../../support/device/gd32f4xx/peripherals/src/gd32f4xx_i2c.c **** {
 1063              		.loc 1 520 1 is_stmt 1 view -0
 1064              		.cfi_startproc
 1065              		@ args = 0, pretend = 0, frame = 0
 1066              		@ frame_needed = 0, uses_anonymous_args = 0
 1067              		@ link register save eliminated.
 521:../../../support/device/gd32f4xx/peripherals/src/gd32f4xx_i2c.c ****     /* configure smubus alert through SMBA pin */
 522:../../../support/device/gd32f4xx/peripherals/src/gd32f4xx_i2c.c ****     uint32_t ctl = 0U;
 1068              		.loc 1 522 5 view .LVU286
 523:../../../support/device/gd32f4xx/peripherals/src/gd32f4xx_i2c.c **** 
 524:../../../support/device/gd32f4xx/peripherals/src/gd32f4xx_i2c.c ****     ctl = I2C_CTL0(i2c_periph);
 1069              		.loc 1 524 5 view .LVU287
 1070              		.loc 1 524 9 is_stmt 0 view .LVU288
 1071 0000 0368     		ldr	r3, [r0]
 1072              	.LVL101:
 525:../../../support/device/gd32f4xx/peripherals/src/gd32f4xx_i2c.c ****     ctl &= ~(I2C_CTL0_SALT);
 1073              		.loc 1 525 5 is_stmt 1 view .LVU289
 1074              		.loc 1 525 9 is_stmt 0 view .LVU290
 1075 0002 23F40053 		bic	r3, r3, #8192
 1076              	.LVL102:
 526:../../../support/device/gd32f4xx/peripherals/src/gd32f4xx_i2c.c ****     ctl |= smbuspara;
 1077              		.loc 1 526 5 is_stmt 1 view .LVU291
 1078              		.loc 1 526 9 is_stmt 0 view .LVU292
 1079 0006 0B43     		orrs	r3, r3, r1
 1080              	.LVL103:
 527:../../../support/device/gd32f4xx/peripherals/src/gd32f4xx_i2c.c ****     I2C_CTL0(i2c_periph) = ctl;
 1081              		.loc 1 527 5 is_stmt 1 view .LVU293
 1082              		.loc 1 527 26 is_stmt 0 view .LVU294
 1083 0008 0360     		str	r3, [r0]
 528:../../../support/device/gd32f4xx/peripherals/src/gd32f4xx_i2c.c **** }
 1084              		.loc 1 528 1 view .LVU295
 1085 000a 7047     		bx	lr
 1086              		.cfi_endproc
 1087              	.LFE139:
 1089              		.section	.text.i2c_smbus_arp_config,"ax",%progbits
 1090              		.align	1
 1091              		.p2align 2,,3
 1092              		.global	i2c_smbus_arp_config
 1093              		.syntax unified
 1094              		.thumb
 1095              		.thumb_func
 1097              	i2c_smbus_arp_config:
 1098              	.LVL104:
 1099              	.LFB140:
 529:../../../support/device/gd32f4xx/peripherals/src/gd32f4xx_i2c.c **** 
 530:../../../support/device/gd32f4xx/peripherals/src/gd32f4xx_i2c.c **** /*!
 531:../../../support/device/gd32f4xx/peripherals/src/gd32f4xx_i2c.c ****     \brief      configure I2C ARP protocol in SMBus
ARM GAS  /var/folders/_f/88qcw_5n2jl40jjphvxyt7wh0000gn/T//ccEFCCaz.s 			page 30


 532:../../../support/device/gd32f4xx/peripherals/src/gd32f4xx_i2c.c ****     \param[in]  i2c_periph: I2Cx(x=0,1,2)
 533:../../../support/device/gd32f4xx/peripherals/src/gd32f4xx_i2c.c ****     \param[in]  arpstate:
 534:../../../support/device/gd32f4xx/peripherals/src/gd32f4xx_i2c.c ****                 only one parameter can be selected which is shown as below:
 535:../../../support/device/gd32f4xx/peripherals/src/gd32f4xx_i2c.c ****       \arg        I2C_ARP_ENABLE: enable ARP
 536:../../../support/device/gd32f4xx/peripherals/src/gd32f4xx_i2c.c ****       \arg        I2C_ARP_DISABLE: disable ARP
 537:../../../support/device/gd32f4xx/peripherals/src/gd32f4xx_i2c.c ****     \param[out] none
 538:../../../support/device/gd32f4xx/peripherals/src/gd32f4xx_i2c.c ****     \retval     none
 539:../../../support/device/gd32f4xx/peripherals/src/gd32f4xx_i2c.c **** */
 540:../../../support/device/gd32f4xx/peripherals/src/gd32f4xx_i2c.c **** void i2c_smbus_arp_config(uint32_t i2c_periph, uint32_t arpstate)
 541:../../../support/device/gd32f4xx/peripherals/src/gd32f4xx_i2c.c **** {
 1100              		.loc 1 541 1 is_stmt 1 view -0
 1101              		.cfi_startproc
 1102              		@ args = 0, pretend = 0, frame = 0
 1103              		@ frame_needed = 0, uses_anonymous_args = 0
 1104              		@ link register save eliminated.
 542:../../../support/device/gd32f4xx/peripherals/src/gd32f4xx_i2c.c ****     /* enable or disable I2C ARP protocol*/
 543:../../../support/device/gd32f4xx/peripherals/src/gd32f4xx_i2c.c ****     uint32_t ctl = 0U;
 1105              		.loc 1 543 5 view .LVU297
 544:../../../support/device/gd32f4xx/peripherals/src/gd32f4xx_i2c.c **** 
 545:../../../support/device/gd32f4xx/peripherals/src/gd32f4xx_i2c.c ****     ctl = I2C_CTL0(i2c_periph);
 1106              		.loc 1 545 5 view .LVU298
 1107              		.loc 1 545 9 is_stmt 0 view .LVU299
 1108 0000 0368     		ldr	r3, [r0]
 1109              	.LVL105:
 546:../../../support/device/gd32f4xx/peripherals/src/gd32f4xx_i2c.c ****     ctl &= ~(I2C_CTL0_ARPEN);
 1110              		.loc 1 546 5 is_stmt 1 view .LVU300
 1111              		.loc 1 546 9 is_stmt 0 view .LVU301
 1112 0002 23F01003 		bic	r3, r3, #16
 1113              	.LVL106:
 547:../../../support/device/gd32f4xx/peripherals/src/gd32f4xx_i2c.c ****     ctl |= arpstate;
 1114              		.loc 1 547 5 is_stmt 1 view .LVU302
 1115              		.loc 1 547 9 is_stmt 0 view .LVU303
 1116 0006 0B43     		orrs	r3, r3, r1
 1117              	.LVL107:
 548:../../../support/device/gd32f4xx/peripherals/src/gd32f4xx_i2c.c ****     I2C_CTL0(i2c_periph) = ctl;
 1118              		.loc 1 548 5 is_stmt 1 view .LVU304
 1119              		.loc 1 548 26 is_stmt 0 view .LVU305
 1120 0008 0360     		str	r3, [r0]
 549:../../../support/device/gd32f4xx/peripherals/src/gd32f4xx_i2c.c **** }
 1121              		.loc 1 549 1 view .LVU306
 1122 000a 7047     		bx	lr
 1123              		.cfi_endproc
 1124              	.LFE140:
 1126              		.section	.text.i2c_analog_noise_filter_disable,"ax",%progbits
 1127              		.align	1
 1128              		.p2align 2,,3
 1129              		.global	i2c_analog_noise_filter_disable
 1130              		.syntax unified
 1131              		.thumb
 1132              		.thumb_func
 1134              	i2c_analog_noise_filter_disable:
 1135              	.LVL108:
 1136              	.LFB141:
 550:../../../support/device/gd32f4xx/peripherals/src/gd32f4xx_i2c.c **** 
 551:../../../support/device/gd32f4xx/peripherals/src/gd32f4xx_i2c.c **** /*!
 552:../../../support/device/gd32f4xx/peripherals/src/gd32f4xx_i2c.c ****     \brief      disable analog noise filter
 553:../../../support/device/gd32f4xx/peripherals/src/gd32f4xx_i2c.c ****     \param[in]  i2c_periph: I2Cx(x=0,1,2)
ARM GAS  /var/folders/_f/88qcw_5n2jl40jjphvxyt7wh0000gn/T//ccEFCCaz.s 			page 31


 554:../../../support/device/gd32f4xx/peripherals/src/gd32f4xx_i2c.c ****     \param[out] none
 555:../../../support/device/gd32f4xx/peripherals/src/gd32f4xx_i2c.c ****     \retval     none
 556:../../../support/device/gd32f4xx/peripherals/src/gd32f4xx_i2c.c **** */
 557:../../../support/device/gd32f4xx/peripherals/src/gd32f4xx_i2c.c **** void i2c_analog_noise_filter_disable(uint32_t i2c_periph)
 558:../../../support/device/gd32f4xx/peripherals/src/gd32f4xx_i2c.c **** {
 1137              		.loc 1 558 1 is_stmt 1 view -0
 1138              		.cfi_startproc
 1139              		@ args = 0, pretend = 0, frame = 0
 1140              		@ frame_needed = 0, uses_anonymous_args = 0
 1141              		@ link register save eliminated.
 559:../../../support/device/gd32f4xx/peripherals/src/gd32f4xx_i2c.c ****     I2C_FCTL(i2c_periph) |= I2C_FCTL_AFD;
 1142              		.loc 1 559 5 view .LVU308
 1143              		.loc 1 559 26 is_stmt 0 view .LVU309
 1144 0000 436A     		ldr	r3, [r0, #36]
 1145 0002 43F01003 		orr	r3, r3, #16
 1146 0006 4362     		str	r3, [r0, #36]
 560:../../../support/device/gd32f4xx/peripherals/src/gd32f4xx_i2c.c **** }
 1147              		.loc 1 560 1 view .LVU310
 1148 0008 7047     		bx	lr
 1149              		.cfi_endproc
 1150              	.LFE141:
 1152 000a 00BF     		.section	.text.i2c_analog_noise_filter_enable,"ax",%progbits
 1153              		.align	1
 1154              		.p2align 2,,3
 1155              		.global	i2c_analog_noise_filter_enable
 1156              		.syntax unified
 1157              		.thumb
 1158              		.thumb_func
 1160              	i2c_analog_noise_filter_enable:
 1161              	.LVL109:
 1162              	.LFB142:
 561:../../../support/device/gd32f4xx/peripherals/src/gd32f4xx_i2c.c **** 
 562:../../../support/device/gd32f4xx/peripherals/src/gd32f4xx_i2c.c **** /*!
 563:../../../support/device/gd32f4xx/peripherals/src/gd32f4xx_i2c.c ****     \brief      enable analog noise filter
 564:../../../support/device/gd32f4xx/peripherals/src/gd32f4xx_i2c.c ****     \param[in]  i2c_periph: I2Cx(x=0,1,2)
 565:../../../support/device/gd32f4xx/peripherals/src/gd32f4xx_i2c.c ****     \param[out] none
 566:../../../support/device/gd32f4xx/peripherals/src/gd32f4xx_i2c.c ****     \retval     none
 567:../../../support/device/gd32f4xx/peripherals/src/gd32f4xx_i2c.c **** */
 568:../../../support/device/gd32f4xx/peripherals/src/gd32f4xx_i2c.c **** void i2c_analog_noise_filter_enable(uint32_t i2c_periph)
 569:../../../support/device/gd32f4xx/peripherals/src/gd32f4xx_i2c.c **** {
 1163              		.loc 1 569 1 is_stmt 1 view -0
 1164              		.cfi_startproc
 1165              		@ args = 0, pretend = 0, frame = 0
 1166              		@ frame_needed = 0, uses_anonymous_args = 0
 1167              		@ link register save eliminated.
 570:../../../support/device/gd32f4xx/peripherals/src/gd32f4xx_i2c.c ****     I2C_FCTL(i2c_periph) &= ~(I2C_FCTL_AFD);
 1168              		.loc 1 570 5 view .LVU312
 1169              		.loc 1 570 26 is_stmt 0 view .LVU313
 1170 0000 436A     		ldr	r3, [r0, #36]
 1171 0002 23F01003 		bic	r3, r3, #16
 1172 0006 4362     		str	r3, [r0, #36]
 571:../../../support/device/gd32f4xx/peripherals/src/gd32f4xx_i2c.c **** }
 1173              		.loc 1 571 1 view .LVU314
 1174 0008 7047     		bx	lr
 1175              		.cfi_endproc
 1176              	.LFE142:
 1178 000a 00BF     		.section	.text.i2c_digital_noise_filter_config,"ax",%progbits
ARM GAS  /var/folders/_f/88qcw_5n2jl40jjphvxyt7wh0000gn/T//ccEFCCaz.s 			page 32


 1179              		.align	1
 1180              		.p2align 2,,3
 1181              		.global	i2c_digital_noise_filter_config
 1182              		.syntax unified
 1183              		.thumb
 1184              		.thumb_func
 1186              	i2c_digital_noise_filter_config:
 1187              	.LVL110:
 1188              	.LFB143:
 572:../../../support/device/gd32f4xx/peripherals/src/gd32f4xx_i2c.c **** 
 573:../../../support/device/gd32f4xx/peripherals/src/gd32f4xx_i2c.c **** /*!
 574:../../../support/device/gd32f4xx/peripherals/src/gd32f4xx_i2c.c ****     \brief      configure digital noise filter
 575:../../../support/device/gd32f4xx/peripherals/src/gd32f4xx_i2c.c ****     \param[in]  i2c_periph: I2Cx(x=0,1,2)
 576:../../../support/device/gd32f4xx/peripherals/src/gd32f4xx_i2c.c ****     \param[in]  dfilterpara: refer to i2c_digital_filter_enum
 577:../../../support/device/gd32f4xx/peripherals/src/gd32f4xx_i2c.c ****                 only one parameter can be selected which is shown as below:
 578:../../../support/device/gd32f4xx/peripherals/src/gd32f4xx_i2c.c ****       \arg        I2C_DF_DISABLE: disable digital noise filter
 579:../../../support/device/gd32f4xx/peripherals/src/gd32f4xx_i2c.c ****       \arg        I2C_DF_1PCLK: enable digital noise filter and the maximum filtered spiker's lengt
 580:../../../support/device/gd32f4xx/peripherals/src/gd32f4xx_i2c.c ****       \arg        I2C_DF_2PCLK: enable digital noise filter and the maximum filtered spiker's lengt
 581:../../../support/device/gd32f4xx/peripherals/src/gd32f4xx_i2c.c ****       \arg        I2C_DF_3PCLK: enable digital noise filter and the maximum filtered spiker's lengt
 582:../../../support/device/gd32f4xx/peripherals/src/gd32f4xx_i2c.c ****       \arg        I2C_DF_4PCLK: enable digital noise filter and the maximum filtered spiker's lengt
 583:../../../support/device/gd32f4xx/peripherals/src/gd32f4xx_i2c.c ****       \arg        I2C_DF_5PCLK: enable digital noise filter and the maximum filtered spiker's lengt
 584:../../../support/device/gd32f4xx/peripherals/src/gd32f4xx_i2c.c ****       \arg        I2C_DF_6PCLK: enable digital noise filter and the maximum filtered spiker's lengt
 585:../../../support/device/gd32f4xx/peripherals/src/gd32f4xx_i2c.c ****       \arg        I2C_DF_7PCLK: enable digital noise filter and the maximum filtered spiker's lengt
 586:../../../support/device/gd32f4xx/peripherals/src/gd32f4xx_i2c.c ****       \arg        I2C_DF_8PCLK: enable digital noise filter and the maximum filtered spiker's lengt
 587:../../../support/device/gd32f4xx/peripherals/src/gd32f4xx_i2c.c ****       \arg        I2C_DF_9PCLK: enable digital noise filter and the maximum filtered spiker's lengt
 588:../../../support/device/gd32f4xx/peripherals/src/gd32f4xx_i2c.c ****       \arg        I2C_DF_10PCLK: enable digital noise filter and the maximum filtered spiker's leng
 589:../../../support/device/gd32f4xx/peripherals/src/gd32f4xx_i2c.c ****       \arg        I2C_DF_11CLK: enable digital noise filter and the maximum filtered spiker's lengt
 590:../../../support/device/gd32f4xx/peripherals/src/gd32f4xx_i2c.c ****       \arg        I2C_DF_12CLK: enable digital noise filter and the maximum filtered spiker's lengt
 591:../../../support/device/gd32f4xx/peripherals/src/gd32f4xx_i2c.c ****       \arg        I2C_DF_13PCLK: enable digital noise filter and the maximum filtered spiker's leng
 592:../../../support/device/gd32f4xx/peripherals/src/gd32f4xx_i2c.c ****       \arg        I2C_DF_14PCLK: enable digital noise filter and the maximum filtered spiker's leng
 593:../../../support/device/gd32f4xx/peripherals/src/gd32f4xx_i2c.c ****       \arg        I2C_DF_15PCLK: enable digital noise filter and the maximum filtered spiker's leng
 594:../../../support/device/gd32f4xx/peripherals/src/gd32f4xx_i2c.c ****     \param[out] none
 595:../../../support/device/gd32f4xx/peripherals/src/gd32f4xx_i2c.c ****     \retval     none
 596:../../../support/device/gd32f4xx/peripherals/src/gd32f4xx_i2c.c **** */
 597:../../../support/device/gd32f4xx/peripherals/src/gd32f4xx_i2c.c **** void i2c_digital_noise_filter_config(uint32_t i2c_periph, i2c_digital_filter_enum dfilterpara)
 598:../../../support/device/gd32f4xx/peripherals/src/gd32f4xx_i2c.c **** {
 1189              		.loc 1 598 1 is_stmt 1 view -0
 1190              		.cfi_startproc
 1191              		@ args = 0, pretend = 0, frame = 0
 1192              		@ frame_needed = 0, uses_anonymous_args = 0
 1193              		@ link register save eliminated.
 599:../../../support/device/gd32f4xx/peripherals/src/gd32f4xx_i2c.c ****     I2C_FCTL(i2c_periph) |= dfilterpara;
 1194              		.loc 1 599 5 view .LVU316
 1195              		.loc 1 599 26 is_stmt 0 view .LVU317
 1196 0000 436A     		ldr	r3, [r0, #36]
 1197 0002 1943     		orrs	r1, r1, r3
 1198              	.LVL111:
 1199              		.loc 1 599 26 view .LVU318
 1200 0004 4162     		str	r1, [r0, #36]
 600:../../../support/device/gd32f4xx/peripherals/src/gd32f4xx_i2c.c **** }
 1201              		.loc 1 600 1 view .LVU319
 1202 0006 7047     		bx	lr
 1203              		.cfi_endproc
 1204              	.LFE143:
 1206              		.section	.text.i2c_sam_enable,"ax",%progbits
 1207              		.align	1
 1208              		.p2align 2,,3
ARM GAS  /var/folders/_f/88qcw_5n2jl40jjphvxyt7wh0000gn/T//ccEFCCaz.s 			page 33


 1209              		.global	i2c_sam_enable
 1210              		.syntax unified
 1211              		.thumb
 1212              		.thumb_func
 1214              	i2c_sam_enable:
 1215              	.LVL112:
 1216              	.LFB144:
 601:../../../support/device/gd32f4xx/peripherals/src/gd32f4xx_i2c.c **** 
 602:../../../support/device/gd32f4xx/peripherals/src/gd32f4xx_i2c.c **** /*!
 603:../../../support/device/gd32f4xx/peripherals/src/gd32f4xx_i2c.c ****     \brief      enable SAM_V interface
 604:../../../support/device/gd32f4xx/peripherals/src/gd32f4xx_i2c.c ****     \param[in]  i2c_periph: I2Cx(x=0,1,2)
 605:../../../support/device/gd32f4xx/peripherals/src/gd32f4xx_i2c.c ****     \param[out] none
 606:../../../support/device/gd32f4xx/peripherals/src/gd32f4xx_i2c.c ****     \retval     none
 607:../../../support/device/gd32f4xx/peripherals/src/gd32f4xx_i2c.c **** */
 608:../../../support/device/gd32f4xx/peripherals/src/gd32f4xx_i2c.c **** void i2c_sam_enable(uint32_t i2c_periph)
 609:../../../support/device/gd32f4xx/peripherals/src/gd32f4xx_i2c.c **** {
 1217              		.loc 1 609 1 is_stmt 1 view -0
 1218              		.cfi_startproc
 1219              		@ args = 0, pretend = 0, frame = 0
 1220              		@ frame_needed = 0, uses_anonymous_args = 0
 1221              		@ link register save eliminated.
 610:../../../support/device/gd32f4xx/peripherals/src/gd32f4xx_i2c.c ****     I2C_SAMCS(i2c_periph) |= I2C_SAMCS_SAMEN;
 1222              		.loc 1 610 5 view .LVU321
 1223              		.loc 1 610 27 is_stmt 0 view .LVU322
 1224 0000 D0F88030 		ldr	r3, [r0, #128]
 1225 0004 43F00103 		orr	r3, r3, #1
 1226 0008 C0F88030 		str	r3, [r0, #128]
 611:../../../support/device/gd32f4xx/peripherals/src/gd32f4xx_i2c.c **** }
 1227              		.loc 1 611 1 view .LVU323
 1228 000c 7047     		bx	lr
 1229              		.cfi_endproc
 1230              	.LFE144:
 1232 000e 00BF     		.section	.text.i2c_sam_disable,"ax",%progbits
 1233              		.align	1
 1234              		.p2align 2,,3
 1235              		.global	i2c_sam_disable
 1236              		.syntax unified
 1237              		.thumb
 1238              		.thumb_func
 1240              	i2c_sam_disable:
 1241              	.LVL113:
 1242              	.LFB145:
 612:../../../support/device/gd32f4xx/peripherals/src/gd32f4xx_i2c.c **** 
 613:../../../support/device/gd32f4xx/peripherals/src/gd32f4xx_i2c.c **** /*!
 614:../../../support/device/gd32f4xx/peripherals/src/gd32f4xx_i2c.c ****     \brief      disable SAM_V interface
 615:../../../support/device/gd32f4xx/peripherals/src/gd32f4xx_i2c.c ****     \param[in]  i2c_periph: I2Cx(x=0,1,2)
 616:../../../support/device/gd32f4xx/peripherals/src/gd32f4xx_i2c.c ****     \param[out] none
 617:../../../support/device/gd32f4xx/peripherals/src/gd32f4xx_i2c.c ****     \retval     none
 618:../../../support/device/gd32f4xx/peripherals/src/gd32f4xx_i2c.c **** */
 619:../../../support/device/gd32f4xx/peripherals/src/gd32f4xx_i2c.c **** void i2c_sam_disable(uint32_t i2c_periph)
 620:../../../support/device/gd32f4xx/peripherals/src/gd32f4xx_i2c.c **** {
 1243              		.loc 1 620 1 is_stmt 1 view -0
 1244              		.cfi_startproc
 1245              		@ args = 0, pretend = 0, frame = 0
 1246              		@ frame_needed = 0, uses_anonymous_args = 0
 1247              		@ link register save eliminated.
 621:../../../support/device/gd32f4xx/peripherals/src/gd32f4xx_i2c.c ****     I2C_SAMCS(i2c_periph) &= ~(I2C_SAMCS_SAMEN);
ARM GAS  /var/folders/_f/88qcw_5n2jl40jjphvxyt7wh0000gn/T//ccEFCCaz.s 			page 34


 1248              		.loc 1 621 5 view .LVU325
 1249              		.loc 1 621 27 is_stmt 0 view .LVU326
 1250 0000 D0F88030 		ldr	r3, [r0, #128]
 1251 0004 23F00103 		bic	r3, r3, #1
 1252 0008 C0F88030 		str	r3, [r0, #128]
 622:../../../support/device/gd32f4xx/peripherals/src/gd32f4xx_i2c.c **** }
 1253              		.loc 1 622 1 view .LVU327
 1254 000c 7047     		bx	lr
 1255              		.cfi_endproc
 1256              	.LFE145:
 1258 000e 00BF     		.section	.text.i2c_sam_timeout_enable,"ax",%progbits
 1259              		.align	1
 1260              		.p2align 2,,3
 1261              		.global	i2c_sam_timeout_enable
 1262              		.syntax unified
 1263              		.thumb
 1264              		.thumb_func
 1266              	i2c_sam_timeout_enable:
 1267              	.LVL114:
 1268              	.LFB146:
 623:../../../support/device/gd32f4xx/peripherals/src/gd32f4xx_i2c.c **** 
 624:../../../support/device/gd32f4xx/peripherals/src/gd32f4xx_i2c.c **** /*!
 625:../../../support/device/gd32f4xx/peripherals/src/gd32f4xx_i2c.c ****     \brief      enable SAM_V interface timeout detect
 626:../../../support/device/gd32f4xx/peripherals/src/gd32f4xx_i2c.c ****     \param[in]  i2c_periph: I2Cx(x=0,1,2)
 627:../../../support/device/gd32f4xx/peripherals/src/gd32f4xx_i2c.c ****     \param[out] none
 628:../../../support/device/gd32f4xx/peripherals/src/gd32f4xx_i2c.c ****     \retval     none
 629:../../../support/device/gd32f4xx/peripherals/src/gd32f4xx_i2c.c **** */
 630:../../../support/device/gd32f4xx/peripherals/src/gd32f4xx_i2c.c **** void i2c_sam_timeout_enable(uint32_t i2c_periph)
 631:../../../support/device/gd32f4xx/peripherals/src/gd32f4xx_i2c.c **** {
 1269              		.loc 1 631 1 is_stmt 1 view -0
 1270              		.cfi_startproc
 1271              		@ args = 0, pretend = 0, frame = 0
 1272              		@ frame_needed = 0, uses_anonymous_args = 0
 1273              		@ link register save eliminated.
 632:../../../support/device/gd32f4xx/peripherals/src/gd32f4xx_i2c.c ****     I2C_SAMCS(i2c_periph) |= I2C_SAMCS_STOEN;
 1274              		.loc 1 632 5 view .LVU329
 1275              		.loc 1 632 27 is_stmt 0 view .LVU330
 1276 0000 D0F88030 		ldr	r3, [r0, #128]
 1277 0004 43F00203 		orr	r3, r3, #2
 1278 0008 C0F88030 		str	r3, [r0, #128]
 633:../../../support/device/gd32f4xx/peripherals/src/gd32f4xx_i2c.c **** }
 1279              		.loc 1 633 1 view .LVU331
 1280 000c 7047     		bx	lr
 1281              		.cfi_endproc
 1282              	.LFE146:
 1284 000e 00BF     		.section	.text.i2c_sam_timeout_disable,"ax",%progbits
 1285              		.align	1
 1286              		.p2align 2,,3
 1287              		.global	i2c_sam_timeout_disable
 1288              		.syntax unified
 1289              		.thumb
 1290              		.thumb_func
 1292              	i2c_sam_timeout_disable:
 1293              	.LVL115:
 1294              	.LFB147:
 634:../../../support/device/gd32f4xx/peripherals/src/gd32f4xx_i2c.c **** 
 635:../../../support/device/gd32f4xx/peripherals/src/gd32f4xx_i2c.c **** /*!
ARM GAS  /var/folders/_f/88qcw_5n2jl40jjphvxyt7wh0000gn/T//ccEFCCaz.s 			page 35


 636:../../../support/device/gd32f4xx/peripherals/src/gd32f4xx_i2c.c ****     \brief      disable SAM_V interface timeout detect
 637:../../../support/device/gd32f4xx/peripherals/src/gd32f4xx_i2c.c ****     \param[in]  i2c_periph: I2Cx(x=0,1,2)
 638:../../../support/device/gd32f4xx/peripherals/src/gd32f4xx_i2c.c ****     \param[out] none
 639:../../../support/device/gd32f4xx/peripherals/src/gd32f4xx_i2c.c ****     \retval     none
 640:../../../support/device/gd32f4xx/peripherals/src/gd32f4xx_i2c.c **** */
 641:../../../support/device/gd32f4xx/peripherals/src/gd32f4xx_i2c.c **** void i2c_sam_timeout_disable(uint32_t i2c_periph)
 642:../../../support/device/gd32f4xx/peripherals/src/gd32f4xx_i2c.c **** {
 1295              		.loc 1 642 1 is_stmt 1 view -0
 1296              		.cfi_startproc
 1297              		@ args = 0, pretend = 0, frame = 0
 1298              		@ frame_needed = 0, uses_anonymous_args = 0
 1299              		@ link register save eliminated.
 643:../../../support/device/gd32f4xx/peripherals/src/gd32f4xx_i2c.c ****     I2C_SAMCS(i2c_periph) &= ~(I2C_SAMCS_STOEN);
 1300              		.loc 1 643 5 view .LVU333
 1301              		.loc 1 643 27 is_stmt 0 view .LVU334
 1302 0000 D0F88030 		ldr	r3, [r0, #128]
 1303 0004 23F00203 		bic	r3, r3, #2
 1304 0008 C0F88030 		str	r3, [r0, #128]
 644:../../../support/device/gd32f4xx/peripherals/src/gd32f4xx_i2c.c **** }
 1305              		.loc 1 644 1 view .LVU335
 1306 000c 7047     		bx	lr
 1307              		.cfi_endproc
 1308              	.LFE147:
 1310 000e 00BF     		.section	.text.i2c_flag_get,"ax",%progbits
 1311              		.align	1
 1312              		.p2align 2,,3
 1313              		.global	i2c_flag_get
 1314              		.syntax unified
 1315              		.thumb
 1316              		.thumb_func
 1318              	i2c_flag_get:
 1319              	.LVL116:
 1320              	.LFB148:
 645:../../../support/device/gd32f4xx/peripherals/src/gd32f4xx_i2c.c **** 
 646:../../../support/device/gd32f4xx/peripherals/src/gd32f4xx_i2c.c **** /*!
 647:../../../support/device/gd32f4xx/peripherals/src/gd32f4xx_i2c.c ****     \brief      get I2C flag status
 648:../../../support/device/gd32f4xx/peripherals/src/gd32f4xx_i2c.c ****     \param[in]  i2c_periph: I2Cx(x=0,1,2)
 649:../../../support/device/gd32f4xx/peripherals/src/gd32f4xx_i2c.c ****     \param[in]  flag: I2C flags, refer to i2c_flag_enum
 650:../../../support/device/gd32f4xx/peripherals/src/gd32f4xx_i2c.c ****                 only one parameter can be selected which is shown as below:
 651:../../../support/device/gd32f4xx/peripherals/src/gd32f4xx_i2c.c ****       \arg        I2C_FLAG_SBSEND: start condition sent out in master mode
 652:../../../support/device/gd32f4xx/peripherals/src/gd32f4xx_i2c.c ****       \arg        I2C_FLAG_ADDSEND: address is sent in master mode or received and matches in slave
 653:../../../support/device/gd32f4xx/peripherals/src/gd32f4xx_i2c.c ****       \arg        I2C_FLAG_BTC: byte transmission finishes
 654:../../../support/device/gd32f4xx/peripherals/src/gd32f4xx_i2c.c ****       \arg        I2C_FLAG_ADD10SEND: header of 10-bit address is sent in master mode
 655:../../../support/device/gd32f4xx/peripherals/src/gd32f4xx_i2c.c ****       \arg        I2C_FLAG_STPDET: stop condition detected in slave mode
 656:../../../support/device/gd32f4xx/peripherals/src/gd32f4xx_i2c.c ****       \arg        I2C_FLAG_RBNE: I2C_DATA is not empty during receiving
 657:../../../support/device/gd32f4xx/peripherals/src/gd32f4xx_i2c.c ****       \arg        I2C_FLAG_TBE: I2C_DATA is empty during transmitting
 658:../../../support/device/gd32f4xx/peripherals/src/gd32f4xx_i2c.c ****       \arg        I2C_FLAG_BERR: a bus error occurs indication a unexpected start or stop condition
 659:../../../support/device/gd32f4xx/peripherals/src/gd32f4xx_i2c.c ****       \arg        I2C_FLAG_LOSTARB: arbitration lost in master mode
 660:../../../support/device/gd32f4xx/peripherals/src/gd32f4xx_i2c.c ****       \arg        I2C_FLAG_AERR: acknowledge error
 661:../../../support/device/gd32f4xx/peripherals/src/gd32f4xx_i2c.c ****       \arg        I2C_FLAG_OUERR: over-run or under-run situation occurs in slave mode
 662:../../../support/device/gd32f4xx/peripherals/src/gd32f4xx_i2c.c ****       \arg        I2C_FLAG_PECERR: PEC error when receiving data
 663:../../../support/device/gd32f4xx/peripherals/src/gd32f4xx_i2c.c ****       \arg        I2C_FLAG_SMBTO: timeout signal in SMBus mode
 664:../../../support/device/gd32f4xx/peripherals/src/gd32f4xx_i2c.c ****       \arg        I2C_FLAG_SMBALT: SMBus alert status
 665:../../../support/device/gd32f4xx/peripherals/src/gd32f4xx_i2c.c ****       \arg        I2C_FLAG_MASTER: a flag indicating whether I2C block is in master or slave mode
 666:../../../support/device/gd32f4xx/peripherals/src/gd32f4xx_i2c.c ****       \arg        I2C_FLAG_I2CBSY: busy flag
 667:../../../support/device/gd32f4xx/peripherals/src/gd32f4xx_i2c.c ****       \arg        I2C_FLAG_TR: whether the I2C is a transmitter or a receiver
 668:../../../support/device/gd32f4xx/peripherals/src/gd32f4xx_i2c.c ****       \arg        I2C_FLAG_RXGC: general call address (00h) received
ARM GAS  /var/folders/_f/88qcw_5n2jl40jjphvxyt7wh0000gn/T//ccEFCCaz.s 			page 36


 669:../../../support/device/gd32f4xx/peripherals/src/gd32f4xx_i2c.c ****       \arg        I2C_FLAG_DEFSMB: default address of SMBus device
 670:../../../support/device/gd32f4xx/peripherals/src/gd32f4xx_i2c.c ****       \arg        I2C_FLAG_HSTSMB: SMBus host header detected in slave mode
 671:../../../support/device/gd32f4xx/peripherals/src/gd32f4xx_i2c.c ****       \arg        I2C_FLAG_DUMOD: dual flag in slave mode indicating which address is matched in du
 672:../../../support/device/gd32f4xx/peripherals/src/gd32f4xx_i2c.c ****       \arg        I2C_FLAG_TFF: txframe fall flag
 673:../../../support/device/gd32f4xx/peripherals/src/gd32f4xx_i2c.c ****       \arg        I2C_FLAG_TFR: txframe rise flag
 674:../../../support/device/gd32f4xx/peripherals/src/gd32f4xx_i2c.c ****       \arg        I2C_FLAG_RFF: rxframe fall flag
 675:../../../support/device/gd32f4xx/peripherals/src/gd32f4xx_i2c.c ****       \arg        I2C_FLAG_RFR: rxframe rise flag
 676:../../../support/device/gd32f4xx/peripherals/src/gd32f4xx_i2c.c ****     \param[out] none
 677:../../../support/device/gd32f4xx/peripherals/src/gd32f4xx_i2c.c ****     \retval     FlagStatus: SET or RESET
 678:../../../support/device/gd32f4xx/peripherals/src/gd32f4xx_i2c.c **** */
 679:../../../support/device/gd32f4xx/peripherals/src/gd32f4xx_i2c.c **** FlagStatus i2c_flag_get(uint32_t i2c_periph, i2c_flag_enum flag)
 680:../../../support/device/gd32f4xx/peripherals/src/gd32f4xx_i2c.c **** {
 1321              		.loc 1 680 1 is_stmt 1 view -0
 1322              		.cfi_startproc
 1323              		@ args = 0, pretend = 0, frame = 0
 1324              		@ frame_needed = 0, uses_anonymous_args = 0
 1325              		@ link register save eliminated.
 681:../../../support/device/gd32f4xx/peripherals/src/gd32f4xx_i2c.c ****     if(RESET != (I2C_REG_VAL(i2c_periph, flag) & BIT(I2C_BIT_POS(flag)))) {
 1326              		.loc 1 681 5 view .LVU337
 1327              		.loc 1 681 18 is_stmt 0 view .LVU338
 1328 0000 8B09     		lsrs	r3, r1, #6
 1329              		.loc 1 681 50 view .LVU339
 1330 0002 01F01F01 		and	r1, r1, #31
 1331              	.LVL117:
 1332              		.loc 1 681 18 view .LVU340
 1333 0006 1858     		ldr	r0, [r3, r0]
 1334              	.LVL118:
 1335              		.loc 1 681 14 view .LVU341
 1336 0008 C840     		lsrs	r0, r0, r1
 682:../../../support/device/gd32f4xx/peripherals/src/gd32f4xx_i2c.c ****         return SET;
 683:../../../support/device/gd32f4xx/peripherals/src/gd32f4xx_i2c.c ****     } else {
 684:../../../support/device/gd32f4xx/peripherals/src/gd32f4xx_i2c.c ****         return RESET;
 685:../../../support/device/gd32f4xx/peripherals/src/gd32f4xx_i2c.c ****     }
 686:../../../support/device/gd32f4xx/peripherals/src/gd32f4xx_i2c.c **** }
 1337              		.loc 1 686 1 view .LVU342
 1338 000a 00F00100 		and	r0, r0, #1
 1339 000e 7047     		bx	lr
 1340              		.cfi_endproc
 1341              	.LFE148:
 1343              		.section	.text.i2c_flag_clear,"ax",%progbits
 1344              		.align	1
 1345              		.p2align 2,,3
 1346              		.global	i2c_flag_clear
 1347              		.syntax unified
 1348              		.thumb
 1349              		.thumb_func
 1351              	i2c_flag_clear:
 1352              	.LVL119:
 1353              	.LFB149:
 687:../../../support/device/gd32f4xx/peripherals/src/gd32f4xx_i2c.c **** 
 688:../../../support/device/gd32f4xx/peripherals/src/gd32f4xx_i2c.c **** /*!
 689:../../../support/device/gd32f4xx/peripherals/src/gd32f4xx_i2c.c ****     \brief      clear I2C flag status
 690:../../../support/device/gd32f4xx/peripherals/src/gd32f4xx_i2c.c ****     \param[in]  i2c_periph: I2Cx(x=0,1,2)
 691:../../../support/device/gd32f4xx/peripherals/src/gd32f4xx_i2c.c ****     \param[in]  flag: I2C flags, refer to i2c_flag_enum
 692:../../../support/device/gd32f4xx/peripherals/src/gd32f4xx_i2c.c ****                 only one parameter can be selected which is shown as below:
 693:../../../support/device/gd32f4xx/peripherals/src/gd32f4xx_i2c.c ****       \arg       I2C_FLAG_SMBALT: SMBus alert status
 694:../../../support/device/gd32f4xx/peripherals/src/gd32f4xx_i2c.c ****       \arg       I2C_FLAG_SMBTO: timeout signal in SMBus mode
ARM GAS  /var/folders/_f/88qcw_5n2jl40jjphvxyt7wh0000gn/T//ccEFCCaz.s 			page 37


 695:../../../support/device/gd32f4xx/peripherals/src/gd32f4xx_i2c.c ****       \arg       I2C_FLAG_PECERR: PEC error when receiving data
 696:../../../support/device/gd32f4xx/peripherals/src/gd32f4xx_i2c.c ****       \arg       I2C_FLAG_OUERR: over-run or under-run situation occurs in slave mode
 697:../../../support/device/gd32f4xx/peripherals/src/gd32f4xx_i2c.c ****       \arg       I2C_FLAG_AERR: acknowledge error
 698:../../../support/device/gd32f4xx/peripherals/src/gd32f4xx_i2c.c ****       \arg       I2C_FLAG_LOSTARB: arbitration lost in master mode
 699:../../../support/device/gd32f4xx/peripherals/src/gd32f4xx_i2c.c ****       \arg       I2C_FLAG_BERR: a bus error occurs indication a unexpected start or stop condition 
 700:../../../support/device/gd32f4xx/peripherals/src/gd32f4xx_i2c.c ****       \arg       I2C_FLAG_ADDSEND: address is sent in master mode or received and matches in slave 
 701:../../../support/device/gd32f4xx/peripherals/src/gd32f4xx_i2c.c ****       \arg       I2C_FLAG_TFF: txframe fall flag
 702:../../../support/device/gd32f4xx/peripherals/src/gd32f4xx_i2c.c ****       \arg       I2C_FLAG_TFR: txframe rise flag
 703:../../../support/device/gd32f4xx/peripherals/src/gd32f4xx_i2c.c ****       \arg       I2C_FLAG_RFF: rxframe fall flag
 704:../../../support/device/gd32f4xx/peripherals/src/gd32f4xx_i2c.c ****       \arg       I2C_FLAG_RFR: rxframe rise flag
 705:../../../support/device/gd32f4xx/peripherals/src/gd32f4xx_i2c.c ****     \param[out] none
 706:../../../support/device/gd32f4xx/peripherals/src/gd32f4xx_i2c.c ****     \retval     none
 707:../../../support/device/gd32f4xx/peripherals/src/gd32f4xx_i2c.c **** */
 708:../../../support/device/gd32f4xx/peripherals/src/gd32f4xx_i2c.c **** void i2c_flag_clear(uint32_t i2c_periph, i2c_flag_enum flag)
 709:../../../support/device/gd32f4xx/peripherals/src/gd32f4xx_i2c.c **** {
 1354              		.loc 1 709 1 is_stmt 1 view -0
 1355              		.cfi_startproc
 1356              		@ args = 0, pretend = 0, frame = 0
 1357              		@ frame_needed = 0, uses_anonymous_args = 0
 1358              		@ link register save eliminated.
 710:../../../support/device/gd32f4xx/peripherals/src/gd32f4xx_i2c.c ****     if(I2C_FLAG_ADDSEND == flag) {
 1359              		.loc 1 710 5 view .LVU344
 1360              		.loc 1 710 7 is_stmt 0 view .LVU345
 1361 0000 40F20153 		movw	r3, #1281
 1362 0004 9942     		cmp	r1, r3
 1363 0006 0DD0     		beq	.L64
 711:../../../support/device/gd32f4xx/peripherals/src/gd32f4xx_i2c.c ****         /* read I2C_STAT0 and then read I2C_STAT1 to clear ADDSEND */
 712:../../../support/device/gd32f4xx/peripherals/src/gd32f4xx_i2c.c ****         I2C_STAT0(i2c_periph);
 713:../../../support/device/gd32f4xx/peripherals/src/gd32f4xx_i2c.c ****         I2C_STAT1(i2c_periph);
 714:../../../support/device/gd32f4xx/peripherals/src/gd32f4xx_i2c.c ****     } else {
 715:../../../support/device/gd32f4xx/peripherals/src/gd32f4xx_i2c.c ****         I2C_REG_VAL(i2c_periph, flag) &= ~BIT(I2C_BIT_POS(flag));
 1364              		.loc 1 715 9 is_stmt 1 view .LVU346
 1365              		.loc 1 715 39 is_stmt 0 view .LVU347
 1366 0008 4FEA911C 		lsr	ip, r1, #6
 1367              		.loc 1 715 43 view .LVU348
 1368 000c 0122     		movs	r2, #1
 1369              		.loc 1 715 39 view .LVU349
 1370 000e 5CF80030 		ldr	r3, [ip, r0]
 1371              		.loc 1 715 43 view .LVU350
 1372 0012 01F01F01 		and	r1, r1, #31
 1373              	.LVL120:
 1374              		.loc 1 715 43 view .LVU351
 1375 0016 02FA01F1 		lsl	r1, r2, r1
 1376              		.loc 1 715 39 view .LVU352
 1377 001a 23EA0101 		bic	r1, r3, r1
 1378 001e 4CF80010 		str	r1, [ip, r0]
 716:../../../support/device/gd32f4xx/peripherals/src/gd32f4xx_i2c.c ****     }
 717:../../../support/device/gd32f4xx/peripherals/src/gd32f4xx_i2c.c **** }
 1379              		.loc 1 717 1 view .LVU353
 1380 0022 7047     		bx	lr
 1381              	.LVL121:
 1382              	.L64:
 712:../../../support/device/gd32f4xx/peripherals/src/gd32f4xx_i2c.c ****         I2C_STAT1(i2c_periph);
 1383              		.loc 1 712 9 is_stmt 1 view .LVU354
 1384 0024 4369     		ldr	r3, [r0, #20]
 713:../../../support/device/gd32f4xx/peripherals/src/gd32f4xx_i2c.c ****     } else {
 1385              		.loc 1 713 9 view .LVU355
ARM GAS  /var/folders/_f/88qcw_5n2jl40jjphvxyt7wh0000gn/T//ccEFCCaz.s 			page 38


 1386 0026 8369     		ldr	r3, [r0, #24]
 1387 0028 7047     		bx	lr
 1388              		.cfi_endproc
 1389              	.LFE149:
 1391 002a 00BF     		.section	.text.i2c_interrupt_enable,"ax",%progbits
 1392              		.align	1
 1393              		.p2align 2,,3
 1394              		.global	i2c_interrupt_enable
 1395              		.syntax unified
 1396              		.thumb
 1397              		.thumb_func
 1399              	i2c_interrupt_enable:
 1400              	.LVL122:
 1401              	.LFB150:
 718:../../../support/device/gd32f4xx/peripherals/src/gd32f4xx_i2c.c **** 
 719:../../../support/device/gd32f4xx/peripherals/src/gd32f4xx_i2c.c **** /*!
 720:../../../support/device/gd32f4xx/peripherals/src/gd32f4xx_i2c.c ****     \brief      enable I2C interrupt
 721:../../../support/device/gd32f4xx/peripherals/src/gd32f4xx_i2c.c ****     \param[in]  i2c_periph: I2Cx(x=0,1,2)
 722:../../../support/device/gd32f4xx/peripherals/src/gd32f4xx_i2c.c ****     \param[in]  interrupt: I2C interrupts, refer to i2c_interrupt_enum
 723:../../../support/device/gd32f4xx/peripherals/src/gd32f4xx_i2c.c ****                 only one parameter can be selected which is shown as below:
 724:../../../support/device/gd32f4xx/peripherals/src/gd32f4xx_i2c.c ****       \arg        I2C_INT_ERR: error interrupt
 725:../../../support/device/gd32f4xx/peripherals/src/gd32f4xx_i2c.c ****       \arg        I2C_INT_EV: event interrupt
 726:../../../support/device/gd32f4xx/peripherals/src/gd32f4xx_i2c.c ****       \arg        I2C_INT_BUF: buffer interrupt
 727:../../../support/device/gd32f4xx/peripherals/src/gd32f4xx_i2c.c ****       \arg        I2C_INT_TFF: txframe fall interrupt
 728:../../../support/device/gd32f4xx/peripherals/src/gd32f4xx_i2c.c ****       \arg        I2C_INT_TFR: txframe rise interrupt
 729:../../../support/device/gd32f4xx/peripherals/src/gd32f4xx_i2c.c ****       \arg        I2C_INT_RFF: rxframe fall interrupt
 730:../../../support/device/gd32f4xx/peripherals/src/gd32f4xx_i2c.c ****       \arg        I2C_INT_RFR: rxframe rise interrupt
 731:../../../support/device/gd32f4xx/peripherals/src/gd32f4xx_i2c.c ****     \param[out] none
 732:../../../support/device/gd32f4xx/peripherals/src/gd32f4xx_i2c.c ****     \retval     none
 733:../../../support/device/gd32f4xx/peripherals/src/gd32f4xx_i2c.c **** */
 734:../../../support/device/gd32f4xx/peripherals/src/gd32f4xx_i2c.c **** void i2c_interrupt_enable(uint32_t i2c_periph, i2c_interrupt_enum interrupt)
 735:../../../support/device/gd32f4xx/peripherals/src/gd32f4xx_i2c.c **** {
 1402              		.loc 1 735 1 view -0
 1403              		.cfi_startproc
 1404              		@ args = 0, pretend = 0, frame = 0
 1405              		@ frame_needed = 0, uses_anonymous_args = 0
 1406              		@ link register save eliminated.
 736:../../../support/device/gd32f4xx/peripherals/src/gd32f4xx_i2c.c ****     I2C_REG_VAL(i2c_periph, interrupt) |= BIT(I2C_BIT_POS(interrupt));
 1407              		.loc 1 736 5 view .LVU357
 1408              		.loc 1 736 40 is_stmt 0 view .LVU358
 1409 0000 8A09     		lsrs	r2, r1, #6
 735:../../../support/device/gd32f4xx/peripherals/src/gd32f4xx_i2c.c ****     I2C_REG_VAL(i2c_periph, interrupt) |= BIT(I2C_BIT_POS(interrupt));
 1410              		.loc 1 735 1 view .LVU359
 1411 0002 10B4     		push	{r4}
 1412              	.LCFI9:
 1413              		.cfi_def_cfa_offset 4
 1414              		.cfi_offset 4, -4
 1415              		.loc 1 736 43 view .LVU360
 1416 0004 01F01F01 		and	r1, r1, #31
 1417              	.LVL123:
 1418              		.loc 1 736 40 view .LVU361
 1419 0008 1458     		ldr	r4, [r2, r0]
 1420              		.loc 1 736 43 view .LVU362
 1421 000a 0123     		movs	r3, #1
 1422 000c 03FA01F1 		lsl	r1, r3, r1
 1423              		.loc 1 736 40 view .LVU363
 1424 0010 2143     		orrs	r1, r1, r4
ARM GAS  /var/folders/_f/88qcw_5n2jl40jjphvxyt7wh0000gn/T//ccEFCCaz.s 			page 39


 1425 0012 1150     		str	r1, [r2, r0]
 737:../../../support/device/gd32f4xx/peripherals/src/gd32f4xx_i2c.c **** }
 1426              		.loc 1 737 1 view .LVU364
 1427 0014 10BC     		pop	{r4}
 1428              	.LCFI10:
 1429              		.cfi_restore 4
 1430              		.cfi_def_cfa_offset 0
 1431 0016 7047     		bx	lr
 1432              		.cfi_endproc
 1433              	.LFE150:
 1435              		.section	.text.i2c_interrupt_disable,"ax",%progbits
 1436              		.align	1
 1437              		.p2align 2,,3
 1438              		.global	i2c_interrupt_disable
 1439              		.syntax unified
 1440              		.thumb
 1441              		.thumb_func
 1443              	i2c_interrupt_disable:
 1444              	.LVL124:
 1445              	.LFB151:
 738:../../../support/device/gd32f4xx/peripherals/src/gd32f4xx_i2c.c **** 
 739:../../../support/device/gd32f4xx/peripherals/src/gd32f4xx_i2c.c **** /*!
 740:../../../support/device/gd32f4xx/peripherals/src/gd32f4xx_i2c.c ****     \brief      disable I2C interrupt
 741:../../../support/device/gd32f4xx/peripherals/src/gd32f4xx_i2c.c ****     \param[in]  i2c_periph: I2Cx(x=0,1,2)
 742:../../../support/device/gd32f4xx/peripherals/src/gd32f4xx_i2c.c ****     \param[in]  interrupt: I2C interrupts, refer to i2c_interrupt_enum
 743:../../../support/device/gd32f4xx/peripherals/src/gd32f4xx_i2c.c ****                 only one parameter can be selected which is shown as below:
 744:../../../support/device/gd32f4xx/peripherals/src/gd32f4xx_i2c.c ****       \arg        I2C_INT_ERR: error interrupt
 745:../../../support/device/gd32f4xx/peripherals/src/gd32f4xx_i2c.c ****       \arg        I2C_INT_EV: event interrupt
 746:../../../support/device/gd32f4xx/peripherals/src/gd32f4xx_i2c.c ****       \arg        I2C_INT_BUF: buffer interrupt
 747:../../../support/device/gd32f4xx/peripherals/src/gd32f4xx_i2c.c ****       \arg        I2C_INT_TFF: txframe fall interrupt
 748:../../../support/device/gd32f4xx/peripherals/src/gd32f4xx_i2c.c ****       \arg        I2C_INT_TFR: txframe rise interrupt
 749:../../../support/device/gd32f4xx/peripherals/src/gd32f4xx_i2c.c ****       \arg        I2C_INT_RFF: rxframe fall interrupt
 750:../../../support/device/gd32f4xx/peripherals/src/gd32f4xx_i2c.c ****       \arg        I2C_INT_RFR: rxframe rise interrupt
 751:../../../support/device/gd32f4xx/peripherals/src/gd32f4xx_i2c.c ****     \param[out] none
 752:../../../support/device/gd32f4xx/peripherals/src/gd32f4xx_i2c.c ****     \retval     none
 753:../../../support/device/gd32f4xx/peripherals/src/gd32f4xx_i2c.c **** */
 754:../../../support/device/gd32f4xx/peripherals/src/gd32f4xx_i2c.c **** void i2c_interrupt_disable(uint32_t i2c_periph, i2c_interrupt_enum interrupt)
 755:../../../support/device/gd32f4xx/peripherals/src/gd32f4xx_i2c.c **** {
 1446              		.loc 1 755 1 is_stmt 1 view -0
 1447              		.cfi_startproc
 1448              		@ args = 0, pretend = 0, frame = 0
 1449              		@ frame_needed = 0, uses_anonymous_args = 0
 1450              		@ link register save eliminated.
 756:../../../support/device/gd32f4xx/peripherals/src/gd32f4xx_i2c.c ****     I2C_REG_VAL(i2c_periph, interrupt) &= ~BIT(I2C_BIT_POS(interrupt));
 1451              		.loc 1 756 5 view .LVU366
 1452              		.loc 1 756 40 is_stmt 0 view .LVU367
 1453 0000 4FEA911C 		lsr	ip, r1, #6
 1454              		.loc 1 756 44 view .LVU368
 1455 0004 0122     		movs	r2, #1
 1456              		.loc 1 756 40 view .LVU369
 1457 0006 5CF80030 		ldr	r3, [ip, r0]
 1458              		.loc 1 756 44 view .LVU370
 1459 000a 01F01F01 		and	r1, r1, #31
 1460              	.LVL125:
 1461              		.loc 1 756 44 view .LVU371
 1462 000e 02FA01F1 		lsl	r1, r2, r1
 1463              		.loc 1 756 40 view .LVU372
ARM GAS  /var/folders/_f/88qcw_5n2jl40jjphvxyt7wh0000gn/T//ccEFCCaz.s 			page 40


 1464 0012 23EA0101 		bic	r1, r3, r1
 1465 0016 4CF80010 		str	r1, [ip, r0]
 757:../../../support/device/gd32f4xx/peripherals/src/gd32f4xx_i2c.c **** }
 1466              		.loc 1 757 1 view .LVU373
 1467 001a 7047     		bx	lr
 1468              		.cfi_endproc
 1469              	.LFE151:
 1471              		.section	.text.i2c_interrupt_flag_get,"ax",%progbits
 1472              		.align	1
 1473              		.p2align 2,,3
 1474              		.global	i2c_interrupt_flag_get
 1475              		.syntax unified
 1476              		.thumb
 1477              		.thumb_func
 1479              	i2c_interrupt_flag_get:
 1480              	.LVL126:
 1481              	.LFB152:
 758:../../../support/device/gd32f4xx/peripherals/src/gd32f4xx_i2c.c **** 
 759:../../../support/device/gd32f4xx/peripherals/src/gd32f4xx_i2c.c **** /*!
 760:../../../support/device/gd32f4xx/peripherals/src/gd32f4xx_i2c.c ****     \brief      get I2C interrupt flag status
 761:../../../support/device/gd32f4xx/peripherals/src/gd32f4xx_i2c.c ****     \param[in]  i2c_periph: I2Cx(x=0,1,2)
 762:../../../support/device/gd32f4xx/peripherals/src/gd32f4xx_i2c.c ****     \param[in]  int_flag: I2C interrupt flags, refer to i2c_interrupt_flag_enum
 763:../../../support/device/gd32f4xx/peripherals/src/gd32f4xx_i2c.c ****                 only one parameter can be selected which is shown as below:
 764:../../../support/device/gd32f4xx/peripherals/src/gd32f4xx_i2c.c ****       \arg        I2C_INT_FLAG_SBSEND: start condition sent out in master mode interrupt flag
 765:../../../support/device/gd32f4xx/peripherals/src/gd32f4xx_i2c.c ****       \arg        I2C_INT_FLAG_ADDSEND: address is sent in master mode or received and matches in s
 766:../../../support/device/gd32f4xx/peripherals/src/gd32f4xx_i2c.c ****       \arg        I2C_INT_FLAG_BTC: byte transmission finishes interrupt flag
 767:../../../support/device/gd32f4xx/peripherals/src/gd32f4xx_i2c.c ****       \arg        I2C_INT_FLAG_ADD10SEND: header of 10-bit address is sent in master mode interrupt
 768:../../../support/device/gd32f4xx/peripherals/src/gd32f4xx_i2c.c ****       \arg        I2C_INT_FLAG_STPDET: stop condition detected in slave mode interrupt flag
 769:../../../support/device/gd32f4xx/peripherals/src/gd32f4xx_i2c.c ****       \arg        I2C_INT_FLAG_RBNE: I2C_DATA is not Empty during receiving interrupt flag
 770:../../../support/device/gd32f4xx/peripherals/src/gd32f4xx_i2c.c ****       \arg        I2C_INT_FLAG_TBE: I2C_DATA is empty during transmitting interrupt flag
 771:../../../support/device/gd32f4xx/peripherals/src/gd32f4xx_i2c.c ****       \arg        I2C_INT_FLAG_BERR: a bus error occurs indication a unexpected start or stop condi
 772:../../../support/device/gd32f4xx/peripherals/src/gd32f4xx_i2c.c ****       \arg        I2C_INT_FLAG_LOSTARB: arbitration lost in master mode interrupt flag
 773:../../../support/device/gd32f4xx/peripherals/src/gd32f4xx_i2c.c ****       \arg        I2C_INT_FLAG_AERR: acknowledge error interrupt flag
 774:../../../support/device/gd32f4xx/peripherals/src/gd32f4xx_i2c.c ****       \arg        I2C_INT_FLAG_OUERR: over-run or under-run situation occurs in slave mode interrup
 775:../../../support/device/gd32f4xx/peripherals/src/gd32f4xx_i2c.c ****       \arg        I2C_INT_FLAG_PECERR: PEC error when receiving data interrupt flag
 776:../../../support/device/gd32f4xx/peripherals/src/gd32f4xx_i2c.c ****       \arg        I2C_INT_FLAG_SMBTO: timeout signal in SMBus mode interrupt flag
 777:../../../support/device/gd32f4xx/peripherals/src/gd32f4xx_i2c.c ****       \arg        I2C_INT_FLAG_SMBALT: SMBus alert status interrupt flag
 778:../../../support/device/gd32f4xx/peripherals/src/gd32f4xx_i2c.c ****       \arg        I2C_INT_FLAG_TFF: txframe fall interrupt flag
 779:../../../support/device/gd32f4xx/peripherals/src/gd32f4xx_i2c.c ****       \arg        I2C_INT_FLAG_TFR: txframe rise interrupt flag
 780:../../../support/device/gd32f4xx/peripherals/src/gd32f4xx_i2c.c ****       \arg        I2C_INT_FLAG_RFF: rxframe fall interrupt flag
 781:../../../support/device/gd32f4xx/peripherals/src/gd32f4xx_i2c.c ****       \arg        I2C_INT_FLAG_RFR: rxframe rise interrupt flag
 782:../../../support/device/gd32f4xx/peripherals/src/gd32f4xx_i2c.c ****     \param[out] none
 783:../../../support/device/gd32f4xx/peripherals/src/gd32f4xx_i2c.c ****     \retval     FlagStatus: SET or RESET
 784:../../../support/device/gd32f4xx/peripherals/src/gd32f4xx_i2c.c **** */
 785:../../../support/device/gd32f4xx/peripherals/src/gd32f4xx_i2c.c **** FlagStatus i2c_interrupt_flag_get(uint32_t i2c_periph, i2c_interrupt_flag_enum int_flag)
 786:../../../support/device/gd32f4xx/peripherals/src/gd32f4xx_i2c.c **** {
 1482              		.loc 1 786 1 is_stmt 1 view -0
 1483              		.cfi_startproc
 1484              		@ args = 0, pretend = 0, frame = 0
 1485              		@ frame_needed = 0, uses_anonymous_args = 0
 1486              		@ link register save eliminated.
 787:../../../support/device/gd32f4xx/peripherals/src/gd32f4xx_i2c.c ****     uint32_t intenable = 0U, flagstatus = 0U, bufie;
 1487              		.loc 1 787 5 view .LVU375
 788:../../../support/device/gd32f4xx/peripherals/src/gd32f4xx_i2c.c **** 
 789:../../../support/device/gd32f4xx/peripherals/src/gd32f4xx_i2c.c ****     /* check BUFIE */
 790:../../../support/device/gd32f4xx/peripherals/src/gd32f4xx_i2c.c ****     bufie = I2C_CTL1(i2c_periph)&I2C_CTL1_BUFIE;
 1488              		.loc 1 790 5 view .LVU376
ARM GAS  /var/folders/_f/88qcw_5n2jl40jjphvxyt7wh0000gn/T//ccEFCCaz.s 			page 41


 791:../../../support/device/gd32f4xx/peripherals/src/gd32f4xx_i2c.c **** 
 792:../../../support/device/gd32f4xx/peripherals/src/gd32f4xx_i2c.c ****     /* get the interrupt enable bit status */
 793:../../../support/device/gd32f4xx/peripherals/src/gd32f4xx_i2c.c ****     intenable = (I2C_REG_VAL(i2c_periph, int_flag) & BIT(I2C_BIT_POS(int_flag)));
 1489              		.loc 1 793 18 is_stmt 0 view .LVU377
 1490 0000 C1F38912 		ubfx	r2, r1, #6, #10
 786:../../../support/device/gd32f4xx/peripherals/src/gd32f4xx_i2c.c ****     uint32_t intenable = 0U, flagstatus = 0U, bufie;
 1491              		.loc 1 786 1 view .LVU378
 1492 0004 70B4     		push	{r4, r5, r6}
 1493              	.LCFI11:
 1494              		.cfi_def_cfa_offset 12
 1495              		.cfi_offset 4, -12
 1496              		.cfi_offset 5, -8
 1497              		.cfi_offset 6, -4
 790:../../../support/device/gd32f4xx/peripherals/src/gd32f4xx_i2c.c **** 
 1498              		.loc 1 790 13 view .LVU379
 1499 0006 4668     		ldr	r6, [r0, #4]
 1500              	.LVL127:
 1501              		.loc 1 793 5 is_stmt 1 view .LVU380
 1502              		.loc 1 793 18 is_stmt 0 view .LVU381
 1503 0008 1558     		ldr	r5, [r2, r0]
 794:../../../support/device/gd32f4xx/peripherals/src/gd32f4xx_i2c.c ****     /* get the corresponding flag bit status */
 795:../../../support/device/gd32f4xx/peripherals/src/gd32f4xx_i2c.c ****     flagstatus = (I2C_REG_VAL2(i2c_periph, int_flag) & BIT(I2C_BIT_POS2(int_flag)));
 1504              		.loc 1 795 19 view .LVU382
 1505 000a 8A0D     		lsrs	r2, r1, #22
 793:../../../support/device/gd32f4xx/peripherals/src/gd32f4xx_i2c.c ****     /* get the corresponding flag bit status */
 1506              		.loc 1 793 54 view .LVU383
 1507 000c 01F01F03 		and	r3, r1, #31
 1508              		.loc 1 795 19 view .LVU384
 1509 0010 1458     		ldr	r4, [r2, r0]
 793:../../../support/device/gd32f4xx/peripherals/src/gd32f4xx_i2c.c ****     /* get the corresponding flag bit status */
 1510              		.loc 1 793 54 view .LVU385
 1511 0012 0122     		movs	r2, #1
 1512 0014 02FA03F0 		lsl	r0, r2, r3
 1513              	.LVL128:
 1514              		.loc 1 795 56 view .LVU386
 1515 0018 C1F30443 		ubfx	r3, r1, #16, #5
 1516 001c 9A40     		lsls	r2, r2, r3
 796:../../../support/device/gd32f4xx/peripherals/src/gd32f4xx_i2c.c **** 
 797:../../../support/device/gd32f4xx/peripherals/src/gd32f4xx_i2c.c ****     if((I2C_INT_FLAG_RBNE == int_flag) || (I2C_INT_FLAG_TBE == int_flag)) {
 1517              		.loc 1 797 7 view .LVU387
 1518 001e 0E4B     		ldr	r3, .L76
 1519 0020 21F48031 		bic	r1, r1, #65536
 1520              	.LVL129:
 1521              		.loc 1 797 7 view .LVU388
 1522 0024 9942     		cmp	r1, r3
 793:../../../support/device/gd32f4xx/peripherals/src/gd32f4xx_i2c.c ****     /* get the corresponding flag bit status */
 1523              		.loc 1 793 15 view .LVU389
 1524 0026 00EA0500 		and	r0, r0, r5
 1525              	.LVL130:
 795:../../../support/device/gd32f4xx/peripherals/src/gd32f4xx_i2c.c **** 
 1526              		.loc 1 795 5 is_stmt 1 view .LVU390
 795:../../../support/device/gd32f4xx/peripherals/src/gd32f4xx_i2c.c **** 
 1527              		.loc 1 795 16 is_stmt 0 view .LVU391
 1528 002a 02EA0402 		and	r2, r2, r4
 1529              	.LVL131:
 1530              		.loc 1 797 5 is_stmt 1 view .LVU392
 1531              		.loc 1 797 7 is_stmt 0 view .LVU393
ARM GAS  /var/folders/_f/88qcw_5n2jl40jjphvxyt7wh0000gn/T//ccEFCCaz.s 			page 42


 1532 002e 05D0     		beq	.L75
 798:../../../support/device/gd32f4xx/peripherals/src/gd32f4xx_i2c.c ****         if(intenable && bufie) {
 799:../../../support/device/gd32f4xx/peripherals/src/gd32f4xx_i2c.c ****             intenable = 1U;
 800:../../../support/device/gd32f4xx/peripherals/src/gd32f4xx_i2c.c ****         } else {
 801:../../../support/device/gd32f4xx/peripherals/src/gd32f4xx_i2c.c ****             intenable = 0U;
 802:../../../support/device/gd32f4xx/peripherals/src/gd32f4xx_i2c.c ****         }
 803:../../../support/device/gd32f4xx/peripherals/src/gd32f4xx_i2c.c ****     }
 804:../../../support/device/gd32f4xx/peripherals/src/gd32f4xx_i2c.c ****     if((0U != flagstatus) && (0U != intenable)) {
 1533              		.loc 1 804 5 is_stmt 1 view .LVU394
 1534              		.loc 1 804 7 is_stmt 0 view .LVU395
 1535 0030 72B1     		cbz	r2, .L73
 805:../../../support/device/gd32f4xx/peripherals/src/gd32f4xx_i2c.c ****         return SET;
 1536              		.loc 1 805 16 discriminator 1 view .LVU396
 1537 0032 0038     		subs	r0, r0, #0
 1538              		.loc 1 805 16 discriminator 1 view .LVU397
 1539 0034 18BF     		it	ne
 1540 0036 0120     		movne	r0, #1
 1541              	.LVL132:
 1542              	.L70:
 806:../../../support/device/gd32f4xx/peripherals/src/gd32f4xx_i2c.c ****     } else {
 807:../../../support/device/gd32f4xx/peripherals/src/gd32f4xx_i2c.c ****         return RESET;
 808:../../../support/device/gd32f4xx/peripherals/src/gd32f4xx_i2c.c ****     }
 809:../../../support/device/gd32f4xx/peripherals/src/gd32f4xx_i2c.c **** }
 1543              		.loc 1 809 1 view .LVU398
 1544 0038 70BC     		pop	{r4, r5, r6}
 1545              	.LCFI12:
 1546              		.cfi_remember_state
 1547              		.cfi_restore 6
 1548              		.cfi_restore 5
 1549              		.cfi_restore 4
 1550              		.cfi_def_cfa_offset 0
 1551              	.LVL133:
 1552              		.loc 1 809 1 view .LVU399
 1553 003a 7047     		bx	lr
 1554              	.LVL134:
 1555              	.L75:
 1556              	.LCFI13:
 1557              		.cfi_restore_state
 798:../../../support/device/gd32f4xx/peripherals/src/gd32f4xx_i2c.c ****             intenable = 1U;
 1558              		.loc 1 798 9 is_stmt 1 view .LVU400
 798:../../../support/device/gd32f4xx/peripherals/src/gd32f4xx_i2c.c ****             intenable = 1U;
 1559              		.loc 1 798 11 is_stmt 0 view .LVU401
 1560 003c 0028     		cmp	r0, #0
 1561 003e FBD0     		beq	.L70
 798:../../../support/device/gd32f4xx/peripherals/src/gd32f4xx_i2c.c ****             intenable = 1U;
 1562              		.loc 1 798 22 discriminator 1 view .LVU402
 1563 0040 16F48060 		ands	r0, r6, #1024
 1564              	.LVL135:
 798:../../../support/device/gd32f4xx/peripherals/src/gd32f4xx_i2c.c ****             intenable = 1U;
 1565              		.loc 1 798 22 discriminator 1 view .LVU403
 1566 0044 F8D0     		beq	.L70
 1567              	.LVL136:
 804:../../../support/device/gd32f4xx/peripherals/src/gd32f4xx_i2c.c ****         return SET;
 1568              		.loc 1 804 5 is_stmt 1 view .LVU404
 805:../../../support/device/gd32f4xx/peripherals/src/gd32f4xx_i2c.c ****     } else {
 1569              		.loc 1 805 16 is_stmt 0 view .LVU405
 1570 0046 101E     		subs	r0, r2, #0
ARM GAS  /var/folders/_f/88qcw_5n2jl40jjphvxyt7wh0000gn/T//ccEFCCaz.s 			page 43


 1571 0048 18BF     		it	ne
 1572 004a 0120     		movne	r0, #1
 1573              	.LVL137:
 1574              		.loc 1 809 1 view .LVU406
 1575 004c 70BC     		pop	{r4, r5, r6}
 1576              	.LCFI14:
 1577              		.cfi_remember_state
 1578              		.cfi_restore 6
 1579              		.cfi_restore 5
 1580              		.cfi_restore 4
 1581              		.cfi_def_cfa_offset 0
 1582              	.LVL138:
 1583              		.loc 1 809 1 view .LVU407
 1584 004e 7047     		bx	lr
 1585              	.LVL139:
 1586              	.L73:
 1587              	.LCFI15:
 1588              		.cfi_restore_state
 807:../../../support/device/gd32f4xx/peripherals/src/gd32f4xx_i2c.c ****     }
 1589              		.loc 1 807 16 view .LVU408
 1590 0050 1046     		mov	r0, r2
 1591              	.LVL140:
 1592              		.loc 1 809 1 view .LVU409
 1593 0052 70BC     		pop	{r4, r5, r6}
 1594              	.LCFI16:
 1595              		.cfi_restore 6
 1596              		.cfi_restore 5
 1597              		.cfi_restore 4
 1598              		.cfi_def_cfa_offset 0
 1599              	.LVL141:
 1600              		.loc 1 809 1 view .LVU410
 1601 0054 7047     		bx	lr
 1602              	.L77:
 1603 0056 00BF     		.align	2
 1604              	.L76:
 1605 0058 09010605 		.word	84279561
 1606              		.cfi_endproc
 1607              	.LFE152:
 1609              		.section	.text.i2c_interrupt_flag_clear,"ax",%progbits
 1610              		.align	1
 1611              		.p2align 2,,3
 1612              		.global	i2c_interrupt_flag_clear
 1613              		.syntax unified
 1614              		.thumb
 1615              		.thumb_func
 1617              	i2c_interrupt_flag_clear:
 1618              	.LVL142:
 1619              	.LFB153:
 810:../../../support/device/gd32f4xx/peripherals/src/gd32f4xx_i2c.c **** 
 811:../../../support/device/gd32f4xx/peripherals/src/gd32f4xx_i2c.c **** /*!
 812:../../../support/device/gd32f4xx/peripherals/src/gd32f4xx_i2c.c ****     \brief      clear I2C interrupt flag status
 813:../../../support/device/gd32f4xx/peripherals/src/gd32f4xx_i2c.c ****     \param[in]  i2c_periph: I2Cx(x=0,1,2)
 814:../../../support/device/gd32f4xx/peripherals/src/gd32f4xx_i2c.c ****     \param[in]  int_flag: I2C interrupt flags, refer to i2c_interrupt_flag_enum
 815:../../../support/device/gd32f4xx/peripherals/src/gd32f4xx_i2c.c ****                 only one parameter can be selected which is shown as below:
 816:../../../support/device/gd32f4xx/peripherals/src/gd32f4xx_i2c.c ****       \arg        I2C_INT_FLAG_ADDSEND: address is sent in master mode or received and matches in s
 817:../../../support/device/gd32f4xx/peripherals/src/gd32f4xx_i2c.c ****       \arg        I2C_INT_FLAG_BERR: a bus error occurs indication a unexpected start or stop condi
 818:../../../support/device/gd32f4xx/peripherals/src/gd32f4xx_i2c.c ****       \arg        I2C_INT_FLAG_LOSTARB: arbitration lost in master mode interrupt flag
ARM GAS  /var/folders/_f/88qcw_5n2jl40jjphvxyt7wh0000gn/T//ccEFCCaz.s 			page 44


 819:../../../support/device/gd32f4xx/peripherals/src/gd32f4xx_i2c.c ****       \arg        I2C_INT_FLAG_AERR: acknowledge error interrupt flag
 820:../../../support/device/gd32f4xx/peripherals/src/gd32f4xx_i2c.c ****       \arg        I2C_INT_FLAG_OUERR: over-run or under-run situation occurs in slave mode interrup
 821:../../../support/device/gd32f4xx/peripherals/src/gd32f4xx_i2c.c ****       \arg        I2C_INT_FLAG_PECERR: PEC error when receiving data interrupt flag
 822:../../../support/device/gd32f4xx/peripherals/src/gd32f4xx_i2c.c ****       \arg        I2C_INT_FLAG_SMBTO: timeout signal in SMBus mode interrupt flag
 823:../../../support/device/gd32f4xx/peripherals/src/gd32f4xx_i2c.c ****       \arg        I2C_INT_FLAG_SMBALT: SMBus alert status interrupt flag
 824:../../../support/device/gd32f4xx/peripherals/src/gd32f4xx_i2c.c ****       \arg        I2C_INT_FLAG_TFF: txframe fall interrupt flag
 825:../../../support/device/gd32f4xx/peripherals/src/gd32f4xx_i2c.c ****       \arg        I2C_INT_FLAG_TFR: txframe rise interrupt flag
 826:../../../support/device/gd32f4xx/peripherals/src/gd32f4xx_i2c.c ****       \arg        I2C_INT_FLAG_RFF: rxframe fall interrupt flag
 827:../../../support/device/gd32f4xx/peripherals/src/gd32f4xx_i2c.c ****       \arg        I2C_INT_FLAG_RFR: rxframe rise interrupt flag
 828:../../../support/device/gd32f4xx/peripherals/src/gd32f4xx_i2c.c ****     \param[out] none
 829:../../../support/device/gd32f4xx/peripherals/src/gd32f4xx_i2c.c ****     \retval     none
 830:../../../support/device/gd32f4xx/peripherals/src/gd32f4xx_i2c.c **** */
 831:../../../support/device/gd32f4xx/peripherals/src/gd32f4xx_i2c.c **** void i2c_interrupt_flag_clear(uint32_t i2c_periph, i2c_interrupt_flag_enum int_flag)
 832:../../../support/device/gd32f4xx/peripherals/src/gd32f4xx_i2c.c **** {
 1620              		.loc 1 832 1 is_stmt 1 view -0
 1621              		.cfi_startproc
 1622              		@ args = 0, pretend = 0, frame = 0
 1623              		@ frame_needed = 0, uses_anonymous_args = 0
 1624              		@ link register save eliminated.
 833:../../../support/device/gd32f4xx/peripherals/src/gd32f4xx_i2c.c ****     if(I2C_INT_FLAG_ADDSEND == int_flag) {
 1625              		.loc 1 833 5 view .LVU412
 1626              		.loc 1 833 7 is_stmt 0 view .LVU413
 1627 0000 094B     		ldr	r3, .L82
 1628 0002 9942     		cmp	r1, r3
 1629 0004 0DD0     		beq	.L81
 834:../../../support/device/gd32f4xx/peripherals/src/gd32f4xx_i2c.c ****         /* read I2C_STAT0 and then read I2C_STAT1 to clear ADDSEND */
 835:../../../support/device/gd32f4xx/peripherals/src/gd32f4xx_i2c.c ****         I2C_STAT0(i2c_periph);
 836:../../../support/device/gd32f4xx/peripherals/src/gd32f4xx_i2c.c ****         I2C_STAT1(i2c_periph);
 837:../../../support/device/gd32f4xx/peripherals/src/gd32f4xx_i2c.c ****     } else {
 838:../../../support/device/gd32f4xx/peripherals/src/gd32f4xx_i2c.c ****         I2C_REG_VAL2(i2c_periph, int_flag) &= ~BIT(I2C_BIT_POS2(int_flag));
 1630              		.loc 1 838 9 is_stmt 1 view .LVU414
 1631              		.loc 1 838 44 is_stmt 0 view .LVU415
 1632 0006 4FEA915C 		lsr	ip, r1, #22
 1633              		.loc 1 838 48 view .LVU416
 1634 000a 0122     		movs	r2, #1
 1635              		.loc 1 838 44 view .LVU417
 1636 000c 5CF80030 		ldr	r3, [ip, r0]
 1637              		.loc 1 838 48 view .LVU418
 1638 0010 C1F30441 		ubfx	r1, r1, #16, #5
 1639              	.LVL143:
 1640              		.loc 1 838 48 view .LVU419
 1641 0014 02FA01F1 		lsl	r1, r2, r1
 1642              		.loc 1 838 44 view .LVU420
 1643 0018 23EA0101 		bic	r1, r3, r1
 1644 001c 4CF80010 		str	r1, [ip, r0]
 839:../../../support/device/gd32f4xx/peripherals/src/gd32f4xx_i2c.c ****     }
 840:../../../support/device/gd32f4xx/peripherals/src/gd32f4xx_i2c.c **** }
 1645              		.loc 1 840 1 view .LVU421
 1646 0020 7047     		bx	lr
 1647              	.LVL144:
 1648              	.L81:
 835:../../../support/device/gd32f4xx/peripherals/src/gd32f4xx_i2c.c ****         I2C_STAT1(i2c_periph);
 1649              		.loc 1 835 9 is_stmt 1 view .LVU422
 1650 0022 4369     		ldr	r3, [r0, #20]
 836:../../../support/device/gd32f4xx/peripherals/src/gd32f4xx_i2c.c ****     } else {
 1651              		.loc 1 836 9 view .LVU423
 1652 0024 8369     		ldr	r3, [r0, #24]
ARM GAS  /var/folders/_f/88qcw_5n2jl40jjphvxyt7wh0000gn/T//ccEFCCaz.s 			page 45


 1653 0026 7047     		bx	lr
 1654              	.L83:
 1655              		.align	2
 1656              	.L82:
 1657 0028 09010105 		.word	83951881
 1658              		.cfi_endproc
 1659              	.LFE153:
 1661              		.text
 1662              	.Letext0:
 1663              		.file 2 "/Applications/ARM/arm-none-eabi/include/machine/_default_types.h"
 1664              		.file 3 "/Applications/ARM/arm-none-eabi/include/sys/_stdint.h"
 1665              		.file 4 "../../../support/device/gd32f4xx/inc/gd32f4xx.h"
 1666              		.file 5 "../../../support/device/gd32f4xx/peripherals/inc/gd32f4xx_rcu.h"
 1667              		.file 6 "../../../support/device/gd32f4xx/peripherals/inc/gd32f4xx_i2c.h"
ARM GAS  /var/folders/_f/88qcw_5n2jl40jjphvxyt7wh0000gn/T//ccEFCCaz.s 			page 46

