ARM GAS  /var/folders/_f/88qcw_5n2jl40jjphvxyt7wh0000gn/T//ccKoJQTU.s 			page 1


   1              		.cpu cortex-m4
   2              		.arch armv7e-m
   3              		.fpu softvfp
   4              		.eabi_attribute 20, 1
   5              		.eabi_attribute 21, 1
   6              		.eabi_attribute 23, 3
   7              		.eabi_attribute 24, 1
   8              		.eabi_attribute 25, 1
   9              		.eabi_attribute 26, 1
  10              		.eabi_attribute 30, 2
  11              		.eabi_attribute 34, 1
  12              		.eabi_attribute 18, 4
  13              		.file	"gd32f4xx_iref.c"
  14              		.text
  15              	.Ltext0:
  16              		.cfi_sections	.debug_frame
  17              		.section	.text.iref_deinit,"ax",%progbits
  18              		.align	1
  19              		.p2align 2,,3
  20              		.global	iref_deinit
  21              		.syntax unified
  22              		.thumb
  23              		.thumb_func
  25              	iref_deinit:
  26              	.LFB116:
  27              		.file 1 "../../../support/device/gd32f4xx/peripherals/src/gd32f4xx_iref.c"
   1:../../../support/device/gd32f4xx/peripherals/src/gd32f4xx_iref.c **** /*!
   2:../../../support/device/gd32f4xx/peripherals/src/gd32f4xx_iref.c ****     \file    gd32f4xx_iref.c
   3:../../../support/device/gd32f4xx/peripherals/src/gd32f4xx_iref.c ****     \brief   IREF driver
   4:../../../support/device/gd32f4xx/peripherals/src/gd32f4xx_iref.c **** 
   5:../../../support/device/gd32f4xx/peripherals/src/gd32f4xx_iref.c ****     \version 2016-08-15, V1.0.0, firmware for GD32F4xx
   6:../../../support/device/gd32f4xx/peripherals/src/gd32f4xx_iref.c ****     \version 2018-12-12, V2.0.0, firmware for GD32F4xx
   7:../../../support/device/gd32f4xx/peripherals/src/gd32f4xx_iref.c ****     \version 2020-09-30, V2.1.0, firmware for GD32F4xx
   8:../../../support/device/gd32f4xx/peripherals/src/gd32f4xx_iref.c ****     \version 2022-03-09, V3.0.0, firmware for GD32F4xx
   9:../../../support/device/gd32f4xx/peripherals/src/gd32f4xx_iref.c **** */
  10:../../../support/device/gd32f4xx/peripherals/src/gd32f4xx_iref.c **** 
  11:../../../support/device/gd32f4xx/peripherals/src/gd32f4xx_iref.c **** /*
  12:../../../support/device/gd32f4xx/peripherals/src/gd32f4xx_iref.c ****     Copyright (c) 2022, GigaDevice Semiconductor Inc.
  13:../../../support/device/gd32f4xx/peripherals/src/gd32f4xx_iref.c **** 
  14:../../../support/device/gd32f4xx/peripherals/src/gd32f4xx_iref.c ****     Redistribution and use in source and binary forms, with or without modification,
  15:../../../support/device/gd32f4xx/peripherals/src/gd32f4xx_iref.c **** are permitted provided that the following conditions are met:
  16:../../../support/device/gd32f4xx/peripherals/src/gd32f4xx_iref.c **** 
  17:../../../support/device/gd32f4xx/peripherals/src/gd32f4xx_iref.c ****     1. Redistributions of source code must retain the above copyright notice, this
  18:../../../support/device/gd32f4xx/peripherals/src/gd32f4xx_iref.c ****        list of conditions and the following disclaimer.
  19:../../../support/device/gd32f4xx/peripherals/src/gd32f4xx_iref.c ****     2. Redistributions in binary form must reproduce the above copyright notice,
  20:../../../support/device/gd32f4xx/peripherals/src/gd32f4xx_iref.c ****        this list of conditions and the following disclaimer in the documentation
  21:../../../support/device/gd32f4xx/peripherals/src/gd32f4xx_iref.c ****        and/or other materials provided with the distribution.
  22:../../../support/device/gd32f4xx/peripherals/src/gd32f4xx_iref.c ****     3. Neither the name of the copyright holder nor the names of its contributors
  23:../../../support/device/gd32f4xx/peripherals/src/gd32f4xx_iref.c ****        may be used to endorse or promote products derived from this software without
  24:../../../support/device/gd32f4xx/peripherals/src/gd32f4xx_iref.c ****        specific prior written permission.
  25:../../../support/device/gd32f4xx/peripherals/src/gd32f4xx_iref.c **** 
  26:../../../support/device/gd32f4xx/peripherals/src/gd32f4xx_iref.c ****     THIS SOFTWARE IS PROVIDED BY THE COPYRIGHT HOLDERS AND CONTRIBUTORS "AS IS"
  27:../../../support/device/gd32f4xx/peripherals/src/gd32f4xx_iref.c **** AND ANY EXPRESS OR IMPLIED WARRANTIES, INCLUDING, BUT NOT LIMITED TO, THE IMPLIED
  28:../../../support/device/gd32f4xx/peripherals/src/gd32f4xx_iref.c **** WARRANTIES OF MERCHANTABILITY AND FITNESS FOR A PARTICULAR PURPOSE ARE DISCLAIMED.
  29:../../../support/device/gd32f4xx/peripherals/src/gd32f4xx_iref.c **** IN NO EVENT SHALL THE COPYRIGHT HOLDER OR CONTRIBUTORS BE LIABLE FOR ANY DIRECT,
  30:../../../support/device/gd32f4xx/peripherals/src/gd32f4xx_iref.c **** INDIRECT, INCIDENTAL, SPECIAL, EXEMPLARY, OR CONSEQUENTIAL DAMAGES (INCLUDING, BUT
  31:../../../support/device/gd32f4xx/peripherals/src/gd32f4xx_iref.c **** NOT LIMITED TO, PROCUREMENT OF SUBSTITUTE GOODS OR SERVICES; LOSS OF USE, DATA, OR
ARM GAS  /var/folders/_f/88qcw_5n2jl40jjphvxyt7wh0000gn/T//ccKoJQTU.s 			page 2


  32:../../../support/device/gd32f4xx/peripherals/src/gd32f4xx_iref.c **** PROFITS; OR BUSINESS INTERRUPTION) HOWEVER CAUSED AND ON ANY THEORY OF LIABILITY,
  33:../../../support/device/gd32f4xx/peripherals/src/gd32f4xx_iref.c **** WHETHER IN CONTRACT, STRICT LIABILITY, OR TORT (INCLUDING NEGLIGENCE OR OTHERWISE)
  34:../../../support/device/gd32f4xx/peripherals/src/gd32f4xx_iref.c **** ARISING IN ANY WAY OUT OF THE USE OF THIS SOFTWARE, EVEN IF ADVISED OF THE POSSIBILITY
  35:../../../support/device/gd32f4xx/peripherals/src/gd32f4xx_iref.c **** OF SUCH DAMAGE.
  36:../../../support/device/gd32f4xx/peripherals/src/gd32f4xx_iref.c **** */
  37:../../../support/device/gd32f4xx/peripherals/src/gd32f4xx_iref.c **** 
  38:../../../support/device/gd32f4xx/peripherals/src/gd32f4xx_iref.c **** #include "gd32f4xx_iref.h"
  39:../../../support/device/gd32f4xx/peripherals/src/gd32f4xx_iref.c **** 
  40:../../../support/device/gd32f4xx/peripherals/src/gd32f4xx_iref.c **** /*!
  41:../../../support/device/gd32f4xx/peripherals/src/gd32f4xx_iref.c ****     \brief      deinitialize IREF
  42:../../../support/device/gd32f4xx/peripherals/src/gd32f4xx_iref.c ****     \param[in]  none
  43:../../../support/device/gd32f4xx/peripherals/src/gd32f4xx_iref.c ****     \param[out] none
  44:../../../support/device/gd32f4xx/peripherals/src/gd32f4xx_iref.c ****     \retval     none
  45:../../../support/device/gd32f4xx/peripherals/src/gd32f4xx_iref.c **** */
  46:../../../support/device/gd32f4xx/peripherals/src/gd32f4xx_iref.c **** void iref_deinit(void)
  47:../../../support/device/gd32f4xx/peripherals/src/gd32f4xx_iref.c **** {
  28              		.loc 1 47 1 view -0
  29              		.cfi_startproc
  30              		@ args = 0, pretend = 0, frame = 0
  31              		@ frame_needed = 0, uses_anonymous_args = 0
  48:../../../support/device/gd32f4xx/peripherals/src/gd32f4xx_iref.c ****     rcu_periph_reset_enable(RCU_IREFRST);
  32              		.loc 1 48 5 view .LVU1
  47:../../../support/device/gd32f4xx/peripherals/src/gd32f4xx_iref.c ****     rcu_periph_reset_enable(RCU_IREFRST);
  33              		.loc 1 47 1 is_stmt 0 view .LVU2
  34 0000 08B5     		push	{r3, lr}
  35              	.LCFI0:
  36              		.cfi_def_cfa_offset 8
  37              		.cfi_offset 3, -8
  38              		.cfi_offset 14, -4
  39              		.loc 1 48 5 view .LVU3
  40 0002 43F61F00 		movw	r0, #14367
  41 0006 FFF7FEFF 		bl	rcu_periph_reset_enable
  42              	.LVL0:
  49:../../../support/device/gd32f4xx/peripherals/src/gd32f4xx_iref.c ****     rcu_periph_reset_disable(RCU_IREFRST);
  43              		.loc 1 49 5 is_stmt 1 view .LVU4
  50:../../../support/device/gd32f4xx/peripherals/src/gd32f4xx_iref.c **** }
  44              		.loc 1 50 1 is_stmt 0 view .LVU5
  45 000a BDE80840 		pop	{r3, lr}
  46              	.LCFI1:
  47              		.cfi_restore 14
  48              		.cfi_restore 3
  49              		.cfi_def_cfa_offset 0
  49:../../../support/device/gd32f4xx/peripherals/src/gd32f4xx_iref.c ****     rcu_periph_reset_disable(RCU_IREFRST);
  50              		.loc 1 49 5 view .LVU6
  51 000e 43F61F00 		movw	r0, #14367
  52 0012 FFF7FEBF 		b	rcu_periph_reset_disable
  53              	.LVL1:
  54              		.cfi_endproc
  55              	.LFE116:
  57 0016 00BF     		.section	.text.iref_enable,"ax",%progbits
  58              		.align	1
  59              		.p2align 2,,3
  60              		.global	iref_enable
  61              		.syntax unified
  62              		.thumb
  63              		.thumb_func
  65              	iref_enable:
ARM GAS  /var/folders/_f/88qcw_5n2jl40jjphvxyt7wh0000gn/T//ccKoJQTU.s 			page 3


  66              	.LFB117:
  51:../../../support/device/gd32f4xx/peripherals/src/gd32f4xx_iref.c **** 
  52:../../../support/device/gd32f4xx/peripherals/src/gd32f4xx_iref.c **** /*!
  53:../../../support/device/gd32f4xx/peripherals/src/gd32f4xx_iref.c ****     \brief    enable IREF
  54:../../../support/device/gd32f4xx/peripherals/src/gd32f4xx_iref.c ****     \param[in]  none
  55:../../../support/device/gd32f4xx/peripherals/src/gd32f4xx_iref.c ****     \param[out] none
  56:../../../support/device/gd32f4xx/peripherals/src/gd32f4xx_iref.c ****     \retval     none
  57:../../../support/device/gd32f4xx/peripherals/src/gd32f4xx_iref.c **** */
  58:../../../support/device/gd32f4xx/peripherals/src/gd32f4xx_iref.c **** void iref_enable(void)
  59:../../../support/device/gd32f4xx/peripherals/src/gd32f4xx_iref.c **** {
  67              		.loc 1 59 1 is_stmt 1 view -0
  68              		.cfi_startproc
  69              		@ args = 0, pretend = 0, frame = 0
  70              		@ frame_needed = 0, uses_anonymous_args = 0
  71              		@ link register save eliminated.
  60:../../../support/device/gd32f4xx/peripherals/src/gd32f4xx_iref.c ****     IREF_CTL |= IREF_CTL_CREN;
  72              		.loc 1 60 5 view .LVU8
  73              		.loc 1 60 14 is_stmt 0 view .LVU9
  74 0000 034A     		ldr	r2, .L5
  75 0002 D2F80037 		ldr	r3, [r2, #1792]
  76 0006 43F40043 		orr	r3, r3, #32768
  77 000a C2F80037 		str	r3, [r2, #1792]
  61:../../../support/device/gd32f4xx/peripherals/src/gd32f4xx_iref.c **** }
  78              		.loc 1 61 1 view .LVU10
  79 000e 7047     		bx	lr
  80              	.L6:
  81              		.align	2
  82              	.L5:
  83 0010 00C00040 		.word	1073790976
  84              		.cfi_endproc
  85              	.LFE117:
  87              		.section	.text.iref_disable,"ax",%progbits
  88              		.align	1
  89              		.p2align 2,,3
  90              		.global	iref_disable
  91              		.syntax unified
  92              		.thumb
  93              		.thumb_func
  95              	iref_disable:
  96              	.LFB118:
  62:../../../support/device/gd32f4xx/peripherals/src/gd32f4xx_iref.c **** 
  63:../../../support/device/gd32f4xx/peripherals/src/gd32f4xx_iref.c **** /*!
  64:../../../support/device/gd32f4xx/peripherals/src/gd32f4xx_iref.c ****     \brief      disable IREF
  65:../../../support/device/gd32f4xx/peripherals/src/gd32f4xx_iref.c ****     \param[in]  none
  66:../../../support/device/gd32f4xx/peripherals/src/gd32f4xx_iref.c ****     \param[out] none
  67:../../../support/device/gd32f4xx/peripherals/src/gd32f4xx_iref.c ****     \retval     none
  68:../../../support/device/gd32f4xx/peripherals/src/gd32f4xx_iref.c **** */
  69:../../../support/device/gd32f4xx/peripherals/src/gd32f4xx_iref.c **** void iref_disable(void)
  70:../../../support/device/gd32f4xx/peripherals/src/gd32f4xx_iref.c **** {
  97              		.loc 1 70 1 is_stmt 1 view -0
  98              		.cfi_startproc
  99              		@ args = 0, pretend = 0, frame = 0
 100              		@ frame_needed = 0, uses_anonymous_args = 0
 101              		@ link register save eliminated.
  71:../../../support/device/gd32f4xx/peripherals/src/gd32f4xx_iref.c ****     IREF_CTL &= ~IREF_CTL_CREN;
 102              		.loc 1 71 5 view .LVU12
 103              		.loc 1 71 14 is_stmt 0 view .LVU13
ARM GAS  /var/folders/_f/88qcw_5n2jl40jjphvxyt7wh0000gn/T//ccKoJQTU.s 			page 4


 104 0000 034A     		ldr	r2, .L8
 105 0002 D2F80037 		ldr	r3, [r2, #1792]
 106 0006 23F40043 		bic	r3, r3, #32768
 107 000a C2F80037 		str	r3, [r2, #1792]
  72:../../../support/device/gd32f4xx/peripherals/src/gd32f4xx_iref.c **** }
 108              		.loc 1 72 1 view .LVU14
 109 000e 7047     		bx	lr
 110              	.L9:
 111              		.align	2
 112              	.L8:
 113 0010 00C00040 		.word	1073790976
 114              		.cfi_endproc
 115              	.LFE118:
 117              		.section	.text.iref_mode_set,"ax",%progbits
 118              		.align	1
 119              		.p2align 2,,3
 120              		.global	iref_mode_set
 121              		.syntax unified
 122              		.thumb
 123              		.thumb_func
 125              	iref_mode_set:
 126              	.LVL2:
 127              	.LFB119:
  73:../../../support/device/gd32f4xx/peripherals/src/gd32f4xx_iref.c **** 
  74:../../../support/device/gd32f4xx/peripherals/src/gd32f4xx_iref.c **** /*!
  75:../../../support/device/gd32f4xx/peripherals/src/gd32f4xx_iref.c ****     \brief      set IREF mode
  76:../../../support/device/gd32f4xx/peripherals/src/gd32f4xx_iref.c ****     \param[in]  step
  77:../../../support/device/gd32f4xx/peripherals/src/gd32f4xx_iref.c ****       \arg        IREF_MODE_LOW_POWER: 1uA step
  78:../../../support/device/gd32f4xx/peripherals/src/gd32f4xx_iref.c ****       \arg        IREF_MODE_HIGH_CURRENT: 8uA step
  79:../../../support/device/gd32f4xx/peripherals/src/gd32f4xx_iref.c ****     \param[out] none
  80:../../../support/device/gd32f4xx/peripherals/src/gd32f4xx_iref.c ****     \retval     none
  81:../../../support/device/gd32f4xx/peripherals/src/gd32f4xx_iref.c **** */
  82:../../../support/device/gd32f4xx/peripherals/src/gd32f4xx_iref.c **** void iref_mode_set(uint32_t step)
  83:../../../support/device/gd32f4xx/peripherals/src/gd32f4xx_iref.c **** {
 128              		.loc 1 83 1 is_stmt 1 view -0
 129              		.cfi_startproc
 130              		@ args = 0, pretend = 0, frame = 0
 131              		@ frame_needed = 0, uses_anonymous_args = 0
 132              		@ link register save eliminated.
  84:../../../support/device/gd32f4xx/peripherals/src/gd32f4xx_iref.c ****     IREF_CTL &= ~IREF_CTL_SSEL;
 133              		.loc 1 84 5 view .LVU16
 134              		.loc 1 84 14 is_stmt 0 view .LVU17
 135 0000 064B     		ldr	r3, .L11
 136 0002 D3F80017 		ldr	r1, [r3, #1792]
 137 0006 21F48041 		bic	r1, r1, #16384
 138 000a C3F80017 		str	r1, [r3, #1792]
  85:../../../support/device/gd32f4xx/peripherals/src/gd32f4xx_iref.c ****     IREF_CTL |= step;
 139              		.loc 1 85 5 is_stmt 1 view .LVU18
 140              		.loc 1 85 14 is_stmt 0 view .LVU19
 141 000e D3F80027 		ldr	r2, [r3, #1792]
 142 0012 0243     		orrs	r2, r2, r0
 143 0014 C3F80027 		str	r2, [r3, #1792]
  86:../../../support/device/gd32f4xx/peripherals/src/gd32f4xx_iref.c **** }
 144              		.loc 1 86 1 view .LVU20
 145 0018 7047     		bx	lr
 146              	.L12:
 147 001a 00BF     		.align	2
ARM GAS  /var/folders/_f/88qcw_5n2jl40jjphvxyt7wh0000gn/T//ccKoJQTU.s 			page 5


 148              	.L11:
 149 001c 00C00040 		.word	1073790976
 150              		.cfi_endproc
 151              	.LFE119:
 153              		.section	.text.iref_precision_trim_value_set,"ax",%progbits
 154              		.align	1
 155              		.p2align 2,,3
 156              		.global	iref_precision_trim_value_set
 157              		.syntax unified
 158              		.thumb
 159              		.thumb_func
 161              	iref_precision_trim_value_set:
 162              	.LVL3:
 163              	.LFB120:
  87:../../../support/device/gd32f4xx/peripherals/src/gd32f4xx_iref.c **** 
  88:../../../support/device/gd32f4xx/peripherals/src/gd32f4xx_iref.c **** /*!
  89:../../../support/device/gd32f4xx/peripherals/src/gd32f4xx_iref.c ****     \brief      set IREF precision_trim_value
  90:../../../support/device/gd32f4xx/peripherals/src/gd32f4xx_iref.c ****     \param[in]  precisiontrim
  91:../../../support/device/gd32f4xx/peripherals/src/gd32f4xx_iref.c ****       \arg        IREF_CUR_PRECISION_TRIM_X(x=0..31): (-15+ x)%
  92:../../../support/device/gd32f4xx/peripherals/src/gd32f4xx_iref.c ****     \param[out] none
  93:../../../support/device/gd32f4xx/peripherals/src/gd32f4xx_iref.c ****     \retval     none
  94:../../../support/device/gd32f4xx/peripherals/src/gd32f4xx_iref.c **** */
  95:../../../support/device/gd32f4xx/peripherals/src/gd32f4xx_iref.c **** void iref_precision_trim_value_set(uint32_t precisiontrim)
  96:../../../support/device/gd32f4xx/peripherals/src/gd32f4xx_iref.c **** {
 164              		.loc 1 96 1 is_stmt 1 view -0
 165              		.cfi_startproc
 166              		@ args = 0, pretend = 0, frame = 0
 167              		@ frame_needed = 0, uses_anonymous_args = 0
 168              		@ link register save eliminated.
  97:../../../support/device/gd32f4xx/peripherals/src/gd32f4xx_iref.c ****     IREF_CTL &= ~IREF_CTL_CPT;
 169              		.loc 1 97 5 view .LVU22
 170              		.loc 1 97 14 is_stmt 0 view .LVU23
 171 0000 064B     		ldr	r3, .L14
 172 0002 D3F80017 		ldr	r1, [r3, #1792]
 173 0006 21F4F851 		bic	r1, r1, #7936
 174 000a C3F80017 		str	r1, [r3, #1792]
  98:../../../support/device/gd32f4xx/peripherals/src/gd32f4xx_iref.c ****     IREF_CTL |= precisiontrim;
 175              		.loc 1 98 5 is_stmt 1 view .LVU24
 176              		.loc 1 98 14 is_stmt 0 view .LVU25
 177 000e D3F80027 		ldr	r2, [r3, #1792]
 178 0012 0243     		orrs	r2, r2, r0
 179 0014 C3F80027 		str	r2, [r3, #1792]
  99:../../../support/device/gd32f4xx/peripherals/src/gd32f4xx_iref.c **** }
 180              		.loc 1 99 1 view .LVU26
 181 0018 7047     		bx	lr
 182              	.L15:
 183 001a 00BF     		.align	2
 184              	.L14:
 185 001c 00C00040 		.word	1073790976
 186              		.cfi_endproc
 187              	.LFE120:
 189              		.section	.text.iref_sink_set,"ax",%progbits
 190              		.align	1
 191              		.p2align 2,,3
 192              		.global	iref_sink_set
 193              		.syntax unified
 194              		.thumb
ARM GAS  /var/folders/_f/88qcw_5n2jl40jjphvxyt7wh0000gn/T//ccKoJQTU.s 			page 6


 195              		.thumb_func
 197              	iref_sink_set:
 198              	.LVL4:
 199              	.LFB121:
 100:../../../support/device/gd32f4xx/peripherals/src/gd32f4xx_iref.c **** 
 101:../../../support/device/gd32f4xx/peripherals/src/gd32f4xx_iref.c **** /*!
 102:../../../support/device/gd32f4xx/peripherals/src/gd32f4xx_iref.c ****     \brief      set IREF sink mode
 103:../../../support/device/gd32f4xx/peripherals/src/gd32f4xx_iref.c ****     \param[in]  sinkmode
 104:../../../support/device/gd32f4xx/peripherals/src/gd32f4xx_iref.c ****       \arg        IREF_SOURCE_CURRENT : source current.
 105:../../../support/device/gd32f4xx/peripherals/src/gd32f4xx_iref.c ****       \arg        IREF_SINK_CURRENT: sink current
 106:../../../support/device/gd32f4xx/peripherals/src/gd32f4xx_iref.c ****     \param[out] none
 107:../../../support/device/gd32f4xx/peripherals/src/gd32f4xx_iref.c ****     \retval     none
 108:../../../support/device/gd32f4xx/peripherals/src/gd32f4xx_iref.c **** */
 109:../../../support/device/gd32f4xx/peripherals/src/gd32f4xx_iref.c **** void iref_sink_set(uint32_t sinkmode)
 110:../../../support/device/gd32f4xx/peripherals/src/gd32f4xx_iref.c **** {
 200              		.loc 1 110 1 is_stmt 1 view -0
 201              		.cfi_startproc
 202              		@ args = 0, pretend = 0, frame = 0
 203              		@ frame_needed = 0, uses_anonymous_args = 0
 204              		@ link register save eliminated.
 111:../../../support/device/gd32f4xx/peripherals/src/gd32f4xx_iref.c ****     IREF_CTL &= ~IREF_CTL_SCMOD;
 205              		.loc 1 111 5 view .LVU28
 206              		.loc 1 111 14 is_stmt 0 view .LVU29
 207 0000 064B     		ldr	r3, .L17
 208 0002 D3F80017 		ldr	r1, [r3, #1792]
 209 0006 21F08001 		bic	r1, r1, #128
 210 000a C3F80017 		str	r1, [r3, #1792]
 112:../../../support/device/gd32f4xx/peripherals/src/gd32f4xx_iref.c ****     IREF_CTL |= sinkmode;
 211              		.loc 1 112 5 is_stmt 1 view .LVU30
 212              		.loc 1 112 14 is_stmt 0 view .LVU31
 213 000e D3F80027 		ldr	r2, [r3, #1792]
 214 0012 0243     		orrs	r2, r2, r0
 215 0014 C3F80027 		str	r2, [r3, #1792]
 113:../../../support/device/gd32f4xx/peripherals/src/gd32f4xx_iref.c **** }
 216              		.loc 1 113 1 view .LVU32
 217 0018 7047     		bx	lr
 218              	.L18:
 219 001a 00BF     		.align	2
 220              	.L17:
 221 001c 00C00040 		.word	1073790976
 222              		.cfi_endproc
 223              	.LFE121:
 225              		.section	.text.iref_step_data_config,"ax",%progbits
 226              		.align	1
 227              		.p2align 2,,3
 228              		.global	iref_step_data_config
 229              		.syntax unified
 230              		.thumb
 231              		.thumb_func
 233              	iref_step_data_config:
 234              	.LVL5:
 235              	.LFB122:
 114:../../../support/device/gd32f4xx/peripherals/src/gd32f4xx_iref.c **** 
 115:../../../support/device/gd32f4xx/peripherals/src/gd32f4xx_iref.c **** /*!
 116:../../../support/device/gd32f4xx/peripherals/src/gd32f4xx_iref.c ****     \brief      set IREF step data
 117:../../../support/device/gd32f4xx/peripherals/src/gd32f4xx_iref.c ****     \param[in]  stepdata
 118:../../../support/device/gd32f4xx/peripherals/src/gd32f4xx_iref.c ****       \arg        IREF_CUR_STEP_DATA_X:(x=0..63): step*x
ARM GAS  /var/folders/_f/88qcw_5n2jl40jjphvxyt7wh0000gn/T//ccKoJQTU.s 			page 7


 119:../../../support/device/gd32f4xx/peripherals/src/gd32f4xx_iref.c ****     \param[out] none
 120:../../../support/device/gd32f4xx/peripherals/src/gd32f4xx_iref.c ****     \retval     none
 121:../../../support/device/gd32f4xx/peripherals/src/gd32f4xx_iref.c **** */
 122:../../../support/device/gd32f4xx/peripherals/src/gd32f4xx_iref.c **** 
 123:../../../support/device/gd32f4xx/peripherals/src/gd32f4xx_iref.c **** void iref_step_data_config(uint32_t stepdata)
 124:../../../support/device/gd32f4xx/peripherals/src/gd32f4xx_iref.c **** {
 236              		.loc 1 124 1 is_stmt 1 view -0
 237              		.cfi_startproc
 238              		@ args = 0, pretend = 0, frame = 0
 239              		@ frame_needed = 0, uses_anonymous_args = 0
 240              		@ link register save eliminated.
 125:../../../support/device/gd32f4xx/peripherals/src/gd32f4xx_iref.c ****     IREF_CTL &= ~IREF_CTL_CSDT;
 241              		.loc 1 125 5 view .LVU34
 242              		.loc 1 125 14 is_stmt 0 view .LVU35
 243 0000 064B     		ldr	r3, .L20
 244 0002 D3F80017 		ldr	r1, [r3, #1792]
 245 0006 21F03F01 		bic	r1, r1, #63
 246 000a C3F80017 		str	r1, [r3, #1792]
 126:../../../support/device/gd32f4xx/peripherals/src/gd32f4xx_iref.c ****     IREF_CTL |= stepdata;
 247              		.loc 1 126 5 is_stmt 1 view .LVU36
 248              		.loc 1 126 14 is_stmt 0 view .LVU37
 249 000e D3F80027 		ldr	r2, [r3, #1792]
 250 0012 0243     		orrs	r2, r2, r0
 251 0014 C3F80027 		str	r2, [r3, #1792]
 127:../../../support/device/gd32f4xx/peripherals/src/gd32f4xx_iref.c **** }
 252              		.loc 1 127 1 view .LVU38
 253 0018 7047     		bx	lr
 254              	.L21:
 255 001a 00BF     		.align	2
 256              	.L20:
 257 001c 00C00040 		.word	1073790976
 258              		.cfi_endproc
 259              	.LFE122:
 261              		.text
 262              	.Letext0:
 263              		.file 2 "/Applications/ARM/arm-none-eabi/include/machine/_default_types.h"
 264              		.file 3 "/Applications/ARM/arm-none-eabi/include/sys/_stdint.h"
 265              		.file 4 "../../../support/device/gd32f4xx/peripherals/inc/gd32f4xx_rcu.h"
ARM GAS  /var/folders/_f/88qcw_5n2jl40jjphvxyt7wh0000gn/T//ccKoJQTU.s 			page 8

