ARM GAS  /var/folders/_f/88qcw_5n2jl40jjphvxyt7wh0000gn/T//ccvfIhXX.s 			page 1


   1              		.cpu cortex-m4
   2              		.arch armv7e-m
   3              		.fpu softvfp
   4              		.eabi_attribute 20, 1
   5              		.eabi_attribute 21, 1
   6              		.eabi_attribute 23, 3
   7              		.eabi_attribute 24, 1
   8              		.eabi_attribute 25, 1
   9              		.eabi_attribute 26, 1
  10              		.eabi_attribute 30, 2
  11              		.eabi_attribute 34, 1
  12              		.eabi_attribute 18, 4
  13              		.file	"gd32f4xx_dac.c"
  14              		.text
  15              	.Ltext0:
  16              		.cfi_sections	.debug_frame
  17              		.section	.text.dac_deinit,"ax",%progbits
  18              		.align	1
  19              		.p2align 2,,3
  20              		.global	dac_deinit
  21              		.syntax unified
  22              		.thumb
  23              		.thumb_func
  25              	dac_deinit:
  26              	.LFB116:
  27              		.file 1 "../../../support/device/gd32f4xx/peripherals/src/gd32f4xx_dac.c"
   1:../../../support/device/gd32f4xx/peripherals/src/gd32f4xx_dac.c **** /*!
   2:../../../support/device/gd32f4xx/peripherals/src/gd32f4xx_dac.c ****     \file    gd32f4xx_dac.c
   3:../../../support/device/gd32f4xx/peripherals/src/gd32f4xx_dac.c ****     \brief   DAC driver
   4:../../../support/device/gd32f4xx/peripherals/src/gd32f4xx_dac.c **** 
   5:../../../support/device/gd32f4xx/peripherals/src/gd32f4xx_dac.c ****     \version 2016-08-15, V1.0.0, firmware for GD32F4xx
   6:../../../support/device/gd32f4xx/peripherals/src/gd32f4xx_dac.c ****     \version 2018-12-12, V2.0.0, firmware for GD32F4xx
   7:../../../support/device/gd32f4xx/peripherals/src/gd32f4xx_dac.c ****     \version 2020-09-30, V2.1.0, firmware for GD32F4xx
   8:../../../support/device/gd32f4xx/peripherals/src/gd32f4xx_dac.c ****     \version 2022-03-09, V3.0.0, firmware for GD32F4xx
   9:../../../support/device/gd32f4xx/peripherals/src/gd32f4xx_dac.c **** */
  10:../../../support/device/gd32f4xx/peripherals/src/gd32f4xx_dac.c **** 
  11:../../../support/device/gd32f4xx/peripherals/src/gd32f4xx_dac.c **** /*
  12:../../../support/device/gd32f4xx/peripherals/src/gd32f4xx_dac.c ****     Copyright (c) 2022, GigaDevice Semiconductor Inc.
  13:../../../support/device/gd32f4xx/peripherals/src/gd32f4xx_dac.c **** 
  14:../../../support/device/gd32f4xx/peripherals/src/gd32f4xx_dac.c ****     Redistribution and use in source and binary forms, with or without modification,
  15:../../../support/device/gd32f4xx/peripherals/src/gd32f4xx_dac.c **** are permitted provided that the following conditions are met:
  16:../../../support/device/gd32f4xx/peripherals/src/gd32f4xx_dac.c **** 
  17:../../../support/device/gd32f4xx/peripherals/src/gd32f4xx_dac.c ****     1. Redistributions of source code must retain the above copyright notice, this
  18:../../../support/device/gd32f4xx/peripherals/src/gd32f4xx_dac.c ****        list of conditions and the following disclaimer.
  19:../../../support/device/gd32f4xx/peripherals/src/gd32f4xx_dac.c ****     2. Redistributions in binary form must reproduce the above copyright notice,
  20:../../../support/device/gd32f4xx/peripherals/src/gd32f4xx_dac.c ****        this list of conditions and the following disclaimer in the documentation
  21:../../../support/device/gd32f4xx/peripherals/src/gd32f4xx_dac.c ****        and/or other materials provided with the distribution.
  22:../../../support/device/gd32f4xx/peripherals/src/gd32f4xx_dac.c ****     3. Neither the name of the copyright holder nor the names of its contributors
  23:../../../support/device/gd32f4xx/peripherals/src/gd32f4xx_dac.c ****        may be used to endorse or promote products derived from this software without
  24:../../../support/device/gd32f4xx/peripherals/src/gd32f4xx_dac.c ****        specific prior written permission.
  25:../../../support/device/gd32f4xx/peripherals/src/gd32f4xx_dac.c **** 
  26:../../../support/device/gd32f4xx/peripherals/src/gd32f4xx_dac.c ****     THIS SOFTWARE IS PROVIDED BY THE COPYRIGHT HOLDERS AND CONTRIBUTORS "AS IS"
  27:../../../support/device/gd32f4xx/peripherals/src/gd32f4xx_dac.c **** AND ANY EXPRESS OR IMPLIED WARRANTIES, INCLUDING, BUT NOT LIMITED TO, THE IMPLIED
  28:../../../support/device/gd32f4xx/peripherals/src/gd32f4xx_dac.c **** WARRANTIES OF MERCHANTABILITY AND FITNESS FOR A PARTICULAR PURPOSE ARE DISCLAIMED.
  29:../../../support/device/gd32f4xx/peripherals/src/gd32f4xx_dac.c **** IN NO EVENT SHALL THE COPYRIGHT HOLDER OR CONTRIBUTORS BE LIABLE FOR ANY DIRECT,
  30:../../../support/device/gd32f4xx/peripherals/src/gd32f4xx_dac.c **** INDIRECT, INCIDENTAL, SPECIAL, EXEMPLARY, OR CONSEQUENTIAL DAMAGES (INCLUDING, BUT
  31:../../../support/device/gd32f4xx/peripherals/src/gd32f4xx_dac.c **** NOT LIMITED TO, PROCUREMENT OF SUBSTITUTE GOODS OR SERVICES; LOSS OF USE, DATA, OR
ARM GAS  /var/folders/_f/88qcw_5n2jl40jjphvxyt7wh0000gn/T//ccvfIhXX.s 			page 2


  32:../../../support/device/gd32f4xx/peripherals/src/gd32f4xx_dac.c **** PROFITS; OR BUSINESS INTERRUPTION) HOWEVER CAUSED AND ON ANY THEORY OF LIABILITY,
  33:../../../support/device/gd32f4xx/peripherals/src/gd32f4xx_dac.c **** WHETHER IN CONTRACT, STRICT LIABILITY, OR TORT (INCLUDING NEGLIGENCE OR OTHERWISE)
  34:../../../support/device/gd32f4xx/peripherals/src/gd32f4xx_dac.c **** ARISING IN ANY WAY OUT OF THE USE OF THIS SOFTWARE, EVEN IF ADVISED OF THE POSSIBILITY
  35:../../../support/device/gd32f4xx/peripherals/src/gd32f4xx_dac.c **** OF SUCH DAMAGE.
  36:../../../support/device/gd32f4xx/peripherals/src/gd32f4xx_dac.c **** */
  37:../../../support/device/gd32f4xx/peripherals/src/gd32f4xx_dac.c **** 
  38:../../../support/device/gd32f4xx/peripherals/src/gd32f4xx_dac.c **** #include "gd32f4xx_dac.h"
  39:../../../support/device/gd32f4xx/peripherals/src/gd32f4xx_dac.c **** 
  40:../../../support/device/gd32f4xx/peripherals/src/gd32f4xx_dac.c **** /* DAC register bit offset */
  41:../../../support/device/gd32f4xx/peripherals/src/gd32f4xx_dac.c **** #define DAC1_REG_OFFSET           ((uint32_t)16U)
  42:../../../support/device/gd32f4xx/peripherals/src/gd32f4xx_dac.c **** #define DH_12BIT_OFFSET           ((uint32_t)16U)
  43:../../../support/device/gd32f4xx/peripherals/src/gd32f4xx_dac.c **** #define DH_8BIT_OFFSET            ((uint32_t)8U)
  44:../../../support/device/gd32f4xx/peripherals/src/gd32f4xx_dac.c **** 
  45:../../../support/device/gd32f4xx/peripherals/src/gd32f4xx_dac.c **** /*!
  46:../../../support/device/gd32f4xx/peripherals/src/gd32f4xx_dac.c ****     \brief      deinitialize DAC
  47:../../../support/device/gd32f4xx/peripherals/src/gd32f4xx_dac.c ****     \param[in]  none
  48:../../../support/device/gd32f4xx/peripherals/src/gd32f4xx_dac.c ****     \param[out] none
  49:../../../support/device/gd32f4xx/peripherals/src/gd32f4xx_dac.c ****     \retval     none
  50:../../../support/device/gd32f4xx/peripherals/src/gd32f4xx_dac.c **** */
  51:../../../support/device/gd32f4xx/peripherals/src/gd32f4xx_dac.c **** void dac_deinit(void)
  52:../../../support/device/gd32f4xx/peripherals/src/gd32f4xx_dac.c **** {
  28              		.loc 1 52 1 view -0
  29              		.cfi_startproc
  30              		@ args = 0, pretend = 0, frame = 0
  31              		@ frame_needed = 0, uses_anonymous_args = 0
  53:../../../support/device/gd32f4xx/peripherals/src/gd32f4xx_dac.c ****     rcu_periph_reset_enable(RCU_DACRST);
  32              		.loc 1 53 5 view .LVU1
  52:../../../support/device/gd32f4xx/peripherals/src/gd32f4xx_dac.c ****     rcu_periph_reset_enable(RCU_DACRST);
  33              		.loc 1 52 1 is_stmt 0 view .LVU2
  34 0000 08B5     		push	{r3, lr}
  35              	.LCFI0:
  36              		.cfi_def_cfa_offset 8
  37              		.cfi_offset 3, -8
  38              		.cfi_offset 14, -4
  39              		.loc 1 53 5 view .LVU3
  40 0002 40F61D00 		movw	r0, #2077
  41 0006 FFF7FEFF 		bl	rcu_periph_reset_enable
  42              	.LVL0:
  54:../../../support/device/gd32f4xx/peripherals/src/gd32f4xx_dac.c ****     rcu_periph_reset_disable(RCU_DACRST);
  43              		.loc 1 54 5 is_stmt 1 view .LVU4
  55:../../../support/device/gd32f4xx/peripherals/src/gd32f4xx_dac.c **** }
  44              		.loc 1 55 1 is_stmt 0 view .LVU5
  45 000a BDE80840 		pop	{r3, lr}
  46              	.LCFI1:
  47              		.cfi_restore 14
  48              		.cfi_restore 3
  49              		.cfi_def_cfa_offset 0
  54:../../../support/device/gd32f4xx/peripherals/src/gd32f4xx_dac.c ****     rcu_periph_reset_disable(RCU_DACRST);
  50              		.loc 1 54 5 view .LVU6
  51 000e 40F61D00 		movw	r0, #2077
  52 0012 FFF7FEBF 		b	rcu_periph_reset_disable
  53              	.LVL1:
  54              		.cfi_endproc
  55              	.LFE116:
  57 0016 00BF     		.section	.text.dac_enable,"ax",%progbits
  58              		.align	1
  59              		.p2align 2,,3
ARM GAS  /var/folders/_f/88qcw_5n2jl40jjphvxyt7wh0000gn/T//ccvfIhXX.s 			page 3


  60              		.global	dac_enable
  61              		.syntax unified
  62              		.thumb
  63              		.thumb_func
  65              	dac_enable:
  66              	.LVL2:
  67              	.LFB117:
  56:../../../support/device/gd32f4xx/peripherals/src/gd32f4xx_dac.c **** 
  57:../../../support/device/gd32f4xx/peripherals/src/gd32f4xx_dac.c **** /*!
  58:../../../support/device/gd32f4xx/peripherals/src/gd32f4xx_dac.c ****     \brief      enable DAC
  59:../../../support/device/gd32f4xx/peripherals/src/gd32f4xx_dac.c ****     \param[in]  dac_periph: DACx(x = 0,1)
  60:../../../support/device/gd32f4xx/peripherals/src/gd32f4xx_dac.c ****     \param[out] none
  61:../../../support/device/gd32f4xx/peripherals/src/gd32f4xx_dac.c ****     \retval     none
  62:../../../support/device/gd32f4xx/peripherals/src/gd32f4xx_dac.c **** */
  63:../../../support/device/gd32f4xx/peripherals/src/gd32f4xx_dac.c **** void dac_enable(uint32_t dac_periph)
  64:../../../support/device/gd32f4xx/peripherals/src/gd32f4xx_dac.c **** {
  68              		.loc 1 64 1 is_stmt 1 view -0
  69              		.cfi_startproc
  70              		@ args = 0, pretend = 0, frame = 0
  71              		@ frame_needed = 0, uses_anonymous_args = 0
  72              		@ link register save eliminated.
  65:../../../support/device/gd32f4xx/peripherals/src/gd32f4xx_dac.c ****     if(DAC0 == dac_periph) {
  73              		.loc 1 65 5 view .LVU8
  66:../../../support/device/gd32f4xx/peripherals/src/gd32f4xx_dac.c ****         DAC_CTL |= DAC_CTL_DEN0;
  74              		.loc 1 66 17 is_stmt 0 view .LVU9
  75 0000 064A     		ldr	r2, .L7
  76 0002 D2F80034 		ldr	r3, [r2, #1024]
  65:../../../support/device/gd32f4xx/peripherals/src/gd32f4xx_dac.c ****     if(DAC0 == dac_periph) {
  77              		.loc 1 65 7 view .LVU10
  78 0006 20B9     		cbnz	r0, .L5
  79              		.loc 1 66 9 is_stmt 1 view .LVU11
  80              		.loc 1 66 17 is_stmt 0 view .LVU12
  81 0008 43F00103 		orr	r3, r3, #1
  82 000c C2F80034 		str	r3, [r2, #1024]
  83 0010 7047     		bx	lr
  84              	.L5:
  67:../../../support/device/gd32f4xx/peripherals/src/gd32f4xx_dac.c ****     } else {
  68:../../../support/device/gd32f4xx/peripherals/src/gd32f4xx_dac.c ****         DAC_CTL |= DAC_CTL_DEN1;
  85              		.loc 1 68 9 is_stmt 1 view .LVU13
  86              		.loc 1 68 17 is_stmt 0 view .LVU14
  87 0012 43F48033 		orr	r3, r3, #65536
  88 0016 C2F80034 		str	r3, [r2, #1024]
  69:../../../support/device/gd32f4xx/peripherals/src/gd32f4xx_dac.c ****     }
  70:../../../support/device/gd32f4xx/peripherals/src/gd32f4xx_dac.c **** }
  89              		.loc 1 70 1 view .LVU15
  90 001a 7047     		bx	lr
  91              	.L8:
  92              		.align	2
  93              	.L7:
  94 001c 00700040 		.word	1073770496
  95              		.cfi_endproc
  96              	.LFE117:
  98              		.section	.text.dac_disable,"ax",%progbits
  99              		.align	1
 100              		.p2align 2,,3
 101              		.global	dac_disable
 102              		.syntax unified
ARM GAS  /var/folders/_f/88qcw_5n2jl40jjphvxyt7wh0000gn/T//ccvfIhXX.s 			page 4


 103              		.thumb
 104              		.thumb_func
 106              	dac_disable:
 107              	.LVL3:
 108              	.LFB118:
  71:../../../support/device/gd32f4xx/peripherals/src/gd32f4xx_dac.c **** 
  72:../../../support/device/gd32f4xx/peripherals/src/gd32f4xx_dac.c **** /*!
  73:../../../support/device/gd32f4xx/peripherals/src/gd32f4xx_dac.c ****     \brief      disable DAC
  74:../../../support/device/gd32f4xx/peripherals/src/gd32f4xx_dac.c ****     \param[in]  dac_periph: DACx(x = 0,1)
  75:../../../support/device/gd32f4xx/peripherals/src/gd32f4xx_dac.c ****     \param[out] none
  76:../../../support/device/gd32f4xx/peripherals/src/gd32f4xx_dac.c ****     \retval     none
  77:../../../support/device/gd32f4xx/peripherals/src/gd32f4xx_dac.c **** */
  78:../../../support/device/gd32f4xx/peripherals/src/gd32f4xx_dac.c **** void dac_disable(uint32_t dac_periph)
  79:../../../support/device/gd32f4xx/peripherals/src/gd32f4xx_dac.c **** {
 109              		.loc 1 79 1 is_stmt 1 view -0
 110              		.cfi_startproc
 111              		@ args = 0, pretend = 0, frame = 0
 112              		@ frame_needed = 0, uses_anonymous_args = 0
 113              		@ link register save eliminated.
  80:../../../support/device/gd32f4xx/peripherals/src/gd32f4xx_dac.c ****     if(DAC0 == dac_periph) {
 114              		.loc 1 80 5 view .LVU17
  81:../../../support/device/gd32f4xx/peripherals/src/gd32f4xx_dac.c ****         DAC_CTL &= ~DAC_CTL_DEN0;
 115              		.loc 1 81 17 is_stmt 0 view .LVU18
 116 0000 064A     		ldr	r2, .L12
 117 0002 D2F80034 		ldr	r3, [r2, #1024]
  80:../../../support/device/gd32f4xx/peripherals/src/gd32f4xx_dac.c ****     if(DAC0 == dac_periph) {
 118              		.loc 1 80 7 view .LVU19
 119 0006 20B9     		cbnz	r0, .L10
 120              		.loc 1 81 9 is_stmt 1 view .LVU20
 121              		.loc 1 81 17 is_stmt 0 view .LVU21
 122 0008 23F00103 		bic	r3, r3, #1
 123 000c C2F80034 		str	r3, [r2, #1024]
 124 0010 7047     		bx	lr
 125              	.L10:
  82:../../../support/device/gd32f4xx/peripherals/src/gd32f4xx_dac.c ****     } else {
  83:../../../support/device/gd32f4xx/peripherals/src/gd32f4xx_dac.c ****         DAC_CTL &= ~DAC_CTL_DEN1;
 126              		.loc 1 83 9 is_stmt 1 view .LVU22
 127              		.loc 1 83 17 is_stmt 0 view .LVU23
 128 0012 23F48033 		bic	r3, r3, #65536
 129 0016 C2F80034 		str	r3, [r2, #1024]
  84:../../../support/device/gd32f4xx/peripherals/src/gd32f4xx_dac.c ****     }
  85:../../../support/device/gd32f4xx/peripherals/src/gd32f4xx_dac.c **** }
 130              		.loc 1 85 1 view .LVU24
 131 001a 7047     		bx	lr
 132              	.L13:
 133              		.align	2
 134              	.L12:
 135 001c 00700040 		.word	1073770496
 136              		.cfi_endproc
 137              	.LFE118:
 139              		.section	.text.dac_dma_enable,"ax",%progbits
 140              		.align	1
 141              		.p2align 2,,3
 142              		.global	dac_dma_enable
 143              		.syntax unified
 144              		.thumb
 145              		.thumb_func
ARM GAS  /var/folders/_f/88qcw_5n2jl40jjphvxyt7wh0000gn/T//ccvfIhXX.s 			page 5


 147              	dac_dma_enable:
 148              	.LVL4:
 149              	.LFB119:
  86:../../../support/device/gd32f4xx/peripherals/src/gd32f4xx_dac.c **** 
  87:../../../support/device/gd32f4xx/peripherals/src/gd32f4xx_dac.c **** /*!
  88:../../../support/device/gd32f4xx/peripherals/src/gd32f4xx_dac.c ****     \brief      enable DAC DMA function
  89:../../../support/device/gd32f4xx/peripherals/src/gd32f4xx_dac.c ****     \param[in]  dac_periph: DACx(x = 0,1)
  90:../../../support/device/gd32f4xx/peripherals/src/gd32f4xx_dac.c ****     \param[out] none
  91:../../../support/device/gd32f4xx/peripherals/src/gd32f4xx_dac.c ****     \retval     none
  92:../../../support/device/gd32f4xx/peripherals/src/gd32f4xx_dac.c **** */
  93:../../../support/device/gd32f4xx/peripherals/src/gd32f4xx_dac.c **** void dac_dma_enable(uint32_t dac_periph)
  94:../../../support/device/gd32f4xx/peripherals/src/gd32f4xx_dac.c **** {
 150              		.loc 1 94 1 is_stmt 1 view -0
 151              		.cfi_startproc
 152              		@ args = 0, pretend = 0, frame = 0
 153              		@ frame_needed = 0, uses_anonymous_args = 0
 154              		@ link register save eliminated.
  95:../../../support/device/gd32f4xx/peripherals/src/gd32f4xx_dac.c ****     if(DAC0 == dac_periph) {
 155              		.loc 1 95 5 view .LVU26
  96:../../../support/device/gd32f4xx/peripherals/src/gd32f4xx_dac.c ****         DAC_CTL |= DAC_CTL_DDMAEN0;
 156              		.loc 1 96 17 is_stmt 0 view .LVU27
 157 0000 064A     		ldr	r2, .L17
 158 0002 D2F80034 		ldr	r3, [r2, #1024]
  95:../../../support/device/gd32f4xx/peripherals/src/gd32f4xx_dac.c ****     if(DAC0 == dac_periph) {
 159              		.loc 1 95 7 view .LVU28
 160 0006 20B9     		cbnz	r0, .L15
 161              		.loc 1 96 9 is_stmt 1 view .LVU29
 162              		.loc 1 96 17 is_stmt 0 view .LVU30
 163 0008 43F48053 		orr	r3, r3, #4096
 164 000c C2F80034 		str	r3, [r2, #1024]
 165 0010 7047     		bx	lr
 166              	.L15:
  97:../../../support/device/gd32f4xx/peripherals/src/gd32f4xx_dac.c ****     } else {
  98:../../../support/device/gd32f4xx/peripherals/src/gd32f4xx_dac.c ****         DAC_CTL |= DAC_CTL_DDMAEN1;
 167              		.loc 1 98 9 is_stmt 1 view .LVU31
 168              		.loc 1 98 17 is_stmt 0 view .LVU32
 169 0012 43F08053 		orr	r3, r3, #268435456
 170 0016 C2F80034 		str	r3, [r2, #1024]
  99:../../../support/device/gd32f4xx/peripherals/src/gd32f4xx_dac.c ****     }
 100:../../../support/device/gd32f4xx/peripherals/src/gd32f4xx_dac.c **** }
 171              		.loc 1 100 1 view .LVU33
 172 001a 7047     		bx	lr
 173              	.L18:
 174              		.align	2
 175              	.L17:
 176 001c 00700040 		.word	1073770496
 177              		.cfi_endproc
 178              	.LFE119:
 180              		.section	.text.dac_dma_disable,"ax",%progbits
 181              		.align	1
 182              		.p2align 2,,3
 183              		.global	dac_dma_disable
 184              		.syntax unified
 185              		.thumb
 186              		.thumb_func
 188              	dac_dma_disable:
 189              	.LVL5:
ARM GAS  /var/folders/_f/88qcw_5n2jl40jjphvxyt7wh0000gn/T//ccvfIhXX.s 			page 6


 190              	.LFB120:
 101:../../../support/device/gd32f4xx/peripherals/src/gd32f4xx_dac.c **** 
 102:../../../support/device/gd32f4xx/peripherals/src/gd32f4xx_dac.c **** /*!
 103:../../../support/device/gd32f4xx/peripherals/src/gd32f4xx_dac.c ****     \brief      disable DAC DMA function
 104:../../../support/device/gd32f4xx/peripherals/src/gd32f4xx_dac.c ****     \param[in]  dac_periph: DACx(x = 0,1)
 105:../../../support/device/gd32f4xx/peripherals/src/gd32f4xx_dac.c ****     \param[out] none
 106:../../../support/device/gd32f4xx/peripherals/src/gd32f4xx_dac.c ****     \retval     none
 107:../../../support/device/gd32f4xx/peripherals/src/gd32f4xx_dac.c **** */
 108:../../../support/device/gd32f4xx/peripherals/src/gd32f4xx_dac.c **** void dac_dma_disable(uint32_t dac_periph)
 109:../../../support/device/gd32f4xx/peripherals/src/gd32f4xx_dac.c **** {
 191              		.loc 1 109 1 is_stmt 1 view -0
 192              		.cfi_startproc
 193              		@ args = 0, pretend = 0, frame = 0
 194              		@ frame_needed = 0, uses_anonymous_args = 0
 195              		@ link register save eliminated.
 110:../../../support/device/gd32f4xx/peripherals/src/gd32f4xx_dac.c ****     if(DAC0 == dac_periph) {
 196              		.loc 1 110 5 view .LVU35
 111:../../../support/device/gd32f4xx/peripherals/src/gd32f4xx_dac.c ****         DAC_CTL &= ~DAC_CTL_DDMAEN0;
 197              		.loc 1 111 17 is_stmt 0 view .LVU36
 198 0000 064A     		ldr	r2, .L22
 199 0002 D2F80034 		ldr	r3, [r2, #1024]
 110:../../../support/device/gd32f4xx/peripherals/src/gd32f4xx_dac.c ****     if(DAC0 == dac_periph) {
 200              		.loc 1 110 7 view .LVU37
 201 0006 20B9     		cbnz	r0, .L20
 202              		.loc 1 111 9 is_stmt 1 view .LVU38
 203              		.loc 1 111 17 is_stmt 0 view .LVU39
 204 0008 23F48053 		bic	r3, r3, #4096
 205 000c C2F80034 		str	r3, [r2, #1024]
 206 0010 7047     		bx	lr
 207              	.L20:
 112:../../../support/device/gd32f4xx/peripherals/src/gd32f4xx_dac.c ****     } else {
 113:../../../support/device/gd32f4xx/peripherals/src/gd32f4xx_dac.c ****         DAC_CTL &= ~DAC_CTL_DDMAEN1;
 208              		.loc 1 113 9 is_stmt 1 view .LVU40
 209              		.loc 1 113 17 is_stmt 0 view .LVU41
 210 0012 23F08053 		bic	r3, r3, #268435456
 211 0016 C2F80034 		str	r3, [r2, #1024]
 114:../../../support/device/gd32f4xx/peripherals/src/gd32f4xx_dac.c ****     }
 115:../../../support/device/gd32f4xx/peripherals/src/gd32f4xx_dac.c **** }
 212              		.loc 1 115 1 view .LVU42
 213 001a 7047     		bx	lr
 214              	.L23:
 215              		.align	2
 216              	.L22:
 217 001c 00700040 		.word	1073770496
 218              		.cfi_endproc
 219              	.LFE120:
 221              		.section	.text.dac_output_buffer_enable,"ax",%progbits
 222              		.align	1
 223              		.p2align 2,,3
 224              		.global	dac_output_buffer_enable
 225              		.syntax unified
 226              		.thumb
 227              		.thumb_func
 229              	dac_output_buffer_enable:
 230              	.LVL6:
 231              	.LFB121:
 116:../../../support/device/gd32f4xx/peripherals/src/gd32f4xx_dac.c **** 
ARM GAS  /var/folders/_f/88qcw_5n2jl40jjphvxyt7wh0000gn/T//ccvfIhXX.s 			page 7


 117:../../../support/device/gd32f4xx/peripherals/src/gd32f4xx_dac.c **** /*!
 118:../../../support/device/gd32f4xx/peripherals/src/gd32f4xx_dac.c ****     \brief      enable DAC output buffer
 119:../../../support/device/gd32f4xx/peripherals/src/gd32f4xx_dac.c ****     \param[in]  dac_periph: DACx(x = 0,1)
 120:../../../support/device/gd32f4xx/peripherals/src/gd32f4xx_dac.c ****     \param[out] none
 121:../../../support/device/gd32f4xx/peripherals/src/gd32f4xx_dac.c ****     \retval     none
 122:../../../support/device/gd32f4xx/peripherals/src/gd32f4xx_dac.c **** */
 123:../../../support/device/gd32f4xx/peripherals/src/gd32f4xx_dac.c **** void dac_output_buffer_enable(uint32_t dac_periph)
 124:../../../support/device/gd32f4xx/peripherals/src/gd32f4xx_dac.c **** {
 232              		.loc 1 124 1 is_stmt 1 view -0
 233              		.cfi_startproc
 234              		@ args = 0, pretend = 0, frame = 0
 235              		@ frame_needed = 0, uses_anonymous_args = 0
 236              		@ link register save eliminated.
 125:../../../support/device/gd32f4xx/peripherals/src/gd32f4xx_dac.c ****     if(DAC0 == dac_periph) {
 237              		.loc 1 125 5 view .LVU44
 126:../../../support/device/gd32f4xx/peripherals/src/gd32f4xx_dac.c ****         DAC_CTL &= ~DAC_CTL_DBOFF0;
 238              		.loc 1 126 17 is_stmt 0 view .LVU45
 239 0000 064A     		ldr	r2, .L27
 240 0002 D2F80034 		ldr	r3, [r2, #1024]
 125:../../../support/device/gd32f4xx/peripherals/src/gd32f4xx_dac.c ****     if(DAC0 == dac_periph) {
 241              		.loc 1 125 7 view .LVU46
 242 0006 20B9     		cbnz	r0, .L25
 243              		.loc 1 126 9 is_stmt 1 view .LVU47
 244              		.loc 1 126 17 is_stmt 0 view .LVU48
 245 0008 23F00203 		bic	r3, r3, #2
 246 000c C2F80034 		str	r3, [r2, #1024]
 247 0010 7047     		bx	lr
 248              	.L25:
 127:../../../support/device/gd32f4xx/peripherals/src/gd32f4xx_dac.c ****     } else {
 128:../../../support/device/gd32f4xx/peripherals/src/gd32f4xx_dac.c ****         DAC_CTL &= ~DAC_CTL_DBOFF1;
 249              		.loc 1 128 9 is_stmt 1 view .LVU49
 250              		.loc 1 128 17 is_stmt 0 view .LVU50
 251 0012 23F40033 		bic	r3, r3, #131072
 252 0016 C2F80034 		str	r3, [r2, #1024]
 129:../../../support/device/gd32f4xx/peripherals/src/gd32f4xx_dac.c ****     }
 130:../../../support/device/gd32f4xx/peripherals/src/gd32f4xx_dac.c **** }
 253              		.loc 1 130 1 view .LVU51
 254 001a 7047     		bx	lr
 255              	.L28:
 256              		.align	2
 257              	.L27:
 258 001c 00700040 		.word	1073770496
 259              		.cfi_endproc
 260              	.LFE121:
 262              		.section	.text.dac_output_buffer_disable,"ax",%progbits
 263              		.align	1
 264              		.p2align 2,,3
 265              		.global	dac_output_buffer_disable
 266              		.syntax unified
 267              		.thumb
 268              		.thumb_func
 270              	dac_output_buffer_disable:
 271              	.LVL7:
 272              	.LFB122:
 131:../../../support/device/gd32f4xx/peripherals/src/gd32f4xx_dac.c **** 
 132:../../../support/device/gd32f4xx/peripherals/src/gd32f4xx_dac.c **** /*!
 133:../../../support/device/gd32f4xx/peripherals/src/gd32f4xx_dac.c ****     \brief      disable DAC output buffer
ARM GAS  /var/folders/_f/88qcw_5n2jl40jjphvxyt7wh0000gn/T//ccvfIhXX.s 			page 8


 134:../../../support/device/gd32f4xx/peripherals/src/gd32f4xx_dac.c ****     \param[in]  dac_periph: DACx(x = 0,1)
 135:../../../support/device/gd32f4xx/peripherals/src/gd32f4xx_dac.c ****     \param[out] none
 136:../../../support/device/gd32f4xx/peripherals/src/gd32f4xx_dac.c ****     \retval     none
 137:../../../support/device/gd32f4xx/peripherals/src/gd32f4xx_dac.c **** */
 138:../../../support/device/gd32f4xx/peripherals/src/gd32f4xx_dac.c **** void dac_output_buffer_disable(uint32_t dac_periph)
 139:../../../support/device/gd32f4xx/peripherals/src/gd32f4xx_dac.c **** {
 273              		.loc 1 139 1 is_stmt 1 view -0
 274              		.cfi_startproc
 275              		@ args = 0, pretend = 0, frame = 0
 276              		@ frame_needed = 0, uses_anonymous_args = 0
 277              		@ link register save eliminated.
 140:../../../support/device/gd32f4xx/peripherals/src/gd32f4xx_dac.c ****     if(DAC0 == dac_periph) {
 278              		.loc 1 140 5 view .LVU53
 141:../../../support/device/gd32f4xx/peripherals/src/gd32f4xx_dac.c ****         DAC_CTL |= DAC_CTL_DBOFF0;
 279              		.loc 1 141 17 is_stmt 0 view .LVU54
 280 0000 064A     		ldr	r2, .L32
 281 0002 D2F80034 		ldr	r3, [r2, #1024]
 140:../../../support/device/gd32f4xx/peripherals/src/gd32f4xx_dac.c ****     if(DAC0 == dac_periph) {
 282              		.loc 1 140 7 view .LVU55
 283 0006 20B9     		cbnz	r0, .L30
 284              		.loc 1 141 9 is_stmt 1 view .LVU56
 285              		.loc 1 141 17 is_stmt 0 view .LVU57
 286 0008 43F00203 		orr	r3, r3, #2
 287 000c C2F80034 		str	r3, [r2, #1024]
 288 0010 7047     		bx	lr
 289              	.L30:
 142:../../../support/device/gd32f4xx/peripherals/src/gd32f4xx_dac.c ****     } else {
 143:../../../support/device/gd32f4xx/peripherals/src/gd32f4xx_dac.c ****         DAC_CTL |= DAC_CTL_DBOFF1;
 290              		.loc 1 143 9 is_stmt 1 view .LVU58
 291              		.loc 1 143 17 is_stmt 0 view .LVU59
 292 0012 43F40033 		orr	r3, r3, #131072
 293 0016 C2F80034 		str	r3, [r2, #1024]
 144:../../../support/device/gd32f4xx/peripherals/src/gd32f4xx_dac.c ****     }
 145:../../../support/device/gd32f4xx/peripherals/src/gd32f4xx_dac.c **** }
 294              		.loc 1 145 1 view .LVU60
 295 001a 7047     		bx	lr
 296              	.L33:
 297              		.align	2
 298              	.L32:
 299 001c 00700040 		.word	1073770496
 300              		.cfi_endproc
 301              	.LFE122:
 303              		.section	.text.dac_output_value_get,"ax",%progbits
 304              		.align	1
 305              		.p2align 2,,3
 306              		.global	dac_output_value_get
 307              		.syntax unified
 308              		.thumb
 309              		.thumb_func
 311              	dac_output_value_get:
 312              	.LVL8:
 313              	.LFB123:
 146:../../../support/device/gd32f4xx/peripherals/src/gd32f4xx_dac.c **** 
 147:../../../support/device/gd32f4xx/peripherals/src/gd32f4xx_dac.c **** /*!
 148:../../../support/device/gd32f4xx/peripherals/src/gd32f4xx_dac.c ****     \brief      get DAC output value
 149:../../../support/device/gd32f4xx/peripherals/src/gd32f4xx_dac.c ****     \param[in]  dac_periph: DACx(x = 0,1)
 150:../../../support/device/gd32f4xx/peripherals/src/gd32f4xx_dac.c ****     \param[out] none
ARM GAS  /var/folders/_f/88qcw_5n2jl40jjphvxyt7wh0000gn/T//ccvfIhXX.s 			page 9


 151:../../../support/device/gd32f4xx/peripherals/src/gd32f4xx_dac.c ****     \retval     DAC output data
 152:../../../support/device/gd32f4xx/peripherals/src/gd32f4xx_dac.c **** */
 153:../../../support/device/gd32f4xx/peripherals/src/gd32f4xx_dac.c **** uint16_t dac_output_value_get(uint32_t dac_periph)
 154:../../../support/device/gd32f4xx/peripherals/src/gd32f4xx_dac.c **** {
 314              		.loc 1 154 1 is_stmt 1 view -0
 315              		.cfi_startproc
 316              		@ args = 0, pretend = 0, frame = 0
 317              		@ frame_needed = 0, uses_anonymous_args = 0
 318              		@ link register save eliminated.
 155:../../../support/device/gd32f4xx/peripherals/src/gd32f4xx_dac.c ****     uint16_t data = 0U;
 319              		.loc 1 155 5 view .LVU62
 156:../../../support/device/gd32f4xx/peripherals/src/gd32f4xx_dac.c ****     if(DAC0 == dac_periph) {
 320              		.loc 1 156 5 view .LVU63
 157:../../../support/device/gd32f4xx/peripherals/src/gd32f4xx_dac.c ****         /* store the DAC0 output value */
 158:../../../support/device/gd32f4xx/peripherals/src/gd32f4xx_dac.c ****         data = (uint16_t)DAC0_DO;
 321              		.loc 1 158 26 is_stmt 0 view .LVU64
 322 0000 044B     		ldr	r3, .L37
 156:../../../support/device/gd32f4xx/peripherals/src/gd32f4xx_dac.c ****     if(DAC0 == dac_periph) {
 323              		.loc 1 156 7 view .LVU65
 324 0002 18B9     		cbnz	r0, .L35
 325              		.loc 1 158 9 is_stmt 1 view .LVU66
 326              		.loc 1 158 26 is_stmt 0 view .LVU67
 327 0004 D3F82C04 		ldr	r0, [r3, #1068]
 328              	.LVL9:
 329              		.loc 1 158 14 view .LVU68
 330 0008 80B2     		uxth	r0, r0
 331              	.LVL10:
 332              		.loc 1 158 14 view .LVU69
 333 000a 7047     		bx	lr
 334              	.LVL11:
 335              	.L35:
 159:../../../support/device/gd32f4xx/peripherals/src/gd32f4xx_dac.c ****     } else {
 160:../../../support/device/gd32f4xx/peripherals/src/gd32f4xx_dac.c ****         /* store the DAC1 output value */
 161:../../../support/device/gd32f4xx/peripherals/src/gd32f4xx_dac.c ****         data = (uint16_t)DAC1_DO;
 336              		.loc 1 161 9 is_stmt 1 view .LVU70
 337              		.loc 1 161 26 is_stmt 0 view .LVU71
 338 000c D3F83004 		ldr	r0, [r3, #1072]
 339              	.LVL12:
 340              		.loc 1 161 14 view .LVU72
 341 0010 80B2     		uxth	r0, r0
 342              	.LVL13:
 162:../../../support/device/gd32f4xx/peripherals/src/gd32f4xx_dac.c ****     }
 163:../../../support/device/gd32f4xx/peripherals/src/gd32f4xx_dac.c ****     return data;
 343              		.loc 1 163 5 is_stmt 1 view .LVU73
 164:../../../support/device/gd32f4xx/peripherals/src/gd32f4xx_dac.c **** }
 344              		.loc 1 164 1 is_stmt 0 view .LVU74
 345 0012 7047     		bx	lr
 346              	.L38:
 347              		.align	2
 348              	.L37:
 349 0014 00700040 		.word	1073770496
 350              		.cfi_endproc
 351              	.LFE123:
 353              		.section	.text.dac_data_set,"ax",%progbits
 354              		.align	1
 355              		.p2align 2,,3
 356              		.global	dac_data_set
ARM GAS  /var/folders/_f/88qcw_5n2jl40jjphvxyt7wh0000gn/T//ccvfIhXX.s 			page 10


 357              		.syntax unified
 358              		.thumb
 359              		.thumb_func
 361              	dac_data_set:
 362              	.LVL14:
 363              	.LFB124:
 165:../../../support/device/gd32f4xx/peripherals/src/gd32f4xx_dac.c **** 
 166:../../../support/device/gd32f4xx/peripherals/src/gd32f4xx_dac.c **** /*!
 167:../../../support/device/gd32f4xx/peripherals/src/gd32f4xx_dac.c ****     \brief      set the DAC specified data holding register value
 168:../../../support/device/gd32f4xx/peripherals/src/gd32f4xx_dac.c ****     \param[in]  dac_periph: DACx(x = 0,1)
 169:../../../support/device/gd32f4xx/peripherals/src/gd32f4xx_dac.c ****     \param[in]  dac_align: data alignment
 170:../../../support/device/gd32f4xx/peripherals/src/gd32f4xx_dac.c ****                 only one parameter can be selected which is shown as below:
 171:../../../support/device/gd32f4xx/peripherals/src/gd32f4xx_dac.c ****       \arg        DAC_ALIGN_8B_R: data right 8 bit alignment
 172:../../../support/device/gd32f4xx/peripherals/src/gd32f4xx_dac.c ****       \arg        DAC_ALIGN_12B_R: data right 12 bit alignment
 173:../../../support/device/gd32f4xx/peripherals/src/gd32f4xx_dac.c ****       \arg        DAC_ALIGN_12B_L: data left 12 bit alignment
 174:../../../support/device/gd32f4xx/peripherals/src/gd32f4xx_dac.c ****     \param[in]  data: data to be loaded
 175:../../../support/device/gd32f4xx/peripherals/src/gd32f4xx_dac.c ****     \param[out] none
 176:../../../support/device/gd32f4xx/peripherals/src/gd32f4xx_dac.c ****     \retval     none
 177:../../../support/device/gd32f4xx/peripherals/src/gd32f4xx_dac.c **** */
 178:../../../support/device/gd32f4xx/peripherals/src/gd32f4xx_dac.c **** void dac_data_set(uint32_t dac_periph, uint32_t dac_align, uint16_t data)
 179:../../../support/device/gd32f4xx/peripherals/src/gd32f4xx_dac.c **** {
 364              		.loc 1 179 1 is_stmt 1 view -0
 365              		.cfi_startproc
 366              		@ args = 0, pretend = 0, frame = 0
 367              		@ frame_needed = 0, uses_anonymous_args = 0
 368              		@ link register save eliminated.
 180:../../../support/device/gd32f4xx/peripherals/src/gd32f4xx_dac.c ****     if(DAC0 == dac_periph) {
 369              		.loc 1 180 5 view .LVU76
 370              		.loc 1 180 7 is_stmt 0 view .LVU77
 371 0000 28B9     		cbnz	r0, .L40
 181:../../../support/device/gd32f4xx/peripherals/src/gd32f4xx_dac.c ****         switch(dac_align) {
 372              		.loc 1 181 9 is_stmt 1 view .LVU78
 373 0002 0129     		cmp	r1, #1
 374 0004 19D0     		beq	.L41
 375 0006 0229     		cmp	r1, #2
 376 0008 0BD0     		beq	.L42
 377 000a 71B1     		cbz	r1, .L46
 378              	.L39:
 182:../../../support/device/gd32f4xx/peripherals/src/gd32f4xx_dac.c ****         /* data right 12 bit alignment */
 183:../../../support/device/gd32f4xx/peripherals/src/gd32f4xx_dac.c ****         case DAC_ALIGN_12B_R:
 184:../../../support/device/gd32f4xx/peripherals/src/gd32f4xx_dac.c ****             DAC0_R12DH = data;
 185:../../../support/device/gd32f4xx/peripherals/src/gd32f4xx_dac.c ****             break;
 186:../../../support/device/gd32f4xx/peripherals/src/gd32f4xx_dac.c ****         /* data left 12 bit alignment */
 187:../../../support/device/gd32f4xx/peripherals/src/gd32f4xx_dac.c ****         case DAC_ALIGN_12B_L:
 188:../../../support/device/gd32f4xx/peripherals/src/gd32f4xx_dac.c ****             DAC0_L12DH = data;
 189:../../../support/device/gd32f4xx/peripherals/src/gd32f4xx_dac.c ****             break;
 190:../../../support/device/gd32f4xx/peripherals/src/gd32f4xx_dac.c ****         /* data right 8 bit alignment */
 191:../../../support/device/gd32f4xx/peripherals/src/gd32f4xx_dac.c ****         case DAC_ALIGN_8B_R:
 192:../../../support/device/gd32f4xx/peripherals/src/gd32f4xx_dac.c ****             DAC0_R8DH = data;
 193:../../../support/device/gd32f4xx/peripherals/src/gd32f4xx_dac.c ****             break;
 194:../../../support/device/gd32f4xx/peripherals/src/gd32f4xx_dac.c ****         default:
 195:../../../support/device/gd32f4xx/peripherals/src/gd32f4xx_dac.c ****             break;
 196:../../../support/device/gd32f4xx/peripherals/src/gd32f4xx_dac.c ****         }
 197:../../../support/device/gd32f4xx/peripherals/src/gd32f4xx_dac.c ****     } else {
 198:../../../support/device/gd32f4xx/peripherals/src/gd32f4xx_dac.c ****         switch(dac_align) {
 199:../../../support/device/gd32f4xx/peripherals/src/gd32f4xx_dac.c ****         /* data right 12 bit alignment */
 200:../../../support/device/gd32f4xx/peripherals/src/gd32f4xx_dac.c ****         case DAC_ALIGN_12B_R:
ARM GAS  /var/folders/_f/88qcw_5n2jl40jjphvxyt7wh0000gn/T//ccvfIhXX.s 			page 11


 201:../../../support/device/gd32f4xx/peripherals/src/gd32f4xx_dac.c ****             DAC1_R12DH = data;
 202:../../../support/device/gd32f4xx/peripherals/src/gd32f4xx_dac.c ****             break;
 203:../../../support/device/gd32f4xx/peripherals/src/gd32f4xx_dac.c ****         /* data left 12 bit alignment */
 204:../../../support/device/gd32f4xx/peripherals/src/gd32f4xx_dac.c ****         case DAC_ALIGN_12B_L:
 205:../../../support/device/gd32f4xx/peripherals/src/gd32f4xx_dac.c ****             DAC1_L12DH = data;
 206:../../../support/device/gd32f4xx/peripherals/src/gd32f4xx_dac.c ****             break;
 207:../../../support/device/gd32f4xx/peripherals/src/gd32f4xx_dac.c ****         /* data right 8 bit alignment */
 208:../../../support/device/gd32f4xx/peripherals/src/gd32f4xx_dac.c ****         case DAC_ALIGN_8B_R:
 209:../../../support/device/gd32f4xx/peripherals/src/gd32f4xx_dac.c ****             DAC1_R8DH = data;
 210:../../../support/device/gd32f4xx/peripherals/src/gd32f4xx_dac.c ****             break;
 211:../../../support/device/gd32f4xx/peripherals/src/gd32f4xx_dac.c ****         default:
 212:../../../support/device/gd32f4xx/peripherals/src/gd32f4xx_dac.c ****             break;
 213:../../../support/device/gd32f4xx/peripherals/src/gd32f4xx_dac.c ****         }
 214:../../../support/device/gd32f4xx/peripherals/src/gd32f4xx_dac.c ****     }
 215:../../../support/device/gd32f4xx/peripherals/src/gd32f4xx_dac.c **** }
 379              		.loc 1 215 1 is_stmt 0 view .LVU79
 380 000c 7047     		bx	lr
 381              	.L40:
 198:../../../support/device/gd32f4xx/peripherals/src/gd32f4xx_dac.c ****         /* data right 12 bit alignment */
 382              		.loc 1 198 9 is_stmt 1 view .LVU80
 383 000e 0129     		cmp	r1, #1
 384 0010 17D0     		beq	.L44
 385 0012 0229     		cmp	r1, #2
 386 0014 0DD0     		beq	.L45
 387 0016 0029     		cmp	r1, #0
 388 0018 F8D1     		bne	.L39
 201:../../../support/device/gd32f4xx/peripherals/src/gd32f4xx_dac.c ****             break;
 389              		.loc 1 201 13 view .LVU81
 201:../../../support/device/gd32f4xx/peripherals/src/gd32f4xx_dac.c ****             break;
 390              		.loc 1 201 24 is_stmt 0 view .LVU82
 391 001a 0C4B     		ldr	r3, .L47
 392 001c C3F81424 		str	r2, [r3, #1044]
 202:../../../support/device/gd32f4xx/peripherals/src/gd32f4xx_dac.c ****         /* data left 12 bit alignment */
 393              		.loc 1 202 13 is_stmt 1 view .LVU83
 394 0020 7047     		bx	lr
 395              	.L42:
 192:../../../support/device/gd32f4xx/peripherals/src/gd32f4xx_dac.c ****             break;
 396              		.loc 1 192 13 view .LVU84
 192:../../../support/device/gd32f4xx/peripherals/src/gd32f4xx_dac.c ****             break;
 397              		.loc 1 192 23 is_stmt 0 view .LVU85
 398 0022 0A4B     		ldr	r3, .L47
 399 0024 C3F81024 		str	r2, [r3, #1040]
 193:../../../support/device/gd32f4xx/peripherals/src/gd32f4xx_dac.c ****         default:
 400              		.loc 1 193 13 is_stmt 1 view .LVU86
 401 0028 7047     		bx	lr
 402              	.L46:
 184:../../../support/device/gd32f4xx/peripherals/src/gd32f4xx_dac.c ****             break;
 403              		.loc 1 184 13 view .LVU87
 184:../../../support/device/gd32f4xx/peripherals/src/gd32f4xx_dac.c ****             break;
 404              		.loc 1 184 24 is_stmt 0 view .LVU88
 405 002a 084B     		ldr	r3, .L47
 406 002c C3F80824 		str	r2, [r3, #1032]
 185:../../../support/device/gd32f4xx/peripherals/src/gd32f4xx_dac.c ****         /* data left 12 bit alignment */
 407              		.loc 1 185 13 is_stmt 1 view .LVU89
 408 0030 7047     		bx	lr
 409              	.L45:
 209:../../../support/device/gd32f4xx/peripherals/src/gd32f4xx_dac.c ****             break;
ARM GAS  /var/folders/_f/88qcw_5n2jl40jjphvxyt7wh0000gn/T//ccvfIhXX.s 			page 12


 410              		.loc 1 209 13 view .LVU90
 209:../../../support/device/gd32f4xx/peripherals/src/gd32f4xx_dac.c ****             break;
 411              		.loc 1 209 23 is_stmt 0 view .LVU91
 412 0032 064B     		ldr	r3, .L47
 413 0034 C3F81C24 		str	r2, [r3, #1052]
 210:../../../support/device/gd32f4xx/peripherals/src/gd32f4xx_dac.c ****         default:
 414              		.loc 1 210 13 is_stmt 1 view .LVU92
 415              		.loc 1 215 1 is_stmt 0 view .LVU93
 416 0038 7047     		bx	lr
 417              	.L41:
 188:../../../support/device/gd32f4xx/peripherals/src/gd32f4xx_dac.c ****             break;
 418              		.loc 1 188 13 is_stmt 1 view .LVU94
 188:../../../support/device/gd32f4xx/peripherals/src/gd32f4xx_dac.c ****             break;
 419              		.loc 1 188 24 is_stmt 0 view .LVU95
 420 003a 044B     		ldr	r3, .L47
 421 003c C3F80C24 		str	r2, [r3, #1036]
 189:../../../support/device/gd32f4xx/peripherals/src/gd32f4xx_dac.c ****         /* data right 8 bit alignment */
 422              		.loc 1 189 13 is_stmt 1 view .LVU96
 423 0040 7047     		bx	lr
 424              	.L44:
 205:../../../support/device/gd32f4xx/peripherals/src/gd32f4xx_dac.c ****             break;
 425              		.loc 1 205 13 view .LVU97
 205:../../../support/device/gd32f4xx/peripherals/src/gd32f4xx_dac.c ****             break;
 426              		.loc 1 205 24 is_stmt 0 view .LVU98
 427 0042 024B     		ldr	r3, .L47
 428 0044 C3F81824 		str	r2, [r3, #1048]
 206:../../../support/device/gd32f4xx/peripherals/src/gd32f4xx_dac.c ****         /* data right 8 bit alignment */
 429              		.loc 1 206 13 is_stmt 1 view .LVU99
 430 0048 7047     		bx	lr
 431              	.L48:
 432 004a 00BF     		.align	2
 433              	.L47:
 434 004c 00700040 		.word	1073770496
 435              		.cfi_endproc
 436              	.LFE124:
 438              		.section	.text.dac_trigger_enable,"ax",%progbits
 439              		.align	1
 440              		.p2align 2,,3
 441              		.global	dac_trigger_enable
 442              		.syntax unified
 443              		.thumb
 444              		.thumb_func
 446              	dac_trigger_enable:
 447              	.LVL15:
 448              	.LFB125:
 216:../../../support/device/gd32f4xx/peripherals/src/gd32f4xx_dac.c **** 
 217:../../../support/device/gd32f4xx/peripherals/src/gd32f4xx_dac.c **** /*!
 218:../../../support/device/gd32f4xx/peripherals/src/gd32f4xx_dac.c ****     \brief      enable DAC trigger
 219:../../../support/device/gd32f4xx/peripherals/src/gd32f4xx_dac.c ****     \param[in]  dac_periph: DACx(x = 0,1)
 220:../../../support/device/gd32f4xx/peripherals/src/gd32f4xx_dac.c ****     \param[out] none
 221:../../../support/device/gd32f4xx/peripherals/src/gd32f4xx_dac.c ****     \retval     none
 222:../../../support/device/gd32f4xx/peripherals/src/gd32f4xx_dac.c **** */
 223:../../../support/device/gd32f4xx/peripherals/src/gd32f4xx_dac.c **** void dac_trigger_enable(uint32_t dac_periph)
 224:../../../support/device/gd32f4xx/peripherals/src/gd32f4xx_dac.c **** {
 449              		.loc 1 224 1 view -0
 450              		.cfi_startproc
 451              		@ args = 0, pretend = 0, frame = 0
ARM GAS  /var/folders/_f/88qcw_5n2jl40jjphvxyt7wh0000gn/T//ccvfIhXX.s 			page 13


 452              		@ frame_needed = 0, uses_anonymous_args = 0
 453              		@ link register save eliminated.
 225:../../../support/device/gd32f4xx/peripherals/src/gd32f4xx_dac.c ****     if(DAC0 == dac_periph) {
 454              		.loc 1 225 5 view .LVU101
 226:../../../support/device/gd32f4xx/peripherals/src/gd32f4xx_dac.c ****         DAC_CTL |= DAC_CTL_DTEN0;
 455              		.loc 1 226 17 is_stmt 0 view .LVU102
 456 0000 064A     		ldr	r2, .L52
 457 0002 D2F80034 		ldr	r3, [r2, #1024]
 225:../../../support/device/gd32f4xx/peripherals/src/gd32f4xx_dac.c ****     if(DAC0 == dac_periph) {
 458              		.loc 1 225 7 view .LVU103
 459 0006 20B9     		cbnz	r0, .L50
 460              		.loc 1 226 9 is_stmt 1 view .LVU104
 461              		.loc 1 226 17 is_stmt 0 view .LVU105
 462 0008 43F00403 		orr	r3, r3, #4
 463 000c C2F80034 		str	r3, [r2, #1024]
 464 0010 7047     		bx	lr
 465              	.L50:
 227:../../../support/device/gd32f4xx/peripherals/src/gd32f4xx_dac.c ****     } else {
 228:../../../support/device/gd32f4xx/peripherals/src/gd32f4xx_dac.c ****         DAC_CTL |= DAC_CTL_DTEN1;
 466              		.loc 1 228 9 is_stmt 1 view .LVU106
 467              		.loc 1 228 17 is_stmt 0 view .LVU107
 468 0012 43F48023 		orr	r3, r3, #262144
 469 0016 C2F80034 		str	r3, [r2, #1024]
 229:../../../support/device/gd32f4xx/peripherals/src/gd32f4xx_dac.c ****     }
 230:../../../support/device/gd32f4xx/peripherals/src/gd32f4xx_dac.c **** }
 470              		.loc 1 230 1 view .LVU108
 471 001a 7047     		bx	lr
 472              	.L53:
 473              		.align	2
 474              	.L52:
 475 001c 00700040 		.word	1073770496
 476              		.cfi_endproc
 477              	.LFE125:
 479              		.section	.text.dac_trigger_disable,"ax",%progbits
 480              		.align	1
 481              		.p2align 2,,3
 482              		.global	dac_trigger_disable
 483              		.syntax unified
 484              		.thumb
 485              		.thumb_func
 487              	dac_trigger_disable:
 488              	.LVL16:
 489              	.LFB126:
 231:../../../support/device/gd32f4xx/peripherals/src/gd32f4xx_dac.c **** 
 232:../../../support/device/gd32f4xx/peripherals/src/gd32f4xx_dac.c **** /*!
 233:../../../support/device/gd32f4xx/peripherals/src/gd32f4xx_dac.c ****     \brief      disable DAC trigger
 234:../../../support/device/gd32f4xx/peripherals/src/gd32f4xx_dac.c ****     \param[in]  dac_periph: DACx(x = 0,1)
 235:../../../support/device/gd32f4xx/peripherals/src/gd32f4xx_dac.c ****     \param[out] none
 236:../../../support/device/gd32f4xx/peripherals/src/gd32f4xx_dac.c ****     \retval     none
 237:../../../support/device/gd32f4xx/peripherals/src/gd32f4xx_dac.c **** */
 238:../../../support/device/gd32f4xx/peripherals/src/gd32f4xx_dac.c **** void dac_trigger_disable(uint32_t dac_periph)
 239:../../../support/device/gd32f4xx/peripherals/src/gd32f4xx_dac.c **** {
 490              		.loc 1 239 1 is_stmt 1 view -0
 491              		.cfi_startproc
 492              		@ args = 0, pretend = 0, frame = 0
 493              		@ frame_needed = 0, uses_anonymous_args = 0
 494              		@ link register save eliminated.
ARM GAS  /var/folders/_f/88qcw_5n2jl40jjphvxyt7wh0000gn/T//ccvfIhXX.s 			page 14


 240:../../../support/device/gd32f4xx/peripherals/src/gd32f4xx_dac.c ****     if(DAC0 == dac_periph) {
 495              		.loc 1 240 5 view .LVU110
 241:../../../support/device/gd32f4xx/peripherals/src/gd32f4xx_dac.c ****         DAC_CTL &= ~DAC_CTL_DTEN0;
 496              		.loc 1 241 17 is_stmt 0 view .LVU111
 497 0000 064A     		ldr	r2, .L57
 498 0002 D2F80034 		ldr	r3, [r2, #1024]
 240:../../../support/device/gd32f4xx/peripherals/src/gd32f4xx_dac.c ****     if(DAC0 == dac_periph) {
 499              		.loc 1 240 7 view .LVU112
 500 0006 20B9     		cbnz	r0, .L55
 501              		.loc 1 241 9 is_stmt 1 view .LVU113
 502              		.loc 1 241 17 is_stmt 0 view .LVU114
 503 0008 23F00403 		bic	r3, r3, #4
 504 000c C2F80034 		str	r3, [r2, #1024]
 505 0010 7047     		bx	lr
 506              	.L55:
 242:../../../support/device/gd32f4xx/peripherals/src/gd32f4xx_dac.c ****     } else {
 243:../../../support/device/gd32f4xx/peripherals/src/gd32f4xx_dac.c ****         DAC_CTL &= ~DAC_CTL_DTEN1;
 507              		.loc 1 243 9 is_stmt 1 view .LVU115
 508              		.loc 1 243 17 is_stmt 0 view .LVU116
 509 0012 23F48023 		bic	r3, r3, #262144
 510 0016 C2F80034 		str	r3, [r2, #1024]
 244:../../../support/device/gd32f4xx/peripherals/src/gd32f4xx_dac.c ****     }
 245:../../../support/device/gd32f4xx/peripherals/src/gd32f4xx_dac.c **** }
 511              		.loc 1 245 1 view .LVU117
 512 001a 7047     		bx	lr
 513              	.L58:
 514              		.align	2
 515              	.L57:
 516 001c 00700040 		.word	1073770496
 517              		.cfi_endproc
 518              	.LFE126:
 520              		.section	.text.dac_trigger_source_config,"ax",%progbits
 521              		.align	1
 522              		.p2align 2,,3
 523              		.global	dac_trigger_source_config
 524              		.syntax unified
 525              		.thumb
 526              		.thumb_func
 528              	dac_trigger_source_config:
 529              	.LVL17:
 530              	.LFB127:
 246:../../../support/device/gd32f4xx/peripherals/src/gd32f4xx_dac.c **** 
 247:../../../support/device/gd32f4xx/peripherals/src/gd32f4xx_dac.c **** /*!
 248:../../../support/device/gd32f4xx/peripherals/src/gd32f4xx_dac.c ****     \brief      set DAC trigger source
 249:../../../support/device/gd32f4xx/peripherals/src/gd32f4xx_dac.c ****     \param[in]  dac_periph: DACx(x = 0,1)
 250:../../../support/device/gd32f4xx/peripherals/src/gd32f4xx_dac.c ****     \param[in]  triggersource: external triggers of DAC
 251:../../../support/device/gd32f4xx/peripherals/src/gd32f4xx_dac.c ****                 only one parameter can be selected which is shown as below:
 252:../../../support/device/gd32f4xx/peripherals/src/gd32f4xx_dac.c ****       \arg        DAC_TRIGGER_T1_TRGO: TIMER1 TRGO
 253:../../../support/device/gd32f4xx/peripherals/src/gd32f4xx_dac.c ****       \arg        DAC_TRIGGER_T3_TRGO: TIMER3 TRGO
 254:../../../support/device/gd32f4xx/peripherals/src/gd32f4xx_dac.c ****       \arg        DAC_TRIGGER_T4_TRGO: TIMER4 TRGO
 255:../../../support/device/gd32f4xx/peripherals/src/gd32f4xx_dac.c ****       \arg        DAC_TRIGGER_T5_TRGO: TIMER5 TRGO
 256:../../../support/device/gd32f4xx/peripherals/src/gd32f4xx_dac.c ****       \arg        DAC_TRIGGER_T6_TRGO: TIMER6 TRGO
 257:../../../support/device/gd32f4xx/peripherals/src/gd32f4xx_dac.c ****       \arg        DAC_TRIGGER_T7_TRGO: TIMER7 TRGO
 258:../../../support/device/gd32f4xx/peripherals/src/gd32f4xx_dac.c ****       \arg        DAC_TRIGGER_EXTI_9: EXTI interrupt line9 event
 259:../../../support/device/gd32f4xx/peripherals/src/gd32f4xx_dac.c ****       \arg        DAC_TRIGGER_SOFTWARE: software trigger
 260:../../../support/device/gd32f4xx/peripherals/src/gd32f4xx_dac.c ****     \param[out] none
 261:../../../support/device/gd32f4xx/peripherals/src/gd32f4xx_dac.c ****     \retval     none
ARM GAS  /var/folders/_f/88qcw_5n2jl40jjphvxyt7wh0000gn/T//ccvfIhXX.s 			page 15


 262:../../../support/device/gd32f4xx/peripherals/src/gd32f4xx_dac.c **** */
 263:../../../support/device/gd32f4xx/peripherals/src/gd32f4xx_dac.c **** void dac_trigger_source_config(uint32_t dac_periph, uint32_t triggersource)
 264:../../../support/device/gd32f4xx/peripherals/src/gd32f4xx_dac.c **** {
 531              		.loc 1 264 1 is_stmt 1 view -0
 532              		.cfi_startproc
 533              		@ args = 0, pretend = 0, frame = 0
 534              		@ frame_needed = 0, uses_anonymous_args = 0
 535              		@ link register save eliminated.
 265:../../../support/device/gd32f4xx/peripherals/src/gd32f4xx_dac.c ****     if(DAC0 == dac_periph) {
 536              		.loc 1 265 5 view .LVU119
 266:../../../support/device/gd32f4xx/peripherals/src/gd32f4xx_dac.c ****         /* configure DAC0 trigger source */
 267:../../../support/device/gd32f4xx/peripherals/src/gd32f4xx_dac.c ****         DAC_CTL &= ~DAC_CTL_DTSEL0;
 537              		.loc 1 267 17 is_stmt 0 view .LVU120
 538 0000 0C4B     		ldr	r3, .L62
 539 0002 D3F80024 		ldr	r2, [r3, #1024]
 265:../../../support/device/gd32f4xx/peripherals/src/gd32f4xx_dac.c ****     if(DAC0 == dac_periph) {
 540              		.loc 1 265 7 view .LVU121
 541 0006 48B9     		cbnz	r0, .L60
 542              		.loc 1 267 9 is_stmt 1 view .LVU122
 543              		.loc 1 267 17 is_stmt 0 view .LVU123
 544 0008 22F03802 		bic	r2, r2, #56
 545 000c C3F80024 		str	r2, [r3, #1024]
 268:../../../support/device/gd32f4xx/peripherals/src/gd32f4xx_dac.c ****         DAC_CTL |= triggersource;
 546              		.loc 1 268 9 is_stmt 1 view .LVU124
 547              		.loc 1 268 17 is_stmt 0 view .LVU125
 548 0010 D3F80024 		ldr	r2, [r3, #1024]
 549 0014 1143     		orrs	r1, r1, r2
 550              	.LVL18:
 551              		.loc 1 268 17 view .LVU126
 552 0016 C3F80014 		str	r1, [r3, #1024]
 553 001a 7047     		bx	lr
 554              	.LVL19:
 555              	.L60:
 269:../../../support/device/gd32f4xx/peripherals/src/gd32f4xx_dac.c ****     } else {
 270:../../../support/device/gd32f4xx/peripherals/src/gd32f4xx_dac.c ****         /* configure DAC1 trigger source */
 271:../../../support/device/gd32f4xx/peripherals/src/gd32f4xx_dac.c ****         DAC_CTL &= ~DAC_CTL_DTSEL1;
 556              		.loc 1 271 9 is_stmt 1 view .LVU127
 557              		.loc 1 271 17 is_stmt 0 view .LVU128
 558 001c 22F46012 		bic	r2, r2, #3670016
 559 0020 C3F80024 		str	r2, [r3, #1024]
 272:../../../support/device/gd32f4xx/peripherals/src/gd32f4xx_dac.c ****         DAC_CTL |= (triggersource << DAC1_REG_OFFSET);
 560              		.loc 1 272 9 is_stmt 1 view .LVU129
 561              		.loc 1 272 17 is_stmt 0 view .LVU130
 562 0024 D3F80024 		ldr	r2, [r3, #1024]
 563 0028 42EA0141 		orr	r1, r2, r1, lsl #16
 564              	.LVL20:
 565              		.loc 1 272 17 view .LVU131
 566 002c C3F80014 		str	r1, [r3, #1024]
 273:../../../support/device/gd32f4xx/peripherals/src/gd32f4xx_dac.c ****     }
 274:../../../support/device/gd32f4xx/peripherals/src/gd32f4xx_dac.c **** }
 567              		.loc 1 274 1 view .LVU132
 568 0030 7047     		bx	lr
 569              	.L63:
 570 0032 00BF     		.align	2
 571              	.L62:
 572 0034 00700040 		.word	1073770496
 573              		.cfi_endproc
ARM GAS  /var/folders/_f/88qcw_5n2jl40jjphvxyt7wh0000gn/T//ccvfIhXX.s 			page 16


 574              	.LFE127:
 576              		.section	.text.dac_software_trigger_enable,"ax",%progbits
 577              		.align	1
 578              		.p2align 2,,3
 579              		.global	dac_software_trigger_enable
 580              		.syntax unified
 581              		.thumb
 582              		.thumb_func
 584              	dac_software_trigger_enable:
 585              	.LVL21:
 586              	.LFB128:
 275:../../../support/device/gd32f4xx/peripherals/src/gd32f4xx_dac.c **** 
 276:../../../support/device/gd32f4xx/peripherals/src/gd32f4xx_dac.c **** /*!
 277:../../../support/device/gd32f4xx/peripherals/src/gd32f4xx_dac.c ****     \brief      enable DAC software trigger
 278:../../../support/device/gd32f4xx/peripherals/src/gd32f4xx_dac.c ****     \param[in]  dac_periph: DACx(x = 0,1)
 279:../../../support/device/gd32f4xx/peripherals/src/gd32f4xx_dac.c ****     \retval     none
 280:../../../support/device/gd32f4xx/peripherals/src/gd32f4xx_dac.c **** */
 281:../../../support/device/gd32f4xx/peripherals/src/gd32f4xx_dac.c **** void dac_software_trigger_enable(uint32_t dac_periph)
 282:../../../support/device/gd32f4xx/peripherals/src/gd32f4xx_dac.c **** {
 587              		.loc 1 282 1 is_stmt 1 view -0
 588              		.cfi_startproc
 589              		@ args = 0, pretend = 0, frame = 0
 590              		@ frame_needed = 0, uses_anonymous_args = 0
 591              		@ link register save eliminated.
 283:../../../support/device/gd32f4xx/peripherals/src/gd32f4xx_dac.c ****     if(DAC0 == dac_periph) {
 592              		.loc 1 283 5 view .LVU134
 284:../../../support/device/gd32f4xx/peripherals/src/gd32f4xx_dac.c ****         DAC_SWT |= DAC_SWT_SWTR0;
 593              		.loc 1 284 17 is_stmt 0 view .LVU135
 594 0000 064A     		ldr	r2, .L67
 595 0002 D2F80434 		ldr	r3, [r2, #1028]
 283:../../../support/device/gd32f4xx/peripherals/src/gd32f4xx_dac.c ****     if(DAC0 == dac_periph) {
 596              		.loc 1 283 7 view .LVU136
 597 0006 20B9     		cbnz	r0, .L65
 598              		.loc 1 284 9 is_stmt 1 view .LVU137
 599              		.loc 1 284 17 is_stmt 0 view .LVU138
 600 0008 43F00103 		orr	r3, r3, #1
 601 000c C2F80434 		str	r3, [r2, #1028]
 602 0010 7047     		bx	lr
 603              	.L65:
 285:../../../support/device/gd32f4xx/peripherals/src/gd32f4xx_dac.c ****     } else {
 286:../../../support/device/gd32f4xx/peripherals/src/gd32f4xx_dac.c ****         DAC_SWT |= DAC_SWT_SWTR1;
 604              		.loc 1 286 9 is_stmt 1 view .LVU139
 605              		.loc 1 286 17 is_stmt 0 view .LVU140
 606 0012 43F00203 		orr	r3, r3, #2
 607 0016 C2F80434 		str	r3, [r2, #1028]
 287:../../../support/device/gd32f4xx/peripherals/src/gd32f4xx_dac.c ****     }
 288:../../../support/device/gd32f4xx/peripherals/src/gd32f4xx_dac.c **** }
 608              		.loc 1 288 1 view .LVU141
 609 001a 7047     		bx	lr
 610              	.L68:
 611              		.align	2
 612              	.L67:
 613 001c 00700040 		.word	1073770496
 614              		.cfi_endproc
 615              	.LFE128:
 617              		.section	.text.dac_software_trigger_disable,"ax",%progbits
 618              		.align	1
ARM GAS  /var/folders/_f/88qcw_5n2jl40jjphvxyt7wh0000gn/T//ccvfIhXX.s 			page 17


 619              		.p2align 2,,3
 620              		.global	dac_software_trigger_disable
 621              		.syntax unified
 622              		.thumb
 623              		.thumb_func
 625              	dac_software_trigger_disable:
 626              	.LVL22:
 627              	.LFB129:
 289:../../../support/device/gd32f4xx/peripherals/src/gd32f4xx_dac.c **** 
 290:../../../support/device/gd32f4xx/peripherals/src/gd32f4xx_dac.c **** /*!
 291:../../../support/device/gd32f4xx/peripherals/src/gd32f4xx_dac.c ****     \brief      disable DAC software trigger
 292:../../../support/device/gd32f4xx/peripherals/src/gd32f4xx_dac.c ****     \param[in]  dac_periph: DACx(x = 0,1)
 293:../../../support/device/gd32f4xx/peripherals/src/gd32f4xx_dac.c ****     \param[out] none
 294:../../../support/device/gd32f4xx/peripherals/src/gd32f4xx_dac.c ****     \retval     none
 295:../../../support/device/gd32f4xx/peripherals/src/gd32f4xx_dac.c **** */
 296:../../../support/device/gd32f4xx/peripherals/src/gd32f4xx_dac.c **** void dac_software_trigger_disable(uint32_t dac_periph)
 297:../../../support/device/gd32f4xx/peripherals/src/gd32f4xx_dac.c **** {
 628              		.loc 1 297 1 is_stmt 1 view -0
 629              		.cfi_startproc
 630              		@ args = 0, pretend = 0, frame = 0
 631              		@ frame_needed = 0, uses_anonymous_args = 0
 632              		@ link register save eliminated.
 298:../../../support/device/gd32f4xx/peripherals/src/gd32f4xx_dac.c ****     if(DAC0 == dac_periph) {
 633              		.loc 1 298 5 view .LVU143
 299:../../../support/device/gd32f4xx/peripherals/src/gd32f4xx_dac.c ****         DAC_SWT &= ~DAC_SWT_SWTR0;
 634              		.loc 1 299 17 is_stmt 0 view .LVU144
 635 0000 064A     		ldr	r2, .L72
 636 0002 D2F80434 		ldr	r3, [r2, #1028]
 298:../../../support/device/gd32f4xx/peripherals/src/gd32f4xx_dac.c ****     if(DAC0 == dac_periph) {
 637              		.loc 1 298 7 view .LVU145
 638 0006 20B9     		cbnz	r0, .L70
 639              		.loc 1 299 9 is_stmt 1 view .LVU146
 640              		.loc 1 299 17 is_stmt 0 view .LVU147
 641 0008 23F00103 		bic	r3, r3, #1
 642 000c C2F80434 		str	r3, [r2, #1028]
 643 0010 7047     		bx	lr
 644              	.L70:
 300:../../../support/device/gd32f4xx/peripherals/src/gd32f4xx_dac.c ****     } else {
 301:../../../support/device/gd32f4xx/peripherals/src/gd32f4xx_dac.c ****         DAC_SWT &= ~DAC_SWT_SWTR1;
 645              		.loc 1 301 9 is_stmt 1 view .LVU148
 646              		.loc 1 301 17 is_stmt 0 view .LVU149
 647 0012 23F00203 		bic	r3, r3, #2
 648 0016 C2F80434 		str	r3, [r2, #1028]
 302:../../../support/device/gd32f4xx/peripherals/src/gd32f4xx_dac.c ****     }
 303:../../../support/device/gd32f4xx/peripherals/src/gd32f4xx_dac.c **** }
 649              		.loc 1 303 1 view .LVU150
 650 001a 7047     		bx	lr
 651              	.L73:
 652              		.align	2
 653              	.L72:
 654 001c 00700040 		.word	1073770496
 655              		.cfi_endproc
 656              	.LFE129:
 658              		.section	.text.dac_wave_mode_config,"ax",%progbits
 659              		.align	1
 660              		.p2align 2,,3
 661              		.global	dac_wave_mode_config
ARM GAS  /var/folders/_f/88qcw_5n2jl40jjphvxyt7wh0000gn/T//ccvfIhXX.s 			page 18


 662              		.syntax unified
 663              		.thumb
 664              		.thumb_func
 666              	dac_wave_mode_config:
 667              	.LVL23:
 668              	.LFB130:
 304:../../../support/device/gd32f4xx/peripherals/src/gd32f4xx_dac.c **** 
 305:../../../support/device/gd32f4xx/peripherals/src/gd32f4xx_dac.c **** /*!
 306:../../../support/device/gd32f4xx/peripherals/src/gd32f4xx_dac.c ****     \brief      configure DAC wave mode
 307:../../../support/device/gd32f4xx/peripherals/src/gd32f4xx_dac.c ****     \param[in]  dac_periph: DACx(x = 0,1)
 308:../../../support/device/gd32f4xx/peripherals/src/gd32f4xx_dac.c ****     \param[in]  wave_mode: noise wave mode
 309:../../../support/device/gd32f4xx/peripherals/src/gd32f4xx_dac.c ****                 only one parameter can be selected which is shown as below:
 310:../../../support/device/gd32f4xx/peripherals/src/gd32f4xx_dac.c ****       \arg        DAC_WAVE_DISABLE: wave disable
 311:../../../support/device/gd32f4xx/peripherals/src/gd32f4xx_dac.c ****       \arg        DAC_WAVE_MODE_LFSR: LFSR noise mode
 312:../../../support/device/gd32f4xx/peripherals/src/gd32f4xx_dac.c ****       \arg        DAC_WAVE_MODE_TRIANGLE: triangle noise mode
 313:../../../support/device/gd32f4xx/peripherals/src/gd32f4xx_dac.c ****     \param[out] none
 314:../../../support/device/gd32f4xx/peripherals/src/gd32f4xx_dac.c ****     \retval     none
 315:../../../support/device/gd32f4xx/peripherals/src/gd32f4xx_dac.c **** */
 316:../../../support/device/gd32f4xx/peripherals/src/gd32f4xx_dac.c **** void dac_wave_mode_config(uint32_t dac_periph, uint32_t wave_mode)
 317:../../../support/device/gd32f4xx/peripherals/src/gd32f4xx_dac.c **** {
 669              		.loc 1 317 1 is_stmt 1 view -0
 670              		.cfi_startproc
 671              		@ args = 0, pretend = 0, frame = 0
 672              		@ frame_needed = 0, uses_anonymous_args = 0
 673              		@ link register save eliminated.
 318:../../../support/device/gd32f4xx/peripherals/src/gd32f4xx_dac.c ****     if(DAC0 == dac_periph) {
 674              		.loc 1 318 5 view .LVU152
 319:../../../support/device/gd32f4xx/peripherals/src/gd32f4xx_dac.c ****         /* configure DAC0 wave mode */
 320:../../../support/device/gd32f4xx/peripherals/src/gd32f4xx_dac.c ****         DAC_CTL &= ~DAC_CTL_DWM0;
 675              		.loc 1 320 17 is_stmt 0 view .LVU153
 676 0000 0C4B     		ldr	r3, .L77
 677 0002 D3F80024 		ldr	r2, [r3, #1024]
 318:../../../support/device/gd32f4xx/peripherals/src/gd32f4xx_dac.c ****     if(DAC0 == dac_periph) {
 678              		.loc 1 318 7 view .LVU154
 679 0006 48B9     		cbnz	r0, .L75
 680              		.loc 1 320 9 is_stmt 1 view .LVU155
 681              		.loc 1 320 17 is_stmt 0 view .LVU156
 682 0008 22F0C002 		bic	r2, r2, #192
 683 000c C3F80024 		str	r2, [r3, #1024]
 321:../../../support/device/gd32f4xx/peripherals/src/gd32f4xx_dac.c ****         DAC_CTL |= wave_mode;
 684              		.loc 1 321 9 is_stmt 1 view .LVU157
 685              		.loc 1 321 17 is_stmt 0 view .LVU158
 686 0010 D3F80024 		ldr	r2, [r3, #1024]
 687 0014 1143     		orrs	r1, r1, r2
 688              	.LVL24:
 689              		.loc 1 321 17 view .LVU159
 690 0016 C3F80014 		str	r1, [r3, #1024]
 691 001a 7047     		bx	lr
 692              	.LVL25:
 693              	.L75:
 322:../../../support/device/gd32f4xx/peripherals/src/gd32f4xx_dac.c ****     } else {
 323:../../../support/device/gd32f4xx/peripherals/src/gd32f4xx_dac.c ****         /* configure DAC1 wave mode */
 324:../../../support/device/gd32f4xx/peripherals/src/gd32f4xx_dac.c ****         DAC_CTL &= ~DAC_CTL_DWM1;
 694              		.loc 1 324 9 is_stmt 1 view .LVU160
 695              		.loc 1 324 17 is_stmt 0 view .LVU161
 696 001c 22F44002 		bic	r2, r2, #12582912
 697 0020 C3F80024 		str	r2, [r3, #1024]
ARM GAS  /var/folders/_f/88qcw_5n2jl40jjphvxyt7wh0000gn/T//ccvfIhXX.s 			page 19


 325:../../../support/device/gd32f4xx/peripherals/src/gd32f4xx_dac.c ****         DAC_CTL |= (wave_mode << DAC1_REG_OFFSET);
 698              		.loc 1 325 9 is_stmt 1 view .LVU162
 699              		.loc 1 325 17 is_stmt 0 view .LVU163
 700 0024 D3F80024 		ldr	r2, [r3, #1024]
 701 0028 42EA0141 		orr	r1, r2, r1, lsl #16
 702              	.LVL26:
 703              		.loc 1 325 17 view .LVU164
 704 002c C3F80014 		str	r1, [r3, #1024]
 326:../../../support/device/gd32f4xx/peripherals/src/gd32f4xx_dac.c ****     }
 327:../../../support/device/gd32f4xx/peripherals/src/gd32f4xx_dac.c **** }
 705              		.loc 1 327 1 view .LVU165
 706 0030 7047     		bx	lr
 707              	.L78:
 708 0032 00BF     		.align	2
 709              	.L77:
 710 0034 00700040 		.word	1073770496
 711              		.cfi_endproc
 712              	.LFE130:
 714              		.section	.text.dac_wave_bit_width_config,"ax",%progbits
 715              		.align	1
 716              		.p2align 2,,3
 717              		.global	dac_wave_bit_width_config
 718              		.syntax unified
 719              		.thumb
 720              		.thumb_func
 722              	dac_wave_bit_width_config:
 723              	.LVL27:
 724              	.LFB131:
 328:../../../support/device/gd32f4xx/peripherals/src/gd32f4xx_dac.c **** 
 329:../../../support/device/gd32f4xx/peripherals/src/gd32f4xx_dac.c **** /*!
 330:../../../support/device/gd32f4xx/peripherals/src/gd32f4xx_dac.c ****     \brief      configure DAC wave bit width
 331:../../../support/device/gd32f4xx/peripherals/src/gd32f4xx_dac.c ****     \param[in]  dac_periph: DACx(x = 0,1)
 332:../../../support/device/gd32f4xx/peripherals/src/gd32f4xx_dac.c ****     \param[in]  bit_width: noise wave bit width
 333:../../../support/device/gd32f4xx/peripherals/src/gd32f4xx_dac.c ****                 only one parameter can be selected which is shown as below:
 334:../../../support/device/gd32f4xx/peripherals/src/gd32f4xx_dac.c ****       \arg        DAC_WAVE_BIT_WIDTH_1: bit width of the wave signal is 1
 335:../../../support/device/gd32f4xx/peripherals/src/gd32f4xx_dac.c ****       \arg        DAC_WAVE_BIT_WIDTH_2: bit width of the wave signal is 2
 336:../../../support/device/gd32f4xx/peripherals/src/gd32f4xx_dac.c ****       \arg        DAC_WAVE_BIT_WIDTH_3: bit width of the wave signal is 3
 337:../../../support/device/gd32f4xx/peripherals/src/gd32f4xx_dac.c ****       \arg        DAC_WAVE_BIT_WIDTH_4: bit width of the wave signal is 4
 338:../../../support/device/gd32f4xx/peripherals/src/gd32f4xx_dac.c ****       \arg        DAC_WAVE_BIT_WIDTH_5: bit width of the wave signal is 5
 339:../../../support/device/gd32f4xx/peripherals/src/gd32f4xx_dac.c ****       \arg        DAC_WAVE_BIT_WIDTH_6: bit width of the wave signal is 6
 340:../../../support/device/gd32f4xx/peripherals/src/gd32f4xx_dac.c ****       \arg        DAC_WAVE_BIT_WIDTH_7: bit width of the wave signal is 7
 341:../../../support/device/gd32f4xx/peripherals/src/gd32f4xx_dac.c ****       \arg        DAC_WAVE_BIT_WIDTH_8: bit width of the wave signal is 8
 342:../../../support/device/gd32f4xx/peripherals/src/gd32f4xx_dac.c ****       \arg        DAC_WAVE_BIT_WIDTH_9: bit width of the wave signal is 9
 343:../../../support/device/gd32f4xx/peripherals/src/gd32f4xx_dac.c ****       \arg        DAC_WAVE_BIT_WIDTH_10: bit width of the wave signal is 10
 344:../../../support/device/gd32f4xx/peripherals/src/gd32f4xx_dac.c ****       \arg        DAC_WAVE_BIT_WIDTH_11: bit width of the wave signal is 11
 345:../../../support/device/gd32f4xx/peripherals/src/gd32f4xx_dac.c ****       \arg        DAC_WAVE_BIT_WIDTH_12: bit width of the wave signal is 12
 346:../../../support/device/gd32f4xx/peripherals/src/gd32f4xx_dac.c ****     \param[out] none
 347:../../../support/device/gd32f4xx/peripherals/src/gd32f4xx_dac.c ****     \retval     none
 348:../../../support/device/gd32f4xx/peripherals/src/gd32f4xx_dac.c **** */
 349:../../../support/device/gd32f4xx/peripherals/src/gd32f4xx_dac.c **** void dac_wave_bit_width_config(uint32_t dac_periph, uint32_t bit_width)
 350:../../../support/device/gd32f4xx/peripherals/src/gd32f4xx_dac.c **** {
 725              		.loc 1 350 1 is_stmt 1 view -0
 726              		.cfi_startproc
 727              		@ args = 0, pretend = 0, frame = 0
 728              		@ frame_needed = 0, uses_anonymous_args = 0
 729              		@ link register save eliminated.
 351:../../../support/device/gd32f4xx/peripherals/src/gd32f4xx_dac.c ****     if(DAC0 == dac_periph) {
ARM GAS  /var/folders/_f/88qcw_5n2jl40jjphvxyt7wh0000gn/T//ccvfIhXX.s 			page 20


 730              		.loc 1 351 5 view .LVU167
 352:../../../support/device/gd32f4xx/peripherals/src/gd32f4xx_dac.c ****         /* configure DAC0 wave bit width */
 353:../../../support/device/gd32f4xx/peripherals/src/gd32f4xx_dac.c ****         DAC_CTL &= ~DAC_CTL_DWBW0;
 731              		.loc 1 353 17 is_stmt 0 view .LVU168
 732 0000 0C4B     		ldr	r3, .L82
 733 0002 D3F80024 		ldr	r2, [r3, #1024]
 351:../../../support/device/gd32f4xx/peripherals/src/gd32f4xx_dac.c ****     if(DAC0 == dac_periph) {
 734              		.loc 1 351 7 view .LVU169
 735 0006 48B9     		cbnz	r0, .L80
 736              		.loc 1 353 9 is_stmt 1 view .LVU170
 737              		.loc 1 353 17 is_stmt 0 view .LVU171
 738 0008 22F47062 		bic	r2, r2, #3840
 739 000c C3F80024 		str	r2, [r3, #1024]
 354:../../../support/device/gd32f4xx/peripherals/src/gd32f4xx_dac.c ****         DAC_CTL |= bit_width;
 740              		.loc 1 354 9 is_stmt 1 view .LVU172
 741              		.loc 1 354 17 is_stmt 0 view .LVU173
 742 0010 D3F80024 		ldr	r2, [r3, #1024]
 743 0014 1143     		orrs	r1, r1, r2
 744              	.LVL28:
 745              		.loc 1 354 17 view .LVU174
 746 0016 C3F80014 		str	r1, [r3, #1024]
 747 001a 7047     		bx	lr
 748              	.LVL29:
 749              	.L80:
 355:../../../support/device/gd32f4xx/peripherals/src/gd32f4xx_dac.c ****     } else {
 356:../../../support/device/gd32f4xx/peripherals/src/gd32f4xx_dac.c ****         /* configure DAC1 wave bit width */
 357:../../../support/device/gd32f4xx/peripherals/src/gd32f4xx_dac.c ****         DAC_CTL &= ~DAC_CTL_DWBW1;
 750              		.loc 1 357 9 is_stmt 1 view .LVU175
 751              		.loc 1 357 17 is_stmt 0 view .LVU176
 752 001c 22F07062 		bic	r2, r2, #251658240
 753 0020 C3F80024 		str	r2, [r3, #1024]
 358:../../../support/device/gd32f4xx/peripherals/src/gd32f4xx_dac.c ****         DAC_CTL |= (bit_width << DAC1_REG_OFFSET);
 754              		.loc 1 358 9 is_stmt 1 view .LVU177
 755              		.loc 1 358 17 is_stmt 0 view .LVU178
 756 0024 D3F80024 		ldr	r2, [r3, #1024]
 757 0028 42EA0141 		orr	r1, r2, r1, lsl #16
 758              	.LVL30:
 759              		.loc 1 358 17 view .LVU179
 760 002c C3F80014 		str	r1, [r3, #1024]
 359:../../../support/device/gd32f4xx/peripherals/src/gd32f4xx_dac.c ****     }
 360:../../../support/device/gd32f4xx/peripherals/src/gd32f4xx_dac.c **** }
 761              		.loc 1 360 1 view .LVU180
 762 0030 7047     		bx	lr
 763              	.L83:
 764 0032 00BF     		.align	2
 765              	.L82:
 766 0034 00700040 		.word	1073770496
 767              		.cfi_endproc
 768              	.LFE131:
 770              		.section	.text.dac_lfsr_noise_config,"ax",%progbits
 771              		.align	1
 772              		.p2align 2,,3
 773              		.global	dac_lfsr_noise_config
 774              		.syntax unified
 775              		.thumb
 776              		.thumb_func
 778              	dac_lfsr_noise_config:
ARM GAS  /var/folders/_f/88qcw_5n2jl40jjphvxyt7wh0000gn/T//ccvfIhXX.s 			page 21


 779              	.LFB150:
 780              		.cfi_startproc
 781              		@ args = 0, pretend = 0, frame = 0
 782              		@ frame_needed = 0, uses_anonymous_args = 0
 783              		@ link register save eliminated.
 784 0000 0C4B     		ldr	r3, .L87
 785 0002 D3F80024 		ldr	r2, [r3, #1024]
 786 0006 48B9     		cbnz	r0, .L85
 787 0008 22F47062 		bic	r2, r2, #3840
 788 000c C3F80024 		str	r2, [r3, #1024]
 789 0010 D3F80024 		ldr	r2, [r3, #1024]
 790 0014 1143     		orrs	r1, r1, r2
 791 0016 C3F80014 		str	r1, [r3, #1024]
 792 001a 7047     		bx	lr
 793              	.L85:
 794 001c 22F07062 		bic	r2, r2, #251658240
 795 0020 C3F80024 		str	r2, [r3, #1024]
 796 0024 D3F80024 		ldr	r2, [r3, #1024]
 797 0028 42EA0141 		orr	r1, r2, r1, lsl #16
 798 002c C3F80014 		str	r1, [r3, #1024]
 799 0030 7047     		bx	lr
 800              	.L88:
 801 0032 00BF     		.align	2
 802              	.L87:
 803 0034 00700040 		.word	1073770496
 804              		.cfi_endproc
 805              	.LFE150:
 807              		.section	.text.dac_triangle_noise_config,"ax",%progbits
 808              		.align	1
 809              		.p2align 2,,3
 810              		.global	dac_triangle_noise_config
 811              		.syntax unified
 812              		.thumb
 813              		.thumb_func
 815              	dac_triangle_noise_config:
 816              	.LFB152:
 817              		.cfi_startproc
 818              		@ args = 0, pretend = 0, frame = 0
 819              		@ frame_needed = 0, uses_anonymous_args = 0
 820              		@ link register save eliminated.
 821 0000 0C4B     		ldr	r3, .L92
 822 0002 D3F80024 		ldr	r2, [r3, #1024]
 823 0006 48B9     		cbnz	r0, .L90
 824 0008 22F47062 		bic	r2, r2, #3840
 825 000c C3F80024 		str	r2, [r3, #1024]
 826 0010 D3F80024 		ldr	r2, [r3, #1024]
 827 0014 1143     		orrs	r1, r1, r2
 828 0016 C3F80014 		str	r1, [r3, #1024]
 829 001a 7047     		bx	lr
 830              	.L90:
 831 001c 22F07062 		bic	r2, r2, #251658240
 832 0020 C3F80024 		str	r2, [r3, #1024]
 833 0024 D3F80024 		ldr	r2, [r3, #1024]
 834 0028 42EA0141 		orr	r1, r2, r1, lsl #16
 835 002c C3F80014 		str	r1, [r3, #1024]
 836 0030 7047     		bx	lr
 837              	.L93:
ARM GAS  /var/folders/_f/88qcw_5n2jl40jjphvxyt7wh0000gn/T//ccvfIhXX.s 			page 22


 838 0032 00BF     		.align	2
 839              	.L92:
 840 0034 00700040 		.word	1073770496
 841              		.cfi_endproc
 842              	.LFE152:
 844              		.section	.text.dac_concurrent_enable,"ax",%progbits
 845              		.align	1
 846              		.p2align 2,,3
 847              		.global	dac_concurrent_enable
 848              		.syntax unified
 849              		.thumb
 850              		.thumb_func
 852              	dac_concurrent_enable:
 853              	.LFB134:
 361:../../../support/device/gd32f4xx/peripherals/src/gd32f4xx_dac.c **** 
 362:../../../support/device/gd32f4xx/peripherals/src/gd32f4xx_dac.c **** /*!
 363:../../../support/device/gd32f4xx/peripherals/src/gd32f4xx_dac.c ****     \brief      configure DAC LFSR noise mode
 364:../../../support/device/gd32f4xx/peripherals/src/gd32f4xx_dac.c ****     \param[in]  dac_periph: DACx(x = 0,1)
 365:../../../support/device/gd32f4xx/peripherals/src/gd32f4xx_dac.c ****     \param[in]  unmask_bits: unmask LFSR bits in DAC LFSR noise mode
 366:../../../support/device/gd32f4xx/peripherals/src/gd32f4xx_dac.c ****                 only one parameter can be selected which is shown as below:
 367:../../../support/device/gd32f4xx/peripherals/src/gd32f4xx_dac.c ****       \arg        DAC_LFSR_BIT0: unmask the LFSR bit0
 368:../../../support/device/gd32f4xx/peripherals/src/gd32f4xx_dac.c ****       \arg        DAC_LFSR_BITS1_0: unmask the LFSR bits[1:0]
 369:../../../support/device/gd32f4xx/peripherals/src/gd32f4xx_dac.c ****       \arg        DAC_LFSR_BITS2_0: unmask the LFSR bits[2:0]
 370:../../../support/device/gd32f4xx/peripherals/src/gd32f4xx_dac.c ****       \arg        DAC_LFSR_BITS3_0: unmask the LFSR bits[3:0]
 371:../../../support/device/gd32f4xx/peripherals/src/gd32f4xx_dac.c ****       \arg        DAC_LFSR_BITS4_0: unmask the LFSR bits[4:0]
 372:../../../support/device/gd32f4xx/peripherals/src/gd32f4xx_dac.c ****       \arg        DAC_LFSR_BITS5_0: unmask the LFSR bits[5:0]
 373:../../../support/device/gd32f4xx/peripherals/src/gd32f4xx_dac.c ****       \arg        DAC_LFSR_BITS6_0: unmask the LFSR bits[6:0]
 374:../../../support/device/gd32f4xx/peripherals/src/gd32f4xx_dac.c ****       \arg        DAC_LFSR_BITS7_0: unmask the LFSR bits[7:0]
 375:../../../support/device/gd32f4xx/peripherals/src/gd32f4xx_dac.c ****       \arg        DAC_LFSR_BITS8_0: unmask the LFSR bits[8:0]
 376:../../../support/device/gd32f4xx/peripherals/src/gd32f4xx_dac.c ****       \arg        DAC_LFSR_BITS9_0: unmask the LFSR bits[9:0]
 377:../../../support/device/gd32f4xx/peripherals/src/gd32f4xx_dac.c ****       \arg        DAC_LFSR_BITS10_0: unmask the LFSR bits[10:0]
 378:../../../support/device/gd32f4xx/peripherals/src/gd32f4xx_dac.c ****       \arg        DAC_LFSR_BITS11_0: unmask the LFSR bits[11:0]
 379:../../../support/device/gd32f4xx/peripherals/src/gd32f4xx_dac.c ****     \param[out] none
 380:../../../support/device/gd32f4xx/peripherals/src/gd32f4xx_dac.c ****     \retval     none
 381:../../../support/device/gd32f4xx/peripherals/src/gd32f4xx_dac.c **** */
 382:../../../support/device/gd32f4xx/peripherals/src/gd32f4xx_dac.c **** void dac_lfsr_noise_config(uint32_t dac_periph, uint32_t unmask_bits)
 383:../../../support/device/gd32f4xx/peripherals/src/gd32f4xx_dac.c **** {
 384:../../../support/device/gd32f4xx/peripherals/src/gd32f4xx_dac.c ****     if(DAC0 == dac_periph) {
 385:../../../support/device/gd32f4xx/peripherals/src/gd32f4xx_dac.c ****         /* configure DAC0 LFSR noise mode */
 386:../../../support/device/gd32f4xx/peripherals/src/gd32f4xx_dac.c ****         DAC_CTL &= ~DAC_CTL_DWBW0;
 387:../../../support/device/gd32f4xx/peripherals/src/gd32f4xx_dac.c ****         DAC_CTL |= unmask_bits;
 388:../../../support/device/gd32f4xx/peripherals/src/gd32f4xx_dac.c ****     } else {
 389:../../../support/device/gd32f4xx/peripherals/src/gd32f4xx_dac.c ****         /* configure DAC1 LFSR noise mode */
 390:../../../support/device/gd32f4xx/peripherals/src/gd32f4xx_dac.c ****         DAC_CTL &= ~DAC_CTL_DWBW1;
 391:../../../support/device/gd32f4xx/peripherals/src/gd32f4xx_dac.c ****         DAC_CTL |= (unmask_bits << DAC1_REG_OFFSET);
 392:../../../support/device/gd32f4xx/peripherals/src/gd32f4xx_dac.c ****     }
 393:../../../support/device/gd32f4xx/peripherals/src/gd32f4xx_dac.c **** }
 394:../../../support/device/gd32f4xx/peripherals/src/gd32f4xx_dac.c **** 
 395:../../../support/device/gd32f4xx/peripherals/src/gd32f4xx_dac.c **** /*!
 396:../../../support/device/gd32f4xx/peripherals/src/gd32f4xx_dac.c ****     \brief      configure DAC triangle noise mode
 397:../../../support/device/gd32f4xx/peripherals/src/gd32f4xx_dac.c ****     \param[in]  dac_periph: DACx(x = 0,1)
 398:../../../support/device/gd32f4xx/peripherals/src/gd32f4xx_dac.c ****     \param[in]  amplitude: triangle amplitude in DAC triangle noise mode
 399:../../../support/device/gd32f4xx/peripherals/src/gd32f4xx_dac.c ****                 only one parameter can be selected which is shown as below:
 400:../../../support/device/gd32f4xx/peripherals/src/gd32f4xx_dac.c ****       \arg        DAC_TRIANGLE_AMPLITUDE_1: triangle amplitude is 1
 401:../../../support/device/gd32f4xx/peripherals/src/gd32f4xx_dac.c ****       \arg        DAC_TRIANGLE_AMPLITUDE_3: triangle amplitude is 3
 402:../../../support/device/gd32f4xx/peripherals/src/gd32f4xx_dac.c ****       \arg        DAC_TRIANGLE_AMPLITUDE_7: triangle amplitude is 7
 403:../../../support/device/gd32f4xx/peripherals/src/gd32f4xx_dac.c ****       \arg        DAC_TRIANGLE_AMPLITUDE_15: triangle amplitude is 15
ARM GAS  /var/folders/_f/88qcw_5n2jl40jjphvxyt7wh0000gn/T//ccvfIhXX.s 			page 23


 404:../../../support/device/gd32f4xx/peripherals/src/gd32f4xx_dac.c ****       \arg        DAC_TRIANGLE_AMPLITUDE_31: triangle amplitude is 31
 405:../../../support/device/gd32f4xx/peripherals/src/gd32f4xx_dac.c ****       \arg        DAC_TRIANGLE_AMPLITUDE_63: triangle amplitude is 63
 406:../../../support/device/gd32f4xx/peripherals/src/gd32f4xx_dac.c ****       \arg        DAC_TRIANGLE_AMPLITUDE_127: triangle amplitude is 127
 407:../../../support/device/gd32f4xx/peripherals/src/gd32f4xx_dac.c ****       \arg        DAC_TRIANGLE_AMPLITUDE_255: triangle amplitude is 255
 408:../../../support/device/gd32f4xx/peripherals/src/gd32f4xx_dac.c ****       \arg        DAC_TRIANGLE_AMPLITUDE_511: triangle amplitude is 511
 409:../../../support/device/gd32f4xx/peripherals/src/gd32f4xx_dac.c ****       \arg        DAC_TRIANGLE_AMPLITUDE_1023: triangle amplitude is 1023
 410:../../../support/device/gd32f4xx/peripherals/src/gd32f4xx_dac.c ****       \arg        DAC_TRIANGLE_AMPLITUDE_2047: triangle amplitude is 2047
 411:../../../support/device/gd32f4xx/peripherals/src/gd32f4xx_dac.c ****       \arg        DAC_TRIANGLE_AMPLITUDE_4095: triangle amplitude is 4095
 412:../../../support/device/gd32f4xx/peripherals/src/gd32f4xx_dac.c ****     \param[out] none
 413:../../../support/device/gd32f4xx/peripherals/src/gd32f4xx_dac.c ****     \retval     none
 414:../../../support/device/gd32f4xx/peripherals/src/gd32f4xx_dac.c **** */
 415:../../../support/device/gd32f4xx/peripherals/src/gd32f4xx_dac.c **** void dac_triangle_noise_config(uint32_t dac_periph, uint32_t amplitude)
 416:../../../support/device/gd32f4xx/peripherals/src/gd32f4xx_dac.c **** {
 417:../../../support/device/gd32f4xx/peripherals/src/gd32f4xx_dac.c ****     if(DAC0 == dac_periph) {
 418:../../../support/device/gd32f4xx/peripherals/src/gd32f4xx_dac.c ****         /* configure DAC0 triangle noise mode */
 419:../../../support/device/gd32f4xx/peripherals/src/gd32f4xx_dac.c ****         DAC_CTL &= ~DAC_CTL_DWBW0;
 420:../../../support/device/gd32f4xx/peripherals/src/gd32f4xx_dac.c ****         DAC_CTL |= amplitude;
 421:../../../support/device/gd32f4xx/peripherals/src/gd32f4xx_dac.c ****     } else {
 422:../../../support/device/gd32f4xx/peripherals/src/gd32f4xx_dac.c ****         /* configure DAC1 triangle noise mode */
 423:../../../support/device/gd32f4xx/peripherals/src/gd32f4xx_dac.c ****         DAC_CTL &= ~DAC_CTL_DWBW1;
 424:../../../support/device/gd32f4xx/peripherals/src/gd32f4xx_dac.c ****         DAC_CTL |= (amplitude << DAC1_REG_OFFSET);
 425:../../../support/device/gd32f4xx/peripherals/src/gd32f4xx_dac.c ****     }
 426:../../../support/device/gd32f4xx/peripherals/src/gd32f4xx_dac.c **** }
 427:../../../support/device/gd32f4xx/peripherals/src/gd32f4xx_dac.c **** 
 428:../../../support/device/gd32f4xx/peripherals/src/gd32f4xx_dac.c **** /*!
 429:../../../support/device/gd32f4xx/peripherals/src/gd32f4xx_dac.c ****     \brief      enable DAC concurrent mode
 430:../../../support/device/gd32f4xx/peripherals/src/gd32f4xx_dac.c ****     \param[in]  none
 431:../../../support/device/gd32f4xx/peripherals/src/gd32f4xx_dac.c ****     \param[out] none
 432:../../../support/device/gd32f4xx/peripherals/src/gd32f4xx_dac.c ****     \retval     none
 433:../../../support/device/gd32f4xx/peripherals/src/gd32f4xx_dac.c **** */
 434:../../../support/device/gd32f4xx/peripherals/src/gd32f4xx_dac.c **** void dac_concurrent_enable(void)
 435:../../../support/device/gd32f4xx/peripherals/src/gd32f4xx_dac.c **** {
 854              		.loc 1 435 1 is_stmt 1 view -0
 855              		.cfi_startproc
 856              		@ args = 0, pretend = 0, frame = 0
 857              		@ frame_needed = 0, uses_anonymous_args = 0
 858              		@ link register save eliminated.
 436:../../../support/device/gd32f4xx/peripherals/src/gd32f4xx_dac.c ****     uint32_t ctl = 0U;
 859              		.loc 1 436 5 view .LVU182
 860              	.LVL31:
 437:../../../support/device/gd32f4xx/peripherals/src/gd32f4xx_dac.c ****     ctl = DAC_CTL_DEN0 | DAC_CTL_DEN1;
 861              		.loc 1 437 5 view .LVU183
 438:../../../support/device/gd32f4xx/peripherals/src/gd32f4xx_dac.c ****     DAC_CTL |= (ctl);
 862              		.loc 1 438 5 view .LVU184
 863              		.loc 1 438 13 is_stmt 0 view .LVU185
 864 0000 034A     		ldr	r2, .L95
 865 0002 D2F80034 		ldr	r3, [r2, #1024]
 866 0006 43F00113 		orr	r3, r3, #65537
 867 000a C2F80034 		str	r3, [r2, #1024]
 439:../../../support/device/gd32f4xx/peripherals/src/gd32f4xx_dac.c **** }
 868              		.loc 1 439 1 view .LVU186
 869 000e 7047     		bx	lr
 870              	.L96:
 871              		.align	2
 872              	.L95:
 873 0010 00700040 		.word	1073770496
 874              		.cfi_endproc
ARM GAS  /var/folders/_f/88qcw_5n2jl40jjphvxyt7wh0000gn/T//ccvfIhXX.s 			page 24


 875              	.LFE134:
 877              		.section	.text.dac_concurrent_disable,"ax",%progbits
 878              		.align	1
 879              		.p2align 2,,3
 880              		.global	dac_concurrent_disable
 881              		.syntax unified
 882              		.thumb
 883              		.thumb_func
 885              	dac_concurrent_disable:
 886              	.LFB135:
 440:../../../support/device/gd32f4xx/peripherals/src/gd32f4xx_dac.c **** 
 441:../../../support/device/gd32f4xx/peripherals/src/gd32f4xx_dac.c **** /*!
 442:../../../support/device/gd32f4xx/peripherals/src/gd32f4xx_dac.c ****     \brief      disable DAC concurrent mode
 443:../../../support/device/gd32f4xx/peripherals/src/gd32f4xx_dac.c ****     \param[in]  none
 444:../../../support/device/gd32f4xx/peripherals/src/gd32f4xx_dac.c ****     \param[out] none
 445:../../../support/device/gd32f4xx/peripherals/src/gd32f4xx_dac.c ****     \retval     none
 446:../../../support/device/gd32f4xx/peripherals/src/gd32f4xx_dac.c **** */
 447:../../../support/device/gd32f4xx/peripherals/src/gd32f4xx_dac.c **** void dac_concurrent_disable(void)
 448:../../../support/device/gd32f4xx/peripherals/src/gd32f4xx_dac.c **** {
 887              		.loc 1 448 1 is_stmt 1 view -0
 888              		.cfi_startproc
 889              		@ args = 0, pretend = 0, frame = 0
 890              		@ frame_needed = 0, uses_anonymous_args = 0
 891              		@ link register save eliminated.
 449:../../../support/device/gd32f4xx/peripherals/src/gd32f4xx_dac.c ****     uint32_t ctl = 0U;
 892              		.loc 1 449 5 view .LVU188
 893              	.LVL32:
 450:../../../support/device/gd32f4xx/peripherals/src/gd32f4xx_dac.c ****     ctl = DAC_CTL_DEN0 | DAC_CTL_DEN1;
 894              		.loc 1 450 5 view .LVU189
 451:../../../support/device/gd32f4xx/peripherals/src/gd32f4xx_dac.c ****     DAC_CTL &= (~ctl);
 895              		.loc 1 451 5 view .LVU190
 896              		.loc 1 451 13 is_stmt 0 view .LVU191
 897 0000 034A     		ldr	r2, .L98
 898 0002 D2F80034 		ldr	r3, [r2, #1024]
 899 0006 23F00113 		bic	r3, r3, #65537
 900 000a C2F80034 		str	r3, [r2, #1024]
 452:../../../support/device/gd32f4xx/peripherals/src/gd32f4xx_dac.c **** }
 901              		.loc 1 452 1 view .LVU192
 902 000e 7047     		bx	lr
 903              	.L99:
 904              		.align	2
 905              	.L98:
 906 0010 00700040 		.word	1073770496
 907              		.cfi_endproc
 908              	.LFE135:
 910              		.section	.text.dac_concurrent_software_trigger_enable,"ax",%progbits
 911              		.align	1
 912              		.p2align 2,,3
 913              		.global	dac_concurrent_software_trigger_enable
 914              		.syntax unified
 915              		.thumb
 916              		.thumb_func
 918              	dac_concurrent_software_trigger_enable:
 919              	.LFB136:
 453:../../../support/device/gd32f4xx/peripherals/src/gd32f4xx_dac.c **** 
 454:../../../support/device/gd32f4xx/peripherals/src/gd32f4xx_dac.c **** /*!
 455:../../../support/device/gd32f4xx/peripherals/src/gd32f4xx_dac.c ****     \brief      enable DAC concurrent software trigger function
ARM GAS  /var/folders/_f/88qcw_5n2jl40jjphvxyt7wh0000gn/T//ccvfIhXX.s 			page 25


 456:../../../support/device/gd32f4xx/peripherals/src/gd32f4xx_dac.c ****     \param[in]  none
 457:../../../support/device/gd32f4xx/peripherals/src/gd32f4xx_dac.c ****     \param[out] none
 458:../../../support/device/gd32f4xx/peripherals/src/gd32f4xx_dac.c ****     \retval     none
 459:../../../support/device/gd32f4xx/peripherals/src/gd32f4xx_dac.c **** */
 460:../../../support/device/gd32f4xx/peripherals/src/gd32f4xx_dac.c **** void dac_concurrent_software_trigger_enable(void)
 461:../../../support/device/gd32f4xx/peripherals/src/gd32f4xx_dac.c **** {
 920              		.loc 1 461 1 is_stmt 1 view -0
 921              		.cfi_startproc
 922              		@ args = 0, pretend = 0, frame = 0
 923              		@ frame_needed = 0, uses_anonymous_args = 0
 924              		@ link register save eliminated.
 462:../../../support/device/gd32f4xx/peripherals/src/gd32f4xx_dac.c ****     uint32_t swt = 0U;
 925              		.loc 1 462 5 view .LVU194
 926              	.LVL33:
 463:../../../support/device/gd32f4xx/peripherals/src/gd32f4xx_dac.c ****     swt = DAC_SWT_SWTR0 | DAC_SWT_SWTR1;
 927              		.loc 1 463 5 view .LVU195
 464:../../../support/device/gd32f4xx/peripherals/src/gd32f4xx_dac.c ****     DAC_SWT |= (swt);
 928              		.loc 1 464 5 view .LVU196
 929              		.loc 1 464 13 is_stmt 0 view .LVU197
 930 0000 034A     		ldr	r2, .L101
 931 0002 D2F80434 		ldr	r3, [r2, #1028]
 932 0006 43F00303 		orr	r3, r3, #3
 933 000a C2F80434 		str	r3, [r2, #1028]
 465:../../../support/device/gd32f4xx/peripherals/src/gd32f4xx_dac.c **** }
 934              		.loc 1 465 1 view .LVU198
 935 000e 7047     		bx	lr
 936              	.L102:
 937              		.align	2
 938              	.L101:
 939 0010 00700040 		.word	1073770496
 940              		.cfi_endproc
 941              	.LFE136:
 943              		.section	.text.dac_concurrent_software_trigger_disable,"ax",%progbits
 944              		.align	1
 945              		.p2align 2,,3
 946              		.global	dac_concurrent_software_trigger_disable
 947              		.syntax unified
 948              		.thumb
 949              		.thumb_func
 951              	dac_concurrent_software_trigger_disable:
 952              	.LFB137:
 466:../../../support/device/gd32f4xx/peripherals/src/gd32f4xx_dac.c **** 
 467:../../../support/device/gd32f4xx/peripherals/src/gd32f4xx_dac.c **** /*!
 468:../../../support/device/gd32f4xx/peripherals/src/gd32f4xx_dac.c ****     \brief      disable DAC concurrent software trigger function
 469:../../../support/device/gd32f4xx/peripherals/src/gd32f4xx_dac.c ****     \param[in]  none
 470:../../../support/device/gd32f4xx/peripherals/src/gd32f4xx_dac.c ****     \param[out] none
 471:../../../support/device/gd32f4xx/peripherals/src/gd32f4xx_dac.c ****     \retval     none
 472:../../../support/device/gd32f4xx/peripherals/src/gd32f4xx_dac.c **** */
 473:../../../support/device/gd32f4xx/peripherals/src/gd32f4xx_dac.c **** void dac_concurrent_software_trigger_disable(void)
 474:../../../support/device/gd32f4xx/peripherals/src/gd32f4xx_dac.c **** {
 953              		.loc 1 474 1 is_stmt 1 view -0
 954              		.cfi_startproc
 955              		@ args = 0, pretend = 0, frame = 0
 956              		@ frame_needed = 0, uses_anonymous_args = 0
 957              		@ link register save eliminated.
 475:../../../support/device/gd32f4xx/peripherals/src/gd32f4xx_dac.c ****     uint32_t swt = 0U;
 958              		.loc 1 475 5 view .LVU200
ARM GAS  /var/folders/_f/88qcw_5n2jl40jjphvxyt7wh0000gn/T//ccvfIhXX.s 			page 26


 959              	.LVL34:
 476:../../../support/device/gd32f4xx/peripherals/src/gd32f4xx_dac.c ****     swt = DAC_SWT_SWTR0 | DAC_SWT_SWTR1;
 960              		.loc 1 476 5 view .LVU201
 477:../../../support/device/gd32f4xx/peripherals/src/gd32f4xx_dac.c ****     DAC_SWT &= (~swt);
 961              		.loc 1 477 5 view .LVU202
 962              		.loc 1 477 13 is_stmt 0 view .LVU203
 963 0000 034A     		ldr	r2, .L104
 964 0002 D2F80434 		ldr	r3, [r2, #1028]
 965 0006 23F00303 		bic	r3, r3, #3
 966 000a C2F80434 		str	r3, [r2, #1028]
 478:../../../support/device/gd32f4xx/peripherals/src/gd32f4xx_dac.c **** }
 967              		.loc 1 478 1 view .LVU204
 968 000e 7047     		bx	lr
 969              	.L105:
 970              		.align	2
 971              	.L104:
 972 0010 00700040 		.word	1073770496
 973              		.cfi_endproc
 974              	.LFE137:
 976              		.section	.text.dac_concurrent_output_buffer_enable,"ax",%progbits
 977              		.align	1
 978              		.p2align 2,,3
 979              		.global	dac_concurrent_output_buffer_enable
 980              		.syntax unified
 981              		.thumb
 982              		.thumb_func
 984              	dac_concurrent_output_buffer_enable:
 985              	.LFB138:
 479:../../../support/device/gd32f4xx/peripherals/src/gd32f4xx_dac.c **** 
 480:../../../support/device/gd32f4xx/peripherals/src/gd32f4xx_dac.c **** /*!
 481:../../../support/device/gd32f4xx/peripherals/src/gd32f4xx_dac.c ****     \brief      enable DAC concurrent buffer function
 482:../../../support/device/gd32f4xx/peripherals/src/gd32f4xx_dac.c ****     \param[in]  none
 483:../../../support/device/gd32f4xx/peripherals/src/gd32f4xx_dac.c ****     \param[out] none
 484:../../../support/device/gd32f4xx/peripherals/src/gd32f4xx_dac.c ****     \retval     none
 485:../../../support/device/gd32f4xx/peripherals/src/gd32f4xx_dac.c **** */
 486:../../../support/device/gd32f4xx/peripherals/src/gd32f4xx_dac.c **** void dac_concurrent_output_buffer_enable(void)
 487:../../../support/device/gd32f4xx/peripherals/src/gd32f4xx_dac.c **** {
 986              		.loc 1 487 1 is_stmt 1 view -0
 987              		.cfi_startproc
 988              		@ args = 0, pretend = 0, frame = 0
 989              		@ frame_needed = 0, uses_anonymous_args = 0
 990              		@ link register save eliminated.
 488:../../../support/device/gd32f4xx/peripherals/src/gd32f4xx_dac.c ****     uint32_t ctl = 0U;
 991              		.loc 1 488 5 view .LVU206
 992              	.LVL35:
 489:../../../support/device/gd32f4xx/peripherals/src/gd32f4xx_dac.c ****     ctl = DAC_CTL_DBOFF0 | DAC_CTL_DBOFF1;
 993              		.loc 1 489 5 view .LVU207
 490:../../../support/device/gd32f4xx/peripherals/src/gd32f4xx_dac.c ****     DAC_CTL &= (~ctl);
 994              		.loc 1 490 5 view .LVU208
 995              		.loc 1 490 13 is_stmt 0 view .LVU209
 996 0000 034A     		ldr	r2, .L107
 997 0002 D2F80034 		ldr	r3, [r2, #1024]
 998 0006 23F00213 		bic	r3, r3, #131074
 999 000a C2F80034 		str	r3, [r2, #1024]
 491:../../../support/device/gd32f4xx/peripherals/src/gd32f4xx_dac.c **** }
 1000              		.loc 1 491 1 view .LVU210
 1001 000e 7047     		bx	lr
ARM GAS  /var/folders/_f/88qcw_5n2jl40jjphvxyt7wh0000gn/T//ccvfIhXX.s 			page 27


 1002              	.L108:
 1003              		.align	2
 1004              	.L107:
 1005 0010 00700040 		.word	1073770496
 1006              		.cfi_endproc
 1007              	.LFE138:
 1009              		.section	.text.dac_concurrent_output_buffer_disable,"ax",%progbits
 1010              		.align	1
 1011              		.p2align 2,,3
 1012              		.global	dac_concurrent_output_buffer_disable
 1013              		.syntax unified
 1014              		.thumb
 1015              		.thumb_func
 1017              	dac_concurrent_output_buffer_disable:
 1018              	.LFB139:
 492:../../../support/device/gd32f4xx/peripherals/src/gd32f4xx_dac.c **** 
 493:../../../support/device/gd32f4xx/peripherals/src/gd32f4xx_dac.c **** /*!
 494:../../../support/device/gd32f4xx/peripherals/src/gd32f4xx_dac.c ****     \brief      disable DAC concurrent buffer function
 495:../../../support/device/gd32f4xx/peripherals/src/gd32f4xx_dac.c ****     \param[in]  none
 496:../../../support/device/gd32f4xx/peripherals/src/gd32f4xx_dac.c ****     \param[out] none
 497:../../../support/device/gd32f4xx/peripherals/src/gd32f4xx_dac.c ****     \retval     none
 498:../../../support/device/gd32f4xx/peripherals/src/gd32f4xx_dac.c **** */
 499:../../../support/device/gd32f4xx/peripherals/src/gd32f4xx_dac.c **** void dac_concurrent_output_buffer_disable(void)
 500:../../../support/device/gd32f4xx/peripherals/src/gd32f4xx_dac.c **** {
 1019              		.loc 1 500 1 is_stmt 1 view -0
 1020              		.cfi_startproc
 1021              		@ args = 0, pretend = 0, frame = 0
 1022              		@ frame_needed = 0, uses_anonymous_args = 0
 1023              		@ link register save eliminated.
 501:../../../support/device/gd32f4xx/peripherals/src/gd32f4xx_dac.c ****     uint32_t ctl = 0U;
 1024              		.loc 1 501 5 view .LVU212
 1025              	.LVL36:
 502:../../../support/device/gd32f4xx/peripherals/src/gd32f4xx_dac.c ****     ctl = DAC_CTL_DBOFF0 | DAC_CTL_DBOFF1;
 1026              		.loc 1 502 5 view .LVU213
 503:../../../support/device/gd32f4xx/peripherals/src/gd32f4xx_dac.c ****     DAC_CTL |= (ctl);
 1027              		.loc 1 503 5 view .LVU214
 1028              		.loc 1 503 13 is_stmt 0 view .LVU215
 1029 0000 034A     		ldr	r2, .L110
 1030 0002 D2F80034 		ldr	r3, [r2, #1024]
 1031 0006 43F00213 		orr	r3, r3, #131074
 1032 000a C2F80034 		str	r3, [r2, #1024]
 504:../../../support/device/gd32f4xx/peripherals/src/gd32f4xx_dac.c **** }
 1033              		.loc 1 504 1 view .LVU216
 1034 000e 7047     		bx	lr
 1035              	.L111:
 1036              		.align	2
 1037              	.L110:
 1038 0010 00700040 		.word	1073770496
 1039              		.cfi_endproc
 1040              	.LFE139:
 1042              		.section	.text.dac_concurrent_data_set,"ax",%progbits
 1043              		.align	1
 1044              		.p2align 2,,3
 1045              		.global	dac_concurrent_data_set
 1046              		.syntax unified
 1047              		.thumb
 1048              		.thumb_func
ARM GAS  /var/folders/_f/88qcw_5n2jl40jjphvxyt7wh0000gn/T//ccvfIhXX.s 			page 28


 1050              	dac_concurrent_data_set:
 1051              	.LVL37:
 1052              	.LFB140:
 505:../../../support/device/gd32f4xx/peripherals/src/gd32f4xx_dac.c **** 
 506:../../../support/device/gd32f4xx/peripherals/src/gd32f4xx_dac.c **** /*!
 507:../../../support/device/gd32f4xx/peripherals/src/gd32f4xx_dac.c ****     \brief      set DAC concurrent mode data holding register value
 508:../../../support/device/gd32f4xx/peripherals/src/gd32f4xx_dac.c ****     \param[in]  dac_align: data alignment
 509:../../../support/device/gd32f4xx/peripherals/src/gd32f4xx_dac.c ****                 only one parameter can be selected which is shown as below:
 510:../../../support/device/gd32f4xx/peripherals/src/gd32f4xx_dac.c ****       \arg        DAC_ALIGN_8B_R: data right 8b alignment
 511:../../../support/device/gd32f4xx/peripherals/src/gd32f4xx_dac.c ****       \arg        DAC_ALIGN_12B_R: data right 12b alignment
 512:../../../support/device/gd32f4xx/peripherals/src/gd32f4xx_dac.c ****       \arg        DAC_ALIGN_12B_L: data left 12b alignment
 513:../../../support/device/gd32f4xx/peripherals/src/gd32f4xx_dac.c ****     \param[in]  data0: data to be loaded
 514:../../../support/device/gd32f4xx/peripherals/src/gd32f4xx_dac.c ****     \param[in]  data1: data to be loaded
 515:../../../support/device/gd32f4xx/peripherals/src/gd32f4xx_dac.c ****     \param[out] none
 516:../../../support/device/gd32f4xx/peripherals/src/gd32f4xx_dac.c ****     \retval     none
 517:../../../support/device/gd32f4xx/peripherals/src/gd32f4xx_dac.c **** */
 518:../../../support/device/gd32f4xx/peripherals/src/gd32f4xx_dac.c **** void dac_concurrent_data_set(uint32_t dac_align, uint16_t data0, uint16_t data1)
 519:../../../support/device/gd32f4xx/peripherals/src/gd32f4xx_dac.c **** {
 1053              		.loc 1 519 1 is_stmt 1 view -0
 1054              		.cfi_startproc
 1055              		@ args = 0, pretend = 0, frame = 0
 1056              		@ frame_needed = 0, uses_anonymous_args = 0
 1057              		@ link register save eliminated.
 520:../../../support/device/gd32f4xx/peripherals/src/gd32f4xx_dac.c ****     uint32_t data = 0U;
 1058              		.loc 1 520 5 view .LVU218
 521:../../../support/device/gd32f4xx/peripherals/src/gd32f4xx_dac.c ****     switch(dac_align) {
 1059              		.loc 1 521 5 view .LVU219
 1060 0000 0128     		cmp	r0, #1
 1061 0002 03D0     		beq	.L113
 1062 0004 0228     		cmp	r0, #2
 1063 0006 0DD0     		beq	.L114
 1064 0008 30B1     		cbz	r0, .L116
 522:../../../support/device/gd32f4xx/peripherals/src/gd32f4xx_dac.c ****     /* data right 12b alignment */
 523:../../../support/device/gd32f4xx/peripherals/src/gd32f4xx_dac.c ****     case DAC_ALIGN_12B_R:
 524:../../../support/device/gd32f4xx/peripherals/src/gd32f4xx_dac.c ****         data = ((uint32_t)data1 << DH_12BIT_OFFSET) | data0;
 525:../../../support/device/gd32f4xx/peripherals/src/gd32f4xx_dac.c ****         DACC_R12DH = data;
 526:../../../support/device/gd32f4xx/peripherals/src/gd32f4xx_dac.c ****         break;
 527:../../../support/device/gd32f4xx/peripherals/src/gd32f4xx_dac.c ****     /* data left 12b alignment */
 528:../../../support/device/gd32f4xx/peripherals/src/gd32f4xx_dac.c ****     case DAC_ALIGN_12B_L:
 529:../../../support/device/gd32f4xx/peripherals/src/gd32f4xx_dac.c ****         data = ((uint32_t)data1 << DH_12BIT_OFFSET) | data0;
 530:../../../support/device/gd32f4xx/peripherals/src/gd32f4xx_dac.c ****         DACC_L12DH = data;
 531:../../../support/device/gd32f4xx/peripherals/src/gd32f4xx_dac.c ****         break;
 532:../../../support/device/gd32f4xx/peripherals/src/gd32f4xx_dac.c ****     /* data right 8b alignment */
 533:../../../support/device/gd32f4xx/peripherals/src/gd32f4xx_dac.c ****     case DAC_ALIGN_8B_R:
 534:../../../support/device/gd32f4xx/peripherals/src/gd32f4xx_dac.c ****         data = ((uint32_t)data1 << DH_8BIT_OFFSET) | data0;
 535:../../../support/device/gd32f4xx/peripherals/src/gd32f4xx_dac.c ****         DACC_R8DH = data;
 536:../../../support/device/gd32f4xx/peripherals/src/gd32f4xx_dac.c ****         break;
 537:../../../support/device/gd32f4xx/peripherals/src/gd32f4xx_dac.c ****     default:
 538:../../../support/device/gd32f4xx/peripherals/src/gd32f4xx_dac.c ****         break;
 539:../../../support/device/gd32f4xx/peripherals/src/gd32f4xx_dac.c ****     }
 540:../../../support/device/gd32f4xx/peripherals/src/gd32f4xx_dac.c **** }
 1065              		.loc 1 540 1 is_stmt 0 view .LVU220
 1066 000a 7047     		bx	lr
 1067              	.L113:
 529:../../../support/device/gd32f4xx/peripherals/src/gd32f4xx_dac.c ****         DACC_L12DH = data;
 1068              		.loc 1 529 9 is_stmt 1 view .LVU221
 530:../../../support/device/gd32f4xx/peripherals/src/gd32f4xx_dac.c ****         break;
ARM GAS  /var/folders/_f/88qcw_5n2jl40jjphvxyt7wh0000gn/T//ccvfIhXX.s 			page 29


 1069              		.loc 1 530 20 is_stmt 0 view .LVU222
 1070 000c 084B     		ldr	r3, .L117
 529:../../../support/device/gd32f4xx/peripherals/src/gd32f4xx_dac.c ****         DACC_L12DH = data;
 1071              		.loc 1 529 14 view .LVU223
 1072 000e 41EA0241 		orr	r1, r1, r2, lsl #16
 1073              	.LVL38:
 530:../../../support/device/gd32f4xx/peripherals/src/gd32f4xx_dac.c ****         break;
 1074              		.loc 1 530 9 is_stmt 1 view .LVU224
 530:../../../support/device/gd32f4xx/peripherals/src/gd32f4xx_dac.c ****         break;
 1075              		.loc 1 530 20 is_stmt 0 view .LVU225
 1076 0012 C3F82414 		str	r1, [r3, #1060]
 531:../../../support/device/gd32f4xx/peripherals/src/gd32f4xx_dac.c ****     /* data right 8b alignment */
 1077              		.loc 1 531 9 is_stmt 1 view .LVU226
 1078 0016 7047     		bx	lr
 1079              	.LVL39:
 1080              	.L116:
 524:../../../support/device/gd32f4xx/peripherals/src/gd32f4xx_dac.c ****         DACC_R12DH = data;
 1081              		.loc 1 524 9 view .LVU227
 525:../../../support/device/gd32f4xx/peripherals/src/gd32f4xx_dac.c ****         break;
 1082              		.loc 1 525 20 is_stmt 0 view .LVU228
 1083 0018 054B     		ldr	r3, .L117
 524:../../../support/device/gd32f4xx/peripherals/src/gd32f4xx_dac.c ****         DACC_R12DH = data;
 1084              		.loc 1 524 14 view .LVU229
 1085 001a 41EA0241 		orr	r1, r1, r2, lsl #16
 1086              	.LVL40:
 525:../../../support/device/gd32f4xx/peripherals/src/gd32f4xx_dac.c ****         break;
 1087              		.loc 1 525 9 is_stmt 1 view .LVU230
 525:../../../support/device/gd32f4xx/peripherals/src/gd32f4xx_dac.c ****         break;
 1088              		.loc 1 525 20 is_stmt 0 view .LVU231
 1089 001e C3F82014 		str	r1, [r3, #1056]
 526:../../../support/device/gd32f4xx/peripherals/src/gd32f4xx_dac.c ****     /* data left 12b alignment */
 1090              		.loc 1 526 9 is_stmt 1 view .LVU232
 1091 0022 7047     		bx	lr
 1092              	.LVL41:
 1093              	.L114:
 534:../../../support/device/gd32f4xx/peripherals/src/gd32f4xx_dac.c ****         DACC_R8DH = data;
 1094              		.loc 1 534 9 view .LVU233
 535:../../../support/device/gd32f4xx/peripherals/src/gd32f4xx_dac.c ****         break;
 1095              		.loc 1 535 19 is_stmt 0 view .LVU234
 1096 0024 024B     		ldr	r3, .L117
 534:../../../support/device/gd32f4xx/peripherals/src/gd32f4xx_dac.c ****         DACC_R8DH = data;
 1097              		.loc 1 534 14 view .LVU235
 1098 0026 41EA0221 		orr	r1, r1, r2, lsl #8
 1099              	.LVL42:
 535:../../../support/device/gd32f4xx/peripherals/src/gd32f4xx_dac.c ****         break;
 1100              		.loc 1 535 9 is_stmt 1 view .LVU236
 535:../../../support/device/gd32f4xx/peripherals/src/gd32f4xx_dac.c ****         break;
 1101              		.loc 1 535 19 is_stmt 0 view .LVU237
 1102 002a C3F82814 		str	r1, [r3, #1064]
 536:../../../support/device/gd32f4xx/peripherals/src/gd32f4xx_dac.c ****     default:
 1103              		.loc 1 536 9 is_stmt 1 view .LVU238
 1104              		.loc 1 540 1 is_stmt 0 view .LVU239
 1105 002e 7047     		bx	lr
 1106              	.L118:
 1107              		.align	2
 1108              	.L117:
 1109 0030 00700040 		.word	1073770496
ARM GAS  /var/folders/_f/88qcw_5n2jl40jjphvxyt7wh0000gn/T//ccvfIhXX.s 			page 30


 1110              		.cfi_endproc
 1111              	.LFE140:
 1113              		.section	.text.dac_concurrent_interrupt_enable,"ax",%progbits
 1114              		.align	1
 1115              		.p2align 2,,3
 1116              		.global	dac_concurrent_interrupt_enable
 1117              		.syntax unified
 1118              		.thumb
 1119              		.thumb_func
 1121              	dac_concurrent_interrupt_enable:
 1122              	.LFB141:
 541:../../../support/device/gd32f4xx/peripherals/src/gd32f4xx_dac.c **** 
 542:../../../support/device/gd32f4xx/peripherals/src/gd32f4xx_dac.c **** /*!
 543:../../../support/device/gd32f4xx/peripherals/src/gd32f4xx_dac.c ****     \brief      enable DAC concurrent interrupt funcution
 544:../../../support/device/gd32f4xx/peripherals/src/gd32f4xx_dac.c ****     \param[in]  none
 545:../../../support/device/gd32f4xx/peripherals/src/gd32f4xx_dac.c ****     \param[out] none
 546:../../../support/device/gd32f4xx/peripherals/src/gd32f4xx_dac.c ****     \retval     none
 547:../../../support/device/gd32f4xx/peripherals/src/gd32f4xx_dac.c **** */
 548:../../../support/device/gd32f4xx/peripherals/src/gd32f4xx_dac.c **** void dac_concurrent_interrupt_enable(void)
 549:../../../support/device/gd32f4xx/peripherals/src/gd32f4xx_dac.c **** {
 1123              		.loc 1 549 1 is_stmt 1 view -0
 1124              		.cfi_startproc
 1125              		@ args = 0, pretend = 0, frame = 0
 1126              		@ frame_needed = 0, uses_anonymous_args = 0
 1127              		@ link register save eliminated.
 550:../../../support/device/gd32f4xx/peripherals/src/gd32f4xx_dac.c ****     uint32_t ctl = 0U;
 1128              		.loc 1 550 5 view .LVU241
 1129              	.LVL43:
 551:../../../support/device/gd32f4xx/peripherals/src/gd32f4xx_dac.c ****     ctl = DAC_CTL_DDUDRIE0 | DAC_CTL_DDUDRIE1;
 1130              		.loc 1 551 5 view .LVU242
 552:../../../support/device/gd32f4xx/peripherals/src/gd32f4xx_dac.c ****     DAC_CTL |= (ctl);
 1131              		.loc 1 552 5 view .LVU243
 1132              		.loc 1 552 13 is_stmt 0 view .LVU244
 1133 0000 034A     		ldr	r2, .L120
 1134 0002 D2F80034 		ldr	r3, [r2, #1024]
 1135 0006 43F02023 		orr	r3, r3, #536879104
 1136 000a C2F80034 		str	r3, [r2, #1024]
 553:../../../support/device/gd32f4xx/peripherals/src/gd32f4xx_dac.c **** }
 1137              		.loc 1 553 1 view .LVU245
 1138 000e 7047     		bx	lr
 1139              	.L121:
 1140              		.align	2
 1141              	.L120:
 1142 0010 00700040 		.word	1073770496
 1143              		.cfi_endproc
 1144              	.LFE141:
 1146              		.section	.text.dac_concurrent_interrupt_disable,"ax",%progbits
 1147              		.align	1
 1148              		.p2align 2,,3
 1149              		.global	dac_concurrent_interrupt_disable
 1150              		.syntax unified
 1151              		.thumb
 1152              		.thumb_func
 1154              	dac_concurrent_interrupt_disable:
 1155              	.LFB142:
 554:../../../support/device/gd32f4xx/peripherals/src/gd32f4xx_dac.c **** 
 555:../../../support/device/gd32f4xx/peripherals/src/gd32f4xx_dac.c **** /*!
ARM GAS  /var/folders/_f/88qcw_5n2jl40jjphvxyt7wh0000gn/T//ccvfIhXX.s 			page 31


 556:../../../support/device/gd32f4xx/peripherals/src/gd32f4xx_dac.c ****     \brief      disable DAC concurrent interrupt funcution
 557:../../../support/device/gd32f4xx/peripherals/src/gd32f4xx_dac.c ****     \param[in]  none
 558:../../../support/device/gd32f4xx/peripherals/src/gd32f4xx_dac.c ****     \param[out] none
 559:../../../support/device/gd32f4xx/peripherals/src/gd32f4xx_dac.c ****     \retval     none
 560:../../../support/device/gd32f4xx/peripherals/src/gd32f4xx_dac.c **** */
 561:../../../support/device/gd32f4xx/peripherals/src/gd32f4xx_dac.c **** void dac_concurrent_interrupt_disable(void)
 562:../../../support/device/gd32f4xx/peripherals/src/gd32f4xx_dac.c **** {
 1156              		.loc 1 562 1 is_stmt 1 view -0
 1157              		.cfi_startproc
 1158              		@ args = 0, pretend = 0, frame = 0
 1159              		@ frame_needed = 0, uses_anonymous_args = 0
 1160              		@ link register save eliminated.
 563:../../../support/device/gd32f4xx/peripherals/src/gd32f4xx_dac.c ****     uint32_t ctl = 0U;
 1161              		.loc 1 563 5 view .LVU247
 1162              	.LVL44:
 564:../../../support/device/gd32f4xx/peripherals/src/gd32f4xx_dac.c ****     ctl = DAC_CTL_DDUDRIE0 | DAC_CTL_DDUDRIE1;
 1163              		.loc 1 564 5 view .LVU248
 565:../../../support/device/gd32f4xx/peripherals/src/gd32f4xx_dac.c ****     DAC_CTL &= (~ctl);
 1164              		.loc 1 565 5 view .LVU249
 1165              		.loc 1 565 13 is_stmt 0 view .LVU250
 1166 0000 034A     		ldr	r2, .L123
 1167 0002 D2F80034 		ldr	r3, [r2, #1024]
 1168 0006 23F02023 		bic	r3, r3, #536879104
 1169 000a C2F80034 		str	r3, [r2, #1024]
 566:../../../support/device/gd32f4xx/peripherals/src/gd32f4xx_dac.c **** }
 1170              		.loc 1 566 1 view .LVU251
 1171 000e 7047     		bx	lr
 1172              	.L124:
 1173              		.align	2
 1174              	.L123:
 1175 0010 00700040 		.word	1073770496
 1176              		.cfi_endproc
 1177              	.LFE142:
 1179              		.section	.text.dac_flag_get,"ax",%progbits
 1180              		.align	1
 1181              		.p2align 2,,3
 1182              		.global	dac_flag_get
 1183              		.syntax unified
 1184              		.thumb
 1185              		.thumb_func
 1187              	dac_flag_get:
 1188              	.LVL45:
 1189              	.LFB143:
 567:../../../support/device/gd32f4xx/peripherals/src/gd32f4xx_dac.c **** 
 568:../../../support/device/gd32f4xx/peripherals/src/gd32f4xx_dac.c **** /*!
 569:../../../support/device/gd32f4xx/peripherals/src/gd32f4xx_dac.c ****     \brief      get the specified DAC flag (DAC DMA underrun flag)
 570:../../../support/device/gd32f4xx/peripherals/src/gd32f4xx_dac.c ****     \param[in]  dac_periph: DACx(x = 0,1)
 571:../../../support/device/gd32f4xx/peripherals/src/gd32f4xx_dac.c ****     \param[out] none
 572:../../../support/device/gd32f4xx/peripherals/src/gd32f4xx_dac.c ****     \retval     FlagStatus: SET or RESET
 573:../../../support/device/gd32f4xx/peripherals/src/gd32f4xx_dac.c **** */
 574:../../../support/device/gd32f4xx/peripherals/src/gd32f4xx_dac.c **** FlagStatus dac_flag_get(uint32_t dac_periph)
 575:../../../support/device/gd32f4xx/peripherals/src/gd32f4xx_dac.c **** {
 1190              		.loc 1 575 1 is_stmt 1 view -0
 1191              		.cfi_startproc
 1192              		@ args = 0, pretend = 0, frame = 0
 1193              		@ frame_needed = 0, uses_anonymous_args = 0
 1194              		@ link register save eliminated.
ARM GAS  /var/folders/_f/88qcw_5n2jl40jjphvxyt7wh0000gn/T//ccvfIhXX.s 			page 32


 576:../../../support/device/gd32f4xx/peripherals/src/gd32f4xx_dac.c ****     FlagStatus temp_flag = RESET;
 1195              		.loc 1 576 5 view .LVU253
 577:../../../support/device/gd32f4xx/peripherals/src/gd32f4xx_dac.c ****     if(DAC0 == dac_periph) {
 1196              		.loc 1 577 5 view .LVU254
 578:../../../support/device/gd32f4xx/peripherals/src/gd32f4xx_dac.c ****         /* check the DMA underrun flag */
 579:../../../support/device/gd32f4xx/peripherals/src/gd32f4xx_dac.c ****         if(RESET != (DAC_STAT & DAC_STAT_DDUDR0)) {
 1197              		.loc 1 579 22 is_stmt 0 view .LVU255
 1198 0000 054B     		ldr	r3, .L128
 577:../../../support/device/gd32f4xx/peripherals/src/gd32f4xx_dac.c ****     if(DAC0 == dac_periph) {
 1199              		.loc 1 577 7 view .LVU256
 1200 0002 20B9     		cbnz	r0, .L126
 1201              		.loc 1 579 9 is_stmt 1 view .LVU257
 1202              		.loc 1 579 22 is_stmt 0 view .LVU258
 1203 0004 D3F83404 		ldr	r0, [r3, #1076]
 1204              	.LVL46:
 580:../../../support/device/gd32f4xx/peripherals/src/gd32f4xx_dac.c ****             temp_flag = SET;
 1205              		.loc 1 580 23 view .LVU259
 1206 0008 C0F34030 		ubfx	r0, r0, #13, #1
 1207 000c 7047     		bx	lr
 1208              	.LVL47:
 1209              	.L126:
 581:../../../support/device/gd32f4xx/peripherals/src/gd32f4xx_dac.c ****         }
 582:../../../support/device/gd32f4xx/peripherals/src/gd32f4xx_dac.c ****     } else {
 583:../../../support/device/gd32f4xx/peripherals/src/gd32f4xx_dac.c ****         /* check the DMA underrun flag */
 584:../../../support/device/gd32f4xx/peripherals/src/gd32f4xx_dac.c ****         if(RESET != (DAC_STAT & DAC_STAT_DDUDR1)) {
 1210              		.loc 1 584 9 is_stmt 1 view .LVU260
 1211              		.loc 1 584 22 is_stmt 0 view .LVU261
 1212 000e D3F83404 		ldr	r0, [r3, #1076]
 1213              	.LVL48:
 580:../../../support/device/gd32f4xx/peripherals/src/gd32f4xx_dac.c ****             temp_flag = SET;
 1214              		.loc 1 580 23 view .LVU262
 1215 0012 C0F34070 		ubfx	r0, r0, #29, #1
 1216              	.LVL49:
 585:../../../support/device/gd32f4xx/peripherals/src/gd32f4xx_dac.c ****             temp_flag = SET;
 586:../../../support/device/gd32f4xx/peripherals/src/gd32f4xx_dac.c ****         }
 587:../../../support/device/gd32f4xx/peripherals/src/gd32f4xx_dac.c ****     }
 588:../../../support/device/gd32f4xx/peripherals/src/gd32f4xx_dac.c ****     return temp_flag;
 1217              		.loc 1 588 5 is_stmt 1 view .LVU263
 589:../../../support/device/gd32f4xx/peripherals/src/gd32f4xx_dac.c **** }
 1218              		.loc 1 589 1 is_stmt 0 view .LVU264
 1219 0016 7047     		bx	lr
 1220              	.L129:
 1221              		.align	2
 1222              	.L128:
 1223 0018 00700040 		.word	1073770496
 1224              		.cfi_endproc
 1225              	.LFE143:
 1227              		.section	.text.dac_flag_clear,"ax",%progbits
 1228              		.align	1
 1229              		.p2align 2,,3
 1230              		.global	dac_flag_clear
 1231              		.syntax unified
 1232              		.thumb
 1233              		.thumb_func
 1235              	dac_flag_clear:
 1236              	.LVL50:
 1237              	.LFB144:
ARM GAS  /var/folders/_f/88qcw_5n2jl40jjphvxyt7wh0000gn/T//ccvfIhXX.s 			page 33


 590:../../../support/device/gd32f4xx/peripherals/src/gd32f4xx_dac.c **** 
 591:../../../support/device/gd32f4xx/peripherals/src/gd32f4xx_dac.c **** /*!
 592:../../../support/device/gd32f4xx/peripherals/src/gd32f4xx_dac.c ****     \brief      clear the specified DAC flag (DAC DMA underrun flag)
 593:../../../support/device/gd32f4xx/peripherals/src/gd32f4xx_dac.c ****     \param[in]  dac_periph: DACx(x = 0,1)
 594:../../../support/device/gd32f4xx/peripherals/src/gd32f4xx_dac.c ****     \param[out] none
 595:../../../support/device/gd32f4xx/peripherals/src/gd32f4xx_dac.c ****     \retval     none
 596:../../../support/device/gd32f4xx/peripherals/src/gd32f4xx_dac.c **** */
 597:../../../support/device/gd32f4xx/peripherals/src/gd32f4xx_dac.c **** void dac_flag_clear(uint32_t dac_periph)
 598:../../../support/device/gd32f4xx/peripherals/src/gd32f4xx_dac.c **** {
 1238              		.loc 1 598 1 is_stmt 1 view -0
 1239              		.cfi_startproc
 1240              		@ args = 0, pretend = 0, frame = 0
 1241              		@ frame_needed = 0, uses_anonymous_args = 0
 1242              		@ link register save eliminated.
 599:../../../support/device/gd32f4xx/peripherals/src/gd32f4xx_dac.c ****     if(DAC0 == dac_periph) {
 1243              		.loc 1 599 5 view .LVU266
 600:../../../support/device/gd32f4xx/peripherals/src/gd32f4xx_dac.c ****         DAC_STAT |= DAC_STAT_DDUDR0;
 1244              		.loc 1 600 18 is_stmt 0 view .LVU267
 1245 0000 064A     		ldr	r2, .L133
 1246 0002 D2F83434 		ldr	r3, [r2, #1076]
 599:../../../support/device/gd32f4xx/peripherals/src/gd32f4xx_dac.c ****     if(DAC0 == dac_periph) {
 1247              		.loc 1 599 7 view .LVU268
 1248 0006 20B9     		cbnz	r0, .L131
 1249              		.loc 1 600 9 is_stmt 1 view .LVU269
 1250              		.loc 1 600 18 is_stmt 0 view .LVU270
 1251 0008 43F40053 		orr	r3, r3, #8192
 1252 000c C2F83434 		str	r3, [r2, #1076]
 1253 0010 7047     		bx	lr
 1254              	.L131:
 601:../../../support/device/gd32f4xx/peripherals/src/gd32f4xx_dac.c ****     } else {
 602:../../../support/device/gd32f4xx/peripherals/src/gd32f4xx_dac.c ****         DAC_STAT |= DAC_STAT_DDUDR1;
 1255              		.loc 1 602 9 is_stmt 1 view .LVU271
 1256              		.loc 1 602 18 is_stmt 0 view .LVU272
 1257 0012 43F00053 		orr	r3, r3, #536870912
 1258 0016 C2F83434 		str	r3, [r2, #1076]
 603:../../../support/device/gd32f4xx/peripherals/src/gd32f4xx_dac.c ****     }
 604:../../../support/device/gd32f4xx/peripherals/src/gd32f4xx_dac.c **** }
 1259              		.loc 1 604 1 view .LVU273
 1260 001a 7047     		bx	lr
 1261              	.L134:
 1262              		.align	2
 1263              	.L133:
 1264 001c 00700040 		.word	1073770496
 1265              		.cfi_endproc
 1266              	.LFE144:
 1268              		.section	.text.dac_interrupt_enable,"ax",%progbits
 1269              		.align	1
 1270              		.p2align 2,,3
 1271              		.global	dac_interrupt_enable
 1272              		.syntax unified
 1273              		.thumb
 1274              		.thumb_func
 1276              	dac_interrupt_enable:
 1277              	.LVL51:
 1278              	.LFB145:
 605:../../../support/device/gd32f4xx/peripherals/src/gd32f4xx_dac.c **** 
 606:../../../support/device/gd32f4xx/peripherals/src/gd32f4xx_dac.c **** /*!
ARM GAS  /var/folders/_f/88qcw_5n2jl40jjphvxyt7wh0000gn/T//ccvfIhXX.s 			page 34


 607:../../../support/device/gd32f4xx/peripherals/src/gd32f4xx_dac.c ****     \brief      enable DAC interrupt(DAC DMA underrun interrupt)
 608:../../../support/device/gd32f4xx/peripherals/src/gd32f4xx_dac.c ****     \param[in]  dac_periph: DACx(x = 0,1)
 609:../../../support/device/gd32f4xx/peripherals/src/gd32f4xx_dac.c ****     \param[out] none
 610:../../../support/device/gd32f4xx/peripherals/src/gd32f4xx_dac.c ****     \retval     none
 611:../../../support/device/gd32f4xx/peripherals/src/gd32f4xx_dac.c **** */
 612:../../../support/device/gd32f4xx/peripherals/src/gd32f4xx_dac.c **** void dac_interrupt_enable(uint32_t dac_periph)
 613:../../../support/device/gd32f4xx/peripherals/src/gd32f4xx_dac.c **** {
 1279              		.loc 1 613 1 is_stmt 1 view -0
 1280              		.cfi_startproc
 1281              		@ args = 0, pretend = 0, frame = 0
 1282              		@ frame_needed = 0, uses_anonymous_args = 0
 1283              		@ link register save eliminated.
 614:../../../support/device/gd32f4xx/peripherals/src/gd32f4xx_dac.c ****     if(DAC0 == dac_periph) {
 1284              		.loc 1 614 5 view .LVU275
 615:../../../support/device/gd32f4xx/peripherals/src/gd32f4xx_dac.c ****         DAC_CTL |= DAC_CTL_DDUDRIE0;
 1285              		.loc 1 615 17 is_stmt 0 view .LVU276
 1286 0000 064A     		ldr	r2, .L138
 1287 0002 D2F80034 		ldr	r3, [r2, #1024]
 614:../../../support/device/gd32f4xx/peripherals/src/gd32f4xx_dac.c ****     if(DAC0 == dac_periph) {
 1288              		.loc 1 614 7 view .LVU277
 1289 0006 20B9     		cbnz	r0, .L136
 1290              		.loc 1 615 9 is_stmt 1 view .LVU278
 1291              		.loc 1 615 17 is_stmt 0 view .LVU279
 1292 0008 43F40053 		orr	r3, r3, #8192
 1293 000c C2F80034 		str	r3, [r2, #1024]
 1294 0010 7047     		bx	lr
 1295              	.L136:
 616:../../../support/device/gd32f4xx/peripherals/src/gd32f4xx_dac.c ****     } else {
 617:../../../support/device/gd32f4xx/peripherals/src/gd32f4xx_dac.c ****         DAC_CTL |= DAC_CTL_DDUDRIE1;
 1296              		.loc 1 617 9 is_stmt 1 view .LVU280
 1297              		.loc 1 617 17 is_stmt 0 view .LVU281
 1298 0012 43F00053 		orr	r3, r3, #536870912
 1299 0016 C2F80034 		str	r3, [r2, #1024]
 618:../../../support/device/gd32f4xx/peripherals/src/gd32f4xx_dac.c ****     }
 619:../../../support/device/gd32f4xx/peripherals/src/gd32f4xx_dac.c **** }
 1300              		.loc 1 619 1 view .LVU282
 1301 001a 7047     		bx	lr
 1302              	.L139:
 1303              		.align	2
 1304              	.L138:
 1305 001c 00700040 		.word	1073770496
 1306              		.cfi_endproc
 1307              	.LFE145:
 1309              		.section	.text.dac_interrupt_disable,"ax",%progbits
 1310              		.align	1
 1311              		.p2align 2,,3
 1312              		.global	dac_interrupt_disable
 1313              		.syntax unified
 1314              		.thumb
 1315              		.thumb_func
 1317              	dac_interrupt_disable:
 1318              	.LVL52:
 1319              	.LFB146:
 620:../../../support/device/gd32f4xx/peripherals/src/gd32f4xx_dac.c **** 
 621:../../../support/device/gd32f4xx/peripherals/src/gd32f4xx_dac.c **** /*!
 622:../../../support/device/gd32f4xx/peripherals/src/gd32f4xx_dac.c ****     \brief      disable DAC interrupt(DAC DMA underrun interrupt)
 623:../../../support/device/gd32f4xx/peripherals/src/gd32f4xx_dac.c ****     \param[in]  dac_periph: DACx(x = 0,1)
ARM GAS  /var/folders/_f/88qcw_5n2jl40jjphvxyt7wh0000gn/T//ccvfIhXX.s 			page 35


 624:../../../support/device/gd32f4xx/peripherals/src/gd32f4xx_dac.c ****     \param[out] none
 625:../../../support/device/gd32f4xx/peripherals/src/gd32f4xx_dac.c ****     \retval     none
 626:../../../support/device/gd32f4xx/peripherals/src/gd32f4xx_dac.c **** */
 627:../../../support/device/gd32f4xx/peripherals/src/gd32f4xx_dac.c **** void dac_interrupt_disable(uint32_t dac_periph)
 628:../../../support/device/gd32f4xx/peripherals/src/gd32f4xx_dac.c **** {
 1320              		.loc 1 628 1 is_stmt 1 view -0
 1321              		.cfi_startproc
 1322              		@ args = 0, pretend = 0, frame = 0
 1323              		@ frame_needed = 0, uses_anonymous_args = 0
 1324              		@ link register save eliminated.
 629:../../../support/device/gd32f4xx/peripherals/src/gd32f4xx_dac.c ****     if(DAC0 == dac_periph) {
 1325              		.loc 1 629 5 view .LVU284
 630:../../../support/device/gd32f4xx/peripherals/src/gd32f4xx_dac.c ****         DAC_CTL &= ~DAC_CTL_DDUDRIE0;
 1326              		.loc 1 630 17 is_stmt 0 view .LVU285
 1327 0000 064A     		ldr	r2, .L143
 1328 0002 D2F80034 		ldr	r3, [r2, #1024]
 629:../../../support/device/gd32f4xx/peripherals/src/gd32f4xx_dac.c ****     if(DAC0 == dac_periph) {
 1329              		.loc 1 629 7 view .LVU286
 1330 0006 20B9     		cbnz	r0, .L141
 1331              		.loc 1 630 9 is_stmt 1 view .LVU287
 1332              		.loc 1 630 17 is_stmt 0 view .LVU288
 1333 0008 23F40053 		bic	r3, r3, #8192
 1334 000c C2F80034 		str	r3, [r2, #1024]
 1335 0010 7047     		bx	lr
 1336              	.L141:
 631:../../../support/device/gd32f4xx/peripherals/src/gd32f4xx_dac.c ****     } else {
 632:../../../support/device/gd32f4xx/peripherals/src/gd32f4xx_dac.c ****         DAC_CTL &= ~DAC_CTL_DDUDRIE1;
 1337              		.loc 1 632 9 is_stmt 1 view .LVU289
 1338              		.loc 1 632 17 is_stmt 0 view .LVU290
 1339 0012 23F00053 		bic	r3, r3, #536870912
 1340 0016 C2F80034 		str	r3, [r2, #1024]
 633:../../../support/device/gd32f4xx/peripherals/src/gd32f4xx_dac.c ****     }
 634:../../../support/device/gd32f4xx/peripherals/src/gd32f4xx_dac.c **** }
 1341              		.loc 1 634 1 view .LVU291
 1342 001a 7047     		bx	lr
 1343              	.L144:
 1344              		.align	2
 1345              	.L143:
 1346 001c 00700040 		.word	1073770496
 1347              		.cfi_endproc
 1348              	.LFE146:
 1350              		.section	.text.dac_interrupt_flag_get,"ax",%progbits
 1351              		.align	1
 1352              		.p2align 2,,3
 1353              		.global	dac_interrupt_flag_get
 1354              		.syntax unified
 1355              		.thumb
 1356              		.thumb_func
 1358              	dac_interrupt_flag_get:
 1359              	.LVL53:
 1360              	.LFB147:
 635:../../../support/device/gd32f4xx/peripherals/src/gd32f4xx_dac.c **** 
 636:../../../support/device/gd32f4xx/peripherals/src/gd32f4xx_dac.c **** /*!
 637:../../../support/device/gd32f4xx/peripherals/src/gd32f4xx_dac.c ****     \brief      get the specified DAC interrupt flag (DAC DMA underrun interrupt flag)
 638:../../../support/device/gd32f4xx/peripherals/src/gd32f4xx_dac.c ****     \param[in]  dac_periph: DACx(x = 0,1)
 639:../../../support/device/gd32f4xx/peripherals/src/gd32f4xx_dac.c ****     \param[out] none
 640:../../../support/device/gd32f4xx/peripherals/src/gd32f4xx_dac.c ****     \retval     FlagStatus: SET or RESET
ARM GAS  /var/folders/_f/88qcw_5n2jl40jjphvxyt7wh0000gn/T//ccvfIhXX.s 			page 36


 641:../../../support/device/gd32f4xx/peripherals/src/gd32f4xx_dac.c **** */
 642:../../../support/device/gd32f4xx/peripherals/src/gd32f4xx_dac.c **** FlagStatus dac_interrupt_flag_get(uint32_t dac_periph)
 643:../../../support/device/gd32f4xx/peripherals/src/gd32f4xx_dac.c **** {
 1361              		.loc 1 643 1 is_stmt 1 view -0
 1362              		.cfi_startproc
 1363              		@ args = 0, pretend = 0, frame = 0
 1364              		@ frame_needed = 0, uses_anonymous_args = 0
 1365              		@ link register save eliminated.
 644:../../../support/device/gd32f4xx/peripherals/src/gd32f4xx_dac.c ****     FlagStatus temp_flag = RESET;
 1366              		.loc 1 644 5 view .LVU293
 645:../../../support/device/gd32f4xx/peripherals/src/gd32f4xx_dac.c ****     uint32_t ddudr_flag = 0U, ddudrie_flag = 0U;
 1367              		.loc 1 645 5 view .LVU294
 646:../../../support/device/gd32f4xx/peripherals/src/gd32f4xx_dac.c **** 
 647:../../../support/device/gd32f4xx/peripherals/src/gd32f4xx_dac.c ****     if(DAC0 == dac_periph) {
 1368              		.loc 1 647 5 view .LVU295
 648:../../../support/device/gd32f4xx/peripherals/src/gd32f4xx_dac.c ****         /* check the DMA underrun flag and DAC DMA underrun interrupt enable flag */
 649:../../../support/device/gd32f4xx/peripherals/src/gd32f4xx_dac.c ****         ddudr_flag = DAC_STAT & DAC_STAT_DDUDR0;
 1369              		.loc 1 649 22 is_stmt 0 view .LVU296
 1370 0000 0A4B     		ldr	r3, .L150
 647:../../../support/device/gd32f4xx/peripherals/src/gd32f4xx_dac.c ****         /* check the DMA underrun flag and DAC DMA underrun interrupt enable flag */
 1371              		.loc 1 647 7 view .LVU297
 1372 0002 48B9     		cbnz	r0, .L146
 1373              		.loc 1 649 9 is_stmt 1 view .LVU298
 1374              		.loc 1 649 22 is_stmt 0 view .LVU299
 1375 0004 D3F83404 		ldr	r0, [r3, #1076]
 1376              	.LVL54:
 650:../../../support/device/gd32f4xx/peripherals/src/gd32f4xx_dac.c ****         ddudrie_flag = DAC_CTL & DAC_CTL_DDUDRIE0;
 1377              		.loc 1 650 9 is_stmt 1 view .LVU300
 1378              		.loc 1 650 24 is_stmt 0 view .LVU301
 1379 0008 D3F80034 		ldr	r3, [r3, #1024]
 1380              	.LVL55:
 651:../../../support/device/gd32f4xx/peripherals/src/gd32f4xx_dac.c ****         if((RESET != ddudr_flag) && (RESET != ddudrie_flag)) {
 1381              		.loc 1 651 9 is_stmt 1 view .LVU302
 1382              		.loc 1 651 11 is_stmt 0 view .LVU303
 1383 000c 10F40050 		ands	r0, r0, #8192
 1384              	.LVL56:
 1385              		.loc 1 651 11 view .LVU304
 1386 0010 0BD0     		beq	.L147
 644:../../../support/device/gd32f4xx/peripherals/src/gd32f4xx_dac.c ****     uint32_t ddudr_flag = 0U, ddudrie_flag = 0U;
 1387              		.loc 1 644 16 discriminator 1 view .LVU305
 1388 0012 C3F34030 		ubfx	r0, r3, #13, #1
 1389              	.LVL57:
 644:../../../support/device/gd32f4xx/peripherals/src/gd32f4xx_dac.c ****     uint32_t ddudr_flag = 0U, ddudrie_flag = 0U;
 1390              		.loc 1 644 16 discriminator 1 view .LVU306
 1391 0016 7047     		bx	lr
 1392              	.LVL58:
 1393              	.L146:
 652:../../../support/device/gd32f4xx/peripherals/src/gd32f4xx_dac.c ****             temp_flag = SET;
 653:../../../support/device/gd32f4xx/peripherals/src/gd32f4xx_dac.c ****         }
 654:../../../support/device/gd32f4xx/peripherals/src/gd32f4xx_dac.c ****     } else {
 655:../../../support/device/gd32f4xx/peripherals/src/gd32f4xx_dac.c ****         /* check the DMA underrun flag and DAC DMA underrun interrupt enable flag */
 656:../../../support/device/gd32f4xx/peripherals/src/gd32f4xx_dac.c ****         ddudr_flag = DAC_STAT & DAC_STAT_DDUDR1;
 1394              		.loc 1 656 9 is_stmt 1 view .LVU307
 1395              		.loc 1 656 22 is_stmt 0 view .LVU308
 1396 0018 D3F83404 		ldr	r0, [r3, #1076]
 1397              	.LVL59:
 657:../../../support/device/gd32f4xx/peripherals/src/gd32f4xx_dac.c ****         ddudrie_flag = DAC_CTL & DAC_CTL_DDUDRIE1;
ARM GAS  /var/folders/_f/88qcw_5n2jl40jjphvxyt7wh0000gn/T//ccvfIhXX.s 			page 37


 1398              		.loc 1 657 9 is_stmt 1 view .LVU309
 1399              		.loc 1 657 24 is_stmt 0 view .LVU310
 1400 001c D3F80034 		ldr	r3, [r3, #1024]
 1401              	.LVL60:
 658:../../../support/device/gd32f4xx/peripherals/src/gd32f4xx_dac.c ****         if((RESET != ddudr_flag) && (RESET != ddudrie_flag)) {
 1402              		.loc 1 658 9 is_stmt 1 view .LVU311
 1403              		.loc 1 658 11 is_stmt 0 view .LVU312
 1404 0020 10F00050 		ands	r0, r0, #536870912
 1405              	.LVL61:
 644:../../../support/device/gd32f4xx/peripherals/src/gd32f4xx_dac.c ****     uint32_t ddudr_flag = 0U, ddudrie_flag = 0U;
 1406              		.loc 1 644 16 view .LVU313
 1407 0024 18BF     		it	ne
 1408 0026 C3F34070 		ubfxne	r0, r3, #29, #1
 1409              	.LVL62:
 1410              	.L147:
 659:../../../support/device/gd32f4xx/peripherals/src/gd32f4xx_dac.c ****             temp_flag = SET;
 660:../../../support/device/gd32f4xx/peripherals/src/gd32f4xx_dac.c ****         }
 661:../../../support/device/gd32f4xx/peripherals/src/gd32f4xx_dac.c ****     }
 662:../../../support/device/gd32f4xx/peripherals/src/gd32f4xx_dac.c ****     return temp_flag;
 1411              		.loc 1 662 5 is_stmt 1 view .LVU314
 663:../../../support/device/gd32f4xx/peripherals/src/gd32f4xx_dac.c **** }
 1412              		.loc 1 663 1 is_stmt 0 view .LVU315
 1413 002a 7047     		bx	lr
 1414              	.L151:
 1415              		.align	2
 1416              	.L150:
 1417 002c 00700040 		.word	1073770496
 1418              		.cfi_endproc
 1419              	.LFE147:
 1421              		.section	.text.dac_interrupt_flag_clear,"ax",%progbits
 1422              		.align	1
 1423              		.p2align 2,,3
 1424              		.global	dac_interrupt_flag_clear
 1425              		.syntax unified
 1426              		.thumb
 1427              		.thumb_func
 1429              	dac_interrupt_flag_clear:
 1430              	.LFB154:
 1431              		.cfi_startproc
 1432              		@ args = 0, pretend = 0, frame = 0
 1433              		@ frame_needed = 0, uses_anonymous_args = 0
 1434              		@ link register save eliminated.
 1435 0000 064A     		ldr	r2, .L155
 1436 0002 D2F83434 		ldr	r3, [r2, #1076]
 1437 0006 20B9     		cbnz	r0, .L153
 1438 0008 43F40053 		orr	r3, r3, #8192
 1439 000c C2F83434 		str	r3, [r2, #1076]
 1440 0010 7047     		bx	lr
 1441              	.L153:
 1442 0012 43F00053 		orr	r3, r3, #536870912
 1443 0016 C2F83434 		str	r3, [r2, #1076]
 1444 001a 7047     		bx	lr
 1445              	.L156:
 1446              		.align	2
 1447              	.L155:
 1448 001c 00700040 		.word	1073770496
 1449              		.cfi_endproc
ARM GAS  /var/folders/_f/88qcw_5n2jl40jjphvxyt7wh0000gn/T//ccvfIhXX.s 			page 38


 1450              	.LFE154:
 1452              		.text
 1453              	.Letext0:
 1454              		.file 2 "/Applications/ARM/arm-none-eabi/include/machine/_default_types.h"
 1455              		.file 3 "/Applications/ARM/arm-none-eabi/include/sys/_stdint.h"
 1456              		.file 4 "../../../support/device/gd32f4xx/inc/gd32f4xx.h"
 1457              		.file 5 "../../../support/device/gd32f4xx/peripherals/inc/gd32f4xx_rcu.h"
ARM GAS  /var/folders/_f/88qcw_5n2jl40jjphvxyt7wh0000gn/T//ccvfIhXX.s 			page 39

