ARM GAS  /var/folders/_f/88qcw_5n2jl40jjphvxyt7wh0000gn/T//ccVo6N4q.s 			page 1


   1              		.cpu cortex-m4
   2              		.arch armv7e-m
   3              		.fpu softvfp
   4              		.eabi_attribute 20, 1
   5              		.eabi_attribute 21, 1
   6              		.eabi_attribute 23, 3
   7              		.eabi_attribute 24, 1
   8              		.eabi_attribute 25, 1
   9              		.eabi_attribute 26, 1
  10              		.eabi_attribute 30, 2
  11              		.eabi_attribute 34, 1
  12              		.eabi_attribute 18, 4
  13              		.file	"gd32f4xx_can.c"
  14              		.text
  15              	.Ltext0:
  16              		.cfi_sections	.debug_frame
  17              		.section	.text.can_deinit,"ax",%progbits
  18              		.align	1
  19              		.p2align 2,,3
  20              		.global	can_deinit
  21              		.syntax unified
  22              		.thumb
  23              		.thumb_func
  25              	can_deinit:
  26              	.LVL0:
  27              	.LFB116:
  28              		.file 1 "../../../support/device/gd32f4xx/peripherals/src/gd32f4xx_can.c"
   1:../../../support/device/gd32f4xx/peripherals/src/gd32f4xx_can.c **** /*!
   2:../../../support/device/gd32f4xx/peripherals/src/gd32f4xx_can.c ****     \file    gd32f4xx_can.c
   3:../../../support/device/gd32f4xx/peripherals/src/gd32f4xx_can.c ****     \brief   CAN driver
   4:../../../support/device/gd32f4xx/peripherals/src/gd32f4xx_can.c **** 
   5:../../../support/device/gd32f4xx/peripherals/src/gd32f4xx_can.c ****     \version 2016-08-15, V1.0.0, firmware for GD32F4xx
   6:../../../support/device/gd32f4xx/peripherals/src/gd32f4xx_can.c ****     \version 2018-12-12, V2.0.0, firmware for GD32F4xx
   7:../../../support/device/gd32f4xx/peripherals/src/gd32f4xx_can.c ****     \version 2019-11-27, V2.0.1, firmware for GD32F4xx
   8:../../../support/device/gd32f4xx/peripherals/src/gd32f4xx_can.c ****     \version 2020-07-14, V2.0.2, firmware for GD32F4xx
   9:../../../support/device/gd32f4xx/peripherals/src/gd32f4xx_can.c ****     \version 2020-09-30, V2.1.0, firmware for GD32F4xx
  10:../../../support/device/gd32f4xx/peripherals/src/gd32f4xx_can.c ****     \version 2021-12-28, V2.1.1, firmware for GD32F4xx
  11:../../../support/device/gd32f4xx/peripherals/src/gd32f4xx_can.c ****     \version 2022-03-09, V3.0.0, firmware for GD32F4xx
  12:../../../support/device/gd32f4xx/peripherals/src/gd32f4xx_can.c **** */
  13:../../../support/device/gd32f4xx/peripherals/src/gd32f4xx_can.c **** 
  14:../../../support/device/gd32f4xx/peripherals/src/gd32f4xx_can.c **** /*
  15:../../../support/device/gd32f4xx/peripherals/src/gd32f4xx_can.c ****     Copyright (c) 2022, GigaDevice Semiconductor Inc.
  16:../../../support/device/gd32f4xx/peripherals/src/gd32f4xx_can.c **** 
  17:../../../support/device/gd32f4xx/peripherals/src/gd32f4xx_can.c ****     Redistribution and use in source and binary forms, with or without modification,
  18:../../../support/device/gd32f4xx/peripherals/src/gd32f4xx_can.c **** are permitted provided that the following conditions are met:
  19:../../../support/device/gd32f4xx/peripherals/src/gd32f4xx_can.c **** 
  20:../../../support/device/gd32f4xx/peripherals/src/gd32f4xx_can.c ****     1. Redistributions of source code must retain the above copyright notice, this
  21:../../../support/device/gd32f4xx/peripherals/src/gd32f4xx_can.c ****        list of conditions and the following disclaimer.
  22:../../../support/device/gd32f4xx/peripherals/src/gd32f4xx_can.c ****     2. Redistributions in binary form must reproduce the above copyright notice,
  23:../../../support/device/gd32f4xx/peripherals/src/gd32f4xx_can.c ****        this list of conditions and the following disclaimer in the documentation
  24:../../../support/device/gd32f4xx/peripherals/src/gd32f4xx_can.c ****        and/or other materials provided with the distribution.
  25:../../../support/device/gd32f4xx/peripherals/src/gd32f4xx_can.c ****     3. Neither the name of the copyright holder nor the names of its contributors
  26:../../../support/device/gd32f4xx/peripherals/src/gd32f4xx_can.c ****        may be used to endorse or promote products derived from this software without
  27:../../../support/device/gd32f4xx/peripherals/src/gd32f4xx_can.c ****        specific prior written permission.
  28:../../../support/device/gd32f4xx/peripherals/src/gd32f4xx_can.c **** 
  29:../../../support/device/gd32f4xx/peripherals/src/gd32f4xx_can.c ****     THIS SOFTWARE IS PROVIDED BY THE COPYRIGHT HOLDERS AND CONTRIBUTORS "AS IS"
  30:../../../support/device/gd32f4xx/peripherals/src/gd32f4xx_can.c **** AND ANY EXPRESS OR IMPLIED WARRANTIES, INCLUDING, BUT NOT LIMITED TO, THE IMPLIED
ARM GAS  /var/folders/_f/88qcw_5n2jl40jjphvxyt7wh0000gn/T//ccVo6N4q.s 			page 2


  31:../../../support/device/gd32f4xx/peripherals/src/gd32f4xx_can.c **** WARRANTIES OF MERCHANTABILITY AND FITNESS FOR A PARTICULAR PURPOSE ARE DISCLAIMED.
  32:../../../support/device/gd32f4xx/peripherals/src/gd32f4xx_can.c **** IN NO EVENT SHALL THE COPYRIGHT HOLDER OR CONTRIBUTORS BE LIABLE FOR ANY DIRECT,
  33:../../../support/device/gd32f4xx/peripherals/src/gd32f4xx_can.c **** INDIRECT, INCIDENTAL, SPECIAL, EXEMPLARY, OR CONSEQUENTIAL DAMAGES (INCLUDING, BUT
  34:../../../support/device/gd32f4xx/peripherals/src/gd32f4xx_can.c **** NOT LIMITED TO, PROCUREMENT OF SUBSTITUTE GOODS OR SERVICES; LOSS OF USE, DATA, OR
  35:../../../support/device/gd32f4xx/peripherals/src/gd32f4xx_can.c **** PROFITS; OR BUSINESS INTERRUPTION) HOWEVER CAUSED AND ON ANY THEORY OF LIABILITY,
  36:../../../support/device/gd32f4xx/peripherals/src/gd32f4xx_can.c **** WHETHER IN CONTRACT, STRICT LIABILITY, OR TORT (INCLUDING NEGLIGENCE OR OTHERWISE)
  37:../../../support/device/gd32f4xx/peripherals/src/gd32f4xx_can.c **** ARISING IN ANY WAY OUT OF THE USE OF THIS SOFTWARE, EVEN IF ADVISED OF THE POSSIBILITY
  38:../../../support/device/gd32f4xx/peripherals/src/gd32f4xx_can.c **** OF SUCH DAMAGE.
  39:../../../support/device/gd32f4xx/peripherals/src/gd32f4xx_can.c **** */
  40:../../../support/device/gd32f4xx/peripherals/src/gd32f4xx_can.c **** 
  41:../../../support/device/gd32f4xx/peripherals/src/gd32f4xx_can.c **** #include "gd32f4xx_can.h"
  42:../../../support/device/gd32f4xx/peripherals/src/gd32f4xx_can.c **** 
  43:../../../support/device/gd32f4xx/peripherals/src/gd32f4xx_can.c **** #define CAN_ERROR_HANDLE(s)     do{}while(1)
  44:../../../support/device/gd32f4xx/peripherals/src/gd32f4xx_can.c **** 
  45:../../../support/device/gd32f4xx/peripherals/src/gd32f4xx_can.c **** /*!
  46:../../../support/device/gd32f4xx/peripherals/src/gd32f4xx_can.c ****     \brief      deinitialize CAN
  47:../../../support/device/gd32f4xx/peripherals/src/gd32f4xx_can.c ****     \param[in]  can_periph
  48:../../../support/device/gd32f4xx/peripherals/src/gd32f4xx_can.c ****       \arg        CANx(x=0,1)
  49:../../../support/device/gd32f4xx/peripherals/src/gd32f4xx_can.c ****     \param[out] none
  50:../../../support/device/gd32f4xx/peripherals/src/gd32f4xx_can.c ****     \retval     none
  51:../../../support/device/gd32f4xx/peripherals/src/gd32f4xx_can.c **** */
  52:../../../support/device/gd32f4xx/peripherals/src/gd32f4xx_can.c **** void can_deinit(uint32_t can_periph)
  53:../../../support/device/gd32f4xx/peripherals/src/gd32f4xx_can.c **** {
  29              		.loc 1 53 1 view -0
  30              		.cfi_startproc
  31              		@ args = 0, pretend = 0, frame = 0
  32              		@ frame_needed = 0, uses_anonymous_args = 0
  54:../../../support/device/gd32f4xx/peripherals/src/gd32f4xx_can.c ****     if(CAN0 == can_periph) {
  33              		.loc 1 54 5 view .LVU1
  53:../../../support/device/gd32f4xx/peripherals/src/gd32f4xx_can.c ****     if(CAN0 == can_periph) {
  34              		.loc 1 53 1 is_stmt 0 view .LVU2
  35 0000 08B5     		push	{r3, lr}
  36              	.LCFI0:
  37              		.cfi_def_cfa_offset 8
  38              		.cfi_offset 3, -8
  39              		.cfi_offset 14, -4
  40              		.loc 1 54 7 view .LVU3
  41 0002 0B4B     		ldr	r3, .L6
  42 0004 9842     		cmp	r0, r3
  43 0006 09D0     		beq	.L5
  55:../../../support/device/gd32f4xx/peripherals/src/gd32f4xx_can.c ****         rcu_periph_reset_enable(RCU_CAN0RST);
  56:../../../support/device/gd32f4xx/peripherals/src/gd32f4xx_can.c ****         rcu_periph_reset_disable(RCU_CAN0RST);
  57:../../../support/device/gd32f4xx/peripherals/src/gd32f4xx_can.c ****     } else {
  58:../../../support/device/gd32f4xx/peripherals/src/gd32f4xx_can.c ****         rcu_periph_reset_enable(RCU_CAN1RST);
  44              		.loc 1 58 9 is_stmt 1 view .LVU4
  45 0008 40F61A00 		movw	r0, #2074
  46              	.LVL1:
  47              		.loc 1 58 9 is_stmt 0 view .LVU5
  48 000c FFF7FEFF 		bl	rcu_periph_reset_enable
  49              	.LVL2:
  59:../../../support/device/gd32f4xx/peripherals/src/gd32f4xx_can.c ****         rcu_periph_reset_disable(RCU_CAN1RST);
  50              		.loc 1 59 9 is_stmt 1 view .LVU6
  60:../../../support/device/gd32f4xx/peripherals/src/gd32f4xx_can.c ****     }
  61:../../../support/device/gd32f4xx/peripherals/src/gd32f4xx_can.c **** }
  51              		.loc 1 61 1 is_stmt 0 view .LVU7
  52 0010 BDE80840 		pop	{r3, lr}
  53              	.LCFI1:
ARM GAS  /var/folders/_f/88qcw_5n2jl40jjphvxyt7wh0000gn/T//ccVo6N4q.s 			page 3


  54              		.cfi_remember_state
  55              		.cfi_restore 14
  56              		.cfi_restore 3
  57              		.cfi_def_cfa_offset 0
  59:../../../support/device/gd32f4xx/peripherals/src/gd32f4xx_can.c ****         rcu_periph_reset_disable(RCU_CAN1RST);
  58              		.loc 1 59 9 view .LVU8
  59 0014 40F61A00 		movw	r0, #2074
  60 0018 FFF7FEBF 		b	rcu_periph_reset_disable
  61              	.LVL3:
  62              	.L5:
  63              	.LCFI2:
  64              		.cfi_restore_state
  55:../../../support/device/gd32f4xx/peripherals/src/gd32f4xx_can.c ****         rcu_periph_reset_disable(RCU_CAN0RST);
  65              		.loc 1 55 9 is_stmt 1 view .LVU9
  66 001c 40F61900 		movw	r0, #2073
  67              	.LVL4:
  55:../../../support/device/gd32f4xx/peripherals/src/gd32f4xx_can.c ****         rcu_periph_reset_disable(RCU_CAN0RST);
  68              		.loc 1 55 9 is_stmt 0 view .LVU10
  69 0020 FFF7FEFF 		bl	rcu_periph_reset_enable
  70              	.LVL5:
  56:../../../support/device/gd32f4xx/peripherals/src/gd32f4xx_can.c ****     } else {
  71              		.loc 1 56 9 is_stmt 1 view .LVU11
  72              		.loc 1 61 1 is_stmt 0 view .LVU12
  73 0024 BDE80840 		pop	{r3, lr}
  74              	.LCFI3:
  75              		.cfi_restore 14
  76              		.cfi_restore 3
  77              		.cfi_def_cfa_offset 0
  56:../../../support/device/gd32f4xx/peripherals/src/gd32f4xx_can.c ****     } else {
  78              		.loc 1 56 9 view .LVU13
  79 0028 40F61900 		movw	r0, #2073
  80 002c FFF7FEBF 		b	rcu_periph_reset_disable
  81              	.LVL6:
  82              	.L7:
  83              		.align	2
  84              	.L6:
  85 0030 00640040 		.word	1073767424
  86              		.cfi_endproc
  87              	.LFE116:
  89              		.section	.text.can_struct_para_init,"ax",%progbits
  90              		.align	1
  91              		.p2align 2,,3
  92              		.global	can_struct_para_init
  93              		.syntax unified
  94              		.thumb
  95              		.thumb_func
  97              	can_struct_para_init:
  98              	.LVL7:
  99              	.LFB117:
  62:../../../support/device/gd32f4xx/peripherals/src/gd32f4xx_can.c **** 
  63:../../../support/device/gd32f4xx/peripherals/src/gd32f4xx_can.c **** /*!
  64:../../../support/device/gd32f4xx/peripherals/src/gd32f4xx_can.c ****     \brief      initialize CAN parameter struct with a default value
  65:../../../support/device/gd32f4xx/peripherals/src/gd32f4xx_can.c ****     \param[in]  type: the type of CAN parameter struct
  66:../../../support/device/gd32f4xx/peripherals/src/gd32f4xx_can.c ****                 only one parameter can be selected which is shown as below:
  67:../../../support/device/gd32f4xx/peripherals/src/gd32f4xx_can.c ****       \arg        CAN_INIT_STRUCT: the CAN initial struct
  68:../../../support/device/gd32f4xx/peripherals/src/gd32f4xx_can.c ****       \arg        CAN_FILTER_STRUCT: the CAN filter struct
  69:../../../support/device/gd32f4xx/peripherals/src/gd32f4xx_can.c ****       \arg        CAN_TX_MESSAGE_STRUCT: the CAN TX message struct
ARM GAS  /var/folders/_f/88qcw_5n2jl40jjphvxyt7wh0000gn/T//ccVo6N4q.s 			page 4


  70:../../../support/device/gd32f4xx/peripherals/src/gd32f4xx_can.c ****       \arg        CAN_RX_MESSAGE_STRUCT: the CAN RX message struct
  71:../../../support/device/gd32f4xx/peripherals/src/gd32f4xx_can.c ****     \param[out] p_struct: the pointer of the specific struct
  72:../../../support/device/gd32f4xx/peripherals/src/gd32f4xx_can.c ****     \retval     none
  73:../../../support/device/gd32f4xx/peripherals/src/gd32f4xx_can.c **** */
  74:../../../support/device/gd32f4xx/peripherals/src/gd32f4xx_can.c **** void can_struct_para_init(can_struct_type_enum type, void *p_struct)
  75:../../../support/device/gd32f4xx/peripherals/src/gd32f4xx_can.c **** {
 100              		.loc 1 75 1 is_stmt 1 view -0
 101              		.cfi_startproc
 102              		@ args = 0, pretend = 0, frame = 0
 103              		@ frame_needed = 0, uses_anonymous_args = 0
 104              		@ link register save eliminated.
  76:../../../support/device/gd32f4xx/peripherals/src/gd32f4xx_can.c ****     uint8_t i;
 105              		.loc 1 76 5 view .LVU15
  77:../../../support/device/gd32f4xx/peripherals/src/gd32f4xx_can.c **** 
  78:../../../support/device/gd32f4xx/peripherals/src/gd32f4xx_can.c ****     /* get type of the struct */
  79:../../../support/device/gd32f4xx/peripherals/src/gd32f4xx_can.c ****     switch(type) {
 106              		.loc 1 79 5 view .LVU16
 107 0000 0328     		cmp	r0, #3
 108 0002 2ED8     		bhi	.L16
 109 0004 DFE800F0 		tbb	[pc, r0]
 110              	.L11:
 111 0008 20       		.byte	(.L14-.L11)/2
 112 0009 17       		.byte	(.L13-.L11)/2
 113 000a 0D       		.byte	(.L12-.L11)/2
 114 000b 02       		.byte	(.L10-.L11)/2
 115              		.p2align 1
 116              	.L10:
  80:../../../support/device/gd32f4xx/peripherals/src/gd32f4xx_can.c ****     /* used for can_init() */
  81:../../../support/device/gd32f4xx/peripherals/src/gd32f4xx_can.c ****     case CAN_INIT_STRUCT:
  82:../../../support/device/gd32f4xx/peripherals/src/gd32f4xx_can.c ****         ((can_parameter_struct *)p_struct)->auto_bus_off_recovery = DISABLE;
  83:../../../support/device/gd32f4xx/peripherals/src/gd32f4xx_can.c ****         ((can_parameter_struct *)p_struct)->auto_retrans = ENABLE;
  84:../../../support/device/gd32f4xx/peripherals/src/gd32f4xx_can.c ****         ((can_parameter_struct *)p_struct)->auto_wake_up = DISABLE;
  85:../../../support/device/gd32f4xx/peripherals/src/gd32f4xx_can.c ****         ((can_parameter_struct *)p_struct)->prescaler = 0x03FFU;
  86:../../../support/device/gd32f4xx/peripherals/src/gd32f4xx_can.c ****         ((can_parameter_struct *)p_struct)->rec_fifo_overwrite = ENABLE;
  87:../../../support/device/gd32f4xx/peripherals/src/gd32f4xx_can.c ****         ((can_parameter_struct *)p_struct)->resync_jump_width = CAN_BT_SJW_1TQ;
  88:../../../support/device/gd32f4xx/peripherals/src/gd32f4xx_can.c ****         ((can_parameter_struct *)p_struct)->time_segment_1 = CAN_BT_BS1_3TQ;
  89:../../../support/device/gd32f4xx/peripherals/src/gd32f4xx_can.c ****         ((can_parameter_struct *)p_struct)->time_segment_2 = CAN_BT_BS2_1TQ;
  90:../../../support/device/gd32f4xx/peripherals/src/gd32f4xx_can.c ****         ((can_parameter_struct *)p_struct)->time_triggered = DISABLE;
  91:../../../support/device/gd32f4xx/peripherals/src/gd32f4xx_can.c ****         ((can_parameter_struct *)p_struct)->trans_fifo_order = DISABLE;
  92:../../../support/device/gd32f4xx/peripherals/src/gd32f4xx_can.c ****         ((can_parameter_struct *)p_struct)->working_mode = CAN_NORMAL_MODE;
  93:../../../support/device/gd32f4xx/peripherals/src/gd32f4xx_can.c **** 
  94:../../../support/device/gd32f4xx/peripherals/src/gd32f4xx_can.c ****         break;
  95:../../../support/device/gd32f4xx/peripherals/src/gd32f4xx_can.c ****     /* used for can_filter_init() */
  96:../../../support/device/gd32f4xx/peripherals/src/gd32f4xx_can.c ****     case CAN_FILTER_STRUCT:
  97:../../../support/device/gd32f4xx/peripherals/src/gd32f4xx_can.c ****         ((can_filter_parameter_struct *)p_struct)->filter_bits = CAN_FILTERBITS_32BIT;
  98:../../../support/device/gd32f4xx/peripherals/src/gd32f4xx_can.c ****         ((can_filter_parameter_struct *)p_struct)->filter_enable = DISABLE;
  99:../../../support/device/gd32f4xx/peripherals/src/gd32f4xx_can.c ****         ((can_filter_parameter_struct *)p_struct)->filter_fifo_number = CAN_FIFO0;
 100:../../../support/device/gd32f4xx/peripherals/src/gd32f4xx_can.c ****         ((can_filter_parameter_struct *)p_struct)->filter_list_high = 0x0000U;
 101:../../../support/device/gd32f4xx/peripherals/src/gd32f4xx_can.c ****         ((can_filter_parameter_struct *)p_struct)->filter_list_low = 0x0000U;
 102:../../../support/device/gd32f4xx/peripherals/src/gd32f4xx_can.c ****         ((can_filter_parameter_struct *)p_struct)->filter_mask_high = 0x0000U;
 103:../../../support/device/gd32f4xx/peripherals/src/gd32f4xx_can.c ****         ((can_filter_parameter_struct *)p_struct)->filter_mask_low = 0x0000U;
 104:../../../support/device/gd32f4xx/peripherals/src/gd32f4xx_can.c ****         ((can_filter_parameter_struct *)p_struct)->filter_mode = CAN_FILTERMODE_MASK;
 105:../../../support/device/gd32f4xx/peripherals/src/gd32f4xx_can.c ****         ((can_filter_parameter_struct *)p_struct)->filter_number = 0U;
 106:../../../support/device/gd32f4xx/peripherals/src/gd32f4xx_can.c **** 
 107:../../../support/device/gd32f4xx/peripherals/src/gd32f4xx_can.c ****         break;
 108:../../../support/device/gd32f4xx/peripherals/src/gd32f4xx_can.c ****     /* used for can_message_transmit() */
 109:../../../support/device/gd32f4xx/peripherals/src/gd32f4xx_can.c ****     case CAN_TX_MESSAGE_STRUCT:
ARM GAS  /var/folders/_f/88qcw_5n2jl40jjphvxyt7wh0000gn/T//ccVo6N4q.s 			page 5


 110:../../../support/device/gd32f4xx/peripherals/src/gd32f4xx_can.c ****         for(i = 0U; i < 8U; i++) {
 111:../../../support/device/gd32f4xx/peripherals/src/gd32f4xx_can.c ****             ((can_trasnmit_message_struct *)p_struct)->tx_data[i] = 0U;
 112:../../../support/device/gd32f4xx/peripherals/src/gd32f4xx_can.c ****         }
 113:../../../support/device/gd32f4xx/peripherals/src/gd32f4xx_can.c **** 
 114:../../../support/device/gd32f4xx/peripherals/src/gd32f4xx_can.c ****         ((can_trasnmit_message_struct *)p_struct)->tx_dlen = 0u;
 115:../../../support/device/gd32f4xx/peripherals/src/gd32f4xx_can.c ****         ((can_trasnmit_message_struct *)p_struct)->tx_efid = 0U;
 116:../../../support/device/gd32f4xx/peripherals/src/gd32f4xx_can.c ****         ((can_trasnmit_message_struct *)p_struct)->tx_ff = (uint8_t)CAN_FF_STANDARD;
 117:../../../support/device/gd32f4xx/peripherals/src/gd32f4xx_can.c ****         ((can_trasnmit_message_struct *)p_struct)->tx_ft = (uint8_t)CAN_FT_DATA;
 118:../../../support/device/gd32f4xx/peripherals/src/gd32f4xx_can.c ****         ((can_trasnmit_message_struct *)p_struct)->tx_sfid = 0U;
 119:../../../support/device/gd32f4xx/peripherals/src/gd32f4xx_can.c **** 
 120:../../../support/device/gd32f4xx/peripherals/src/gd32f4xx_can.c ****         break;
 121:../../../support/device/gd32f4xx/peripherals/src/gd32f4xx_can.c ****     /* used for can_message_receive() */
 122:../../../support/device/gd32f4xx/peripherals/src/gd32f4xx_can.c ****     case CAN_RX_MESSAGE_STRUCT:
 123:../../../support/device/gd32f4xx/peripherals/src/gd32f4xx_can.c ****         for(i = 0U; i < 8U; i++) {
 124:../../../support/device/gd32f4xx/peripherals/src/gd32f4xx_can.c ****             ((can_receive_message_struct *)p_struct)->rx_data[i] = 0U;
 117              		.loc 1 124 66 is_stmt 0 view .LVU17
 118 000c 0023     		movs	r3, #0
 119 000e C1F80B30 		str	r3, [r1, #11]	@ unaligned
 120 0012 C1F80F30 		str	r3, [r1, #15]	@ unaligned
 125:../../../support/device/gd32f4xx/peripherals/src/gd32f4xx_can.c ****         }
 126:../../../support/device/gd32f4xx/peripherals/src/gd32f4xx_can.c **** 
 127:../../../support/device/gd32f4xx/peripherals/src/gd32f4xx_can.c ****         ((can_receive_message_struct *)p_struct)->rx_dlen = 0U;
 121              		.loc 1 127 9 is_stmt 1 view .LVU18
 122              		.loc 1 127 59 is_stmt 0 view .LVU19
 123 0016 8B72     		strb	r3, [r1, #10]
 128:../../../support/device/gd32f4xx/peripherals/src/gd32f4xx_can.c ****         ((can_receive_message_struct *)p_struct)->rx_efid = 0U;
 124              		.loc 1 128 9 is_stmt 1 view .LVU20
 125              		.loc 1 128 59 is_stmt 0 view .LVU21
 126 0018 4B60     		str	r3, [r1, #4]
 129:../../../support/device/gd32f4xx/peripherals/src/gd32f4xx_can.c ****         ((can_receive_message_struct *)p_struct)->rx_ff = (uint8_t)CAN_FF_STANDARD;
 127              		.loc 1 129 9 is_stmt 1 view .LVU22
 130:../../../support/device/gd32f4xx/peripherals/src/gd32f4xx_can.c ****         ((can_receive_message_struct *)p_struct)->rx_fi = 0U;
 128              		.loc 1 130 9 view .LVU23
 129              		.loc 1 130 57 is_stmt 0 view .LVU24
 130 001a CB74     		strb	r3, [r1, #19]
 131:../../../support/device/gd32f4xx/peripherals/src/gd32f4xx_can.c ****         ((can_receive_message_struct *)p_struct)->rx_ft = (uint8_t)CAN_FT_DATA;
 131              		.loc 1 131 9 is_stmt 1 view .LVU25
 129:../../../support/device/gd32f4xx/peripherals/src/gd32f4xx_can.c ****         ((can_receive_message_struct *)p_struct)->rx_ff = (uint8_t)CAN_FF_STANDARD;
 132              		.loc 1 129 57 is_stmt 0 view .LVU26
 133 001c 0B81     		strh	r3, [r1, #8]	@ movhi
 132:../../../support/device/gd32f4xx/peripherals/src/gd32f4xx_can.c ****         ((can_receive_message_struct *)p_struct)->rx_sfid = 0U;
 134              		.loc 1 132 9 is_stmt 1 view .LVU27
 135              		.loc 1 132 59 is_stmt 0 view .LVU28
 136 001e 0B60     		str	r3, [r1]
 133:../../../support/device/gd32f4xx/peripherals/src/gd32f4xx_can.c **** 
 134:../../../support/device/gd32f4xx/peripherals/src/gd32f4xx_can.c ****         break;
 137              		.loc 1 134 9 is_stmt 1 view .LVU29
 135:../../../support/device/gd32f4xx/peripherals/src/gd32f4xx_can.c **** 
 136:../../../support/device/gd32f4xx/peripherals/src/gd32f4xx_can.c ****     default:
 137:../../../support/device/gd32f4xx/peripherals/src/gd32f4xx_can.c ****         CAN_ERROR_HANDLE("parameter is invalid \r\n");
 138:../../../support/device/gd32f4xx/peripherals/src/gd32f4xx_can.c ****     }
 139:../../../support/device/gd32f4xx/peripherals/src/gd32f4xx_can.c **** }
 138              		.loc 1 139 1 is_stmt 0 view .LVU30
 139 0020 7047     		bx	lr
 140              	.L12:
 111:../../../support/device/gd32f4xx/peripherals/src/gd32f4xx_can.c ****         }
 141              		.loc 1 111 67 view .LVU31
ARM GAS  /var/folders/_f/88qcw_5n2jl40jjphvxyt7wh0000gn/T//ccVo6N4q.s 			page 6


 142 0022 0023     		movs	r3, #0
 143 0024 C1F80B30 		str	r3, [r1, #11]	@ unaligned
 144 0028 C1F80F30 		str	r3, [r1, #15]	@ unaligned
 114:../../../support/device/gd32f4xx/peripherals/src/gd32f4xx_can.c ****         ((can_trasnmit_message_struct *)p_struct)->tx_efid = 0U;
 145              		.loc 1 114 9 is_stmt 1 view .LVU32
 114:../../../support/device/gd32f4xx/peripherals/src/gd32f4xx_can.c ****         ((can_trasnmit_message_struct *)p_struct)->tx_efid = 0U;
 146              		.loc 1 114 60 is_stmt 0 view .LVU33
 147 002c 8B72     		strb	r3, [r1, #10]
 115:../../../support/device/gd32f4xx/peripherals/src/gd32f4xx_can.c ****         ((can_trasnmit_message_struct *)p_struct)->tx_ff = (uint8_t)CAN_FF_STANDARD;
 148              		.loc 1 115 9 is_stmt 1 view .LVU34
 115:../../../support/device/gd32f4xx/peripherals/src/gd32f4xx_can.c ****         ((can_trasnmit_message_struct *)p_struct)->tx_ff = (uint8_t)CAN_FF_STANDARD;
 149              		.loc 1 115 60 is_stmt 0 view .LVU35
 150 002e 4B60     		str	r3, [r1, #4]
 116:../../../support/device/gd32f4xx/peripherals/src/gd32f4xx_can.c ****         ((can_trasnmit_message_struct *)p_struct)->tx_ft = (uint8_t)CAN_FT_DATA;
 151              		.loc 1 116 9 is_stmt 1 view .LVU36
 117:../../../support/device/gd32f4xx/peripherals/src/gd32f4xx_can.c ****         ((can_trasnmit_message_struct *)p_struct)->tx_sfid = 0U;
 152              		.loc 1 117 9 view .LVU37
 116:../../../support/device/gd32f4xx/peripherals/src/gd32f4xx_can.c ****         ((can_trasnmit_message_struct *)p_struct)->tx_ft = (uint8_t)CAN_FT_DATA;
 153              		.loc 1 116 58 is_stmt 0 view .LVU38
 154 0030 0B81     		strh	r3, [r1, #8]	@ movhi
 118:../../../support/device/gd32f4xx/peripherals/src/gd32f4xx_can.c **** 
 155              		.loc 1 118 9 is_stmt 1 view .LVU39
 118:../../../support/device/gd32f4xx/peripherals/src/gd32f4xx_can.c **** 
 156              		.loc 1 118 60 is_stmt 0 view .LVU40
 157 0032 0B60     		str	r3, [r1]
 120:../../../support/device/gd32f4xx/peripherals/src/gd32f4xx_can.c ****     /* used for can_message_receive() */
 158              		.loc 1 120 9 is_stmt 1 view .LVU41
 159 0034 7047     		bx	lr
 160              	.L13:
  97:../../../support/device/gd32f4xx/peripherals/src/gd32f4xx_can.c ****         ((can_filter_parameter_struct *)p_struct)->filter_enable = DISABLE;
 161              		.loc 1 97 9 view .LVU42
  98:../../../support/device/gd32f4xx/peripherals/src/gd32f4xx_can.c ****         ((can_filter_parameter_struct *)p_struct)->filter_fifo_number = CAN_FIFO0;
 162              		.loc 1 98 9 view .LVU43
  98:../../../support/device/gd32f4xx/peripherals/src/gd32f4xx_can.c ****         ((can_filter_parameter_struct *)p_struct)->filter_fifo_number = CAN_FIFO0;
 163              		.loc 1 98 66 is_stmt 0 view .LVU44
 164 0036 0023     		movs	r3, #0
 100:../../../support/device/gd32f4xx/peripherals/src/gd32f4xx_can.c ****         ((can_filter_parameter_struct *)p_struct)->filter_list_low = 0x0000U;
 165              		.loc 1 100 69 view .LVU45
 166 0038 4FF48032 		mov	r2, #65536
  98:../../../support/device/gd32f4xx/peripherals/src/gd32f4xx_can.c ****         ((can_filter_parameter_struct *)p_struct)->filter_fifo_number = CAN_FIFO0;
 167              		.loc 1 98 66 view .LVU46
 168 003c 0B74     		strb	r3, [r1, #16]
  99:../../../support/device/gd32f4xx/peripherals/src/gd32f4xx_can.c ****         ((can_filter_parameter_struct *)p_struct)->filter_list_high = 0x0000U;
 169              		.loc 1 99 9 is_stmt 1 view .LVU47
 100:../../../support/device/gd32f4xx/peripherals/src/gd32f4xx_can.c ****         ((can_filter_parameter_struct *)p_struct)->filter_list_low = 0x0000U;
 170              		.loc 1 100 9 view .LVU48
 101:../../../support/device/gd32f4xx/peripherals/src/gd32f4xx_can.c ****         ((can_filter_parameter_struct *)p_struct)->filter_mask_high = 0x0000U;
 171              		.loc 1 101 9 view .LVU49
 102:../../../support/device/gd32f4xx/peripherals/src/gd32f4xx_can.c ****         ((can_filter_parameter_struct *)p_struct)->filter_mask_low = 0x0000U;
 172              		.loc 1 102 9 view .LVU50
 103:../../../support/device/gd32f4xx/peripherals/src/gd32f4xx_can.c ****         ((can_filter_parameter_struct *)p_struct)->filter_mode = CAN_FILTERMODE_MASK;
 173              		.loc 1 103 9 view .LVU51
 104:../../../support/device/gd32f4xx/peripherals/src/gd32f4xx_can.c ****         ((can_filter_parameter_struct *)p_struct)->filter_number = 0U;
 174              		.loc 1 104 9 view .LVU52
 105:../../../support/device/gd32f4xx/peripherals/src/gd32f4xx_can.c **** 
 175              		.loc 1 105 9 view .LVU53
 100:../../../support/device/gd32f4xx/peripherals/src/gd32f4xx_can.c ****         ((can_filter_parameter_struct *)p_struct)->filter_list_low = 0x0000U;
ARM GAS  /var/folders/_f/88qcw_5n2jl40jjphvxyt7wh0000gn/T//ccVo6N4q.s 			page 7


 176              		.loc 1 100 69 is_stmt 0 view .LVU54
 177 003e 0B60     		str	r3, [r1]	@ unaligned
 178 0040 4B60     		str	r3, [r1, #4]	@ unaligned
 179 0042 8B60     		str	r3, [r1, #8]	@ unaligned
 180 0044 CA60     		str	r2, [r1, #12]	@ unaligned
 107:../../../support/device/gd32f4xx/peripherals/src/gd32f4xx_can.c ****     /* used for can_message_transmit() */
 181              		.loc 1 107 9 is_stmt 1 view .LVU55
 182 0046 7047     		bx	lr
 183              	.L14:
  82:../../../support/device/gd32f4xx/peripherals/src/gd32f4xx_can.c ****         ((can_parameter_struct *)p_struct)->auto_retrans = ENABLE;
 184              		.loc 1 82 9 view .LVU56
  83:../../../support/device/gd32f4xx/peripherals/src/gd32f4xx_can.c ****         ((can_parameter_struct *)p_struct)->auto_wake_up = DISABLE;
 185              		.loc 1 83 9 view .LVU57
  84:../../../support/device/gd32f4xx/peripherals/src/gd32f4xx_can.c ****         ((can_parameter_struct *)p_struct)->prescaler = 0x03FFU;
 186              		.loc 1 84 9 view .LVU58
  85:../../../support/device/gd32f4xx/peripherals/src/gd32f4xx_can.c ****         ((can_parameter_struct *)p_struct)->rec_fifo_overwrite = ENABLE;
 187              		.loc 1 85 9 view .LVU59
  86:../../../support/device/gd32f4xx/peripherals/src/gd32f4xx_can.c ****         ((can_parameter_struct *)p_struct)->resync_jump_width = CAN_BT_SJW_1TQ;
 188              		.loc 1 86 9 view .LVU60
  87:../../../support/device/gd32f4xx/peripherals/src/gd32f4xx_can.c ****         ((can_parameter_struct *)p_struct)->time_segment_1 = CAN_BT_BS1_3TQ;
 189              		.loc 1 87 9 view .LVU61
  88:../../../support/device/gd32f4xx/peripherals/src/gd32f4xx_can.c ****         ((can_parameter_struct *)p_struct)->time_segment_2 = CAN_BT_BS2_1TQ;
 190              		.loc 1 88 9 view .LVU62
  89:../../../support/device/gd32f4xx/peripherals/src/gd32f4xx_can.c ****         ((can_parameter_struct *)p_struct)->time_triggered = DISABLE;
 191              		.loc 1 89 9 view .LVU63
  90:../../../support/device/gd32f4xx/peripherals/src/gd32f4xx_can.c ****         ((can_parameter_struct *)p_struct)->trans_fifo_order = DISABLE;
 192              		.loc 1 90 9 view .LVU64
  91:../../../support/device/gd32f4xx/peripherals/src/gd32f4xx_can.c ****         ((can_parameter_struct *)p_struct)->working_mode = CAN_NORMAL_MODE;
 193              		.loc 1 91 9 view .LVU65
  92:../../../support/device/gd32f4xx/peripherals/src/gd32f4xx_can.c **** 
 194              		.loc 1 92 9 view .LVU66
  92:../../../support/device/gd32f4xx/peripherals/src/gd32f4xx_can.c **** 
 195              		.loc 1 92 58 is_stmt 0 view .LVU67
 196 0048 4FF4003C 		mov	ip, #131072
 197 004c 4FF08070 		mov	r0, #16777216
 198              	.LVL8:
  86:../../../support/device/gd32f4xx/peripherals/src/gd32f4xx_can.c ****         ((can_parameter_struct *)p_struct)->resync_jump_width = CAN_BT_SJW_1TQ;
 199              		.loc 1 86 64 view .LVU68
 200 0050 0122     		movs	r2, #1
  85:../../../support/device/gd32f4xx/peripherals/src/gd32f4xx_can.c ****         ((can_parameter_struct *)p_struct)->rec_fifo_overwrite = ENABLE;
 201              		.loc 1 85 55 view .LVU69
 202 0052 40F2FF33 		movw	r3, #1023
  92:../../../support/device/gd32f4xx/peripherals/src/gd32f4xx_can.c **** 
 203              		.loc 1 92 58 view .LVU70
 204 0056 C1F800C0 		str	ip, [r1]	@ unaligned
 205 005a 4860     		str	r0, [r1, #4]	@ unaligned
  86:../../../support/device/gd32f4xx/peripherals/src/gd32f4xx_can.c ****         ((can_parameter_struct *)p_struct)->resync_jump_width = CAN_BT_SJW_1TQ;
 206              		.loc 1 86 64 view .LVU71
 207 005c 0A81     		strh	r2, [r1, #8]	@ movhi
  85:../../../support/device/gd32f4xx/peripherals/src/gd32f4xx_can.c ****         ((can_parameter_struct *)p_struct)->rec_fifo_overwrite = ENABLE;
 208              		.loc 1 85 55 view .LVU72
 209 005e 4B81     		strh	r3, [r1, #10]	@ movhi
  94:../../../support/device/gd32f4xx/peripherals/src/gd32f4xx_can.c ****     /* used for can_filter_init() */
 210              		.loc 1 94 9 is_stmt 1 view .LVU73
 211 0060 7047     		bx	lr
 212              	.LVL9:
 213              	.L16:
ARM GAS  /var/folders/_f/88qcw_5n2jl40jjphvxyt7wh0000gn/T//ccVo6N4q.s 			page 8


 214              	.L9:
 137:../../../support/device/gd32f4xx/peripherals/src/gd32f4xx_can.c ****     }
 215              		.loc 1 137 9 discriminator 1 view .LVU74
 137:../../../support/device/gd32f4xx/peripherals/src/gd32f4xx_can.c ****     }
 216              		.loc 1 137 9 discriminator 1 view .LVU75
 137:../../../support/device/gd32f4xx/peripherals/src/gd32f4xx_can.c ****     }
 217              		.loc 1 137 9 discriminator 1 view .LVU76
 137:../../../support/device/gd32f4xx/peripherals/src/gd32f4xx_can.c ****     }
 218              		.loc 1 137 9 discriminator 1 view .LVU77
 137:../../../support/device/gd32f4xx/peripherals/src/gd32f4xx_can.c ****     }
 219              		.loc 1 137 9 discriminator 1 view .LVU78
 137:../../../support/device/gd32f4xx/peripherals/src/gd32f4xx_can.c ****     }
 220              		.loc 1 137 9 discriminator 1 view .LVU79
 221 0062 FEE7     		b	.L9
 222              		.cfi_endproc
 223              	.LFE117:
 225              		.section	.text.can_init,"ax",%progbits
 226              		.align	1
 227              		.p2align 2,,3
 228              		.global	can_init
 229              		.syntax unified
 230              		.thumb
 231              		.thumb_func
 233              	can_init:
 234              	.LVL10:
 235              	.LFB118:
 140:../../../support/device/gd32f4xx/peripherals/src/gd32f4xx_can.c **** 
 141:../../../support/device/gd32f4xx/peripherals/src/gd32f4xx_can.c **** /*!
 142:../../../support/device/gd32f4xx/peripherals/src/gd32f4xx_can.c ****     \brief      initialize CAN
 143:../../../support/device/gd32f4xx/peripherals/src/gd32f4xx_can.c ****     \param[in]  can_periph
 144:../../../support/device/gd32f4xx/peripherals/src/gd32f4xx_can.c ****       \arg        CANx(x=0,1)
 145:../../../support/device/gd32f4xx/peripherals/src/gd32f4xx_can.c ****     \param[in]  can_parameter_init: parameters for CAN initializtion
 146:../../../support/device/gd32f4xx/peripherals/src/gd32f4xx_can.c ****       \arg        working_mode: CAN_NORMAL_MODE, CAN_LOOPBACK_MODE, CAN_SILENT_MODE, CAN_SILENT_LOO
 147:../../../support/device/gd32f4xx/peripherals/src/gd32f4xx_can.c ****       \arg        resync_jump_width: CAN_BT_SJW_xTQ(x=1, 2, 3, 4)
 148:../../../support/device/gd32f4xx/peripherals/src/gd32f4xx_can.c ****       \arg        time_segment_1: CAN_BT_BS1_xTQ(1..16)
 149:../../../support/device/gd32f4xx/peripherals/src/gd32f4xx_can.c ****       \arg        time_segment_2: CAN_BT_BS2_xTQ(1..8)
 150:../../../support/device/gd32f4xx/peripherals/src/gd32f4xx_can.c ****       \arg        time_triggered: ENABLE or DISABLE
 151:../../../support/device/gd32f4xx/peripherals/src/gd32f4xx_can.c ****       \arg        auto_bus_off_recovery: ENABLE or DISABLE
 152:../../../support/device/gd32f4xx/peripherals/src/gd32f4xx_can.c ****       \arg        auto_wake_up: ENABLE or DISABLE
 153:../../../support/device/gd32f4xx/peripherals/src/gd32f4xx_can.c ****       \arg        auto_retrans: ENABLE or DISABLE
 154:../../../support/device/gd32f4xx/peripherals/src/gd32f4xx_can.c ****       \arg        rec_fifo_overwrite: ENABLE or DISABLE
 155:../../../support/device/gd32f4xx/peripherals/src/gd32f4xx_can.c ****       \arg        trans_fifo_order: ENABLE or DISABLE
 156:../../../support/device/gd32f4xx/peripherals/src/gd32f4xx_can.c ****       \arg        prescaler: 0x0001 - 0x0400
 157:../../../support/device/gd32f4xx/peripherals/src/gd32f4xx_can.c ****     \param[out] none
 158:../../../support/device/gd32f4xx/peripherals/src/gd32f4xx_can.c ****     \retval     ErrStatus: SUCCESS or ERROR
 159:../../../support/device/gd32f4xx/peripherals/src/gd32f4xx_can.c **** */
 160:../../../support/device/gd32f4xx/peripherals/src/gd32f4xx_can.c **** ErrStatus can_init(uint32_t can_periph, can_parameter_struct *can_parameter_init)
 161:../../../support/device/gd32f4xx/peripherals/src/gd32f4xx_can.c **** {
 236              		.loc 1 161 1 view -0
 237              		.cfi_startproc
 238              		@ args = 0, pretend = 0, frame = 0
 239              		@ frame_needed = 0, uses_anonymous_args = 0
 240              		@ link register save eliminated.
 162:../../../support/device/gd32f4xx/peripherals/src/gd32f4xx_can.c ****     uint32_t timeout = CAN_TIMEOUT;
 241              		.loc 1 162 5 view .LVU81
 163:../../../support/device/gd32f4xx/peripherals/src/gd32f4xx_can.c ****     ErrStatus flag = ERROR;
 242              		.loc 1 163 5 view .LVU82
ARM GAS  /var/folders/_f/88qcw_5n2jl40jjphvxyt7wh0000gn/T//ccVo6N4q.s 			page 9


 164:../../../support/device/gd32f4xx/peripherals/src/gd32f4xx_can.c **** 
 165:../../../support/device/gd32f4xx/peripherals/src/gd32f4xx_can.c ****     /* disable sleep mode */
 166:../../../support/device/gd32f4xx/peripherals/src/gd32f4xx_can.c ****     CAN_CTL(can_periph) &= ~CAN_CTL_SLPWMOD;
 243              		.loc 1 166 5 view .LVU83
 244              		.loc 1 166 25 is_stmt 0 view .LVU84
 245 0000 0368     		ldr	r3, [r0]
 246 0002 23F00203 		bic	r3, r3, #2
 247 0006 0360     		str	r3, [r0]
 167:../../../support/device/gd32f4xx/peripherals/src/gd32f4xx_can.c ****     /* enable initialize mode */
 168:../../../support/device/gd32f4xx/peripherals/src/gd32f4xx_can.c ****     CAN_CTL(can_periph) |= CAN_CTL_IWMOD;
 248              		.loc 1 168 5 is_stmt 1 view .LVU85
 249              		.loc 1 168 25 is_stmt 0 view .LVU86
 250 0008 0368     		ldr	r3, [r0]
 251 000a 8446     		mov	ip, r0
 252 000c 43F00103 		orr	r3, r3, #1
 253 0010 4CF8043B 		str	r3, [ip], #4
 169:../../../support/device/gd32f4xx/peripherals/src/gd32f4xx_can.c ****     /* wait ACK */
 170:../../../support/device/gd32f4xx/peripherals/src/gd32f4xx_can.c ****     while((CAN_STAT_IWS != (CAN_STAT(can_periph) & CAN_STAT_IWS)) && (0U != timeout)) {
 254              		.loc 1 170 5 is_stmt 1 view .LVU87
 255              		.loc 1 170 10 view .LVU88
 256              		.loc 1 170 29 is_stmt 0 view .LVU89
 257 0014 4368     		ldr	r3, [r0, #4]
 258              		.loc 1 170 10 view .LVU90
 259 0016 DB07     		lsls	r3, r3, #31
 260 0018 08D4     		bmi	.L18
 261 001a 4FF6FF73 		movw	r3, #65535
 262 001e 01E0     		b	.L19
 263              	.LVL11:
 264              	.L41:
 265              		.loc 1 170 67 discriminator 1 view .LVU91
 266 0020 013B     		subs	r3, r3, #1
 267 0022 03D0     		beq	.L18
 268              	.L19:
 171:../../../support/device/gd32f4xx/peripherals/src/gd32f4xx_can.c ****         timeout--;
 269              		.loc 1 171 9 is_stmt 1 view .LVU92
 170:../../../support/device/gd32f4xx/peripherals/src/gd32f4xx_can.c ****         timeout--;
 270              		.loc 1 170 10 view .LVU93
 170:../../../support/device/gd32f4xx/peripherals/src/gd32f4xx_can.c ****         timeout--;
 271              		.loc 1 170 29 is_stmt 0 view .LVU94
 272 0024 DCF80020 		ldr	r2, [ip]
 170:../../../support/device/gd32f4xx/peripherals/src/gd32f4xx_can.c ****         timeout--;
 273              		.loc 1 170 10 view .LVU95
 274 0028 D207     		lsls	r2, r2, #31
 275 002a F9D5     		bpl	.L41
 276              	.L18:
 172:../../../support/device/gd32f4xx/peripherals/src/gd32f4xx_can.c ****     }
 173:../../../support/device/gd32f4xx/peripherals/src/gd32f4xx_can.c ****     /* check initialize working success */
 174:../../../support/device/gd32f4xx/peripherals/src/gd32f4xx_can.c ****     if(CAN_STAT_IWS != (CAN_STAT(can_periph) & CAN_STAT_IWS)) {
 277              		.loc 1 174 5 is_stmt 1 view .LVU96
 278              		.loc 1 174 25 is_stmt 0 view .LVU97
 279 002c 4368     		ldr	r3, [r0, #4]
 280              		.loc 1 174 7 view .LVU98
 281 002e DB07     		lsls	r3, r3, #31
 282 0030 61D5     		bpl	.L37
 175:../../../support/device/gd32f4xx/peripherals/src/gd32f4xx_can.c ****         flag = ERROR;
 176:../../../support/device/gd32f4xx/peripherals/src/gd32f4xx_can.c ****     } else {
 177:../../../support/device/gd32f4xx/peripherals/src/gd32f4xx_can.c ****         /* set the bit timing register */
ARM GAS  /var/folders/_f/88qcw_5n2jl40jjphvxyt7wh0000gn/T//ccVo6N4q.s 			page 10


 178:../../../support/device/gd32f4xx/peripherals/src/gd32f4xx_can.c ****         CAN_BT(can_periph) = (BT_MODE((uint32_t)can_parameter_init->working_mode) | \
 283              		.loc 1 178 9 is_stmt 1 view .LVU99
 179:../../../support/device/gd32f4xx/peripherals/src/gd32f4xx_can.c ****                               BT_SJW((uint32_t)can_parameter_init->resync_jump_width) | \
 284              		.loc 1 179 31 is_stmt 0 view .LVU100
 285 0032 4B78     		ldrb	r3, [r1, #1]	@ zero_extendqisi2
 180:../../../support/device/gd32f4xx/peripherals/src/gd32f4xx_can.c ****                               BT_BS1((uint32_t)can_parameter_init->time_segment_1) | \
 286              		.loc 1 180 31 view .LVU101
 287 0034 8A78     		ldrb	r2, [r1, #2]	@ zero_extendqisi2
 179:../../../support/device/gd32f4xx/peripherals/src/gd32f4xx_can.c ****                               BT_SJW((uint32_t)can_parameter_init->resync_jump_width) | \
 288              		.loc 1 179 31 view .LVU102
 289 0036 1B06     		lsls	r3, r3, #24
 290              		.loc 1 180 31 view .LVU103
 291 0038 1204     		lsls	r2, r2, #16
 292 003a 02F47022 		and	r2, r2, #983040
 179:../../../support/device/gd32f4xx/peripherals/src/gd32f4xx_can.c ****                               BT_SJW((uint32_t)can_parameter_init->resync_jump_width) | \
 293              		.loc 1 179 31 view .LVU104
 294 003e 03F04073 		and	r3, r3, #50331648
 179:../../../support/device/gd32f4xx/peripherals/src/gd32f4xx_can.c ****                               BT_SJW((uint32_t)can_parameter_init->resync_jump_width) | \
 295              		.loc 1 179 87 view .LVU105
 296 0042 1343     		orrs	r3, r3, r2
 178:../../../support/device/gd32f4xx/peripherals/src/gd32f4xx_can.c ****                               BT_SJW((uint32_t)can_parameter_init->resync_jump_width) | \
 297              		.loc 1 178 31 view .LVU106
 298 0044 0A78     		ldrb	r2, [r1]	@ zero_extendqisi2
 179:../../../support/device/gd32f4xx/peripherals/src/gd32f4xx_can.c ****                               BT_SJW((uint32_t)can_parameter_init->resync_jump_width) | \
 299              		.loc 1 179 87 view .LVU107
 300 0046 43EA8273 		orr	r3, r3, r2, lsl #30
 181:../../../support/device/gd32f4xx/peripherals/src/gd32f4xx_can.c ****                               BT_BS2((uint32_t)can_parameter_init->time_segment_2) | \
 301              		.loc 1 181 31 view .LVU108
 302 004a CA78     		ldrb	r2, [r1, #3]	@ zero_extendqisi2
 303 004c 1205     		lsls	r2, r2, #20
 304 004e 02F4E002 		and	r2, r2, #7340032
 180:../../../support/device/gd32f4xx/peripherals/src/gd32f4xx_can.c ****                               BT_BS1((uint32_t)can_parameter_init->time_segment_1) | \
 305              		.loc 1 180 84 view .LVU109
 306 0052 1343     		orrs	r3, r3, r2
 182:../../../support/device/gd32f4xx/peripherals/src/gd32f4xx_can.c ****                               BT_BAUDPSC(((uint32_t)(can_parameter_init->prescaler) - 1U)));
 307              		.loc 1 182 31 view .LVU110
 308 0054 4A89     		ldrh	r2, [r1, #10]
 309 0056 013A     		subs	r2, r2, #1
 310 0058 C2F30902 		ubfx	r2, r2, #0, #10
 181:../../../support/device/gd32f4xx/peripherals/src/gd32f4xx_can.c ****                               BT_BS2((uint32_t)can_parameter_init->time_segment_2) | \
 311              		.loc 1 181 84 view .LVU111
 312 005c 1343     		orrs	r3, r3, r2
 178:../../../support/device/gd32f4xx/peripherals/src/gd32f4xx_can.c ****                               BT_SJW((uint32_t)can_parameter_init->resync_jump_width) | \
 313              		.loc 1 178 28 view .LVU112
 314 005e C361     		str	r3, [r0, #28]
 183:../../../support/device/gd32f4xx/peripherals/src/gd32f4xx_can.c **** 
 184:../../../support/device/gd32f4xx/peripherals/src/gd32f4xx_can.c ****         /* time trigger communication mode */
 185:../../../support/device/gd32f4xx/peripherals/src/gd32f4xx_can.c ****         if(ENABLE == can_parameter_init->time_triggered) {
 315              		.loc 1 185 9 is_stmt 1 view .LVU113
 316              		.loc 1 185 11 is_stmt 0 view .LVU114
 317 0060 0B79     		ldrb	r3, [r1, #4]	@ zero_extendqisi2
 318 0062 012B     		cmp	r3, #1
 186:../../../support/device/gd32f4xx/peripherals/src/gd32f4xx_can.c ****             CAN_CTL(can_periph) |= CAN_CTL_TTC;
 319              		.loc 1 186 33 view .LVU115
 320 0064 0368     		ldr	r3, [r0]
 321              		.loc 1 186 13 is_stmt 1 view .LVU116
 322              		.loc 1 186 33 is_stmt 0 view .LVU117
ARM GAS  /var/folders/_f/88qcw_5n2jl40jjphvxyt7wh0000gn/T//ccVo6N4q.s 			page 11


 323 0066 0CBF     		ite	eq
 324 0068 43F08003 		orreq	r3, r3, #128
 187:../../../support/device/gd32f4xx/peripherals/src/gd32f4xx_can.c ****         } else {
 188:../../../support/device/gd32f4xx/peripherals/src/gd32f4xx_can.c ****             CAN_CTL(can_periph) &= ~CAN_CTL_TTC;
 325              		.loc 1 188 13 is_stmt 1 view .LVU118
 326              		.loc 1 188 33 is_stmt 0 view .LVU119
 327 006c 23F08003 		bicne	r3, r3, #128
 328 0070 0360     		str	r3, [r0]
 189:../../../support/device/gd32f4xx/peripherals/src/gd32f4xx_can.c ****         }
 190:../../../support/device/gd32f4xx/peripherals/src/gd32f4xx_can.c ****         /* automatic bus-off management */
 191:../../../support/device/gd32f4xx/peripherals/src/gd32f4xx_can.c ****         if(ENABLE == can_parameter_init->auto_bus_off_recovery) {
 329              		.loc 1 191 9 is_stmt 1 view .LVU120
 330              		.loc 1 191 11 is_stmt 0 view .LVU121
 331 0072 4B79     		ldrb	r3, [r1, #5]	@ zero_extendqisi2
 332 0074 012B     		cmp	r3, #1
 192:../../../support/device/gd32f4xx/peripherals/src/gd32f4xx_can.c ****             CAN_CTL(can_periph) |= CAN_CTL_ABOR;
 333              		.loc 1 192 33 view .LVU122
 334 0076 0368     		ldr	r3, [r0]
 335              		.loc 1 192 13 is_stmt 1 view .LVU123
 336              		.loc 1 192 33 is_stmt 0 view .LVU124
 337 0078 0CBF     		ite	eq
 338 007a 43F04003 		orreq	r3, r3, #64
 193:../../../support/device/gd32f4xx/peripherals/src/gd32f4xx_can.c ****         } else {
 194:../../../support/device/gd32f4xx/peripherals/src/gd32f4xx_can.c ****             CAN_CTL(can_periph) &= ~CAN_CTL_ABOR;
 339              		.loc 1 194 13 is_stmt 1 view .LVU125
 340              		.loc 1 194 33 is_stmt 0 view .LVU126
 341 007e 23F04003 		bicne	r3, r3, #64
 342 0082 0360     		str	r3, [r0]
 195:../../../support/device/gd32f4xx/peripherals/src/gd32f4xx_can.c ****         }
 196:../../../support/device/gd32f4xx/peripherals/src/gd32f4xx_can.c ****         /* automatic wakeup mode */
 197:../../../support/device/gd32f4xx/peripherals/src/gd32f4xx_can.c ****         if(ENABLE == can_parameter_init->auto_wake_up) {
 343              		.loc 1 197 9 is_stmt 1 view .LVU127
 344              		.loc 1 197 11 is_stmt 0 view .LVU128
 345 0084 8B79     		ldrb	r3, [r1, #6]	@ zero_extendqisi2
 346 0086 012B     		cmp	r3, #1
 198:../../../support/device/gd32f4xx/peripherals/src/gd32f4xx_can.c ****             CAN_CTL(can_periph) |= CAN_CTL_AWU;
 347              		.loc 1 198 33 view .LVU129
 348 0088 0368     		ldr	r3, [r0]
 349              		.loc 1 198 13 is_stmt 1 view .LVU130
 350              		.loc 1 198 33 is_stmt 0 view .LVU131
 351 008a 0CBF     		ite	eq
 352 008c 43F02003 		orreq	r3, r3, #32
 199:../../../support/device/gd32f4xx/peripherals/src/gd32f4xx_can.c ****         } else {
 200:../../../support/device/gd32f4xx/peripherals/src/gd32f4xx_can.c ****             CAN_CTL(can_periph) &= ~CAN_CTL_AWU;
 353              		.loc 1 200 13 is_stmt 1 view .LVU132
 354              		.loc 1 200 33 is_stmt 0 view .LVU133
 355 0090 23F02003 		bicne	r3, r3, #32
 356 0094 0360     		str	r3, [r0]
 201:../../../support/device/gd32f4xx/peripherals/src/gd32f4xx_can.c ****         }
 202:../../../support/device/gd32f4xx/peripherals/src/gd32f4xx_can.c ****         /* automatic retransmission mode disable */
 203:../../../support/device/gd32f4xx/peripherals/src/gd32f4xx_can.c ****         if(ENABLE == can_parameter_init->auto_retrans) {
 357              		.loc 1 203 9 is_stmt 1 view .LVU134
 358              		.loc 1 203 11 is_stmt 0 view .LVU135
 359 0096 CB79     		ldrb	r3, [r1, #7]	@ zero_extendqisi2
 360 0098 012B     		cmp	r3, #1
 204:../../../support/device/gd32f4xx/peripherals/src/gd32f4xx_can.c ****             CAN_CTL(can_periph) &= ~CAN_CTL_ARD;
 361              		.loc 1 204 33 view .LVU136
ARM GAS  /var/folders/_f/88qcw_5n2jl40jjphvxyt7wh0000gn/T//ccVo6N4q.s 			page 12


 362 009a 0368     		ldr	r3, [r0]
 363              		.loc 1 204 13 is_stmt 1 view .LVU137
 364              		.loc 1 204 33 is_stmt 0 view .LVU138
 365 009c 0CBF     		ite	eq
 366 009e 23F01003 		biceq	r3, r3, #16
 205:../../../support/device/gd32f4xx/peripherals/src/gd32f4xx_can.c ****         } else {
 206:../../../support/device/gd32f4xx/peripherals/src/gd32f4xx_can.c ****             CAN_CTL(can_periph) |= CAN_CTL_ARD;
 367              		.loc 1 206 13 is_stmt 1 view .LVU139
 368              		.loc 1 206 33 is_stmt 0 view .LVU140
 369 00a2 43F01003 		orrne	r3, r3, #16
 370 00a6 0360     		str	r3, [r0]
 207:../../../support/device/gd32f4xx/peripherals/src/gd32f4xx_can.c ****         }
 208:../../../support/device/gd32f4xx/peripherals/src/gd32f4xx_can.c ****         /* receive FIFO overwrite mode disable */
 209:../../../support/device/gd32f4xx/peripherals/src/gd32f4xx_can.c ****         if(ENABLE == can_parameter_init->rec_fifo_overwrite) {
 371              		.loc 1 209 9 is_stmt 1 view .LVU141
 372              		.loc 1 209 11 is_stmt 0 view .LVU142
 373 00a8 0B7A     		ldrb	r3, [r1, #8]	@ zero_extendqisi2
 374 00aa 012B     		cmp	r3, #1
 210:../../../support/device/gd32f4xx/peripherals/src/gd32f4xx_can.c ****             CAN_CTL(can_periph) &= ~CAN_CTL_RFOD;
 375              		.loc 1 210 33 view .LVU143
 376 00ac 0368     		ldr	r3, [r0]
 377              		.loc 1 210 13 is_stmt 1 view .LVU144
 378              		.loc 1 210 33 is_stmt 0 view .LVU145
 379 00ae 0CBF     		ite	eq
 380 00b0 23F00803 		biceq	r3, r3, #8
 211:../../../support/device/gd32f4xx/peripherals/src/gd32f4xx_can.c ****         } else {
 212:../../../support/device/gd32f4xx/peripherals/src/gd32f4xx_can.c ****             CAN_CTL(can_periph) |= CAN_CTL_RFOD;
 381              		.loc 1 212 13 is_stmt 1 view .LVU146
 382              		.loc 1 212 33 is_stmt 0 view .LVU147
 383 00b4 43F00803 		orrne	r3, r3, #8
 384 00b8 0360     		str	r3, [r0]
 213:../../../support/device/gd32f4xx/peripherals/src/gd32f4xx_can.c ****         }
 214:../../../support/device/gd32f4xx/peripherals/src/gd32f4xx_can.c ****         /* transmit FIFO order */
 215:../../../support/device/gd32f4xx/peripherals/src/gd32f4xx_can.c ****         if(ENABLE == can_parameter_init->trans_fifo_order) {
 385              		.loc 1 215 9 is_stmt 1 view .LVU148
 386              		.loc 1 215 11 is_stmt 0 view .LVU149
 387 00ba 4B7A     		ldrb	r3, [r1, #9]	@ zero_extendqisi2
 388 00bc 012B     		cmp	r3, #1
 216:../../../support/device/gd32f4xx/peripherals/src/gd32f4xx_can.c ****             CAN_CTL(can_periph) |= CAN_CTL_TFO;
 389              		.loc 1 216 33 view .LVU150
 390 00be 0368     		ldr	r3, [r0]
 391              		.loc 1 216 13 is_stmt 1 view .LVU151
 392              		.loc 1 216 33 is_stmt 0 view .LVU152
 393 00c0 0CBF     		ite	eq
 394 00c2 43F00403 		orreq	r3, r3, #4
 217:../../../support/device/gd32f4xx/peripherals/src/gd32f4xx_can.c ****         } else {
 218:../../../support/device/gd32f4xx/peripherals/src/gd32f4xx_can.c ****             CAN_CTL(can_periph) &= ~CAN_CTL_TFO;
 395              		.loc 1 218 13 is_stmt 1 view .LVU153
 219:../../../support/device/gd32f4xx/peripherals/src/gd32f4xx_can.c ****         }
 220:../../../support/device/gd32f4xx/peripherals/src/gd32f4xx_can.c ****         /* disable initialize mode */
 221:../../../support/device/gd32f4xx/peripherals/src/gd32f4xx_can.c ****         CAN_CTL(can_periph) &= ~CAN_CTL_IWMOD;
 396              		.loc 1 221 9 view .LVU154
 218:../../../support/device/gd32f4xx/peripherals/src/gd32f4xx_can.c ****         }
 397              		.loc 1 218 33 is_stmt 0 view .LVU155
 398 00c6 23F00403 		bicne	r3, r3, #4
 399 00ca 0360     		str	r3, [r0]
 400              		.loc 1 221 29 view .LVU156
ARM GAS  /var/folders/_f/88qcw_5n2jl40jjphvxyt7wh0000gn/T//ccVo6N4q.s 			page 13


 401 00cc 0368     		ldr	r3, [r0]
 402 00ce 23F00103 		bic	r3, r3, #1
 403 00d2 0360     		str	r3, [r0]
 222:../../../support/device/gd32f4xx/peripherals/src/gd32f4xx_can.c ****         timeout = CAN_TIMEOUT;
 404              		.loc 1 222 9 is_stmt 1 view .LVU157
 405              	.LVL12:
 223:../../../support/device/gd32f4xx/peripherals/src/gd32f4xx_can.c ****         /* wait the ACK */
 224:../../../support/device/gd32f4xx/peripherals/src/gd32f4xx_can.c ****         while((CAN_STAT_IWS == (CAN_STAT(can_periph) & CAN_STAT_IWS)) && (0U != timeout)) {
 406              		.loc 1 224 9 view .LVU158
 407              		.loc 1 224 14 view .LVU159
 408              		.loc 1 224 33 is_stmt 0 view .LVU160
 409 00d4 4368     		ldr	r3, [r0, #4]
 410              		.loc 1 224 14 view .LVU161
 411 00d6 DA07     		lsls	r2, r3, #31
 412 00d8 0FD5     		bpl	.L38
 222:../../../support/device/gd32f4xx/peripherals/src/gd32f4xx_can.c ****         timeout = CAN_TIMEOUT;
 413              		.loc 1 222 17 view .LVU162
 414 00da 4FF6FF70 		movw	r0, #65535
 415              	.LVL13:
 222:../../../support/device/gd32f4xx/peripherals/src/gd32f4xx_can.c ****         timeout = CAN_TIMEOUT;
 416              		.loc 1 222 17 view .LVU163
 417 00de 00E0     		b	.L36
 418              	.LVL14:
 419              	.L35:
 420              		.loc 1 224 71 discriminator 1 view .LVU164
 421 00e0 48B1     		cbz	r0, .L37
 422              	.LVL15:
 423              	.L36:
 225:../../../support/device/gd32f4xx/peripherals/src/gd32f4xx_can.c ****             timeout--;
 424              		.loc 1 225 13 is_stmt 1 view .LVU165
 224:../../../support/device/gd32f4xx/peripherals/src/gd32f4xx_can.c ****             timeout--;
 425              		.loc 1 224 33 is_stmt 0 view .LVU166
 426 00e2 DCF80030 		ldr	r3, [ip]
 224:../../../support/device/gd32f4xx/peripherals/src/gd32f4xx_can.c ****             timeout--;
 427              		.loc 1 224 14 view .LVU167
 428 00e6 DB07     		lsls	r3, r3, #31
 429              		.loc 1 225 20 view .LVU168
 430 00e8 00F1FF30 		add	r0, r0, #-1
 431              	.LVL16:
 224:../../../support/device/gd32f4xx/peripherals/src/gd32f4xx_can.c ****             timeout--;
 432              		.loc 1 224 14 is_stmt 1 view .LVU169
 433 00ec F8D4     		bmi	.L35
 175:../../../support/device/gd32f4xx/peripherals/src/gd32f4xx_can.c ****     } else {
 434              		.loc 1 175 14 is_stmt 0 view .LVU170
 435 00ee 0038     		subs	r0, r0, #0
 175:../../../support/device/gd32f4xx/peripherals/src/gd32f4xx_can.c ****     } else {
 436              		.loc 1 175 14 view .LVU171
 437 00f0 18BF     		it	ne
 438 00f2 0120     		movne	r0, #1
 439              	.LVL17:
 175:../../../support/device/gd32f4xx/peripherals/src/gd32f4xx_can.c ****     } else {
 440              		.loc 1 175 14 view .LVU172
 441 00f4 7047     		bx	lr
 442              	.L37:
 175:../../../support/device/gd32f4xx/peripherals/src/gd32f4xx_can.c ****     } else {
 443              		.loc 1 175 14 view .LVU173
 444 00f6 0020     		movs	r0, #0
ARM GAS  /var/folders/_f/88qcw_5n2jl40jjphvxyt7wh0000gn/T//ccVo6N4q.s 			page 14


 445 00f8 7047     		bx	lr
 446              	.LVL18:
 447              	.L38:
 224:../../../support/device/gd32f4xx/peripherals/src/gd32f4xx_can.c ****             timeout--;
 448              		.loc 1 224 14 view .LVU174
 449 00fa 0120     		movs	r0, #1
 450              	.LVL19:
 226:../../../support/device/gd32f4xx/peripherals/src/gd32f4xx_can.c ****         }
 227:../../../support/device/gd32f4xx/peripherals/src/gd32f4xx_can.c ****         /* check exit initialize mode */
 228:../../../support/device/gd32f4xx/peripherals/src/gd32f4xx_can.c ****         if(0U != timeout) {
 451              		.loc 1 228 9 is_stmt 1 view .LVU175
 229:../../../support/device/gd32f4xx/peripherals/src/gd32f4xx_can.c ****             flag = SUCCESS;
 230:../../../support/device/gd32f4xx/peripherals/src/gd32f4xx_can.c ****         }
 231:../../../support/device/gd32f4xx/peripherals/src/gd32f4xx_can.c ****     }
 232:../../../support/device/gd32f4xx/peripherals/src/gd32f4xx_can.c ****     return flag;
 452              		.loc 1 232 5 view .LVU176
 233:../../../support/device/gd32f4xx/peripherals/src/gd32f4xx_can.c **** }
 453              		.loc 1 233 1 is_stmt 0 view .LVU177
 454 00fc 7047     		bx	lr
 455              		.cfi_endproc
 456              	.LFE118:
 458 00fe 00BF     		.section	.text.can_filter_init,"ax",%progbits
 459              		.align	1
 460              		.p2align 2,,3
 461              		.global	can_filter_init
 462              		.syntax unified
 463              		.thumb
 464              		.thumb_func
 466              	can_filter_init:
 467              	.LVL20:
 468              	.LFB119:
 234:../../../support/device/gd32f4xx/peripherals/src/gd32f4xx_can.c **** 
 235:../../../support/device/gd32f4xx/peripherals/src/gd32f4xx_can.c **** /*!
 236:../../../support/device/gd32f4xx/peripherals/src/gd32f4xx_can.c ****     \brief      initialize CAN filter
 237:../../../support/device/gd32f4xx/peripherals/src/gd32f4xx_can.c ****     \param[in]  can_filter_parameter_init: struct for CAN filter initialization
 238:../../../support/device/gd32f4xx/peripherals/src/gd32f4xx_can.c ****       \arg        filter_list_high: 0x0000 - 0xFFFF
 239:../../../support/device/gd32f4xx/peripherals/src/gd32f4xx_can.c ****       \arg        filter_list_low: 0x0000 - 0xFFFF
 240:../../../support/device/gd32f4xx/peripherals/src/gd32f4xx_can.c ****       \arg        filter_mask_high: 0x0000 - 0xFFFF
 241:../../../support/device/gd32f4xx/peripherals/src/gd32f4xx_can.c ****       \arg        filter_mask_low: 0x0000 - 0xFFFF
 242:../../../support/device/gd32f4xx/peripherals/src/gd32f4xx_can.c ****       \arg        filter_fifo_number: CAN_FIFO0, CAN_FIFO1
 243:../../../support/device/gd32f4xx/peripherals/src/gd32f4xx_can.c ****       \arg        filter_number: 0 - 27
 244:../../../support/device/gd32f4xx/peripherals/src/gd32f4xx_can.c ****       \arg        filter_mode: CAN_FILTERMODE_MASK, CAN_FILTERMODE_LIST
 245:../../../support/device/gd32f4xx/peripherals/src/gd32f4xx_can.c ****       \arg        filter_bits: CAN_FILTERBITS_32BIT, CAN_FILTERBITS_16BIT
 246:../../../support/device/gd32f4xx/peripherals/src/gd32f4xx_can.c ****       \arg        filter_enable: ENABLE or DISABLE
 247:../../../support/device/gd32f4xx/peripherals/src/gd32f4xx_can.c ****     \param[out] none
 248:../../../support/device/gd32f4xx/peripherals/src/gd32f4xx_can.c ****     \retval     none
 249:../../../support/device/gd32f4xx/peripherals/src/gd32f4xx_can.c **** */
 250:../../../support/device/gd32f4xx/peripherals/src/gd32f4xx_can.c **** void can_filter_init(can_filter_parameter_struct *can_filter_parameter_init)
 251:../../../support/device/gd32f4xx/peripherals/src/gd32f4xx_can.c **** {
 469              		.loc 1 251 1 is_stmt 1 view -0
 470              		.cfi_startproc
 471              		@ args = 0, pretend = 0, frame = 0
 472              		@ frame_needed = 0, uses_anonymous_args = 0
 473              		@ link register save eliminated.
 252:../../../support/device/gd32f4xx/peripherals/src/gd32f4xx_can.c ****     uint32_t val = 0U;
 474              		.loc 1 252 5 view .LVU179
 253:../../../support/device/gd32f4xx/peripherals/src/gd32f4xx_can.c **** 
ARM GAS  /var/folders/_f/88qcw_5n2jl40jjphvxyt7wh0000gn/T//ccVo6N4q.s 			page 15


 254:../../../support/device/gd32f4xx/peripherals/src/gd32f4xx_can.c ****     val = ((uint32_t)1) << (can_filter_parameter_init->filter_number);
 475              		.loc 1 254 5 view .LVU180
 255:../../../support/device/gd32f4xx/peripherals/src/gd32f4xx_can.c ****     /* filter lock disable */
 256:../../../support/device/gd32f4xx/peripherals/src/gd32f4xx_can.c ****     CAN_FCTL(CAN0) |= CAN_FCTL_FLD;
 476              		.loc 1 256 20 is_stmt 0 view .LVU181
 477 0000 3849     		ldr	r1, .L51
 254:../../../support/device/gd32f4xx/peripherals/src/gd32f4xx_can.c ****     /* filter lock disable */
 478              		.loc 1 254 54 view .LVU182
 479 0002 4389     		ldrh	r3, [r0, #10]
 480              		.loc 1 256 20 view .LVU183
 481 0004 D1F80026 		ldr	r2, [r1, #1536]
 482 0008 42F00102 		orr	r2, r2, #1
 251:../../../support/device/gd32f4xx/peripherals/src/gd32f4xx_can.c ****     uint32_t val = 0U;
 483              		.loc 1 251 1 view .LVU184
 484 000c 10B4     		push	{r4}
 485              	.LCFI4:
 486              		.cfi_def_cfa_offset 4
 487              		.cfi_offset 4, -4
 488              		.loc 1 256 20 view .LVU185
 489 000e C1F80026 		str	r2, [r1, #1536]
 257:../../../support/device/gd32f4xx/peripherals/src/gd32f4xx_can.c ****     /* disable filter */
 258:../../../support/device/gd32f4xx/peripherals/src/gd32f4xx_can.c ****     CAN_FW(CAN0) &= ~(uint32_t)val;
 490              		.loc 1 258 18 view .LVU186
 491 0012 D1F81C46 		ldr	r4, [r1, #1564]
 254:../../../support/device/gd32f4xx/peripherals/src/gd32f4xx_can.c ****     /* filter lock disable */
 492              		.loc 1 254 9 view .LVU187
 493 0016 0122     		movs	r2, #1
 494 0018 9A40     		lsls	r2, r2, r3
 495              	.LVL21:
 256:../../../support/device/gd32f4xx/peripherals/src/gd32f4xx_can.c ****     /* disable filter */
 496              		.loc 1 256 5 is_stmt 1 view .LVU188
 497              		.loc 1 258 5 view .LVU189
 498              		.loc 1 258 18 is_stmt 0 view .LVU190
 499 001a 24EA0204 		bic	r4, r4, r2
 500 001e C1F81C46 		str	r4, [r1, #1564]
 259:../../../support/device/gd32f4xx/peripherals/src/gd32f4xx_can.c **** 
 260:../../../support/device/gd32f4xx/peripherals/src/gd32f4xx_can.c ****     /* filter 16 bits */
 261:../../../support/device/gd32f4xx/peripherals/src/gd32f4xx_can.c ****     if(CAN_FILTERBITS_16BIT == can_filter_parameter_init->filter_bits) {
 501              		.loc 1 261 5 is_stmt 1 view .LVU191
 502              		.loc 1 261 57 is_stmt 0 view .LVU192
 503 0022 C489     		ldrh	r4, [r0, #14]
 258:../../../support/device/gd32f4xx/peripherals/src/gd32f4xx_can.c **** 
 504              		.loc 1 258 21 view .LVU193
 505 0024 6FEA020C 		mvn	ip, r2
 506              		.loc 1 261 7 view .LVU194
 507 0028 002C     		cmp	r4, #0
 508 002a 44D1     		bne	.L43
 262:../../../support/device/gd32f4xx/peripherals/src/gd32f4xx_can.c ****         /* set filter 16 bits */
 263:../../../support/device/gd32f4xx/peripherals/src/gd32f4xx_can.c ****         CAN_FSCFG(CAN0) &= ~(uint32_t)val;
 509              		.loc 1 263 9 is_stmt 1 view .LVU195
 510              		.loc 1 263 25 is_stmt 0 view .LVU196
 511 002c D1F80C46 		ldr	r4, [r1, #1548]
 264:../../../support/device/gd32f4xx/peripherals/src/gd32f4xx_can.c ****         /* first 16 bits list and first 16 bits mask or first 16 bits list and second 16 bits list 
 265:../../../support/device/gd32f4xx/peripherals/src/gd32f4xx_can.c ****         CAN_FDATA0(CAN0, can_filter_parameter_init->filter_number) = \
 512              		.loc 1 265 9 view .LVU197
 513 0030 03F10063 		add	r3, r3, #134217728
 263:../../../support/device/gd32f4xx/peripherals/src/gd32f4xx_can.c ****         /* first 16 bits list and first 16 bits mask or first 16 bits list and second 16 bits list 
ARM GAS  /var/folders/_f/88qcw_5n2jl40jjphvxyt7wh0000gn/T//ccVo6N4q.s 			page 16


 514              		.loc 1 263 25 view .LVU198
 515 0034 0CEA0404 		and	r4, ip, r4
 516 0038 C1F80C46 		str	r4, [r1, #1548]
 517              		.loc 1 265 9 is_stmt 1 view .LVU199
 518 003c 03F6C843 		addw	r3, r3, #3272
 266:../../../support/device/gd32f4xx/peripherals/src/gd32f4xx_can.c ****                 FDATA_MASK_HIGH((can_filter_parameter_init->filter_mask_low) & CAN_FILTER_MASK_16BI
 519              		.loc 1 266 17 is_stmt 0 view .LVU200
 520 0040 C488     		ldrh	r4, [r0, #6]
 267:../../../support/device/gd32f4xx/peripherals/src/gd32f4xx_can.c ****                 FDATA_MASK_LOW((can_filter_parameter_init->filter_list_low) & CAN_FILTER_MASK_16BIT
 521              		.loc 1 267 17 view .LVU201
 522 0042 4188     		ldrh	r1, [r0, #2]
 265:../../../support/device/gd32f4xx/peripherals/src/gd32f4xx_can.c ****                 FDATA_MASK_HIGH((can_filter_parameter_init->filter_mask_low) & CAN_FILTER_MASK_16BI
 523              		.loc 1 265 9 view .LVU202
 524 0044 DB00     		lsls	r3, r3, #3
 266:../../../support/device/gd32f4xx/peripherals/src/gd32f4xx_can.c ****                 FDATA_MASK_HIGH((can_filter_parameter_init->filter_mask_low) & CAN_FILTER_MASK_16BI
 525              		.loc 1 266 104 view .LVU203
 526 0046 41EA0441 		orr	r1, r1, r4, lsl #16
 265:../../../support/device/gd32f4xx/peripherals/src/gd32f4xx_can.c ****                 FDATA_MASK_HIGH((can_filter_parameter_init->filter_mask_low) & CAN_FILTER_MASK_16BI
 527              		.loc 1 265 68 view .LVU204
 528 004a 1960     		str	r1, [r3]
 268:../../../support/device/gd32f4xx/peripherals/src/gd32f4xx_can.c ****         /* second 16 bits list and second 16 bits mask or third 16 bits list and fourth 16 bits lis
 269:../../../support/device/gd32f4xx/peripherals/src/gd32f4xx_can.c ****         CAN_FDATA1(CAN0, can_filter_parameter_init->filter_number) = \
 529              		.loc 1 269 9 is_stmt 1 view .LVU205
 270:../../../support/device/gd32f4xx/peripherals/src/gd32f4xx_can.c ****                 FDATA_MASK_HIGH((can_filter_parameter_init->filter_mask_high) & CAN_FILTER_MASK_16B
 530              		.loc 1 270 17 is_stmt 0 view .LVU206
 531 004c 8488     		ldrh	r4, [r0, #4]
 271:../../../support/device/gd32f4xx/peripherals/src/gd32f4xx_can.c ****                 FDATA_MASK_LOW((can_filter_parameter_init->filter_list_high) & CAN_FILTER_MASK_16BI
 532              		.loc 1 271 17 view .LVU207
 533 004e 0188     		ldrh	r1, [r0]
 270:../../../support/device/gd32f4xx/peripherals/src/gd32f4xx_can.c ****                 FDATA_MASK_HIGH((can_filter_parameter_init->filter_mask_high) & CAN_FILTER_MASK_16B
 534              		.loc 1 270 105 view .LVU208
 535 0050 41EA0441 		orr	r1, r1, r4, lsl #16
 269:../../../support/device/gd32f4xx/peripherals/src/gd32f4xx_can.c ****                 FDATA_MASK_HIGH((can_filter_parameter_init->filter_mask_high) & CAN_FILTER_MASK_16B
 536              		.loc 1 269 68 view .LVU209
 537 0054 5960     		str	r1, [r3, #4]
 272:../../../support/device/gd32f4xx/peripherals/src/gd32f4xx_can.c ****     }
 273:../../../support/device/gd32f4xx/peripherals/src/gd32f4xx_can.c ****     /* filter 32 bits */
 274:../../../support/device/gd32f4xx/peripherals/src/gd32f4xx_can.c ****     if(CAN_FILTERBITS_32BIT == can_filter_parameter_init->filter_bits) {
 538              		.loc 1 274 5 is_stmt 1 view .LVU210
 539              	.L44:
 275:../../../support/device/gd32f4xx/peripherals/src/gd32f4xx_can.c ****         /* set filter 32 bits */
 276:../../../support/device/gd32f4xx/peripherals/src/gd32f4xx_can.c ****         CAN_FSCFG(CAN0) |= (uint32_t)val;
 277:../../../support/device/gd32f4xx/peripherals/src/gd32f4xx_can.c ****         /* 32 bits list or first 32 bits list */
 278:../../../support/device/gd32f4xx/peripherals/src/gd32f4xx_can.c ****         CAN_FDATA0(CAN0, can_filter_parameter_init->filter_number) = \
 279:../../../support/device/gd32f4xx/peripherals/src/gd32f4xx_can.c ****                 FDATA_MASK_HIGH((can_filter_parameter_init->filter_list_high) & CAN_FILTER_MASK_16B
 280:../../../support/device/gd32f4xx/peripherals/src/gd32f4xx_can.c ****                 FDATA_MASK_LOW((can_filter_parameter_init->filter_list_low) & CAN_FILTER_MASK_16BIT
 281:../../../support/device/gd32f4xx/peripherals/src/gd32f4xx_can.c ****         /* 32 bits mask or second 32 bits list */
 282:../../../support/device/gd32f4xx/peripherals/src/gd32f4xx_can.c ****         CAN_FDATA1(CAN0, can_filter_parameter_init->filter_number) = \
 283:../../../support/device/gd32f4xx/peripherals/src/gd32f4xx_can.c ****                 FDATA_MASK_HIGH((can_filter_parameter_init->filter_mask_high) & CAN_FILTER_MASK_16B
 284:../../../support/device/gd32f4xx/peripherals/src/gd32f4xx_can.c ****                 FDATA_MASK_LOW((can_filter_parameter_init->filter_mask_low) & CAN_FILTER_MASK_16BIT
 285:../../../support/device/gd32f4xx/peripherals/src/gd32f4xx_can.c ****     }
 286:../../../support/device/gd32f4xx/peripherals/src/gd32f4xx_can.c **** 
 287:../../../support/device/gd32f4xx/peripherals/src/gd32f4xx_can.c ****     /* filter mode */
 288:../../../support/device/gd32f4xx/peripherals/src/gd32f4xx_can.c ****     if(CAN_FILTERMODE_MASK == can_filter_parameter_init->filter_mode) {
 540              		.loc 1 288 5 view .LVU211
 541              		.loc 1 288 7 is_stmt 0 view .LVU212
 542 0056 8389     		ldrh	r3, [r0, #12]
ARM GAS  /var/folders/_f/88qcw_5n2jl40jjphvxyt7wh0000gn/T//ccVo6N4q.s 			page 17


 289:../../../support/device/gd32f4xx/peripherals/src/gd32f4xx_can.c ****         /* mask mode */
 290:../../../support/device/gd32f4xx/peripherals/src/gd32f4xx_can.c ****         CAN_FMCFG(CAN0) &= ~(uint32_t)val;
 543              		.loc 1 290 25 view .LVU213
 544 0058 2249     		ldr	r1, .L51
 288:../../../support/device/gd32f4xx/peripherals/src/gd32f4xx_can.c ****         /* mask mode */
 545              		.loc 1 288 7 view .LVU214
 546 005a 33BB     		cbnz	r3, .L45
 547              		.loc 1 290 9 is_stmt 1 view .LVU215
 548              		.loc 1 290 25 is_stmt 0 view .LVU216
 549 005c D1F80436 		ldr	r3, [r1, #1540]
 550 0060 0CEA0303 		and	r3, ip, r3
 551 0064 C1F80436 		str	r3, [r1, #1540]
 552              	.L46:
 291:../../../support/device/gd32f4xx/peripherals/src/gd32f4xx_can.c ****     } else {
 292:../../../support/device/gd32f4xx/peripherals/src/gd32f4xx_can.c ****         /* list mode */
 293:../../../support/device/gd32f4xx/peripherals/src/gd32f4xx_can.c ****         CAN_FMCFG(CAN0) |= (uint32_t)val;
 294:../../../support/device/gd32f4xx/peripherals/src/gd32f4xx_can.c ****     }
 295:../../../support/device/gd32f4xx/peripherals/src/gd32f4xx_can.c **** 
 296:../../../support/device/gd32f4xx/peripherals/src/gd32f4xx_can.c ****     /* filter FIFO */
 297:../../../support/device/gd32f4xx/peripherals/src/gd32f4xx_can.c ****     if(CAN_FIFO0 == (can_filter_parameter_init->filter_fifo_number)) {
 553              		.loc 1 297 5 is_stmt 1 view .LVU217
 554              		.loc 1 297 7 is_stmt 0 view .LVU218
 555 0068 0389     		ldrh	r3, [r0, #8]
 298:../../../support/device/gd32f4xx/peripherals/src/gd32f4xx_can.c ****         /* FIFO0 */
 299:../../../support/device/gd32f4xx/peripherals/src/gd32f4xx_can.c ****         CAN_FAFIFO(CAN0) &= ~(uint32_t)val;
 556              		.loc 1 299 26 view .LVU219
 557 006a 1E49     		ldr	r1, .L51
 297:../../../support/device/gd32f4xx/peripherals/src/gd32f4xx_can.c ****         /* FIFO0 */
 558              		.loc 1 297 7 view .LVU220
 559 006c BBB9     		cbnz	r3, .L47
 560              		.loc 1 299 9 is_stmt 1 view .LVU221
 561              		.loc 1 299 26 is_stmt 0 view .LVU222
 562 006e D1F81436 		ldr	r3, [r1, #1556]
 563 0072 0CEA0303 		and	r3, ip, r3
 564 0076 C1F81436 		str	r3, [r1, #1556]
 565              	.L48:
 300:../../../support/device/gd32f4xx/peripherals/src/gd32f4xx_can.c ****     } else {
 301:../../../support/device/gd32f4xx/peripherals/src/gd32f4xx_can.c ****         /* FIFO1 */
 302:../../../support/device/gd32f4xx/peripherals/src/gd32f4xx_can.c ****         CAN_FAFIFO(CAN0) |= (uint32_t)val;
 303:../../../support/device/gd32f4xx/peripherals/src/gd32f4xx_can.c ****     }
 304:../../../support/device/gd32f4xx/peripherals/src/gd32f4xx_can.c **** 
 305:../../../support/device/gd32f4xx/peripherals/src/gd32f4xx_can.c ****     /* filter working */
 306:../../../support/device/gd32f4xx/peripherals/src/gd32f4xx_can.c ****     if(ENABLE == can_filter_parameter_init->filter_enable) {
 566              		.loc 1 306 5 is_stmt 1 view .LVU223
 567              		.loc 1 306 7 is_stmt 0 view .LVU224
 568 007a 037C     		ldrb	r3, [r0, #16]	@ zero_extendqisi2
 569 007c 012B     		cmp	r3, #1
 570 007e 05D1     		bne	.L49
 307:../../../support/device/gd32f4xx/peripherals/src/gd32f4xx_can.c **** 
 308:../../../support/device/gd32f4xx/peripherals/src/gd32f4xx_can.c ****         CAN_FW(CAN0) |= (uint32_t)val;
 571              		.loc 1 308 9 is_stmt 1 view .LVU225
 572              		.loc 1 308 22 is_stmt 0 view .LVU226
 573 0080 1849     		ldr	r1, .L51
 574 0082 D1F81C36 		ldr	r3, [r1, #1564]
 575 0086 1A43     		orrs	r2, r2, r3
 576              	.LVL22:
 577              		.loc 1 308 22 view .LVU227
ARM GAS  /var/folders/_f/88qcw_5n2jl40jjphvxyt7wh0000gn/T//ccVo6N4q.s 			page 18


 578 0088 C1F81C26 		str	r2, [r1, #1564]
 579              	.L49:
 309:../../../support/device/gd32f4xx/peripherals/src/gd32f4xx_can.c ****     }
 310:../../../support/device/gd32f4xx/peripherals/src/gd32f4xx_can.c **** 
 311:../../../support/device/gd32f4xx/peripherals/src/gd32f4xx_can.c ****     /* filter lock enable */
 312:../../../support/device/gd32f4xx/peripherals/src/gd32f4xx_can.c ****     CAN_FCTL(CAN0) &= ~CAN_FCTL_FLD;
 580              		.loc 1 312 5 is_stmt 1 view .LVU228
 581              		.loc 1 312 20 is_stmt 0 view .LVU229
 582 008c 154A     		ldr	r2, .L51
 313:../../../support/device/gd32f4xx/peripherals/src/gd32f4xx_can.c **** }
 583              		.loc 1 313 1 view .LVU230
 584 008e 10BC     		pop	{r4}
 585              	.LCFI5:
 586              		.cfi_remember_state
 587              		.cfi_restore 4
 588              		.cfi_def_cfa_offset 0
 312:../../../support/device/gd32f4xx/peripherals/src/gd32f4xx_can.c **** }
 589              		.loc 1 312 20 view .LVU231
 590 0090 D2F80036 		ldr	r3, [r2, #1536]
 591 0094 23F00103 		bic	r3, r3, #1
 592 0098 C2F80036 		str	r3, [r2, #1536]
 593              		.loc 1 313 1 view .LVU232
 594 009c 7047     		bx	lr
 595              	.LVL23:
 596              	.L47:
 597              	.LCFI6:
 598              		.cfi_restore_state
 302:../../../support/device/gd32f4xx/peripherals/src/gd32f4xx_can.c ****     }
 599              		.loc 1 302 9 is_stmt 1 view .LVU233
 302:../../../support/device/gd32f4xx/peripherals/src/gd32f4xx_can.c ****     }
 600              		.loc 1 302 26 is_stmt 0 view .LVU234
 601 009e D1F81436 		ldr	r3, [r1, #1556]
 602 00a2 1343     		orrs	r3, r3, r2
 603 00a4 C1F81436 		str	r3, [r1, #1556]
 604 00a8 E7E7     		b	.L48
 605              	.L45:
 293:../../../support/device/gd32f4xx/peripherals/src/gd32f4xx_can.c ****     }
 606              		.loc 1 293 9 is_stmt 1 view .LVU235
 293:../../../support/device/gd32f4xx/peripherals/src/gd32f4xx_can.c ****     }
 607              		.loc 1 293 25 is_stmt 0 view .LVU236
 608 00aa D1F80436 		ldr	r3, [r1, #1540]
 609 00ae 1343     		orrs	r3, r3, r2
 610 00b0 C1F80436 		str	r3, [r1, #1540]
 611 00b4 D8E7     		b	.L46
 612              	.L43:
 274:../../../support/device/gd32f4xx/peripherals/src/gd32f4xx_can.c ****         /* set filter 32 bits */
 613              		.loc 1 274 5 is_stmt 1 view .LVU237
 274:../../../support/device/gd32f4xx/peripherals/src/gd32f4xx_can.c ****         /* set filter 32 bits */
 614              		.loc 1 274 7 is_stmt 0 view .LVU238
 615 00b6 012C     		cmp	r4, #1
 616 00b8 CDD1     		bne	.L44
 276:../../../support/device/gd32f4xx/peripherals/src/gd32f4xx_can.c ****         /* 32 bits list or first 32 bits list */
 617              		.loc 1 276 9 is_stmt 1 view .LVU239
 276:../../../support/device/gd32f4xx/peripherals/src/gd32f4xx_can.c ****         /* 32 bits list or first 32 bits list */
 618              		.loc 1 276 25 is_stmt 0 view .LVU240
 619 00ba D1F80C46 		ldr	r4, [r1, #1548]
 278:../../../support/device/gd32f4xx/peripherals/src/gd32f4xx_can.c ****                 FDATA_MASK_HIGH((can_filter_parameter_init->filter_list_high) & CAN_FILTER_MASK_16B
ARM GAS  /var/folders/_f/88qcw_5n2jl40jjphvxyt7wh0000gn/T//ccVo6N4q.s 			page 19


 620              		.loc 1 278 9 view .LVU241
 621 00be 03F10063 		add	r3, r3, #134217728
 276:../../../support/device/gd32f4xx/peripherals/src/gd32f4xx_can.c ****         /* 32 bits list or first 32 bits list */
 622              		.loc 1 276 25 view .LVU242
 623 00c2 1443     		orrs	r4, r4, r2
 624 00c4 C1F80C46 		str	r4, [r1, #1548]
 278:../../../support/device/gd32f4xx/peripherals/src/gd32f4xx_can.c ****                 FDATA_MASK_HIGH((can_filter_parameter_init->filter_list_high) & CAN_FILTER_MASK_16B
 625              		.loc 1 278 9 is_stmt 1 view .LVU243
 626 00c8 03F6C843 		addw	r3, r3, #3272
 279:../../../support/device/gd32f4xx/peripherals/src/gd32f4xx_can.c ****                 FDATA_MASK_LOW((can_filter_parameter_init->filter_list_low) & CAN_FILTER_MASK_16BIT
 627              		.loc 1 279 17 is_stmt 0 view .LVU244
 628 00cc 0488     		ldrh	r4, [r0]
 280:../../../support/device/gd32f4xx/peripherals/src/gd32f4xx_can.c ****         /* 32 bits mask or second 32 bits list */
 629              		.loc 1 280 17 view .LVU245
 630 00ce 4188     		ldrh	r1, [r0, #2]
 278:../../../support/device/gd32f4xx/peripherals/src/gd32f4xx_can.c ****                 FDATA_MASK_HIGH((can_filter_parameter_init->filter_list_high) & CAN_FILTER_MASK_16B
 631              		.loc 1 278 9 view .LVU246
 632 00d0 DB00     		lsls	r3, r3, #3
 279:../../../support/device/gd32f4xx/peripherals/src/gd32f4xx_can.c ****                 FDATA_MASK_LOW((can_filter_parameter_init->filter_list_low) & CAN_FILTER_MASK_16BIT
 633              		.loc 1 279 105 view .LVU247
 634 00d2 41EA0441 		orr	r1, r1, r4, lsl #16
 278:../../../support/device/gd32f4xx/peripherals/src/gd32f4xx_can.c ****                 FDATA_MASK_HIGH((can_filter_parameter_init->filter_list_high) & CAN_FILTER_MASK_16B
 635              		.loc 1 278 68 view .LVU248
 636 00d6 1960     		str	r1, [r3]
 282:../../../support/device/gd32f4xx/peripherals/src/gd32f4xx_can.c ****                 FDATA_MASK_HIGH((can_filter_parameter_init->filter_mask_high) & CAN_FILTER_MASK_16B
 637              		.loc 1 282 9 is_stmt 1 view .LVU249
 283:../../../support/device/gd32f4xx/peripherals/src/gd32f4xx_can.c ****                 FDATA_MASK_LOW((can_filter_parameter_init->filter_mask_low) & CAN_FILTER_MASK_16BIT
 638              		.loc 1 283 17 is_stmt 0 view .LVU250
 639 00d8 8488     		ldrh	r4, [r0, #4]
 284:../../../support/device/gd32f4xx/peripherals/src/gd32f4xx_can.c ****     }
 640              		.loc 1 284 17 view .LVU251
 641 00da C188     		ldrh	r1, [r0, #6]
 283:../../../support/device/gd32f4xx/peripherals/src/gd32f4xx_can.c ****                 FDATA_MASK_LOW((can_filter_parameter_init->filter_mask_low) & CAN_FILTER_MASK_16BIT
 642              		.loc 1 283 105 view .LVU252
 643 00dc 41EA0441 		orr	r1, r1, r4, lsl #16
 282:../../../support/device/gd32f4xx/peripherals/src/gd32f4xx_can.c ****                 FDATA_MASK_HIGH((can_filter_parameter_init->filter_mask_high) & CAN_FILTER_MASK_16B
 644              		.loc 1 282 68 view .LVU253
 645 00e0 5960     		str	r1, [r3, #4]
 646 00e2 B8E7     		b	.L44
 647              	.L52:
 648              		.align	2
 649              	.L51:
 650 00e4 00600040 		.word	1073766400
 651              		.cfi_endproc
 652              	.LFE119:
 654              		.section	.text.can1_filter_start_bank,"ax",%progbits
 655              		.align	1
 656              		.p2align 2,,3
 657              		.global	can1_filter_start_bank
 658              		.syntax unified
 659              		.thumb
 660              		.thumb_func
 662              	can1_filter_start_bank:
 663              	.LVL24:
 664              	.LFB120:
 314:../../../support/device/gd32f4xx/peripherals/src/gd32f4xx_can.c **** 
 315:../../../support/device/gd32f4xx/peripherals/src/gd32f4xx_can.c **** /*!
ARM GAS  /var/folders/_f/88qcw_5n2jl40jjphvxyt7wh0000gn/T//ccVo6N4q.s 			page 20


 316:../../../support/device/gd32f4xx/peripherals/src/gd32f4xx_can.c ****     \brief      set CAN1 filter start bank number
 317:../../../support/device/gd32f4xx/peripherals/src/gd32f4xx_can.c ****     \param[in]  start_bank: CAN1 start bank number
 318:../../../support/device/gd32f4xx/peripherals/src/gd32f4xx_can.c ****                 only one parameter can be selected which is shown as below:
 319:../../../support/device/gd32f4xx/peripherals/src/gd32f4xx_can.c ****       \arg        (1..27)
 320:../../../support/device/gd32f4xx/peripherals/src/gd32f4xx_can.c ****     \param[out] none
 321:../../../support/device/gd32f4xx/peripherals/src/gd32f4xx_can.c ****     \retval     none
 322:../../../support/device/gd32f4xx/peripherals/src/gd32f4xx_can.c **** */
 323:../../../support/device/gd32f4xx/peripherals/src/gd32f4xx_can.c **** void can1_filter_start_bank(uint8_t start_bank)
 324:../../../support/device/gd32f4xx/peripherals/src/gd32f4xx_can.c **** {
 665              		.loc 1 324 1 is_stmt 1 view -0
 666              		.cfi_startproc
 667              		@ args = 0, pretend = 0, frame = 0
 668              		@ frame_needed = 0, uses_anonymous_args = 0
 669              		@ link register save eliminated.
 325:../../../support/device/gd32f4xx/peripherals/src/gd32f4xx_can.c ****     /* filter lock disable */
 326:../../../support/device/gd32f4xx/peripherals/src/gd32f4xx_can.c ****     CAN_FCTL(CAN0) |= CAN_FCTL_FLD;
 670              		.loc 1 326 5 view .LVU255
 671              		.loc 1 326 20 is_stmt 0 view .LVU256
 672 0000 0D4B     		ldr	r3, .L54
 673 0002 D3F80026 		ldr	r2, [r3, #1536]
 674 0006 42F00102 		orr	r2, r2, #1
 675 000a C3F80026 		str	r2, [r3, #1536]
 327:../../../support/device/gd32f4xx/peripherals/src/gd32f4xx_can.c ****     /* set CAN1 filter start number */
 328:../../../support/device/gd32f4xx/peripherals/src/gd32f4xx_can.c ****     CAN_FCTL(CAN0) &= ~(uint32_t)CAN_FCTL_HBC1F;
 676              		.loc 1 328 5 is_stmt 1 view .LVU257
 677              		.loc 1 328 20 is_stmt 0 view .LVU258
 678 000e D3F80026 		ldr	r2, [r3, #1536]
 679 0012 22F47C52 		bic	r2, r2, #16128
 680 0016 C3F80026 		str	r2, [r3, #1536]
 329:../../../support/device/gd32f4xx/peripherals/src/gd32f4xx_can.c ****     CAN_FCTL(CAN0) |= FCTL_HBC1F(start_bank);
 681              		.loc 1 329 5 is_stmt 1 view .LVU259
 682              		.loc 1 329 20 is_stmt 0 view .LVU260
 683 001a D3F80026 		ldr	r2, [r3, #1536]
 684              		.loc 1 329 23 view .LVU261
 685 001e 0002     		lsls	r0, r0, #8
 686              	.LVL25:
 687              		.loc 1 329 23 view .LVU262
 688 0020 00F47C50 		and	r0, r0, #16128
 689              		.loc 1 329 20 view .LVU263
 690 0024 1043     		orrs	r0, r0, r2
 691 0026 C3F80006 		str	r0, [r3, #1536]
 330:../../../support/device/gd32f4xx/peripherals/src/gd32f4xx_can.c ****     /* filter lock enable */
 331:../../../support/device/gd32f4xx/peripherals/src/gd32f4xx_can.c ****     CAN_FCTL(CAN0) &= ~CAN_FCTL_FLD;
 692              		.loc 1 331 5 is_stmt 1 view .LVU264
 693              		.loc 1 331 20 is_stmt 0 view .LVU265
 694 002a D3F80026 		ldr	r2, [r3, #1536]
 695 002e 22F00102 		bic	r2, r2, #1
 696 0032 C3F80026 		str	r2, [r3, #1536]
 332:../../../support/device/gd32f4xx/peripherals/src/gd32f4xx_can.c **** }
 697              		.loc 1 332 1 view .LVU266
 698 0036 7047     		bx	lr
 699              	.L55:
 700              		.align	2
 701              	.L54:
 702 0038 00600040 		.word	1073766400
 703              		.cfi_endproc
 704              	.LFE120:
ARM GAS  /var/folders/_f/88qcw_5n2jl40jjphvxyt7wh0000gn/T//ccVo6N4q.s 			page 21


 706              		.section	.text.can_debug_freeze_enable,"ax",%progbits
 707              		.align	1
 708              		.p2align 2,,3
 709              		.global	can_debug_freeze_enable
 710              		.syntax unified
 711              		.thumb
 712              		.thumb_func
 714              	can_debug_freeze_enable:
 715              	.LVL26:
 716              	.LFB121:
 333:../../../support/device/gd32f4xx/peripherals/src/gd32f4xx_can.c **** 
 334:../../../support/device/gd32f4xx/peripherals/src/gd32f4xx_can.c **** /*!
 335:../../../support/device/gd32f4xx/peripherals/src/gd32f4xx_can.c ****     \brief      enable CAN debug freeze
 336:../../../support/device/gd32f4xx/peripherals/src/gd32f4xx_can.c ****     \param[in]  can_periph
 337:../../../support/device/gd32f4xx/peripherals/src/gd32f4xx_can.c ****       \arg        CANx(x=0,1)
 338:../../../support/device/gd32f4xx/peripherals/src/gd32f4xx_can.c ****     \param[out] none
 339:../../../support/device/gd32f4xx/peripherals/src/gd32f4xx_can.c ****     \retval     none
 340:../../../support/device/gd32f4xx/peripherals/src/gd32f4xx_can.c **** */
 341:../../../support/device/gd32f4xx/peripherals/src/gd32f4xx_can.c **** void can_debug_freeze_enable(uint32_t can_periph)
 342:../../../support/device/gd32f4xx/peripherals/src/gd32f4xx_can.c **** {
 717              		.loc 1 342 1 is_stmt 1 view -0
 718              		.cfi_startproc
 719              		@ args = 0, pretend = 0, frame = 0
 720              		@ frame_needed = 0, uses_anonymous_args = 0
 721              		@ link register save eliminated.
 343:../../../support/device/gd32f4xx/peripherals/src/gd32f4xx_can.c ****     /* set DFZ bit */
 344:../../../support/device/gd32f4xx/peripherals/src/gd32f4xx_can.c ****     CAN_CTL(can_periph) |= CAN_CTL_DFZ;
 722              		.loc 1 344 5 view .LVU268
 723              		.loc 1 344 25 is_stmt 0 view .LVU269
 724 0000 0368     		ldr	r3, [r0]
 345:../../../support/device/gd32f4xx/peripherals/src/gd32f4xx_can.c **** 
 346:../../../support/device/gd32f4xx/peripherals/src/gd32f4xx_can.c ****     if(CAN0 == can_periph) {
 725              		.loc 1 346 7 view .LVU270
 726 0002 074A     		ldr	r2, .L59
 344:../../../support/device/gd32f4xx/peripherals/src/gd32f4xx_can.c **** 
 727              		.loc 1 344 25 view .LVU271
 728 0004 43F48033 		orr	r3, r3, #65536
 729              		.loc 1 346 7 view .LVU272
 730 0008 9042     		cmp	r0, r2
 344:../../../support/device/gd32f4xx/peripherals/src/gd32f4xx_can.c **** 
 731              		.loc 1 344 25 view .LVU273
 732 000a 0360     		str	r3, [r0]
 733              		.loc 1 346 5 is_stmt 1 view .LVU274
 734              		.loc 1 346 7 is_stmt 0 view .LVU275
 735 000c 03D0     		beq	.L58
 347:../../../support/device/gd32f4xx/peripherals/src/gd32f4xx_can.c ****         dbg_periph_enable(DBG_CAN0_HOLD);
 348:../../../support/device/gd32f4xx/peripherals/src/gd32f4xx_can.c ****     } else {
 349:../../../support/device/gd32f4xx/peripherals/src/gd32f4xx_can.c ****         dbg_periph_enable(DBG_CAN1_HOLD);
 736              		.loc 1 349 9 is_stmt 1 view .LVU276
 737 000e 40F21A20 		movw	r0, #538
 738              	.LVL27:
 739              		.loc 1 349 9 is_stmt 0 view .LVU277
 740 0012 FFF7FEBF 		b	dbg_periph_enable
 741              	.LVL28:
 742              	.L58:
 347:../../../support/device/gd32f4xx/peripherals/src/gd32f4xx_can.c ****         dbg_periph_enable(DBG_CAN0_HOLD);
 743              		.loc 1 347 9 is_stmt 1 view .LVU278
ARM GAS  /var/folders/_f/88qcw_5n2jl40jjphvxyt7wh0000gn/T//ccVo6N4q.s 			page 22


 744 0016 40F21920 		movw	r0, #537
 745              	.LVL29:
 347:../../../support/device/gd32f4xx/peripherals/src/gd32f4xx_can.c ****         dbg_periph_enable(DBG_CAN0_HOLD);
 746              		.loc 1 347 9 is_stmt 0 view .LVU279
 747 001a FFF7FEBF 		b	dbg_periph_enable
 748              	.LVL30:
 749              	.L60:
 750 001e 00BF     		.align	2
 751              	.L59:
 752 0020 00640040 		.word	1073767424
 753              		.cfi_endproc
 754              	.LFE121:
 756              		.section	.text.can_debug_freeze_disable,"ax",%progbits
 757              		.align	1
 758              		.p2align 2,,3
 759              		.global	can_debug_freeze_disable
 760              		.syntax unified
 761              		.thumb
 762              		.thumb_func
 764              	can_debug_freeze_disable:
 765              	.LVL31:
 766              	.LFB122:
 350:../../../support/device/gd32f4xx/peripherals/src/gd32f4xx_can.c ****     }
 351:../../../support/device/gd32f4xx/peripherals/src/gd32f4xx_can.c **** }
 352:../../../support/device/gd32f4xx/peripherals/src/gd32f4xx_can.c **** 
 353:../../../support/device/gd32f4xx/peripherals/src/gd32f4xx_can.c **** /*!
 354:../../../support/device/gd32f4xx/peripherals/src/gd32f4xx_can.c ****     \brief      disable CAN debug freeze
 355:../../../support/device/gd32f4xx/peripherals/src/gd32f4xx_can.c ****     \param[in]  can_periph
 356:../../../support/device/gd32f4xx/peripherals/src/gd32f4xx_can.c ****       \arg        CANx(x=0,1)
 357:../../../support/device/gd32f4xx/peripherals/src/gd32f4xx_can.c ****     \param[out] none
 358:../../../support/device/gd32f4xx/peripherals/src/gd32f4xx_can.c ****     \retval     none
 359:../../../support/device/gd32f4xx/peripherals/src/gd32f4xx_can.c **** */
 360:../../../support/device/gd32f4xx/peripherals/src/gd32f4xx_can.c **** void can_debug_freeze_disable(uint32_t can_periph)
 361:../../../support/device/gd32f4xx/peripherals/src/gd32f4xx_can.c **** {
 767              		.loc 1 361 1 is_stmt 1 view -0
 768              		.cfi_startproc
 769              		@ args = 0, pretend = 0, frame = 0
 770              		@ frame_needed = 0, uses_anonymous_args = 0
 771              		@ link register save eliminated.
 362:../../../support/device/gd32f4xx/peripherals/src/gd32f4xx_can.c ****     /* set DFZ bit */
 363:../../../support/device/gd32f4xx/peripherals/src/gd32f4xx_can.c ****     CAN_CTL(can_periph) &= ~CAN_CTL_DFZ;
 772              		.loc 1 363 5 view .LVU281
 773              		.loc 1 363 25 is_stmt 0 view .LVU282
 774 0000 0368     		ldr	r3, [r0]
 364:../../../support/device/gd32f4xx/peripherals/src/gd32f4xx_can.c **** 
 365:../../../support/device/gd32f4xx/peripherals/src/gd32f4xx_can.c ****     if(CAN0 == can_periph) {
 775              		.loc 1 365 7 view .LVU283
 776 0002 074A     		ldr	r2, .L64
 363:../../../support/device/gd32f4xx/peripherals/src/gd32f4xx_can.c **** 
 777              		.loc 1 363 25 view .LVU284
 778 0004 23F48033 		bic	r3, r3, #65536
 779              		.loc 1 365 7 view .LVU285
 780 0008 9042     		cmp	r0, r2
 363:../../../support/device/gd32f4xx/peripherals/src/gd32f4xx_can.c **** 
 781              		.loc 1 363 25 view .LVU286
 782 000a 0360     		str	r3, [r0]
 783              		.loc 1 365 5 is_stmt 1 view .LVU287
ARM GAS  /var/folders/_f/88qcw_5n2jl40jjphvxyt7wh0000gn/T//ccVo6N4q.s 			page 23


 784              		.loc 1 365 7 is_stmt 0 view .LVU288
 785 000c 03D0     		beq	.L63
 366:../../../support/device/gd32f4xx/peripherals/src/gd32f4xx_can.c ****         dbg_periph_disable(DBG_CAN0_HOLD);
 367:../../../support/device/gd32f4xx/peripherals/src/gd32f4xx_can.c ****     } else {
 368:../../../support/device/gd32f4xx/peripherals/src/gd32f4xx_can.c ****         dbg_periph_disable(DBG_CAN1_HOLD);
 786              		.loc 1 368 9 is_stmt 1 view .LVU289
 787 000e 40F21A20 		movw	r0, #538
 788              	.LVL32:
 789              		.loc 1 368 9 is_stmt 0 view .LVU290
 790 0012 FFF7FEBF 		b	dbg_periph_disable
 791              	.LVL33:
 792              	.L63:
 366:../../../support/device/gd32f4xx/peripherals/src/gd32f4xx_can.c ****         dbg_periph_disable(DBG_CAN0_HOLD);
 793              		.loc 1 366 9 is_stmt 1 view .LVU291
 794 0016 40F21920 		movw	r0, #537
 795              	.LVL34:
 366:../../../support/device/gd32f4xx/peripherals/src/gd32f4xx_can.c ****         dbg_periph_disable(DBG_CAN0_HOLD);
 796              		.loc 1 366 9 is_stmt 0 view .LVU292
 797 001a FFF7FEBF 		b	dbg_periph_disable
 798              	.LVL35:
 799              	.L65:
 800 001e 00BF     		.align	2
 801              	.L64:
 802 0020 00640040 		.word	1073767424
 803              		.cfi_endproc
 804              	.LFE122:
 806              		.section	.text.can_time_trigger_mode_enable,"ax",%progbits
 807              		.align	1
 808              		.p2align 2,,3
 809              		.global	can_time_trigger_mode_enable
 810              		.syntax unified
 811              		.thumb
 812              		.thumb_func
 814              	can_time_trigger_mode_enable:
 815              	.LVL36:
 816              	.LFB123:
 369:../../../support/device/gd32f4xx/peripherals/src/gd32f4xx_can.c ****     }
 370:../../../support/device/gd32f4xx/peripherals/src/gd32f4xx_can.c **** }
 371:../../../support/device/gd32f4xx/peripherals/src/gd32f4xx_can.c **** 
 372:../../../support/device/gd32f4xx/peripherals/src/gd32f4xx_can.c **** /*!
 373:../../../support/device/gd32f4xx/peripherals/src/gd32f4xx_can.c ****     \brief      enable CAN time trigger mode
 374:../../../support/device/gd32f4xx/peripherals/src/gd32f4xx_can.c ****     \param[in]  can_periph
 375:../../../support/device/gd32f4xx/peripherals/src/gd32f4xx_can.c ****       \arg        CANx(x=0,1)
 376:../../../support/device/gd32f4xx/peripherals/src/gd32f4xx_can.c ****     \param[out] none
 377:../../../support/device/gd32f4xx/peripherals/src/gd32f4xx_can.c ****     \retval     none
 378:../../../support/device/gd32f4xx/peripherals/src/gd32f4xx_can.c **** */
 379:../../../support/device/gd32f4xx/peripherals/src/gd32f4xx_can.c **** void can_time_trigger_mode_enable(uint32_t can_periph)
 380:../../../support/device/gd32f4xx/peripherals/src/gd32f4xx_can.c **** {
 817              		.loc 1 380 1 is_stmt 1 view -0
 818              		.cfi_startproc
 819              		@ args = 0, pretend = 0, frame = 0
 820              		@ frame_needed = 0, uses_anonymous_args = 0
 821              		@ link register save eliminated.
 381:../../../support/device/gd32f4xx/peripherals/src/gd32f4xx_can.c ****     uint8_t mailbox_number;
 822              		.loc 1 381 5 view .LVU294
 382:../../../support/device/gd32f4xx/peripherals/src/gd32f4xx_can.c **** 
 383:../../../support/device/gd32f4xx/peripherals/src/gd32f4xx_can.c ****     /* enable the TTC mode */
ARM GAS  /var/folders/_f/88qcw_5n2jl40jjphvxyt7wh0000gn/T//ccVo6N4q.s 			page 24


 384:../../../support/device/gd32f4xx/peripherals/src/gd32f4xx_can.c ****     CAN_CTL(can_periph) |= CAN_CTL_TTC;
 823              		.loc 1 384 5 view .LVU295
 824              		.loc 1 384 25 is_stmt 0 view .LVU296
 825 0000 0368     		ldr	r3, [r0]
 826 0002 43F08003 		orr	r3, r3, #128
 827 0006 0360     		str	r3, [r0]
 385:../../../support/device/gd32f4xx/peripherals/src/gd32f4xx_can.c ****     /* enable time stamp */
 386:../../../support/device/gd32f4xx/peripherals/src/gd32f4xx_can.c ****     for(mailbox_number = 0U; mailbox_number < 3U; mailbox_number++) {
 828              		.loc 1 386 5 is_stmt 1 view .LVU297
 829              	.LVL37:
 830              		.loc 1 386 30 view .LVU298
 387:../../../support/device/gd32f4xx/peripherals/src/gd32f4xx_can.c ****         CAN_TMP(can_periph, mailbox_number) |= CAN_TMP_TSEN;
 831              		.loc 1 387 9 view .LVU299
 832              		.loc 1 387 45 is_stmt 0 view .LVU300
 833 0008 D0F88431 		ldr	r3, [r0, #388]
 834 000c 43F48073 		orr	r3, r3, #256
 835 0010 C0F88431 		str	r3, [r0, #388]
 386:../../../support/device/gd32f4xx/peripherals/src/gd32f4xx_can.c ****         CAN_TMP(can_periph, mailbox_number) |= CAN_TMP_TSEN;
 836              		.loc 1 386 51 is_stmt 1 view .LVU301
 837              	.LVL38:
 386:../../../support/device/gd32f4xx/peripherals/src/gd32f4xx_can.c ****         CAN_TMP(can_periph, mailbox_number) |= CAN_TMP_TSEN;
 838              		.loc 1 386 30 view .LVU302
 839              		.loc 1 387 9 view .LVU303
 840              		.loc 1 387 45 is_stmt 0 view .LVU304
 841 0014 D0F89431 		ldr	r3, [r0, #404]
 842 0018 43F48073 		orr	r3, r3, #256
 843 001c C0F89431 		str	r3, [r0, #404]
 386:../../../support/device/gd32f4xx/peripherals/src/gd32f4xx_can.c ****         CAN_TMP(can_periph, mailbox_number) |= CAN_TMP_TSEN;
 844              		.loc 1 386 51 is_stmt 1 view .LVU305
 845              	.LVL39:
 386:../../../support/device/gd32f4xx/peripherals/src/gd32f4xx_can.c ****         CAN_TMP(can_periph, mailbox_number) |= CAN_TMP_TSEN;
 846              		.loc 1 386 30 view .LVU306
 847              		.loc 1 387 9 view .LVU307
 848              		.loc 1 387 45 is_stmt 0 view .LVU308
 849 0020 D0F8A431 		ldr	r3, [r0, #420]
 850 0024 43F48073 		orr	r3, r3, #256
 851 0028 C0F8A431 		str	r3, [r0, #420]
 386:../../../support/device/gd32f4xx/peripherals/src/gd32f4xx_can.c ****         CAN_TMP(can_periph, mailbox_number) |= CAN_TMP_TSEN;
 852              		.loc 1 386 51 is_stmt 1 view .LVU309
 853              	.LVL40:
 386:../../../support/device/gd32f4xx/peripherals/src/gd32f4xx_can.c ****         CAN_TMP(can_periph, mailbox_number) |= CAN_TMP_TSEN;
 854              		.loc 1 386 30 view .LVU310
 388:../../../support/device/gd32f4xx/peripherals/src/gd32f4xx_can.c ****     }
 389:../../../support/device/gd32f4xx/peripherals/src/gd32f4xx_can.c **** }
 855              		.loc 1 389 1 is_stmt 0 view .LVU311
 856 002c 7047     		bx	lr
 857              		.cfi_endproc
 858              	.LFE123:
 860 002e 00BF     		.section	.text.can_time_trigger_mode_disable,"ax",%progbits
 861              		.align	1
 862              		.p2align 2,,3
 863              		.global	can_time_trigger_mode_disable
 864              		.syntax unified
 865              		.thumb
 866              		.thumb_func
 868              	can_time_trigger_mode_disable:
 869              	.LVL41:
ARM GAS  /var/folders/_f/88qcw_5n2jl40jjphvxyt7wh0000gn/T//ccVo6N4q.s 			page 25


 870              	.LFB124:
 390:../../../support/device/gd32f4xx/peripherals/src/gd32f4xx_can.c **** 
 391:../../../support/device/gd32f4xx/peripherals/src/gd32f4xx_can.c **** /*!
 392:../../../support/device/gd32f4xx/peripherals/src/gd32f4xx_can.c ****     \brief      disable CAN time trigger mode
 393:../../../support/device/gd32f4xx/peripherals/src/gd32f4xx_can.c ****     \param[in]  can_periph
 394:../../../support/device/gd32f4xx/peripherals/src/gd32f4xx_can.c ****       \arg        CANx(x=0,1)
 395:../../../support/device/gd32f4xx/peripherals/src/gd32f4xx_can.c ****     \param[out] none
 396:../../../support/device/gd32f4xx/peripherals/src/gd32f4xx_can.c ****     \retval     none
 397:../../../support/device/gd32f4xx/peripherals/src/gd32f4xx_can.c **** */
 398:../../../support/device/gd32f4xx/peripherals/src/gd32f4xx_can.c **** void can_time_trigger_mode_disable(uint32_t can_periph)
 399:../../../support/device/gd32f4xx/peripherals/src/gd32f4xx_can.c **** {
 871              		.loc 1 399 1 is_stmt 1 view -0
 872              		.cfi_startproc
 873              		@ args = 0, pretend = 0, frame = 0
 874              		@ frame_needed = 0, uses_anonymous_args = 0
 875              		@ link register save eliminated.
 400:../../../support/device/gd32f4xx/peripherals/src/gd32f4xx_can.c ****     uint8_t mailbox_number;
 876              		.loc 1 400 5 view .LVU313
 401:../../../support/device/gd32f4xx/peripherals/src/gd32f4xx_can.c **** 
 402:../../../support/device/gd32f4xx/peripherals/src/gd32f4xx_can.c ****     /* disable the TTC mode */
 403:../../../support/device/gd32f4xx/peripherals/src/gd32f4xx_can.c ****     CAN_CTL(can_periph) &= ~CAN_CTL_TTC;
 877              		.loc 1 403 5 view .LVU314
 878              		.loc 1 403 25 is_stmt 0 view .LVU315
 879 0000 0368     		ldr	r3, [r0]
 880 0002 23F08003 		bic	r3, r3, #128
 881 0006 0360     		str	r3, [r0]
 404:../../../support/device/gd32f4xx/peripherals/src/gd32f4xx_can.c ****     /* reset TSEN bits */
 405:../../../support/device/gd32f4xx/peripherals/src/gd32f4xx_can.c ****     for(mailbox_number = 0U; mailbox_number < 3U; mailbox_number++) {
 882              		.loc 1 405 5 is_stmt 1 view .LVU316
 883              	.LVL42:
 884              		.loc 1 405 30 view .LVU317
 406:../../../support/device/gd32f4xx/peripherals/src/gd32f4xx_can.c ****         CAN_TMP(can_periph, mailbox_number) &= ~CAN_TMP_TSEN;
 885              		.loc 1 406 9 view .LVU318
 886              		.loc 1 406 45 is_stmt 0 view .LVU319
 887 0008 D0F88431 		ldr	r3, [r0, #388]
 888 000c 23F48073 		bic	r3, r3, #256
 889 0010 C0F88431 		str	r3, [r0, #388]
 405:../../../support/device/gd32f4xx/peripherals/src/gd32f4xx_can.c ****         CAN_TMP(can_periph, mailbox_number) &= ~CAN_TMP_TSEN;
 890              		.loc 1 405 51 is_stmt 1 view .LVU320
 891              	.LVL43:
 405:../../../support/device/gd32f4xx/peripherals/src/gd32f4xx_can.c ****         CAN_TMP(can_periph, mailbox_number) &= ~CAN_TMP_TSEN;
 892              		.loc 1 405 30 view .LVU321
 893              		.loc 1 406 9 view .LVU322
 894              		.loc 1 406 45 is_stmt 0 view .LVU323
 895 0014 D0F89431 		ldr	r3, [r0, #404]
 896 0018 23F48073 		bic	r3, r3, #256
 897 001c C0F89431 		str	r3, [r0, #404]
 405:../../../support/device/gd32f4xx/peripherals/src/gd32f4xx_can.c ****         CAN_TMP(can_periph, mailbox_number) &= ~CAN_TMP_TSEN;
 898              		.loc 1 405 51 is_stmt 1 view .LVU324
 899              	.LVL44:
 405:../../../support/device/gd32f4xx/peripherals/src/gd32f4xx_can.c ****         CAN_TMP(can_periph, mailbox_number) &= ~CAN_TMP_TSEN;
 900              		.loc 1 405 30 view .LVU325
 901              		.loc 1 406 9 view .LVU326
 902              		.loc 1 406 45 is_stmt 0 view .LVU327
 903 0020 D0F8A431 		ldr	r3, [r0, #420]
 904 0024 23F48073 		bic	r3, r3, #256
 905 0028 C0F8A431 		str	r3, [r0, #420]
ARM GAS  /var/folders/_f/88qcw_5n2jl40jjphvxyt7wh0000gn/T//ccVo6N4q.s 			page 26


 405:../../../support/device/gd32f4xx/peripherals/src/gd32f4xx_can.c ****         CAN_TMP(can_periph, mailbox_number) &= ~CAN_TMP_TSEN;
 906              		.loc 1 405 51 is_stmt 1 view .LVU328
 907              	.LVL45:
 405:../../../support/device/gd32f4xx/peripherals/src/gd32f4xx_can.c ****         CAN_TMP(can_periph, mailbox_number) &= ~CAN_TMP_TSEN;
 908              		.loc 1 405 30 view .LVU329
 407:../../../support/device/gd32f4xx/peripherals/src/gd32f4xx_can.c ****     }
 408:../../../support/device/gd32f4xx/peripherals/src/gd32f4xx_can.c **** }
 909              		.loc 1 408 1 is_stmt 0 view .LVU330
 910 002c 7047     		bx	lr
 911              		.cfi_endproc
 912              	.LFE124:
 914 002e 00BF     		.section	.text.can_message_transmit,"ax",%progbits
 915              		.align	1
 916              		.p2align 2,,3
 917              		.global	can_message_transmit
 918              		.syntax unified
 919              		.thumb
 920              		.thumb_func
 922              	can_message_transmit:
 923              	.LVL46:
 924              	.LFB125:
 409:../../../support/device/gd32f4xx/peripherals/src/gd32f4xx_can.c **** 
 410:../../../support/device/gd32f4xx/peripherals/src/gd32f4xx_can.c **** /*!
 411:../../../support/device/gd32f4xx/peripherals/src/gd32f4xx_can.c ****     \brief      transmit CAN message
 412:../../../support/device/gd32f4xx/peripherals/src/gd32f4xx_can.c ****     \param[in]  can_periph
 413:../../../support/device/gd32f4xx/peripherals/src/gd32f4xx_can.c ****       \arg        CANx(x=0,1)
 414:../../../support/device/gd32f4xx/peripherals/src/gd32f4xx_can.c ****     \param[in]  transmit_message: struct for CAN transmit message
 415:../../../support/device/gd32f4xx/peripherals/src/gd32f4xx_can.c ****       \arg        tx_sfid: 0x00000000 - 0x000007FF
 416:../../../support/device/gd32f4xx/peripherals/src/gd32f4xx_can.c ****       \arg        tx_efid: 0x00000000 - 0x1FFFFFFF
 417:../../../support/device/gd32f4xx/peripherals/src/gd32f4xx_can.c ****       \arg        tx_ff: CAN_FF_STANDARD, CAN_FF_EXTENDED
 418:../../../support/device/gd32f4xx/peripherals/src/gd32f4xx_can.c ****       \arg        tx_ft: CAN_FT_DATA, CAN_FT_REMOTE
 419:../../../support/device/gd32f4xx/peripherals/src/gd32f4xx_can.c ****       \arg        tx_dlen: 0 - 8
 420:../../../support/device/gd32f4xx/peripherals/src/gd32f4xx_can.c ****       \arg        tx_data[]: 0x00 - 0xFF
 421:../../../support/device/gd32f4xx/peripherals/src/gd32f4xx_can.c ****     \param[out] none
 422:../../../support/device/gd32f4xx/peripherals/src/gd32f4xx_can.c ****     \retval     mailbox_number
 423:../../../support/device/gd32f4xx/peripherals/src/gd32f4xx_can.c **** */
 424:../../../support/device/gd32f4xx/peripherals/src/gd32f4xx_can.c **** uint8_t can_message_transmit(uint32_t can_periph, can_trasnmit_message_struct *transmit_message)
 425:../../../support/device/gd32f4xx/peripherals/src/gd32f4xx_can.c **** {
 925              		.loc 1 425 1 is_stmt 1 view -0
 926              		.cfi_startproc
 927              		@ args = 0, pretend = 0, frame = 0
 928              		@ frame_needed = 0, uses_anonymous_args = 0
 426:../../../support/device/gd32f4xx/peripherals/src/gd32f4xx_can.c ****     uint8_t mailbox_number = CAN_MAILBOX0;
 929              		.loc 1 426 5 view .LVU332
 427:../../../support/device/gd32f4xx/peripherals/src/gd32f4xx_can.c **** 
 428:../../../support/device/gd32f4xx/peripherals/src/gd32f4xx_can.c ****     /* select one empty mailbox */
 429:../../../support/device/gd32f4xx/peripherals/src/gd32f4xx_can.c ****     if(CAN_TSTAT_TME0 == (CAN_TSTAT(can_periph)&CAN_TSTAT_TME0)) {
 930              		.loc 1 429 5 view .LVU333
 931              		.loc 1 429 27 is_stmt 0 view .LVU334
 932 0000 8268     		ldr	r2, [r0, #8]
 933              		.loc 1 429 7 view .LVU335
 934 0002 5201     		lsls	r2, r2, #5
 425:../../../support/device/gd32f4xx/peripherals/src/gd32f4xx_can.c ****     uint8_t mailbox_number = CAN_MAILBOX0;
 935              		.loc 1 425 1 view .LVU336
 936 0004 0346     		mov	r3, r0
 937              		.loc 1 429 7 view .LVU337
 938 0006 05D4     		bmi	.L74
ARM GAS  /var/folders/_f/88qcw_5n2jl40jjphvxyt7wh0000gn/T//ccVo6N4q.s 			page 27


 430:../../../support/device/gd32f4xx/peripherals/src/gd32f4xx_can.c ****         mailbox_number = CAN_MAILBOX0;
 431:../../../support/device/gd32f4xx/peripherals/src/gd32f4xx_can.c ****     } else if(CAN_TSTAT_TME1 == (CAN_TSTAT(can_periph)&CAN_TSTAT_TME1)) {
 939              		.loc 1 431 12 is_stmt 1 view .LVU338
 940              		.loc 1 431 34 is_stmt 0 view .LVU339
 941 0008 8268     		ldr	r2, [r0, #8]
 942              		.loc 1 431 14 view .LVU340
 943 000a 1201     		lsls	r2, r2, #4
 944 000c 3ED5     		bpl	.L70
 432:../../../support/device/gd32f4xx/peripherals/src/gd32f4xx_can.c ****         mailbox_number = CAN_MAILBOX1;
 433:../../../support/device/gd32f4xx/peripherals/src/gd32f4xx_can.c ****     } else if(CAN_TSTAT_TME2 == (CAN_TSTAT(can_periph)&CAN_TSTAT_TME2)) {
 434:../../../support/device/gd32f4xx/peripherals/src/gd32f4xx_can.c ****         mailbox_number = CAN_MAILBOX2;
 435:../../../support/device/gd32f4xx/peripherals/src/gd32f4xx_can.c ****     } else {
 436:../../../support/device/gd32f4xx/peripherals/src/gd32f4xx_can.c ****         mailbox_number = CAN_NOMAILBOX;
 437:../../../support/device/gd32f4xx/peripherals/src/gd32f4xx_can.c ****     }
 438:../../../support/device/gd32f4xx/peripherals/src/gd32f4xx_can.c ****     /* return no mailbox empty */
 439:../../../support/device/gd32f4xx/peripherals/src/gd32f4xx_can.c ****     if(CAN_NOMAILBOX == mailbox_number) {
 440:../../../support/device/gd32f4xx/peripherals/src/gd32f4xx_can.c ****         return CAN_NOMAILBOX;
 441:../../../support/device/gd32f4xx/peripherals/src/gd32f4xx_can.c ****     }
 442:../../../support/device/gd32f4xx/peripherals/src/gd32f4xx_can.c **** 
 443:../../../support/device/gd32f4xx/peripherals/src/gd32f4xx_can.c ****     CAN_TMI(can_periph, mailbox_number) &= CAN_TMI_TEN;
 945              		.loc 1 443 41 view .LVU341
 946 000e 1033     		adds	r3, r3, #16
 432:../../../support/device/gd32f4xx/peripherals/src/gd32f4xx_can.c ****         mailbox_number = CAN_MAILBOX1;
 947              		.loc 1 432 24 view .LVU342
 948 0010 0120     		movs	r0, #1
 949              	.LVL47:
 432:../../../support/device/gd32f4xx/peripherals/src/gd32f4xx_can.c ****         mailbox_number = CAN_MAILBOX1;
 950              		.loc 1 432 24 view .LVU343
 951 0012 00E0     		b	.L69
 952              	.LVL48:
 953              	.L74:
 430:../../../support/device/gd32f4xx/peripherals/src/gd32f4xx_can.c ****         mailbox_number = CAN_MAILBOX0;
 954              		.loc 1 430 24 view .LVU344
 955 0014 0020     		movs	r0, #0
 956              	.LVL49:
 957              	.L69:
 958              		.loc 1 443 5 is_stmt 1 view .LVU345
 959              		.loc 1 443 41 is_stmt 0 view .LVU346
 960 0016 D3F88021 		ldr	r2, [r3, #384]
 961 001a 02F00102 		and	r2, r2, #1
 425:../../../support/device/gd32f4xx/peripherals/src/gd32f4xx_can.c ****     uint8_t mailbox_number = CAN_MAILBOX0;
 962              		.loc 1 425 1 view .LVU347
 963 001e 10B5     		push	{r4, lr}
 964              	.LCFI7:
 965              		.cfi_def_cfa_offset 8
 966              		.cfi_offset 4, -8
 967              		.cfi_offset 14, -4
 968              		.loc 1 443 41 view .LVU348
 969 0020 C3F88021 		str	r2, [r3, #384]
 444:../../../support/device/gd32f4xx/peripherals/src/gd32f4xx_can.c ****     if(CAN_FF_STANDARD == transmit_message->tx_ff) {
 970              		.loc 1 444 5 is_stmt 1 view .LVU349
 971              		.loc 1 444 43 is_stmt 0 view .LVU350
 972 0024 0A7A     		ldrb	r2, [r1, #8]	@ zero_extendqisi2
 443:../../../support/device/gd32f4xx/peripherals/src/gd32f4xx_can.c ****     if(CAN_FF_STANDARD == transmit_message->tx_ff) {
 973              		.loc 1 443 41 view .LVU351
 974 0026 03F5C07C 		add	ip, r3, #384
 975              		.loc 1 444 7 view .LVU352
ARM GAS  /var/folders/_f/88qcw_5n2jl40jjphvxyt7wh0000gn/T//ccVo6N4q.s 			page 28


 976 002a 22B3     		cbz	r2, .L79
 445:../../../support/device/gd32f4xx/peripherals/src/gd32f4xx_can.c ****         /* set transmit mailbox standard identifier */
 446:../../../support/device/gd32f4xx/peripherals/src/gd32f4xx_can.c ****         CAN_TMI(can_periph, mailbox_number) |= (uint32_t)(TMI_SFID(transmit_message->tx_sfid) | \
 447:../../../support/device/gd32f4xx/peripherals/src/gd32f4xx_can.c ****                                                transmit_message->tx_ft);
 448:../../../support/device/gd32f4xx/peripherals/src/gd32f4xx_can.c ****     } else {
 449:../../../support/device/gd32f4xx/peripherals/src/gd32f4xx_can.c ****         /* set transmit mailbox extended identifier */
 450:../../../support/device/gd32f4xx/peripherals/src/gd32f4xx_can.c ****         CAN_TMI(can_periph, mailbox_number) |= (uint32_t)(TMI_EFID(transmit_message->tx_efid) | \
 977              		.loc 1 450 9 is_stmt 1 view .LVU353
 978              		.loc 1 450 59 is_stmt 0 view .LVU354
 979 002c 4C68     		ldr	r4, [r1, #4]
 980              		.loc 1 450 95 view .LVU355
 981 002e 42EAC402 		orr	r2, r2, r4, lsl #3
 451:../../../support/device/gd32f4xx/peripherals/src/gd32f4xx_can.c ****                                                transmit_message->tx_ff | \
 452:../../../support/device/gd32f4xx/peripherals/src/gd32f4xx_can.c ****                                                transmit_message->tx_ft);
 982              		.loc 1 452 64 view .LVU356
 983 0032 4C7A     		ldrb	r4, [r1, #9]	@ zero_extendqisi2
 450:../../../support/device/gd32f4xx/peripherals/src/gd32f4xx_can.c ****                                                transmit_message->tx_ff | \
 984              		.loc 1 450 48 view .LVU357
 985 0034 2243     		orrs	r2, r2, r4
 450:../../../support/device/gd32f4xx/peripherals/src/gd32f4xx_can.c ****                                                transmit_message->tx_ff | \
 986              		.loc 1 450 45 view .LVU358
 987 0036 D3F88041 		ldr	r4, [r3, #384]
 988 003a 2243     		orrs	r2, r2, r4
 989 003c C3F88021 		str	r2, [r3, #384]
 990              	.L73:
 453:../../../support/device/gd32f4xx/peripherals/src/gd32f4xx_can.c ****     }
 454:../../../support/device/gd32f4xx/peripherals/src/gd32f4xx_can.c ****     /* set the data length */
 455:../../../support/device/gd32f4xx/peripherals/src/gd32f4xx_can.c ****     CAN_TMP(can_periph, mailbox_number) &= ~CAN_TMP_DLENC;
 991              		.loc 1 455 5 is_stmt 1 view .LVU359
 992              		.loc 1 455 41 is_stmt 0 view .LVU360
 993 0040 D3F88421 		ldr	r2, [r3, #388]
 994 0044 22F00F02 		bic	r2, r2, #15
 995 0048 C3F88421 		str	r2, [r3, #388]
 456:../../../support/device/gd32f4xx/peripherals/src/gd32f4xx_can.c ****     CAN_TMP(can_periph, mailbox_number) |= transmit_message->tx_dlen;
 996              		.loc 1 456 5 is_stmt 1 view .LVU361
 997              		.loc 1 456 41 is_stmt 0 view .LVU362
 998 004c D3F88441 		ldr	r4, [r3, #388]
 999              		.loc 1 456 60 view .LVU363
 1000 0050 8A7A     		ldrb	r2, [r1, #10]	@ zero_extendqisi2
 1001              		.loc 1 456 41 view .LVU364
 1002 0052 2243     		orrs	r2, r2, r4
 1003 0054 C3F88421 		str	r2, [r3, #388]
 457:../../../support/device/gd32f4xx/peripherals/src/gd32f4xx_can.c ****     /* set the data */
 458:../../../support/device/gd32f4xx/peripherals/src/gd32f4xx_can.c ****     CAN_TMDATA0(can_periph, mailbox_number) = TMDATA0_DB3(transmit_message->tx_data[3]) | \
 1004              		.loc 1 458 5 is_stmt 1 view .LVU365
 459:../../../support/device/gd32f4xx/peripherals/src/gd32f4xx_can.c ****             TMDATA0_DB2(transmit_message->tx_data[2]) | \
 460:../../../support/device/gd32f4xx/peripherals/src/gd32f4xx_can.c ****             TMDATA0_DB1(transmit_message->tx_data[1]) | \
 1005              		.loc 1 460 55 is_stmt 0 view .LVU366
 1006 0058 D1F80B20 		ldr	r2, [r1, #11]	@ unaligned
 458:../../../support/device/gd32f4xx/peripherals/src/gd32f4xx_can.c ****             TMDATA0_DB2(transmit_message->tx_data[2]) | \
 1007              		.loc 1 458 45 view .LVU367
 1008 005c C3F88821 		str	r2, [r3, #392]
 461:../../../support/device/gd32f4xx/peripherals/src/gd32f4xx_can.c ****             TMDATA0_DB0(transmit_message->tx_data[0]);
 462:../../../support/device/gd32f4xx/peripherals/src/gd32f4xx_can.c ****     CAN_TMDATA1(can_periph, mailbox_number) = TMDATA1_DB7(transmit_message->tx_data[7]) | \
 1009              		.loc 1 462 5 is_stmt 1 view .LVU368
 463:../../../support/device/gd32f4xx/peripherals/src/gd32f4xx_can.c ****             TMDATA1_DB6(transmit_message->tx_data[6]) | \
 464:../../../support/device/gd32f4xx/peripherals/src/gd32f4xx_can.c ****             TMDATA1_DB5(transmit_message->tx_data[5]) | \
ARM GAS  /var/folders/_f/88qcw_5n2jl40jjphvxyt7wh0000gn/T//ccVo6N4q.s 			page 29


 1010              		.loc 1 464 55 is_stmt 0 view .LVU369
 1011 0060 D1F80F20 		ldr	r2, [r1, #15]	@ unaligned
 462:../../../support/device/gd32f4xx/peripherals/src/gd32f4xx_can.c ****             TMDATA1_DB6(transmit_message->tx_data[6]) | \
 1012              		.loc 1 462 45 view .LVU370
 1013 0064 C3F88C21 		str	r2, [r3, #396]
 465:../../../support/device/gd32f4xx/peripherals/src/gd32f4xx_can.c ****             TMDATA1_DB4(transmit_message->tx_data[4]);
 466:../../../support/device/gd32f4xx/peripherals/src/gd32f4xx_can.c ****     /* enable transmission */
 467:../../../support/device/gd32f4xx/peripherals/src/gd32f4xx_can.c ****     CAN_TMI(can_periph, mailbox_number) |= CAN_TMI_TEN;
 1014              		.loc 1 467 5 is_stmt 1 view .LVU371
 1015              		.loc 1 467 41 is_stmt 0 view .LVU372
 1016 0068 DCF80030 		ldr	r3, [ip]
 1017 006c 43F00103 		orr	r3, r3, #1
 1018 0070 CCF80030 		str	r3, [ip]
 468:../../../support/device/gd32f4xx/peripherals/src/gd32f4xx_can.c **** 
 469:../../../support/device/gd32f4xx/peripherals/src/gd32f4xx_can.c ****     return mailbox_number;
 1019              		.loc 1 469 5 is_stmt 1 view .LVU373
 470:../../../support/device/gd32f4xx/peripherals/src/gd32f4xx_can.c **** }
 1020              		.loc 1 470 1 is_stmt 0 view .LVU374
 1021 0074 10BD     		pop	{r4, pc}
 1022              	.L79:
 446:../../../support/device/gd32f4xx/peripherals/src/gd32f4xx_can.c ****                                                transmit_message->tx_ft);
 1023              		.loc 1 446 9 is_stmt 1 view .LVU375
 447:../../../support/device/gd32f4xx/peripherals/src/gd32f4xx_can.c ****     } else {
 1024              		.loc 1 447 64 is_stmt 0 view .LVU376
 1025 0076 4A7A     		ldrb	r2, [r1, #9]	@ zero_extendqisi2
 446:../../../support/device/gd32f4xx/peripherals/src/gd32f4xx_can.c ****                                                transmit_message->tx_ft);
 1026              		.loc 1 446 48 view .LVU377
 1027 0078 D1F800E0 		ldr	lr, [r1]
 446:../../../support/device/gd32f4xx/peripherals/src/gd32f4xx_can.c ****                                                transmit_message->tx_ft);
 1028              		.loc 1 446 45 view .LVU378
 1029 007c D3F88041 		ldr	r4, [r3, #384]
 446:../../../support/device/gd32f4xx/peripherals/src/gd32f4xx_can.c ****                                                transmit_message->tx_ft);
 1030              		.loc 1 446 48 view .LVU379
 1031 0080 42EA4E52 		orr	r2, r2, lr, lsl #21
 446:../../../support/device/gd32f4xx/peripherals/src/gd32f4xx_can.c ****                                                transmit_message->tx_ft);
 1032              		.loc 1 446 45 view .LVU380
 1033 0084 2243     		orrs	r2, r2, r4
 1034 0086 C3F88021 		str	r2, [r3, #384]
 1035 008a D9E7     		b	.L73
 1036              	.LVL50:
 1037              	.L70:
 1038              	.LCFI8:
 1039              		.cfi_def_cfa_offset 0
 1040              		.cfi_restore 4
 1041              		.cfi_restore 14
 433:../../../support/device/gd32f4xx/peripherals/src/gd32f4xx_can.c ****         mailbox_number = CAN_MAILBOX2;
 1042              		.loc 1 433 12 is_stmt 1 view .LVU381
 433:../../../support/device/gd32f4xx/peripherals/src/gd32f4xx_can.c ****         mailbox_number = CAN_MAILBOX2;
 1043              		.loc 1 433 34 is_stmt 0 view .LVU382
 1044 008c 8268     		ldr	r2, [r0, #8]
 433:../../../support/device/gd32f4xx/peripherals/src/gd32f4xx_can.c ****         mailbox_number = CAN_MAILBOX2;
 1045              		.loc 1 433 14 view .LVU383
 1046 008e D200     		lsls	r2, r2, #3
 1047 0090 00F10800 		add	r0, r0, #8
 1048              	.LVL51:
 433:../../../support/device/gd32f4xx/peripherals/src/gd32f4xx_can.c ****         mailbox_number = CAN_MAILBOX2;
 1049              		.loc 1 433 14 view .LVU384
ARM GAS  /var/folders/_f/88qcw_5n2jl40jjphvxyt7wh0000gn/T//ccVo6N4q.s 			page 30


 1050 0094 02D5     		bpl	.L75
 443:../../../support/device/gd32f4xx/peripherals/src/gd32f4xx_can.c ****     if(CAN_FF_STANDARD == transmit_message->tx_ff) {
 1051              		.loc 1 443 41 view .LVU385
 1052 0096 2033     		adds	r3, r3, #32
 1053              	.LVL52:
 434:../../../support/device/gd32f4xx/peripherals/src/gd32f4xx_can.c ****     } else {
 1054              		.loc 1 434 24 view .LVU386
 1055 0098 0220     		movs	r0, #2
 1056              	.LVL53:
 434:../../../support/device/gd32f4xx/peripherals/src/gd32f4xx_can.c ****     } else {
 1057              		.loc 1 434 24 view .LVU387
 1058 009a BCE7     		b	.L69
 1059              	.LVL54:
 1060              	.L75:
 440:../../../support/device/gd32f4xx/peripherals/src/gd32f4xx_can.c ****     }
 1061              		.loc 1 440 16 view .LVU388
 1062 009c 0320     		movs	r0, #3
 1063              	.LVL55:
 1064              		.loc 1 470 1 view .LVU389
 1065 009e 7047     		bx	lr
 1066              		.cfi_endproc
 1067              	.LFE125:
 1069              		.section	.text.can_transmit_states,"ax",%progbits
 1070              		.align	1
 1071              		.p2align 2,,3
 1072              		.global	can_transmit_states
 1073              		.syntax unified
 1074              		.thumb
 1075              		.thumb_func
 1077              	can_transmit_states:
 1078              	.LVL56:
 1079              	.LFB126:
 471:../../../support/device/gd32f4xx/peripherals/src/gd32f4xx_can.c **** 
 472:../../../support/device/gd32f4xx/peripherals/src/gd32f4xx_can.c **** /*!
 473:../../../support/device/gd32f4xx/peripherals/src/gd32f4xx_can.c ****     \brief      get CAN transmit state
 474:../../../support/device/gd32f4xx/peripherals/src/gd32f4xx_can.c ****     \param[in]  can_periph
 475:../../../support/device/gd32f4xx/peripherals/src/gd32f4xx_can.c ****       \arg        CANx(x=0,1)
 476:../../../support/device/gd32f4xx/peripherals/src/gd32f4xx_can.c ****     \param[in]  mailbox_number
 477:../../../support/device/gd32f4xx/peripherals/src/gd32f4xx_can.c ****                 only one parameter can be selected which is shown as below:
 478:../../../support/device/gd32f4xx/peripherals/src/gd32f4xx_can.c ****       \arg        CAN_MAILBOX(x=0,1,2)
 479:../../../support/device/gd32f4xx/peripherals/src/gd32f4xx_can.c ****     \param[out] none
 480:../../../support/device/gd32f4xx/peripherals/src/gd32f4xx_can.c ****     \retval     can_transmit_state_enum
 481:../../../support/device/gd32f4xx/peripherals/src/gd32f4xx_can.c **** */
 482:../../../support/device/gd32f4xx/peripherals/src/gd32f4xx_can.c **** can_transmit_state_enum can_transmit_states(uint32_t can_periph, uint8_t mailbox_number)
 483:../../../support/device/gd32f4xx/peripherals/src/gd32f4xx_can.c **** {
 1080              		.loc 1 483 1 is_stmt 1 view -0
 1081              		.cfi_startproc
 1082              		@ args = 0, pretend = 0, frame = 0
 1083              		@ frame_needed = 0, uses_anonymous_args = 0
 1084              		@ link register save eliminated.
 484:../../../support/device/gd32f4xx/peripherals/src/gd32f4xx_can.c ****     can_transmit_state_enum state = CAN_TRANSMIT_FAILED;
 1085              		.loc 1 484 5 view .LVU391
 485:../../../support/device/gd32f4xx/peripherals/src/gd32f4xx_can.c ****     uint32_t val = 0U;
 1086              		.loc 1 485 5 view .LVU392
 486:../../../support/device/gd32f4xx/peripherals/src/gd32f4xx_can.c **** 
 487:../../../support/device/gd32f4xx/peripherals/src/gd32f4xx_can.c ****     /* check selected mailbox state */
 488:../../../support/device/gd32f4xx/peripherals/src/gd32f4xx_can.c ****     switch(mailbox_number) {
ARM GAS  /var/folders/_f/88qcw_5n2jl40jjphvxyt7wh0000gn/T//ccVo6N4q.s 			page 31


 1087              		.loc 1 488 5 view .LVU393
 1088 0000 0129     		cmp	r1, #1
 1089 0002 1AD0     		beq	.L81
 1090 0004 0229     		cmp	r1, #2
 1091 0006 02D0     		beq	.L82
 1092 0008 61B1     		cbz	r1, .L89
 1093              	.LVL57:
 1094              	.L88:
 489:../../../support/device/gd32f4xx/peripherals/src/gd32f4xx_can.c ****     /* mailbox0 */
 490:../../../support/device/gd32f4xx/peripherals/src/gd32f4xx_can.c ****     case CAN_MAILBOX0:
 491:../../../support/device/gd32f4xx/peripherals/src/gd32f4xx_can.c ****         val = CAN_TSTAT(can_periph) & (CAN_TSTAT_MTF0 | CAN_TSTAT_MTFNERR0 | CAN_TSTAT_TME0);
 492:../../../support/device/gd32f4xx/peripherals/src/gd32f4xx_can.c ****         break;
 493:../../../support/device/gd32f4xx/peripherals/src/gd32f4xx_can.c ****     /* mailbox1 */
 494:../../../support/device/gd32f4xx/peripherals/src/gd32f4xx_can.c ****     case CAN_MAILBOX1:
 495:../../../support/device/gd32f4xx/peripherals/src/gd32f4xx_can.c ****         val = CAN_TSTAT(can_periph) & (CAN_TSTAT_MTF1 | CAN_TSTAT_MTFNERR1 | CAN_TSTAT_TME1);
 496:../../../support/device/gd32f4xx/peripherals/src/gd32f4xx_can.c ****         break;
 497:../../../support/device/gd32f4xx/peripherals/src/gd32f4xx_can.c ****     /* mailbox2 */
 498:../../../support/device/gd32f4xx/peripherals/src/gd32f4xx_can.c ****     case CAN_MAILBOX2:
 499:../../../support/device/gd32f4xx/peripherals/src/gd32f4xx_can.c ****         val = CAN_TSTAT(can_periph) & (CAN_TSTAT_MTF2 | CAN_TSTAT_MTFNERR2 | CAN_TSTAT_TME2);
 500:../../../support/device/gd32f4xx/peripherals/src/gd32f4xx_can.c ****         break;
 501:../../../support/device/gd32f4xx/peripherals/src/gd32f4xx_can.c ****     default:
 502:../../../support/device/gd32f4xx/peripherals/src/gd32f4xx_can.c ****         val = CAN_TRANSMIT_FAILED;
 503:../../../support/device/gd32f4xx/peripherals/src/gd32f4xx_can.c ****         break;
 504:../../../support/device/gd32f4xx/peripherals/src/gd32f4xx_can.c ****     }
 505:../../../support/device/gd32f4xx/peripherals/src/gd32f4xx_can.c **** 
 506:../../../support/device/gd32f4xx/peripherals/src/gd32f4xx_can.c ****     switch(val) {
 507:../../../support/device/gd32f4xx/peripherals/src/gd32f4xx_can.c ****     /* transmit pending */
 508:../../../support/device/gd32f4xx/peripherals/src/gd32f4xx_can.c ****     case(CAN_STATE_PENDING):
 509:../../../support/device/gd32f4xx/peripherals/src/gd32f4xx_can.c ****         state = CAN_TRANSMIT_PENDING;
 1095              		.loc 1 509 15 is_stmt 0 view .LVU394
 1096 000a 0220     		movs	r0, #2
 1097              	.LVL58:
 510:../../../support/device/gd32f4xx/peripherals/src/gd32f4xx_can.c ****         break;
 511:../../../support/device/gd32f4xx/peripherals/src/gd32f4xx_can.c ****     /* mailbox0 transmit succeeded */
 512:../../../support/device/gd32f4xx/peripherals/src/gd32f4xx_can.c ****     case(CAN_TSTAT_MTF0 | CAN_TSTAT_MTFNERR0 | CAN_TSTAT_TME0):
 513:../../../support/device/gd32f4xx/peripherals/src/gd32f4xx_can.c ****         state = CAN_TRANSMIT_OK;
 514:../../../support/device/gd32f4xx/peripherals/src/gd32f4xx_can.c ****         break;
 515:../../../support/device/gd32f4xx/peripherals/src/gd32f4xx_can.c ****     /* mailbox1 transmit succeeded */
 516:../../../support/device/gd32f4xx/peripherals/src/gd32f4xx_can.c ****     case(CAN_TSTAT_MTF1 | CAN_TSTAT_MTFNERR1 | CAN_TSTAT_TME1):
 517:../../../support/device/gd32f4xx/peripherals/src/gd32f4xx_can.c ****         state = CAN_TRANSMIT_OK;
 518:../../../support/device/gd32f4xx/peripherals/src/gd32f4xx_can.c ****         break;
 519:../../../support/device/gd32f4xx/peripherals/src/gd32f4xx_can.c ****     /* mailbox2 transmit succeeded */
 520:../../../support/device/gd32f4xx/peripherals/src/gd32f4xx_can.c ****     case(CAN_TSTAT_MTF2 | CAN_TSTAT_MTFNERR2 | CAN_TSTAT_TME2):
 521:../../../support/device/gd32f4xx/peripherals/src/gd32f4xx_can.c ****         state = CAN_TRANSMIT_OK;
 522:../../../support/device/gd32f4xx/peripherals/src/gd32f4xx_can.c ****         break;
 523:../../../support/device/gd32f4xx/peripherals/src/gd32f4xx_can.c ****     /* transmit failed */
 524:../../../support/device/gd32f4xx/peripherals/src/gd32f4xx_can.c ****     default:
 525:../../../support/device/gd32f4xx/peripherals/src/gd32f4xx_can.c ****         state = CAN_TRANSMIT_FAILED;
 526:../../../support/device/gd32f4xx/peripherals/src/gd32f4xx_can.c ****         break;
 527:../../../support/device/gd32f4xx/peripherals/src/gd32f4xx_can.c ****     }
 528:../../../support/device/gd32f4xx/peripherals/src/gd32f4xx_can.c ****     return state;
 1098              		.loc 1 528 5 is_stmt 1 view .LVU395
 529:../../../support/device/gd32f4xx/peripherals/src/gd32f4xx_can.c **** }
 1099              		.loc 1 529 1 is_stmt 0 view .LVU396
 1100 000c 7047     		bx	lr
 1101              	.LVL59:
 1102              	.L82:
ARM GAS  /var/folders/_f/88qcw_5n2jl40jjphvxyt7wh0000gn/T//ccVo6N4q.s 			page 32


 499:../../../support/device/gd32f4xx/peripherals/src/gd32f4xx_can.c ****         break;
 1103              		.loc 1 499 9 is_stmt 1 view .LVU397
 499:../../../support/device/gd32f4xx/peripherals/src/gd32f4xx_can.c ****         break;
 1104              		.loc 1 499 15 is_stmt 0 view .LVU398
 1105 000e 8068     		ldr	r0, [r0, #8]
 1106              	.LVL60:
 499:../../../support/device/gd32f4xx/peripherals/src/gd32f4xx_can.c ****         break;
 1107              		.loc 1 499 13 view .LVU399
 1108 0010 0E49     		ldr	r1, .L90
 1109              	.LVL61:
 506:../../../support/device/gd32f4xx/peripherals/src/gd32f4xx_can.c ****     /* transmit pending */
 1110              		.loc 1 506 5 view .LVU400
 1111 0012 0F4B     		ldr	r3, .L90+4
 499:../../../support/device/gd32f4xx/peripherals/src/gd32f4xx_can.c ****         break;
 1112              		.loc 1 499 13 view .LVU401
 1113 0014 0840     		ands	r0, r0, r1
 1114              	.LVL62:
 500:../../../support/device/gd32f4xx/peripherals/src/gd32f4xx_can.c ****     default:
 1115              		.loc 1 500 9 is_stmt 1 view .LVU402
 506:../../../support/device/gd32f4xx/peripherals/src/gd32f4xx_can.c ****     /* transmit pending */
 1116              		.loc 1 506 5 view .LVU403
 506:../../../support/device/gd32f4xx/peripherals/src/gd32f4xx_can.c ****     /* transmit pending */
 1117              		.loc 1 506 5 is_stmt 0 view .LVU404
 1118 0016 9842     		cmp	r0, r3
 1119 0018 07D9     		bls	.L84
 509:../../../support/device/gd32f4xx/peripherals/src/gd32f4xx_can.c ****         break;
 1120              		.loc 1 509 15 view .LVU405
 1121 001a 401A     		subs	r0, r0, r1
 1122              	.LVL63:
 509:../../../support/device/gd32f4xx/peripherals/src/gd32f4xx_can.c ****         break;
 1123              		.loc 1 509 15 view .LVU406
 1124 001c B0FA80F0 		clz	r0, r0
 1125              	.LVL64:
 509:../../../support/device/gd32f4xx/peripherals/src/gd32f4xx_can.c ****         break;
 1126              		.loc 1 509 15 view .LVU407
 1127 0020 4009     		lsrs	r0, r0, #5
 1128 0022 7047     		bx	lr
 1129              	.LVL65:
 1130              	.L89:
 491:../../../support/device/gd32f4xx/peripherals/src/gd32f4xx_can.c ****         break;
 1131              		.loc 1 491 9 is_stmt 1 view .LVU408
 491:../../../support/device/gd32f4xx/peripherals/src/gd32f4xx_can.c ****         break;
 1132              		.loc 1 491 15 is_stmt 0 view .LVU409
 1133 0024 8068     		ldr	r0, [r0, #8]
 1134              	.LVL66:
 491:../../../support/device/gd32f4xx/peripherals/src/gd32f4xx_can.c ****         break;
 1135              		.loc 1 491 13 view .LVU410
 1136 0026 0B4B     		ldr	r3, .L90+8
 1137 0028 1840     		ands	r0, r0, r3
 1138              	.LVL67:
 492:../../../support/device/gd32f4xx/peripherals/src/gd32f4xx_can.c ****     /* mailbox1 */
 1139              		.loc 1 492 9 is_stmt 1 view .LVU411
 506:../../../support/device/gd32f4xx/peripherals/src/gd32f4xx_can.c ****     /* transmit pending */
 1140              		.loc 1 506 5 view .LVU412
 1141              	.L84:
 506:../../../support/device/gd32f4xx/peripherals/src/gd32f4xx_can.c ****     /* transmit pending */
 1142              		.loc 1 506 5 is_stmt 0 view .LVU413
ARM GAS  /var/folders/_f/88qcw_5n2jl40jjphvxyt7wh0000gn/T//ccVo6N4q.s 			page 33


 1143 002a 0028     		cmp	r0, #0
 1144 002c EDD0     		beq	.L88
 506:../../../support/device/gd32f4xx/peripherals/src/gd32f4xx_can.c ****     /* transmit pending */
 1145              		.loc 1 506 5 view .LVU414
 1146 002e 0949     		ldr	r1, .L90+8
 509:../../../support/device/gd32f4xx/peripherals/src/gd32f4xx_can.c ****         break;
 1147              		.loc 1 509 15 view .LVU415
 1148 0030 401A     		subs	r0, r0, r1
 1149              	.LVL68:
 509:../../../support/device/gd32f4xx/peripherals/src/gd32f4xx_can.c ****         break;
 1150              		.loc 1 509 15 view .LVU416
 1151 0032 B0FA80F0 		clz	r0, r0
 1152              	.LVL69:
 509:../../../support/device/gd32f4xx/peripherals/src/gd32f4xx_can.c ****         break;
 1153              		.loc 1 509 15 view .LVU417
 1154 0036 4009     		lsrs	r0, r0, #5
 1155 0038 7047     		bx	lr
 1156              	.LVL70:
 1157              	.L81:
 495:../../../support/device/gd32f4xx/peripherals/src/gd32f4xx_can.c ****         break;
 1158              		.loc 1 495 9 is_stmt 1 view .LVU418
 495:../../../support/device/gd32f4xx/peripherals/src/gd32f4xx_can.c ****         break;
 1159              		.loc 1 495 15 is_stmt 0 view .LVU419
 1160 003a 8268     		ldr	r2, [r0, #8]
 495:../../../support/device/gd32f4xx/peripherals/src/gd32f4xx_can.c ****         break;
 1161              		.loc 1 495 13 view .LVU420
 1162 003c 044B     		ldr	r3, .L90+4
 1163 003e 02EA0300 		and	r0, r2, r3
 1164              	.LVL71:
 496:../../../support/device/gd32f4xx/peripherals/src/gd32f4xx_can.c ****     /* mailbox2 */
 1165              		.loc 1 496 9 is_stmt 1 view .LVU421
 506:../../../support/device/gd32f4xx/peripherals/src/gd32f4xx_can.c ****     /* transmit pending */
 1166              		.loc 1 506 5 view .LVU422
 1167 0042 9343     		bics	r3, r3, r2
 1168 0044 F1D1     		bne	.L84
 1169 0046 0846     		mov	r0, r1
 1170              	.LVL72:
 506:../../../support/device/gd32f4xx/peripherals/src/gd32f4xx_can.c ****     /* transmit pending */
 1171              		.loc 1 506 5 is_stmt 0 view .LVU423
 1172 0048 7047     		bx	lr
 1173              	.L91:
 1174 004a 00BF     		.align	2
 1175              	.L90:
 1176 004c 00000310 		.word	268632064
 1177 0050 00030008 		.word	134218496
 1178 0054 03000004 		.word	67108867
 1179              		.cfi_endproc
 1180              	.LFE126:
 1182              		.section	.text.can_transmission_stop,"ax",%progbits
 1183              		.align	1
 1184              		.p2align 2,,3
 1185              		.global	can_transmission_stop
 1186              		.syntax unified
 1187              		.thumb
 1188              		.thumb_func
 1190              	can_transmission_stop:
 1191              	.LVL73:
ARM GAS  /var/folders/_f/88qcw_5n2jl40jjphvxyt7wh0000gn/T//ccVo6N4q.s 			page 34


 1192              	.LFB127:
 530:../../../support/device/gd32f4xx/peripherals/src/gd32f4xx_can.c **** 
 531:../../../support/device/gd32f4xx/peripherals/src/gd32f4xx_can.c **** /*!
 532:../../../support/device/gd32f4xx/peripherals/src/gd32f4xx_can.c ****     \brief      stop CAN transmission
 533:../../../support/device/gd32f4xx/peripherals/src/gd32f4xx_can.c ****     \param[in]  can_periph
 534:../../../support/device/gd32f4xx/peripherals/src/gd32f4xx_can.c ****       \arg        CANx(x=0,1)
 535:../../../support/device/gd32f4xx/peripherals/src/gd32f4xx_can.c ****     \param[in]  mailbox_number
 536:../../../support/device/gd32f4xx/peripherals/src/gd32f4xx_can.c ****                 only one parameter can be selected which is shown as below:
 537:../../../support/device/gd32f4xx/peripherals/src/gd32f4xx_can.c ****       \arg        CAN_MAILBOXx(x=0,1,2)
 538:../../../support/device/gd32f4xx/peripherals/src/gd32f4xx_can.c ****     \param[out] none
 539:../../../support/device/gd32f4xx/peripherals/src/gd32f4xx_can.c ****     \retval     none
 540:../../../support/device/gd32f4xx/peripherals/src/gd32f4xx_can.c **** */
 541:../../../support/device/gd32f4xx/peripherals/src/gd32f4xx_can.c **** void can_transmission_stop(uint32_t can_periph, uint8_t mailbox_number)
 542:../../../support/device/gd32f4xx/peripherals/src/gd32f4xx_can.c **** {
 1193              		.loc 1 542 1 is_stmt 1 view -0
 1194              		.cfi_startproc
 1195              		@ args = 0, pretend = 0, frame = 0
 1196              		@ frame_needed = 0, uses_anonymous_args = 0
 1197              		@ link register save eliminated.
 543:../../../support/device/gd32f4xx/peripherals/src/gd32f4xx_can.c ****     if(CAN_MAILBOX0 == mailbox_number) {
 1198              		.loc 1 543 5 view .LVU425
 1199              		.loc 1 543 7 is_stmt 0 view .LVU426
 1200 0000 49B9     		cbnz	r1, .L93
 544:../../../support/device/gd32f4xx/peripherals/src/gd32f4xx_can.c ****         CAN_TSTAT(can_periph) |= CAN_TSTAT_MST0;
 1201              		.loc 1 544 9 is_stmt 1 view .LVU427
 1202              		.loc 1 544 31 is_stmt 0 view .LVU428
 1203 0002 8368     		ldr	r3, [r0, #8]
 1204 0004 43F08003 		orr	r3, r3, #128
 1205 0008 00F10802 		add	r2, r0, #8
 1206 000c 8360     		str	r3, [r0, #8]
 545:../../../support/device/gd32f4xx/peripherals/src/gd32f4xx_can.c ****         while(CAN_TSTAT_MST0 == (CAN_TSTAT(can_periph) & CAN_TSTAT_MST0)) {
 1207              		.loc 1 545 9 is_stmt 1 view .LVU429
 1208              	.LVL74:
 1209              	.L94:
 546:../../../support/device/gd32f4xx/peripherals/src/gd32f4xx_can.c ****         }
 1210              		.loc 1 546 9 discriminator 1 view .LVU430
 545:../../../support/device/gd32f4xx/peripherals/src/gd32f4xx_can.c ****         while(CAN_TSTAT_MST0 == (CAN_TSTAT(can_periph) & CAN_TSTAT_MST0)) {
 1211              		.loc 1 545 14 discriminator 1 view .LVU431
 545:../../../support/device/gd32f4xx/peripherals/src/gd32f4xx_can.c ****         while(CAN_TSTAT_MST0 == (CAN_TSTAT(can_periph) & CAN_TSTAT_MST0)) {
 1212              		.loc 1 545 34 is_stmt 0 discriminator 1 view .LVU432
 1213 000e 1368     		ldr	r3, [r2]
 545:../../../support/device/gd32f4xx/peripherals/src/gd32f4xx_can.c ****         while(CAN_TSTAT_MST0 == (CAN_TSTAT(can_periph) & CAN_TSTAT_MST0)) {
 1214              		.loc 1 545 14 discriminator 1 view .LVU433
 1215 0010 1806     		lsls	r0, r3, #24
 1216 0012 FCD4     		bmi	.L94
 1217 0014 7047     		bx	lr
 1218              	.LVL75:
 1219              	.L93:
 547:../../../support/device/gd32f4xx/peripherals/src/gd32f4xx_can.c ****     } else if(CAN_MAILBOX1 == mailbox_number) {
 1220              		.loc 1 547 12 is_stmt 1 view .LVU434
 1221              		.loc 1 547 14 is_stmt 0 view .LVU435
 1222 0016 0129     		cmp	r1, #1
 1223 0018 02D0     		beq	.L102
 548:../../../support/device/gd32f4xx/peripherals/src/gd32f4xx_can.c ****         CAN_TSTAT(can_periph) |= CAN_TSTAT_MST1;
 549:../../../support/device/gd32f4xx/peripherals/src/gd32f4xx_can.c ****         while(CAN_TSTAT_MST1 == (CAN_TSTAT(can_periph) & CAN_TSTAT_MST1)) {
 550:../../../support/device/gd32f4xx/peripherals/src/gd32f4xx_can.c ****         }
 551:../../../support/device/gd32f4xx/peripherals/src/gd32f4xx_can.c ****     } else if(CAN_MAILBOX2 == mailbox_number) {
ARM GAS  /var/folders/_f/88qcw_5n2jl40jjphvxyt7wh0000gn/T//ccVo6N4q.s 			page 35


 1224              		.loc 1 551 12 is_stmt 1 view .LVU436
 1225              		.loc 1 551 14 is_stmt 0 view .LVU437
 1226 001a 0229     		cmp	r1, #2
 1227 001c 0AD0     		beq	.L103
 552:../../../support/device/gd32f4xx/peripherals/src/gd32f4xx_can.c ****         CAN_TSTAT(can_periph) |= CAN_TSTAT_MST2;
 553:../../../support/device/gd32f4xx/peripherals/src/gd32f4xx_can.c ****         while(CAN_TSTAT_MST2 == (CAN_TSTAT(can_periph) & CAN_TSTAT_MST2)) {
 554:../../../support/device/gd32f4xx/peripherals/src/gd32f4xx_can.c ****         }
 555:../../../support/device/gd32f4xx/peripherals/src/gd32f4xx_can.c ****     } else {
 556:../../../support/device/gd32f4xx/peripherals/src/gd32f4xx_can.c ****         /* illegal parameters */
 557:../../../support/device/gd32f4xx/peripherals/src/gd32f4xx_can.c ****     }
 558:../../../support/device/gd32f4xx/peripherals/src/gd32f4xx_can.c **** }
 1228              		.loc 1 558 1 view .LVU438
 1229 001e 7047     		bx	lr
 1230              	.L102:
 548:../../../support/device/gd32f4xx/peripherals/src/gd32f4xx_can.c ****         CAN_TSTAT(can_periph) |= CAN_TSTAT_MST1;
 1231              		.loc 1 548 9 is_stmt 1 view .LVU439
 548:../../../support/device/gd32f4xx/peripherals/src/gd32f4xx_can.c ****         CAN_TSTAT(can_periph) |= CAN_TSTAT_MST1;
 1232              		.loc 1 548 31 is_stmt 0 view .LVU440
 1233 0020 8368     		ldr	r3, [r0, #8]
 1234 0022 43F40043 		orr	r3, r3, #32768
 1235 0026 00F10802 		add	r2, r0, #8
 1236 002a 8360     		str	r3, [r0, #8]
 549:../../../support/device/gd32f4xx/peripherals/src/gd32f4xx_can.c ****         }
 1237              		.loc 1 549 9 is_stmt 1 view .LVU441
 1238              	.LVL76:
 1239              	.L97:
 550:../../../support/device/gd32f4xx/peripherals/src/gd32f4xx_can.c ****     } else if(CAN_MAILBOX2 == mailbox_number) {
 1240              		.loc 1 550 9 discriminator 1 view .LVU442
 549:../../../support/device/gd32f4xx/peripherals/src/gd32f4xx_can.c ****         }
 1241              		.loc 1 549 14 discriminator 1 view .LVU443
 549:../../../support/device/gd32f4xx/peripherals/src/gd32f4xx_can.c ****         }
 1242              		.loc 1 549 34 is_stmt 0 discriminator 1 view .LVU444
 1243 002c 1368     		ldr	r3, [r2]
 549:../../../support/device/gd32f4xx/peripherals/src/gd32f4xx_can.c ****         }
 1244              		.loc 1 549 14 discriminator 1 view .LVU445
 1245 002e 1904     		lsls	r1, r3, #16
 1246 0030 FCD4     		bmi	.L97
 1247 0032 7047     		bx	lr
 1248              	.LVL77:
 1249              	.L103:
 552:../../../support/device/gd32f4xx/peripherals/src/gd32f4xx_can.c ****         CAN_TSTAT(can_periph) |= CAN_TSTAT_MST2;
 1250              		.loc 1 552 9 is_stmt 1 view .LVU446
 552:../../../support/device/gd32f4xx/peripherals/src/gd32f4xx_can.c ****         CAN_TSTAT(can_periph) |= CAN_TSTAT_MST2;
 1251              		.loc 1 552 31 is_stmt 0 view .LVU447
 1252 0034 8368     		ldr	r3, [r0, #8]
 1253 0036 43F40003 		orr	r3, r3, #8388608
 1254 003a 00F10802 		add	r2, r0, #8
 1255 003e 8360     		str	r3, [r0, #8]
 553:../../../support/device/gd32f4xx/peripherals/src/gd32f4xx_can.c ****         }
 1256              		.loc 1 553 9 is_stmt 1 view .LVU448
 1257              	.L98:
 554:../../../support/device/gd32f4xx/peripherals/src/gd32f4xx_can.c ****     } else {
 1258              		.loc 1 554 9 discriminator 1 view .LVU449
 553:../../../support/device/gd32f4xx/peripherals/src/gd32f4xx_can.c ****         }
 1259              		.loc 1 553 14 discriminator 1 view .LVU450
 553:../../../support/device/gd32f4xx/peripherals/src/gd32f4xx_can.c ****         }
 1260              		.loc 1 553 34 is_stmt 0 discriminator 1 view .LVU451
ARM GAS  /var/folders/_f/88qcw_5n2jl40jjphvxyt7wh0000gn/T//ccVo6N4q.s 			page 36


 1261 0040 1368     		ldr	r3, [r2]
 553:../../../support/device/gd32f4xx/peripherals/src/gd32f4xx_can.c ****         }
 1262              		.loc 1 553 14 discriminator 1 view .LVU452
 1263 0042 1B02     		lsls	r3, r3, #8
 1264 0044 FCD4     		bmi	.L98
 1265              		.loc 1 558 1 view .LVU453
 1266 0046 7047     		bx	lr
 1267              		.cfi_endproc
 1268              	.LFE127:
 1270              		.section	.text.can_message_receive,"ax",%progbits
 1271              		.align	1
 1272              		.p2align 2,,3
 1273              		.global	can_message_receive
 1274              		.syntax unified
 1275              		.thumb
 1276              		.thumb_func
 1278              	can_message_receive:
 1279              	.LVL78:
 1280              	.LFB128:
 559:../../../support/device/gd32f4xx/peripherals/src/gd32f4xx_can.c **** 
 560:../../../support/device/gd32f4xx/peripherals/src/gd32f4xx_can.c **** /*!
 561:../../../support/device/gd32f4xx/peripherals/src/gd32f4xx_can.c ****     \brief      CAN receive message
 562:../../../support/device/gd32f4xx/peripherals/src/gd32f4xx_can.c ****     \param[in]  can_periph
 563:../../../support/device/gd32f4xx/peripherals/src/gd32f4xx_can.c ****       \arg        CANx(x=0,1)
 564:../../../support/device/gd32f4xx/peripherals/src/gd32f4xx_can.c ****     \param[in]  fifo_number
 565:../../../support/device/gd32f4xx/peripherals/src/gd32f4xx_can.c ****       \arg        CAN_FIFOx(x=0,1)
 566:../../../support/device/gd32f4xx/peripherals/src/gd32f4xx_can.c ****     \param[out] receive_message: struct for CAN receive message
 567:../../../support/device/gd32f4xx/peripherals/src/gd32f4xx_can.c ****       \arg        rx_sfid: 0x00000000 - 0x000007FF
 568:../../../support/device/gd32f4xx/peripherals/src/gd32f4xx_can.c ****       \arg        rx_efid: 0x00000000 - 0x1FFFFFFF
 569:../../../support/device/gd32f4xx/peripherals/src/gd32f4xx_can.c ****       \arg        rx_ff: CAN_FF_STANDARD, CAN_FF_EXTENDED
 570:../../../support/device/gd32f4xx/peripherals/src/gd32f4xx_can.c ****       \arg        rx_ft: CAN_FT_DATA, CAN_FT_REMOTE
 571:../../../support/device/gd32f4xx/peripherals/src/gd32f4xx_can.c ****       \arg        rx_dlen: 0 - 8
 572:../../../support/device/gd32f4xx/peripherals/src/gd32f4xx_can.c ****       \arg        rx_data[]: 0x00 - 0xFF
 573:../../../support/device/gd32f4xx/peripherals/src/gd32f4xx_can.c ****       \arg        rx_fi: 0 - 27
 574:../../../support/device/gd32f4xx/peripherals/src/gd32f4xx_can.c ****     \retval     none
 575:../../../support/device/gd32f4xx/peripherals/src/gd32f4xx_can.c **** */
 576:../../../support/device/gd32f4xx/peripherals/src/gd32f4xx_can.c **** void can_message_receive(uint32_t can_periph, uint8_t fifo_number, can_receive_message_struct *rece
 577:../../../support/device/gd32f4xx/peripherals/src/gd32f4xx_can.c **** {
 1281              		.loc 1 577 1 is_stmt 1 view -0
 1282              		.cfi_startproc
 1283              		@ args = 0, pretend = 0, frame = 0
 1284              		@ frame_needed = 0, uses_anonymous_args = 0
 1285              		@ link register save eliminated.
 578:../../../support/device/gd32f4xx/peripherals/src/gd32f4xx_can.c ****     /* get the frame format */
 579:../../../support/device/gd32f4xx/peripherals/src/gd32f4xx_can.c ****     receive_message->rx_ff = (uint8_t)(CAN_RFIFOMI_FF & CAN_RFIFOMI(can_periph, fifo_number));
 1286              		.loc 1 579 5 view .LVU455
 1287              		.loc 1 579 57 is_stmt 0 view .LVU456
 1288 0000 00EB0113 		add	r3, r0, r1, lsl #4
 577:../../../support/device/gd32f4xx/peripherals/src/gd32f4xx_can.c ****     /* get the frame format */
 1289              		.loc 1 577 1 view .LVU457
 1290 0004 10B4     		push	{r4}
 1291              	.LCFI9:
 1292              		.cfi_def_cfa_offset 4
 1293              		.cfi_offset 4, -4
 1294              		.loc 1 579 57 view .LVU458
 1295 0006 D3F8B041 		ldr	r4, [r3, #432]
 1296              		.loc 1 579 30 view .LVU459
ARM GAS  /var/folders/_f/88qcw_5n2jl40jjphvxyt7wh0000gn/T//ccVo6N4q.s 			page 37


 1297 000a 04F00404 		and	r4, r4, #4
 1298              		.loc 1 579 28 view .LVU460
 1299 000e 1472     		strb	r4, [r2, #8]
 580:../../../support/device/gd32f4xx/peripherals/src/gd32f4xx_can.c ****     if(CAN_FF_STANDARD == receive_message->rx_ff) {
 1300              		.loc 1 580 5 is_stmt 1 view .LVU461
 1301              		.loc 1 580 7 is_stmt 0 view .LVU462
 1302 0010 B4BB     		cbnz	r4, .L105
 581:../../../support/device/gd32f4xx/peripherals/src/gd32f4xx_can.c ****         /* get standard identifier */
 582:../../../support/device/gd32f4xx/peripherals/src/gd32f4xx_can.c ****         receive_message->rx_sfid = (uint32_t)(GET_RFIFOMI_SFID(CAN_RFIFOMI(can_periph, fifo_number)
 1303              		.loc 1 582 9 is_stmt 1 view .LVU463
 1304              		.loc 1 582 47 is_stmt 0 view .LVU464
 1305 0012 D3F8B041 		ldr	r4, [r3, #432]
 1306              		.loc 1 582 36 view .LVU465
 1307 0016 640D     		lsrs	r4, r4, #21
 1308              		.loc 1 582 34 view .LVU466
 1309 0018 1460     		str	r4, [r2]
 1310              	.L106:
 583:../../../support/device/gd32f4xx/peripherals/src/gd32f4xx_can.c ****     } else {
 584:../../../support/device/gd32f4xx/peripherals/src/gd32f4xx_can.c ****         /* get extended identifier */
 585:../../../support/device/gd32f4xx/peripherals/src/gd32f4xx_can.c ****         receive_message->rx_efid = (uint32_t)(GET_RFIFOMI_EFID(CAN_RFIFOMI(can_periph, fifo_number)
 586:../../../support/device/gd32f4xx/peripherals/src/gd32f4xx_can.c ****     }
 587:../../../support/device/gd32f4xx/peripherals/src/gd32f4xx_can.c **** 
 588:../../../support/device/gd32f4xx/peripherals/src/gd32f4xx_can.c ****     /* get frame type */
 589:../../../support/device/gd32f4xx/peripherals/src/gd32f4xx_can.c ****     receive_message->rx_ft = (uint8_t)(CAN_RFIFOMI_FT & CAN_RFIFOMI(can_periph, fifo_number));
 1311              		.loc 1 589 5 is_stmt 1 view .LVU467
 1312              		.loc 1 589 57 is_stmt 0 view .LVU468
 1313 001a D3F8B041 		ldr	r4, [r3, #432]
 1314              		.loc 1 589 30 view .LVU469
 1315 001e 04F00204 		and	r4, r4, #2
 1316              		.loc 1 589 28 view .LVU470
 1317 0022 5472     		strb	r4, [r2, #9]
 590:../../../support/device/gd32f4xx/peripherals/src/gd32f4xx_can.c ****     /* filtering index */
 591:../../../support/device/gd32f4xx/peripherals/src/gd32f4xx_can.c ****     receive_message->rx_fi = (uint8_t)(GET_RFIFOMP_FI(CAN_RFIFOMP(can_periph, fifo_number)));
 1318              		.loc 1 591 5 is_stmt 1 view .LVU471
 1319              		.loc 1 591 40 is_stmt 0 view .LVU472
 1320 0024 D3F8B441 		ldr	r4, [r3, #436]
 1321 0028 240A     		lsrs	r4, r4, #8
 1322              		.loc 1 591 30 view .LVU473
 1323 002a D474     		strb	r4, [r2, #19]
 592:../../../support/device/gd32f4xx/peripherals/src/gd32f4xx_can.c ****     /* get receive data length */
 593:../../../support/device/gd32f4xx/peripherals/src/gd32f4xx_can.c ****     receive_message->rx_dlen = (uint8_t)(GET_RFIFOMP_DLENC(CAN_RFIFOMP(can_periph, fifo_number)));
 1324              		.loc 1 593 5 is_stmt 1 view .LVU474
 1325              		.loc 1 593 42 is_stmt 0 view .LVU475
 1326 002c D3F8B441 		ldr	r4, [r3, #436]
 1327              		.loc 1 593 32 view .LVU476
 1328 0030 04F00F04 		and	r4, r4, #15
 1329              		.loc 1 593 30 view .LVU477
 1330 0034 9472     		strb	r4, [r2, #10]
 594:../../../support/device/gd32f4xx/peripherals/src/gd32f4xx_can.c **** 
 595:../../../support/device/gd32f4xx/peripherals/src/gd32f4xx_can.c ****     /* receive data */
 596:../../../support/device/gd32f4xx/peripherals/src/gd32f4xx_can.c ****     receive_message -> rx_data[0] = (uint8_t)(GET_RFIFOMDATA0_DB0(CAN_RFIFOMDATA0(can_periph, fifo_
 1331              		.loc 1 596 5 is_stmt 1 view .LVU478
 1332              		.loc 1 596 47 is_stmt 0 view .LVU479
 1333 0036 D3F8B841 		ldr	r4, [r3, #440]
 1334              		.loc 1 596 37 view .LVU480
 1335 003a D472     		strb	r4, [r2, #11]
 597:../../../support/device/gd32f4xx/peripherals/src/gd32f4xx_can.c ****     receive_message -> rx_data[1] = (uint8_t)(GET_RFIFOMDATA0_DB1(CAN_RFIFOMDATA0(can_periph, fifo_
ARM GAS  /var/folders/_f/88qcw_5n2jl40jjphvxyt7wh0000gn/T//ccVo6N4q.s 			page 38


 1336              		.loc 1 597 5 is_stmt 1 view .LVU481
 1337              		.loc 1 597 47 is_stmt 0 view .LVU482
 1338 003c D3F8B841 		ldr	r4, [r3, #440]
 1339 0040 240A     		lsrs	r4, r4, #8
 1340              		.loc 1 597 37 view .LVU483
 1341 0042 1473     		strb	r4, [r2, #12]
 598:../../../support/device/gd32f4xx/peripherals/src/gd32f4xx_can.c ****     receive_message -> rx_data[2] = (uint8_t)(GET_RFIFOMDATA0_DB2(CAN_RFIFOMDATA0(can_periph, fifo_
 1342              		.loc 1 598 5 is_stmt 1 view .LVU484
 1343              		.loc 1 598 47 is_stmt 0 view .LVU485
 1344 0044 D3F8B841 		ldr	r4, [r3, #440]
 1345 0048 240C     		lsrs	r4, r4, #16
 1346              		.loc 1 598 37 view .LVU486
 1347 004a 5473     		strb	r4, [r2, #13]
 599:../../../support/device/gd32f4xx/peripherals/src/gd32f4xx_can.c ****     receive_message -> rx_data[3] = (uint8_t)(GET_RFIFOMDATA0_DB3(CAN_RFIFOMDATA0(can_periph, fifo_
 1348              		.loc 1 599 5 is_stmt 1 view .LVU487
 1349              		.loc 1 599 47 is_stmt 0 view .LVU488
 1350 004c D3F8B841 		ldr	r4, [r3, #440]
 1351 0050 240E     		lsrs	r4, r4, #24
 1352              		.loc 1 599 37 view .LVU489
 1353 0052 9473     		strb	r4, [r2, #14]
 600:../../../support/device/gd32f4xx/peripherals/src/gd32f4xx_can.c ****     receive_message -> rx_data[4] = (uint8_t)(GET_RFIFOMDATA1_DB4(CAN_RFIFOMDATA1(can_periph, fifo_
 1354              		.loc 1 600 5 is_stmt 1 view .LVU490
 1355              		.loc 1 600 47 is_stmt 0 view .LVU491
 1356 0054 D3F8BC41 		ldr	r4, [r3, #444]
 1357              		.loc 1 600 37 view .LVU492
 1358 0058 D473     		strb	r4, [r2, #15]
 601:../../../support/device/gd32f4xx/peripherals/src/gd32f4xx_can.c ****     receive_message -> rx_data[5] = (uint8_t)(GET_RFIFOMDATA1_DB5(CAN_RFIFOMDATA1(can_periph, fifo_
 1359              		.loc 1 601 5 is_stmt 1 view .LVU493
 1360              		.loc 1 601 47 is_stmt 0 view .LVU494
 1361 005a D3F8BC41 		ldr	r4, [r3, #444]
 1362 005e 240A     		lsrs	r4, r4, #8
 1363              		.loc 1 601 37 view .LVU495
 1364 0060 1474     		strb	r4, [r2, #16]
 602:../../../support/device/gd32f4xx/peripherals/src/gd32f4xx_can.c ****     receive_message -> rx_data[6] = (uint8_t)(GET_RFIFOMDATA1_DB6(CAN_RFIFOMDATA1(can_periph, fifo_
 1365              		.loc 1 602 5 is_stmt 1 view .LVU496
 1366              		.loc 1 602 47 is_stmt 0 view .LVU497
 1367 0062 D3F8BC41 		ldr	r4, [r3, #444]
 1368 0066 240C     		lsrs	r4, r4, #16
 1369              		.loc 1 602 37 view .LVU498
 1370 0068 5474     		strb	r4, [r2, #17]
 603:../../../support/device/gd32f4xx/peripherals/src/gd32f4xx_can.c ****     receive_message -> rx_data[7] = (uint8_t)(GET_RFIFOMDATA1_DB7(CAN_RFIFOMDATA1(can_periph, fifo_
 1371              		.loc 1 603 5 is_stmt 1 view .LVU499
 1372              		.loc 1 603 47 is_stmt 0 view .LVU500
 1373 006a D3F8BC31 		ldr	r3, [r3, #444]
 1374 006e 1B0E     		lsrs	r3, r3, #24
 1375              		.loc 1 603 37 view .LVU501
 1376 0070 9374     		strb	r3, [r2, #18]
 604:../../../support/device/gd32f4xx/peripherals/src/gd32f4xx_can.c **** 
 605:../../../support/device/gd32f4xx/peripherals/src/gd32f4xx_can.c ****     /* release FIFO */
 606:../../../support/device/gd32f4xx/peripherals/src/gd32f4xx_can.c ****     if(CAN_FIFO0 == fifo_number) {
 1377              		.loc 1 606 5 is_stmt 1 view .LVU502
 1378              		.loc 1 606 7 is_stmt 0 view .LVU503
 1379 0072 51B9     		cbnz	r1, .L107
 607:../../../support/device/gd32f4xx/peripherals/src/gd32f4xx_can.c ****         CAN_RFIFO0(can_periph) |= CAN_RFIFO0_RFD0;
 1380              		.loc 1 607 9 is_stmt 1 view .LVU504
 1381              		.loc 1 607 32 is_stmt 0 view .LVU505
 1382 0074 C368     		ldr	r3, [r0, #12]
ARM GAS  /var/folders/_f/88qcw_5n2jl40jjphvxyt7wh0000gn/T//ccVo6N4q.s 			page 39


 608:../../../support/device/gd32f4xx/peripherals/src/gd32f4xx_can.c ****     } else {
 609:../../../support/device/gd32f4xx/peripherals/src/gd32f4xx_can.c ****         CAN_RFIFO1(can_periph) |= CAN_RFIFO1_RFD1;
 610:../../../support/device/gd32f4xx/peripherals/src/gd32f4xx_can.c ****     }
 611:../../../support/device/gd32f4xx/peripherals/src/gd32f4xx_can.c **** }
 1383              		.loc 1 611 1 view .LVU506
 1384 0076 10BC     		pop	{r4}
 1385              	.LCFI10:
 1386              		.cfi_remember_state
 1387              		.cfi_restore 4
 1388              		.cfi_def_cfa_offset 0
 607:../../../support/device/gd32f4xx/peripherals/src/gd32f4xx_can.c ****         CAN_RFIFO0(can_periph) |= CAN_RFIFO0_RFD0;
 1389              		.loc 1 607 32 view .LVU507
 1390 0078 43F02003 		orr	r3, r3, #32
 1391 007c C360     		str	r3, [r0, #12]
 1392              		.loc 1 611 1 view .LVU508
 1393 007e 7047     		bx	lr
 1394              	.L105:
 1395              	.LCFI11:
 1396              		.cfi_restore_state
 585:../../../support/device/gd32f4xx/peripherals/src/gd32f4xx_can.c ****     }
 1397              		.loc 1 585 9 is_stmt 1 view .LVU509
 585:../../../support/device/gd32f4xx/peripherals/src/gd32f4xx_can.c ****     }
 1398              		.loc 1 585 47 is_stmt 0 view .LVU510
 1399 0080 D3F8B041 		ldr	r4, [r3, #432]
 585:../../../support/device/gd32f4xx/peripherals/src/gd32f4xx_can.c ****     }
 1400              		.loc 1 585 36 view .LVU511
 1401 0084 E408     		lsrs	r4, r4, #3
 585:../../../support/device/gd32f4xx/peripherals/src/gd32f4xx_can.c ****     }
 1402              		.loc 1 585 34 view .LVU512
 1403 0086 5460     		str	r4, [r2, #4]
 1404 0088 C7E7     		b	.L106
 1405              	.L107:
 609:../../../support/device/gd32f4xx/peripherals/src/gd32f4xx_can.c ****     }
 1406              		.loc 1 609 9 is_stmt 1 view .LVU513
 609:../../../support/device/gd32f4xx/peripherals/src/gd32f4xx_can.c ****     }
 1407              		.loc 1 609 32 is_stmt 0 view .LVU514
 1408 008a 0369     		ldr	r3, [r0, #16]
 1409              		.loc 1 611 1 view .LVU515
 1410 008c 10BC     		pop	{r4}
 1411              	.LCFI12:
 1412              		.cfi_restore 4
 1413              		.cfi_def_cfa_offset 0
 609:../../../support/device/gd32f4xx/peripherals/src/gd32f4xx_can.c ****     }
 1414              		.loc 1 609 32 view .LVU516
 1415 008e 43F02003 		orr	r3, r3, #32
 1416 0092 0361     		str	r3, [r0, #16]
 1417              		.loc 1 611 1 view .LVU517
 1418 0094 7047     		bx	lr
 1419              		.cfi_endproc
 1420              	.LFE128:
 1422 0096 00BF     		.section	.text.can_fifo_release,"ax",%progbits
 1423              		.align	1
 1424              		.p2align 2,,3
 1425              		.global	can_fifo_release
 1426              		.syntax unified
 1427              		.thumb
 1428              		.thumb_func
ARM GAS  /var/folders/_f/88qcw_5n2jl40jjphvxyt7wh0000gn/T//ccVo6N4q.s 			page 40


 1430              	can_fifo_release:
 1431              	.LVL79:
 1432              	.LFB129:
 612:../../../support/device/gd32f4xx/peripherals/src/gd32f4xx_can.c **** 
 613:../../../support/device/gd32f4xx/peripherals/src/gd32f4xx_can.c **** /*!
 614:../../../support/device/gd32f4xx/peripherals/src/gd32f4xx_can.c ****     \brief      release FIFO
 615:../../../support/device/gd32f4xx/peripherals/src/gd32f4xx_can.c ****     \param[in]  can_periph
 616:../../../support/device/gd32f4xx/peripherals/src/gd32f4xx_can.c ****       \arg        CANx(x=0,1)
 617:../../../support/device/gd32f4xx/peripherals/src/gd32f4xx_can.c ****     \param[in]  fifo_number
 618:../../../support/device/gd32f4xx/peripherals/src/gd32f4xx_can.c ****                 only one parameter can be selected which is shown as below:
 619:../../../support/device/gd32f4xx/peripherals/src/gd32f4xx_can.c ****       \arg        CAN_FIFOx(x=0,1)
 620:../../../support/device/gd32f4xx/peripherals/src/gd32f4xx_can.c ****     \param[out] none
 621:../../../support/device/gd32f4xx/peripherals/src/gd32f4xx_can.c ****     \retval     none
 622:../../../support/device/gd32f4xx/peripherals/src/gd32f4xx_can.c **** */
 623:../../../support/device/gd32f4xx/peripherals/src/gd32f4xx_can.c **** void can_fifo_release(uint32_t can_periph, uint8_t fifo_number)
 624:../../../support/device/gd32f4xx/peripherals/src/gd32f4xx_can.c **** {
 1433              		.loc 1 624 1 is_stmt 1 view -0
 1434              		.cfi_startproc
 1435              		@ args = 0, pretend = 0, frame = 0
 1436              		@ frame_needed = 0, uses_anonymous_args = 0
 1437              		@ link register save eliminated.
 625:../../../support/device/gd32f4xx/peripherals/src/gd32f4xx_can.c ****     if(CAN_FIFO0 == fifo_number) {
 1438              		.loc 1 625 5 view .LVU519
 1439              		.loc 1 625 7 is_stmt 0 view .LVU520
 1440 0000 21B9     		cbnz	r1, .L111
 626:../../../support/device/gd32f4xx/peripherals/src/gd32f4xx_can.c ****         CAN_RFIFO0(can_periph) |= CAN_RFIFO0_RFD0;
 1441              		.loc 1 626 9 is_stmt 1 view .LVU521
 1442              		.loc 1 626 32 is_stmt 0 view .LVU522
 1443 0002 C368     		ldr	r3, [r0, #12]
 1444 0004 43F02003 		orr	r3, r3, #32
 1445 0008 C360     		str	r3, [r0, #12]
 1446 000a 7047     		bx	lr
 1447              	.L111:
 627:../../../support/device/gd32f4xx/peripherals/src/gd32f4xx_can.c ****     } else if(CAN_FIFO1 == fifo_number) {
 1448              		.loc 1 627 12 is_stmt 1 view .LVU523
 1449              		.loc 1 627 14 is_stmt 0 view .LVU524
 1450 000c 0129     		cmp	r1, #1
 1451 000e 00D0     		beq	.L116
 1452              	.L113:
 628:../../../support/device/gd32f4xx/peripherals/src/gd32f4xx_can.c ****         CAN_RFIFO1(can_periph) |= CAN_RFIFO1_RFD1;
 629:../../../support/device/gd32f4xx/peripherals/src/gd32f4xx_can.c ****     } else {
 630:../../../support/device/gd32f4xx/peripherals/src/gd32f4xx_can.c ****         /* illegal parameters */
 631:../../../support/device/gd32f4xx/peripherals/src/gd32f4xx_can.c ****         CAN_ERROR_HANDLE("CAN FIFO NUM is invalid \r\n");
 1453              		.loc 1 631 9 is_stmt 1 discriminator 1 view .LVU525
 1454              		.loc 1 631 9 discriminator 1 view .LVU526
 1455              		.loc 1 631 9 discriminator 1 view .LVU527
 1456              		.loc 1 631 9 discriminator 1 view .LVU528
 1457              		.loc 1 631 9 discriminator 1 view .LVU529
 1458              		.loc 1 631 9 discriminator 1 view .LVU530
 1459 0010 FEE7     		b	.L113
 1460              	.L116:
 628:../../../support/device/gd32f4xx/peripherals/src/gd32f4xx_can.c ****         CAN_RFIFO1(can_periph) |= CAN_RFIFO1_RFD1;
 1461              		.loc 1 628 9 view .LVU531
 628:../../../support/device/gd32f4xx/peripherals/src/gd32f4xx_can.c ****         CAN_RFIFO1(can_periph) |= CAN_RFIFO1_RFD1;
 1462              		.loc 1 628 32 is_stmt 0 view .LVU532
 1463 0012 0369     		ldr	r3, [r0, #16]
 1464 0014 43F02003 		orr	r3, r3, #32
ARM GAS  /var/folders/_f/88qcw_5n2jl40jjphvxyt7wh0000gn/T//ccVo6N4q.s 			page 41


 1465 0018 0361     		str	r3, [r0, #16]
 632:../../../support/device/gd32f4xx/peripherals/src/gd32f4xx_can.c ****     }
 633:../../../support/device/gd32f4xx/peripherals/src/gd32f4xx_can.c **** }
 1466              		.loc 1 633 1 view .LVU533
 1467 001a 7047     		bx	lr
 1468              		.cfi_endproc
 1469              	.LFE129:
 1471              		.section	.text.can_receive_message_length_get,"ax",%progbits
 1472              		.align	1
 1473              		.p2align 2,,3
 1474              		.global	can_receive_message_length_get
 1475              		.syntax unified
 1476              		.thumb
 1477              		.thumb_func
 1479              	can_receive_message_length_get:
 1480              	.LVL80:
 1481              	.LFB130:
 634:../../../support/device/gd32f4xx/peripherals/src/gd32f4xx_can.c **** 
 635:../../../support/device/gd32f4xx/peripherals/src/gd32f4xx_can.c **** /*!
 636:../../../support/device/gd32f4xx/peripherals/src/gd32f4xx_can.c ****     \brief      CAN receive message length
 637:../../../support/device/gd32f4xx/peripherals/src/gd32f4xx_can.c ****     \param[in]  can_periph
 638:../../../support/device/gd32f4xx/peripherals/src/gd32f4xx_can.c ****       \arg        CANx(x=0,1)
 639:../../../support/device/gd32f4xx/peripherals/src/gd32f4xx_can.c ****     \param[in]  fifo_number
 640:../../../support/device/gd32f4xx/peripherals/src/gd32f4xx_can.c ****                 only one parameter can be selected which is shown as below:
 641:../../../support/device/gd32f4xx/peripherals/src/gd32f4xx_can.c ****       \arg        CAN_FIFOx(x=0,1)
 642:../../../support/device/gd32f4xx/peripherals/src/gd32f4xx_can.c ****     \param[out] none
 643:../../../support/device/gd32f4xx/peripherals/src/gd32f4xx_can.c ****     \retval     message length
 644:../../../support/device/gd32f4xx/peripherals/src/gd32f4xx_can.c **** */
 645:../../../support/device/gd32f4xx/peripherals/src/gd32f4xx_can.c **** uint8_t can_receive_message_length_get(uint32_t can_periph, uint8_t fifo_number)
 646:../../../support/device/gd32f4xx/peripherals/src/gd32f4xx_can.c **** {
 1482              		.loc 1 646 1 is_stmt 1 view -0
 1483              		.cfi_startproc
 1484              		@ args = 0, pretend = 0, frame = 0
 1485              		@ frame_needed = 0, uses_anonymous_args = 0
 1486              		@ link register save eliminated.
 647:../../../support/device/gd32f4xx/peripherals/src/gd32f4xx_can.c ****     uint8_t val = 0U;
 1487              		.loc 1 647 5 view .LVU535
 648:../../../support/device/gd32f4xx/peripherals/src/gd32f4xx_can.c **** 
 649:../../../support/device/gd32f4xx/peripherals/src/gd32f4xx_can.c ****     if(CAN_FIFO0 == fifo_number) {
 1488              		.loc 1 649 5 view .LVU536
 1489              		.loc 1 649 7 is_stmt 0 view .LVU537
 1490 0000 19B9     		cbnz	r1, .L118
 650:../../../support/device/gd32f4xx/peripherals/src/gd32f4xx_can.c ****         /* FIFO0 */
 651:../../../support/device/gd32f4xx/peripherals/src/gd32f4xx_can.c ****         val = (uint8_t)(CAN_RFIFO0(can_periph) & CAN_RFIF_RFL_MASK);
 1491              		.loc 1 651 9 is_stmt 1 view .LVU538
 1492              		.loc 1 651 25 is_stmt 0 view .LVU539
 1493 0002 C068     		ldr	r0, [r0, #12]
 1494              	.LVL81:
 1495              		.loc 1 651 13 view .LVU540
 1496 0004 00F00300 		and	r0, r0, #3
 1497              	.LVL82:
 1498              		.loc 1 651 13 view .LVU541
 1499 0008 7047     		bx	lr
 1500              	.LVL83:
 1501              	.L118:
 1502              	.LBB10:
 1503              	.LBI10:
ARM GAS  /var/folders/_f/88qcw_5n2jl40jjphvxyt7wh0000gn/T//ccVo6N4q.s 			page 42


 645:../../../support/device/gd32f4xx/peripherals/src/gd32f4xx_can.c **** {
 1504              		.loc 1 645 9 is_stmt 1 view .LVU542
 1505              	.LBB11:
 652:../../../support/device/gd32f4xx/peripherals/src/gd32f4xx_can.c ****     } else if(CAN_FIFO1 == fifo_number) {
 1506              		.loc 1 652 12 view .LVU543
 653:../../../support/device/gd32f4xx/peripherals/src/gd32f4xx_can.c ****         /* FIFO1 */
 654:../../../support/device/gd32f4xx/peripherals/src/gd32f4xx_can.c ****         val = (uint8_t)(CAN_RFIFO1(can_periph) & CAN_RFIF_RFL_MASK);
 1507              		.loc 1 654 9 view .LVU544
 652:../../../support/device/gd32f4xx/peripherals/src/gd32f4xx_can.c ****     } else if(CAN_FIFO1 == fifo_number) {
 1508              		.loc 1 652 14 is_stmt 0 view .LVU545
 1509 000a 0129     		cmp	r1, #1
 1510              		.loc 1 654 25 view .LVU546
 1511 000c 06BF     		itte	eq
 1512 000e 0069     		ldreq	r0, [r0, #16]
 1513              	.LVL84:
 1514              		.loc 1 654 13 view .LVU547
 1515 0010 00F00300 		andeq	r0, r0, #3
 1516              	.LVL85:
 647:../../../support/device/gd32f4xx/peripherals/src/gd32f4xx_can.c **** 
 1517              		.loc 1 647 13 view .LVU548
 1518 0014 0020     		movne	r0, #0
 1519              	.LVL86:
 647:../../../support/device/gd32f4xx/peripherals/src/gd32f4xx_can.c **** 
 1520              		.loc 1 647 13 view .LVU549
 1521              	.LBE11:
 1522              	.LBE10:
 655:../../../support/device/gd32f4xx/peripherals/src/gd32f4xx_can.c ****     } else {
 656:../../../support/device/gd32f4xx/peripherals/src/gd32f4xx_can.c ****         /* illegal parameters */
 657:../../../support/device/gd32f4xx/peripherals/src/gd32f4xx_can.c ****     }
 1523              		.loc 1 657 5 is_stmt 1 view .LVU550
 658:../../../support/device/gd32f4xx/peripherals/src/gd32f4xx_can.c ****     return val;
 1524              		.loc 1 658 5 view .LVU551
 659:../../../support/device/gd32f4xx/peripherals/src/gd32f4xx_can.c **** }
 1525              		.loc 1 659 1 is_stmt 0 view .LVU552
 1526 0016 7047     		bx	lr
 1527              		.cfi_endproc
 1528              	.LFE130:
 1530              		.section	.text.can_working_mode_set,"ax",%progbits
 1531              		.align	1
 1532              		.p2align 2,,3
 1533              		.global	can_working_mode_set
 1534              		.syntax unified
 1535              		.thumb
 1536              		.thumb_func
 1538              	can_working_mode_set:
 1539              	.LVL87:
 1540              	.LFB131:
 660:../../../support/device/gd32f4xx/peripherals/src/gd32f4xx_can.c **** 
 661:../../../support/device/gd32f4xx/peripherals/src/gd32f4xx_can.c **** /*!
 662:../../../support/device/gd32f4xx/peripherals/src/gd32f4xx_can.c ****     \brief      set CAN working mode
 663:../../../support/device/gd32f4xx/peripherals/src/gd32f4xx_can.c ****     \param[in]  can_periph
 664:../../../support/device/gd32f4xx/peripherals/src/gd32f4xx_can.c ****       \arg        CANx(x=0,1)
 665:../../../support/device/gd32f4xx/peripherals/src/gd32f4xx_can.c ****     \param[in]  can_working_mode
 666:../../../support/device/gd32f4xx/peripherals/src/gd32f4xx_can.c ****                 only one parameter can be selected which is shown as below:
 667:../../../support/device/gd32f4xx/peripherals/src/gd32f4xx_can.c ****       \arg        CAN_MODE_INITIALIZE
 668:../../../support/device/gd32f4xx/peripherals/src/gd32f4xx_can.c ****       \arg        CAN_MODE_NORMAL
 669:../../../support/device/gd32f4xx/peripherals/src/gd32f4xx_can.c ****       \arg        CAN_MODE_SLEEP
ARM GAS  /var/folders/_f/88qcw_5n2jl40jjphvxyt7wh0000gn/T//ccVo6N4q.s 			page 43


 670:../../../support/device/gd32f4xx/peripherals/src/gd32f4xx_can.c ****     \param[out] none
 671:../../../support/device/gd32f4xx/peripherals/src/gd32f4xx_can.c ****     \retval     ErrStatus: SUCCESS or ERROR
 672:../../../support/device/gd32f4xx/peripherals/src/gd32f4xx_can.c **** */
 673:../../../support/device/gd32f4xx/peripherals/src/gd32f4xx_can.c **** ErrStatus can_working_mode_set(uint32_t can_periph, uint8_t working_mode)
 674:../../../support/device/gd32f4xx/peripherals/src/gd32f4xx_can.c **** {
 1541              		.loc 1 674 1 is_stmt 1 view -0
 1542              		.cfi_startproc
 1543              		@ args = 0, pretend = 0, frame = 0
 1544              		@ frame_needed = 0, uses_anonymous_args = 0
 1545              		@ link register save eliminated.
 675:../../../support/device/gd32f4xx/peripherals/src/gd32f4xx_can.c ****     ErrStatus flag = ERROR;
 1546              		.loc 1 675 5 view .LVU554
 676:../../../support/device/gd32f4xx/peripherals/src/gd32f4xx_can.c ****     /* timeout for IWS or also for SLPWS bits */
 677:../../../support/device/gd32f4xx/peripherals/src/gd32f4xx_can.c ****     uint32_t timeout = CAN_TIMEOUT;
 1547              		.loc 1 677 5 view .LVU555
 678:../../../support/device/gd32f4xx/peripherals/src/gd32f4xx_can.c **** 
 679:../../../support/device/gd32f4xx/peripherals/src/gd32f4xx_can.c ****     if(CAN_MODE_INITIALIZE == working_mode) {
 1548              		.loc 1 679 5 view .LVU556
 1549              		.loc 1 679 7 is_stmt 0 view .LVU557
 1550 0000 0129     		cmp	r1, #1
 1551 0002 1DD0     		beq	.L141
 680:../../../support/device/gd32f4xx/peripherals/src/gd32f4xx_can.c ****         /* disable sleep mode */
 681:../../../support/device/gd32f4xx/peripherals/src/gd32f4xx_can.c ****         CAN_CTL(can_periph) &= (~(uint32_t)CAN_CTL_SLPWMOD);
 682:../../../support/device/gd32f4xx/peripherals/src/gd32f4xx_can.c ****         /* set initialize mode */
 683:../../../support/device/gd32f4xx/peripherals/src/gd32f4xx_can.c ****         CAN_CTL(can_periph) |= (uint8_t)CAN_CTL_IWMOD;
 684:../../../support/device/gd32f4xx/peripherals/src/gd32f4xx_can.c ****         /* wait the acknowledge */
 685:../../../support/device/gd32f4xx/peripherals/src/gd32f4xx_can.c ****         while((CAN_STAT_IWS != (CAN_STAT(can_periph) & CAN_STAT_IWS)) && (0U != timeout)) {
 686:../../../support/device/gd32f4xx/peripherals/src/gd32f4xx_can.c ****             timeout--;
 687:../../../support/device/gd32f4xx/peripherals/src/gd32f4xx_can.c ****         }
 688:../../../support/device/gd32f4xx/peripherals/src/gd32f4xx_can.c ****         if(CAN_STAT_IWS != (CAN_STAT(can_periph) & CAN_STAT_IWS)) {
 689:../../../support/device/gd32f4xx/peripherals/src/gd32f4xx_can.c ****             flag = ERROR;
 690:../../../support/device/gd32f4xx/peripherals/src/gd32f4xx_can.c ****         } else {
 691:../../../support/device/gd32f4xx/peripherals/src/gd32f4xx_can.c ****             flag = SUCCESS;
 692:../../../support/device/gd32f4xx/peripherals/src/gd32f4xx_can.c ****         }
 693:../../../support/device/gd32f4xx/peripherals/src/gd32f4xx_can.c ****     } else if(CAN_MODE_NORMAL == working_mode) {
 1552              		.loc 1 693 12 is_stmt 1 view .LVU558
 1553              		.loc 1 693 14 is_stmt 0 view .LVU559
 1554 0004 0229     		cmp	r1, #2
 1555 0006 03D0     		beq	.L142
 694:../../../support/device/gd32f4xx/peripherals/src/gd32f4xx_can.c ****         /* enter normal mode */
 695:../../../support/device/gd32f4xx/peripherals/src/gd32f4xx_can.c ****         CAN_CTL(can_periph) &= ~(uint32_t)(CAN_CTL_SLPWMOD | CAN_CTL_IWMOD);
 696:../../../support/device/gd32f4xx/peripherals/src/gd32f4xx_can.c ****         /* wait the acknowledge */
 697:../../../support/device/gd32f4xx/peripherals/src/gd32f4xx_can.c ****         while((0U != (CAN_STAT(can_periph) & (CAN_STAT_IWS | CAN_STAT_SLPWS))) && (0U != timeout)) 
 698:../../../support/device/gd32f4xx/peripherals/src/gd32f4xx_can.c ****             timeout--;
 699:../../../support/device/gd32f4xx/peripherals/src/gd32f4xx_can.c ****         }
 700:../../../support/device/gd32f4xx/peripherals/src/gd32f4xx_can.c ****         if(0U != (CAN_STAT(can_periph) & (CAN_STAT_IWS | CAN_STAT_SLPWS))) {
 701:../../../support/device/gd32f4xx/peripherals/src/gd32f4xx_can.c ****             flag = ERROR;
 702:../../../support/device/gd32f4xx/peripherals/src/gd32f4xx_can.c ****         } else {
 703:../../../support/device/gd32f4xx/peripherals/src/gd32f4xx_can.c ****             flag = SUCCESS;
 704:../../../support/device/gd32f4xx/peripherals/src/gd32f4xx_can.c ****         }
 705:../../../support/device/gd32f4xx/peripherals/src/gd32f4xx_can.c ****     } else if(CAN_MODE_SLEEP == working_mode) {
 1556              		.loc 1 705 12 is_stmt 1 view .LVU560
 1557              		.loc 1 705 14 is_stmt 0 view .LVU561
 1558 0008 0429     		cmp	r1, #4
 1559 000a 32D0     		beq	.L143
 706:../../../support/device/gd32f4xx/peripherals/src/gd32f4xx_can.c ****         /* disable initialize mode */
 707:../../../support/device/gd32f4xx/peripherals/src/gd32f4xx_can.c ****         CAN_CTL(can_periph) &= (~(uint32_t)CAN_CTL_IWMOD);
ARM GAS  /var/folders/_f/88qcw_5n2jl40jjphvxyt7wh0000gn/T//ccVo6N4q.s 			page 44


 708:../../../support/device/gd32f4xx/peripherals/src/gd32f4xx_can.c ****         /* set sleep mode */
 709:../../../support/device/gd32f4xx/peripherals/src/gd32f4xx_can.c ****         CAN_CTL(can_periph) |= (uint8_t)CAN_CTL_SLPWMOD;
 710:../../../support/device/gd32f4xx/peripherals/src/gd32f4xx_can.c ****         /* wait the acknowledge */
 711:../../../support/device/gd32f4xx/peripherals/src/gd32f4xx_can.c ****         while((CAN_STAT_SLPWS != (CAN_STAT(can_periph) & CAN_STAT_SLPWS)) && (0U != timeout)) {
 712:../../../support/device/gd32f4xx/peripherals/src/gd32f4xx_can.c ****             timeout--;
 713:../../../support/device/gd32f4xx/peripherals/src/gd32f4xx_can.c ****         }
 714:../../../support/device/gd32f4xx/peripherals/src/gd32f4xx_can.c ****         if(CAN_STAT_SLPWS != (CAN_STAT(can_periph) & CAN_STAT_SLPWS)) {
 715:../../../support/device/gd32f4xx/peripherals/src/gd32f4xx_can.c ****             flag = ERROR;
 716:../../../support/device/gd32f4xx/peripherals/src/gd32f4xx_can.c ****         } else {
 717:../../../support/device/gd32f4xx/peripherals/src/gd32f4xx_can.c ****             flag = SUCCESS;
 718:../../../support/device/gd32f4xx/peripherals/src/gd32f4xx_can.c ****         }
 719:../../../support/device/gd32f4xx/peripherals/src/gd32f4xx_can.c ****     } else {
 720:../../../support/device/gd32f4xx/peripherals/src/gd32f4xx_can.c ****         flag = ERROR;
 1560              		.loc 1 720 14 view .LVU562
 1561 000c 0020     		movs	r0, #0
 1562              	.LVL88:
 721:../../../support/device/gd32f4xx/peripherals/src/gd32f4xx_can.c ****     }
 722:../../../support/device/gd32f4xx/peripherals/src/gd32f4xx_can.c ****     return flag;
 1563              		.loc 1 722 5 is_stmt 1 view .LVU563
 723:../../../support/device/gd32f4xx/peripherals/src/gd32f4xx_can.c **** }
 1564              		.loc 1 723 1 is_stmt 0 view .LVU564
 1565 000e 7047     		bx	lr
 1566              	.LVL89:
 1567              	.L142:
 695:../../../support/device/gd32f4xx/peripherals/src/gd32f4xx_can.c ****         /* wait the acknowledge */
 1568              		.loc 1 695 9 is_stmt 1 view .LVU565
 695:../../../support/device/gd32f4xx/peripherals/src/gd32f4xx_can.c ****         /* wait the acknowledge */
 1569              		.loc 1 695 29 is_stmt 0 view .LVU566
 1570 0010 0368     		ldr	r3, [r0]
 1571 0012 0146     		mov	r1, r0
 1572              	.LVL90:
 695:../../../support/device/gd32f4xx/peripherals/src/gd32f4xx_can.c ****         /* wait the acknowledge */
 1573              		.loc 1 695 29 view .LVU567
 1574 0014 23F00303 		bic	r3, r3, #3
 1575 0018 41F8043B 		str	r3, [r1], #4
 697:../../../support/device/gd32f4xx/peripherals/src/gd32f4xx_can.c ****             timeout--;
 1576              		.loc 1 697 9 is_stmt 1 view .LVU568
 697:../../../support/device/gd32f4xx/peripherals/src/gd32f4xx_can.c ****             timeout--;
 1577              		.loc 1 697 14 view .LVU569
 697:../../../support/device/gd32f4xx/peripherals/src/gd32f4xx_can.c ****             timeout--;
 1578              		.loc 1 697 23 is_stmt 0 view .LVU570
 1579 001c 4368     		ldr	r3, [r0, #4]
 697:../../../support/device/gd32f4xx/peripherals/src/gd32f4xx_can.c ****             timeout--;
 1580              		.loc 1 697 14 view .LVU571
 1581 001e 9B07     		lsls	r3, r3, #30
 1582 0020 07D0     		beq	.L127
 1583 0022 4FF6FF73 		movw	r3, #65535
 1584 0026 01E0     		b	.L128
 1585              	.LVL91:
 1586              	.L144:
 697:../../../support/device/gd32f4xx/peripherals/src/gd32f4xx_can.c ****             timeout--;
 1587              		.loc 1 697 80 discriminator 1 view .LVU572
 1588 0028 013B     		subs	r3, r3, #1
 1589 002a 02D0     		beq	.L127
 1590              	.L128:
 698:../../../support/device/gd32f4xx/peripherals/src/gd32f4xx_can.c ****         }
 1591              		.loc 1 698 13 is_stmt 1 view .LVU573
ARM GAS  /var/folders/_f/88qcw_5n2jl40jjphvxyt7wh0000gn/T//ccVo6N4q.s 			page 45


 697:../../../support/device/gd32f4xx/peripherals/src/gd32f4xx_can.c ****             timeout--;
 1592              		.loc 1 697 14 view .LVU574
 697:../../../support/device/gd32f4xx/peripherals/src/gd32f4xx_can.c ****             timeout--;
 1593              		.loc 1 697 23 is_stmt 0 view .LVU575
 1594 002c 0A68     		ldr	r2, [r1]
 697:../../../support/device/gd32f4xx/peripherals/src/gd32f4xx_can.c ****             timeout--;
 1595              		.loc 1 697 14 view .LVU576
 1596 002e 9207     		lsls	r2, r2, #30
 1597 0030 FAD1     		bne	.L144
 1598              	.L127:
 700:../../../support/device/gd32f4xx/peripherals/src/gd32f4xx_can.c ****             flag = ERROR;
 1599              		.loc 1 700 9 is_stmt 1 view .LVU577
 700:../../../support/device/gd32f4xx/peripherals/src/gd32f4xx_can.c ****             flag = ERROR;
 1600              		.loc 1 700 19 is_stmt 0 view .LVU578
 1601 0032 4368     		ldr	r3, [r0, #4]
 700:../../../support/device/gd32f4xx/peripherals/src/gd32f4xx_can.c ****             flag = ERROR;
 1602              		.loc 1 700 11 view .LVU579
 1603 0034 13F0030F 		tst	r3, #3
 715:../../../support/device/gd32f4xx/peripherals/src/gd32f4xx_can.c ****         } else {
 1604              		.loc 1 715 18 view .LVU580
 1605 0038 0CBF     		ite	eq
 1606 003a 0120     		moveq	r0, #1
 1607              	.LVL92:
 715:../../../support/device/gd32f4xx/peripherals/src/gd32f4xx_can.c ****         } else {
 1608              		.loc 1 715 18 view .LVU581
 1609 003c 0020     		movne	r0, #0
 1610 003e 7047     		bx	lr
 1611              	.LVL93:
 1612              	.L141:
 681:../../../support/device/gd32f4xx/peripherals/src/gd32f4xx_can.c ****         /* set initialize mode */
 1613              		.loc 1 681 9 is_stmt 1 view .LVU582
 681:../../../support/device/gd32f4xx/peripherals/src/gd32f4xx_can.c ****         /* set initialize mode */
 1614              		.loc 1 681 29 is_stmt 0 view .LVU583
 1615 0040 0368     		ldr	r3, [r0]
 1616 0042 23F00203 		bic	r3, r3, #2
 1617 0046 0360     		str	r3, [r0]
 683:../../../support/device/gd32f4xx/peripherals/src/gd32f4xx_can.c ****         /* wait the acknowledge */
 1618              		.loc 1 683 9 is_stmt 1 view .LVU584
 683:../../../support/device/gd32f4xx/peripherals/src/gd32f4xx_can.c ****         /* wait the acknowledge */
 1619              		.loc 1 683 29 is_stmt 0 view .LVU585
 1620 0048 0368     		ldr	r3, [r0]
 1621 004a 0146     		mov	r1, r0
 1622              	.LVL94:
 683:../../../support/device/gd32f4xx/peripherals/src/gd32f4xx_can.c ****         /* wait the acknowledge */
 1623              		.loc 1 683 29 view .LVU586
 1624 004c 43F00103 		orr	r3, r3, #1
 1625 0050 41F8043B 		str	r3, [r1], #4
 685:../../../support/device/gd32f4xx/peripherals/src/gd32f4xx_can.c ****             timeout--;
 1626              		.loc 1 685 9 is_stmt 1 view .LVU587
 685:../../../support/device/gd32f4xx/peripherals/src/gd32f4xx_can.c ****             timeout--;
 1627              		.loc 1 685 14 view .LVU588
 685:../../../support/device/gd32f4xx/peripherals/src/gd32f4xx_can.c ****             timeout--;
 1628              		.loc 1 685 33 is_stmt 0 view .LVU589
 1629 0054 4368     		ldr	r3, [r0, #4]
 685:../../../support/device/gd32f4xx/peripherals/src/gd32f4xx_can.c ****             timeout--;
 1630              		.loc 1 685 14 view .LVU590
 1631 0056 DB07     		lsls	r3, r3, #31
ARM GAS  /var/folders/_f/88qcw_5n2jl40jjphvxyt7wh0000gn/T//ccVo6N4q.s 			page 46


 1632 0058 07D4     		bmi	.L123
 1633 005a 4FF6FF73 		movw	r3, #65535
 1634 005e 01E0     		b	.L124
 1635              	.LVL95:
 1636              	.L145:
 685:../../../support/device/gd32f4xx/peripherals/src/gd32f4xx_can.c ****             timeout--;
 1637              		.loc 1 685 71 discriminator 1 view .LVU591
 1638 0060 013B     		subs	r3, r3, #1
 1639 0062 02D0     		beq	.L123
 1640              	.L124:
 686:../../../support/device/gd32f4xx/peripherals/src/gd32f4xx_can.c ****         }
 1641              		.loc 1 686 13 is_stmt 1 view .LVU592
 685:../../../support/device/gd32f4xx/peripherals/src/gd32f4xx_can.c ****             timeout--;
 1642              		.loc 1 685 14 view .LVU593
 685:../../../support/device/gd32f4xx/peripherals/src/gd32f4xx_can.c ****             timeout--;
 1643              		.loc 1 685 33 is_stmt 0 view .LVU594
 1644 0064 0A68     		ldr	r2, [r1]
 685:../../../support/device/gd32f4xx/peripherals/src/gd32f4xx_can.c ****             timeout--;
 1645              		.loc 1 685 14 view .LVU595
 1646 0066 D207     		lsls	r2, r2, #31
 1647 0068 FAD5     		bpl	.L145
 1648              	.L123:
 688:../../../support/device/gd32f4xx/peripherals/src/gd32f4xx_can.c ****             flag = ERROR;
 1649              		.loc 1 688 9 is_stmt 1 view .LVU596
 688:../../../support/device/gd32f4xx/peripherals/src/gd32f4xx_can.c ****             flag = ERROR;
 1650              		.loc 1 688 29 is_stmt 0 view .LVU597
 1651 006a 4068     		ldr	r0, [r0, #4]
 1652              	.LVL96:
 688:../../../support/device/gd32f4xx/peripherals/src/gd32f4xx_can.c ****             flag = ERROR;
 1653              		.loc 1 688 11 view .LVU598
 1654 006c 00F00100 		and	r0, r0, #1
 1655 0070 7047     		bx	lr
 1656              	.LVL97:
 1657              	.L143:
 707:../../../support/device/gd32f4xx/peripherals/src/gd32f4xx_can.c ****         /* set sleep mode */
 1658              		.loc 1 707 9 is_stmt 1 view .LVU599
 707:../../../support/device/gd32f4xx/peripherals/src/gd32f4xx_can.c ****         /* set sleep mode */
 1659              		.loc 1 707 29 is_stmt 0 view .LVU600
 1660 0072 0368     		ldr	r3, [r0]
 1661 0074 23F00103 		bic	r3, r3, #1
 1662 0078 0360     		str	r3, [r0]
 709:../../../support/device/gd32f4xx/peripherals/src/gd32f4xx_can.c ****         /* wait the acknowledge */
 1663              		.loc 1 709 9 is_stmt 1 view .LVU601
 709:../../../support/device/gd32f4xx/peripherals/src/gd32f4xx_can.c ****         /* wait the acknowledge */
 1664              		.loc 1 709 29 is_stmt 0 view .LVU602
 1665 007a 0368     		ldr	r3, [r0]
 1666 007c 0146     		mov	r1, r0
 1667              	.LVL98:
 709:../../../support/device/gd32f4xx/peripherals/src/gd32f4xx_can.c ****         /* wait the acknowledge */
 1668              		.loc 1 709 29 view .LVU603
 1669 007e 43F00203 		orr	r3, r3, #2
 1670 0082 41F8043B 		str	r3, [r1], #4
 711:../../../support/device/gd32f4xx/peripherals/src/gd32f4xx_can.c ****             timeout--;
 1671              		.loc 1 711 9 is_stmt 1 view .LVU604
 711:../../../support/device/gd32f4xx/peripherals/src/gd32f4xx_can.c ****             timeout--;
 1672              		.loc 1 711 14 view .LVU605
 711:../../../support/device/gd32f4xx/peripherals/src/gd32f4xx_can.c ****             timeout--;
ARM GAS  /var/folders/_f/88qcw_5n2jl40jjphvxyt7wh0000gn/T//ccVo6N4q.s 			page 47


 1673              		.loc 1 711 35 is_stmt 0 view .LVU606
 1674 0086 4368     		ldr	r3, [r0, #4]
 711:../../../support/device/gd32f4xx/peripherals/src/gd32f4xx_can.c ****             timeout--;
 1675              		.loc 1 711 14 view .LVU607
 1676 0088 9B07     		lsls	r3, r3, #30
 1677 008a 07D4     		bmi	.L129
 1678 008c 4FF6FF73 		movw	r3, #65535
 1679 0090 01E0     		b	.L130
 1680              	.LVL99:
 1681              	.L146:
 711:../../../support/device/gd32f4xx/peripherals/src/gd32f4xx_can.c ****             timeout--;
 1682              		.loc 1 711 75 discriminator 1 view .LVU608
 1683 0092 013B     		subs	r3, r3, #1
 1684 0094 02D0     		beq	.L129
 1685              	.L130:
 712:../../../support/device/gd32f4xx/peripherals/src/gd32f4xx_can.c ****         }
 1686              		.loc 1 712 13 is_stmt 1 view .LVU609
 711:../../../support/device/gd32f4xx/peripherals/src/gd32f4xx_can.c ****             timeout--;
 1687              		.loc 1 711 14 view .LVU610
 711:../../../support/device/gd32f4xx/peripherals/src/gd32f4xx_can.c ****             timeout--;
 1688              		.loc 1 711 35 is_stmt 0 view .LVU611
 1689 0096 0A68     		ldr	r2, [r1]
 711:../../../support/device/gd32f4xx/peripherals/src/gd32f4xx_can.c ****             timeout--;
 1690              		.loc 1 711 14 view .LVU612
 1691 0098 9207     		lsls	r2, r2, #30
 1692 009a FAD5     		bpl	.L146
 1693              	.L129:
 714:../../../support/device/gd32f4xx/peripherals/src/gd32f4xx_can.c ****             flag = ERROR;
 1694              		.loc 1 714 9 is_stmt 1 view .LVU613
 714:../../../support/device/gd32f4xx/peripherals/src/gd32f4xx_can.c ****             flag = ERROR;
 1695              		.loc 1 714 31 is_stmt 0 view .LVU614
 1696 009c 4068     		ldr	r0, [r0, #4]
 1697              	.LVL100:
 715:../../../support/device/gd32f4xx/peripherals/src/gd32f4xx_can.c ****         } else {
 1698              		.loc 1 715 18 view .LVU615
 1699 009e C0F34000 		ubfx	r0, r0, #1, #1
 1700 00a2 7047     		bx	lr
 1701              		.cfi_endproc
 1702              	.LFE131:
 1704              		.section	.text.can_wakeup,"ax",%progbits
 1705              		.align	1
 1706              		.p2align 2,,3
 1707              		.global	can_wakeup
 1708              		.syntax unified
 1709              		.thumb
 1710              		.thumb_func
 1712              	can_wakeup:
 1713              	.LVL101:
 1714              	.LFB132:
 724:../../../support/device/gd32f4xx/peripherals/src/gd32f4xx_can.c **** 
 725:../../../support/device/gd32f4xx/peripherals/src/gd32f4xx_can.c **** /*!
 726:../../../support/device/gd32f4xx/peripherals/src/gd32f4xx_can.c ****     \brief      wake up CAN
 727:../../../support/device/gd32f4xx/peripherals/src/gd32f4xx_can.c ****     \param[in]  can_periph
 728:../../../support/device/gd32f4xx/peripherals/src/gd32f4xx_can.c ****       \arg        CANx(x=0,1)
 729:../../../support/device/gd32f4xx/peripherals/src/gd32f4xx_can.c ****     \param[out] none
 730:../../../support/device/gd32f4xx/peripherals/src/gd32f4xx_can.c ****     \retval     ErrStatus: SUCCESS or ERROR
 731:../../../support/device/gd32f4xx/peripherals/src/gd32f4xx_can.c **** */
ARM GAS  /var/folders/_f/88qcw_5n2jl40jjphvxyt7wh0000gn/T//ccVo6N4q.s 			page 48


 732:../../../support/device/gd32f4xx/peripherals/src/gd32f4xx_can.c **** ErrStatus can_wakeup(uint32_t can_periph)
 733:../../../support/device/gd32f4xx/peripherals/src/gd32f4xx_can.c **** {
 1715              		.loc 1 733 1 is_stmt 1 view -0
 1716              		.cfi_startproc
 1717              		@ args = 0, pretend = 0, frame = 0
 1718              		@ frame_needed = 0, uses_anonymous_args = 0
 1719              		@ link register save eliminated.
 734:../../../support/device/gd32f4xx/peripherals/src/gd32f4xx_can.c ****     ErrStatus flag = ERROR;
 1720              		.loc 1 734 5 view .LVU617
 735:../../../support/device/gd32f4xx/peripherals/src/gd32f4xx_can.c ****     uint32_t timeout = CAN_TIMEOUT;
 1721              		.loc 1 735 5 view .LVU618
 736:../../../support/device/gd32f4xx/peripherals/src/gd32f4xx_can.c **** 
 737:../../../support/device/gd32f4xx/peripherals/src/gd32f4xx_can.c ****     /* wakeup */
 738:../../../support/device/gd32f4xx/peripherals/src/gd32f4xx_can.c ****     CAN_CTL(can_periph) &= ~CAN_CTL_SLPWMOD;
 1722              		.loc 1 738 5 view .LVU619
 1723              		.loc 1 738 25 is_stmt 0 view .LVU620
 1724 0000 0368     		ldr	r3, [r0]
 1725 0002 0146     		mov	r1, r0
 1726 0004 23F00203 		bic	r3, r3, #2
 1727 0008 41F8043B 		str	r3, [r1], #4
 739:../../../support/device/gd32f4xx/peripherals/src/gd32f4xx_can.c **** 
 740:../../../support/device/gd32f4xx/peripherals/src/gd32f4xx_can.c ****     while((0U != (CAN_STAT(can_periph) & CAN_STAT_SLPWS)) && (0x00U != timeout)) {
 1728              		.loc 1 740 5 is_stmt 1 view .LVU621
 1729              		.loc 1 740 10 view .LVU622
 1730              		.loc 1 740 19 is_stmt 0 view .LVU623
 1731 000c 4368     		ldr	r3, [r0, #4]
 1732              		.loc 1 740 10 view .LVU624
 1733 000e 9B07     		lsls	r3, r3, #30
 1734 0010 07D5     		bpl	.L148
 1735 0012 4FF6FF73 		movw	r3, #65535
 1736 0016 01E0     		b	.L149
 1737              	.LVL102:
 1738              	.L157:
 1739              		.loc 1 740 59 discriminator 1 view .LVU625
 1740 0018 013B     		subs	r3, r3, #1
 1741 001a 02D0     		beq	.L148
 1742              	.L149:
 741:../../../support/device/gd32f4xx/peripherals/src/gd32f4xx_can.c ****         timeout--;
 1743              		.loc 1 741 9 is_stmt 1 view .LVU626
 740:../../../support/device/gd32f4xx/peripherals/src/gd32f4xx_can.c ****         timeout--;
 1744              		.loc 1 740 10 view .LVU627
 740:../../../support/device/gd32f4xx/peripherals/src/gd32f4xx_can.c ****         timeout--;
 1745              		.loc 1 740 19 is_stmt 0 view .LVU628
 1746 001c 0A68     		ldr	r2, [r1]
 740:../../../support/device/gd32f4xx/peripherals/src/gd32f4xx_can.c ****         timeout--;
 1747              		.loc 1 740 10 view .LVU629
 1748 001e 9207     		lsls	r2, r2, #30
 1749 0020 FAD4     		bmi	.L157
 1750              	.L148:
 742:../../../support/device/gd32f4xx/peripherals/src/gd32f4xx_can.c ****     }
 743:../../../support/device/gd32f4xx/peripherals/src/gd32f4xx_can.c ****     /* check state */
 744:../../../support/device/gd32f4xx/peripherals/src/gd32f4xx_can.c ****     if(0U != (CAN_STAT(can_periph) & CAN_STAT_SLPWS)) {
 1751              		.loc 1 744 5 is_stmt 1 view .LVU630
 1752              		.loc 1 744 15 is_stmt 0 view .LVU631
 1753 0022 4068     		ldr	r0, [r0, #4]
 1754              	.LVL103:
 745:../../../support/device/gd32f4xx/peripherals/src/gd32f4xx_can.c ****         flag = ERROR;
ARM GAS  /var/folders/_f/88qcw_5n2jl40jjphvxyt7wh0000gn/T//ccVo6N4q.s 			page 49


 746:../../../support/device/gd32f4xx/peripherals/src/gd32f4xx_can.c ****     } else {
 747:../../../support/device/gd32f4xx/peripherals/src/gd32f4xx_can.c ****         flag = SUCCESS;
 748:../../../support/device/gd32f4xx/peripherals/src/gd32f4xx_can.c ****     }
 749:../../../support/device/gd32f4xx/peripherals/src/gd32f4xx_can.c ****     return flag;
 1755              		.loc 1 749 5 is_stmt 1 view .LVU632
 744:../../../support/device/gd32f4xx/peripherals/src/gd32f4xx_can.c ****         flag = ERROR;
 1756              		.loc 1 744 7 is_stmt 0 view .LVU633
 1757 0024 80F00200 		eor	r0, r0, #2
 1758              	.LVL104:
 750:../../../support/device/gd32f4xx/peripherals/src/gd32f4xx_can.c **** }
 1759              		.loc 1 750 1 view .LVU634
 1760 0028 C0F34000 		ubfx	r0, r0, #1, #1
 1761              	.LVL105:
 1762              		.loc 1 750 1 view .LVU635
 1763 002c 7047     		bx	lr
 1764              		.cfi_endproc
 1765              	.LFE132:
 1767 002e 00BF     		.section	.text.can_error_get,"ax",%progbits
 1768              		.align	1
 1769              		.p2align 2,,3
 1770              		.global	can_error_get
 1771              		.syntax unified
 1772              		.thumb
 1773              		.thumb_func
 1775              	can_error_get:
 1776              	.LVL106:
 1777              	.LFB133:
 751:../../../support/device/gd32f4xx/peripherals/src/gd32f4xx_can.c **** 
 752:../../../support/device/gd32f4xx/peripherals/src/gd32f4xx_can.c **** /*!
 753:../../../support/device/gd32f4xx/peripherals/src/gd32f4xx_can.c ****     \brief      get CAN error type
 754:../../../support/device/gd32f4xx/peripherals/src/gd32f4xx_can.c ****     \param[in]  can_periph
 755:../../../support/device/gd32f4xx/peripherals/src/gd32f4xx_can.c ****       \arg        CANx(x=0,1)
 756:../../../support/device/gd32f4xx/peripherals/src/gd32f4xx_can.c ****     \param[out] none
 757:../../../support/device/gd32f4xx/peripherals/src/gd32f4xx_can.c ****     \retval     can_error_enum
 758:../../../support/device/gd32f4xx/peripherals/src/gd32f4xx_can.c ****       \arg        CAN_ERROR_NONE: no error
 759:../../../support/device/gd32f4xx/peripherals/src/gd32f4xx_can.c ****       \arg        CAN_ERROR_FILL: fill error
 760:../../../support/device/gd32f4xx/peripherals/src/gd32f4xx_can.c ****       \arg        CAN_ERROR_FORMATE: format error
 761:../../../support/device/gd32f4xx/peripherals/src/gd32f4xx_can.c ****       \arg        CAN_ERROR_ACK: ACK error
 762:../../../support/device/gd32f4xx/peripherals/src/gd32f4xx_can.c ****       \arg        CAN_ERROR_BITRECESSIVE: bit recessive
 763:../../../support/device/gd32f4xx/peripherals/src/gd32f4xx_can.c ****       \arg        CAN_ERROR_BITDOMINANTER: bit dominant error
 764:../../../support/device/gd32f4xx/peripherals/src/gd32f4xx_can.c ****       \arg        CAN_ERROR_CRC: CRC error
 765:../../../support/device/gd32f4xx/peripherals/src/gd32f4xx_can.c ****       \arg        CAN_ERROR_SOFTWARECFG: software configure
 766:../../../support/device/gd32f4xx/peripherals/src/gd32f4xx_can.c **** */
 767:../../../support/device/gd32f4xx/peripherals/src/gd32f4xx_can.c **** can_error_enum can_error_get(uint32_t can_periph)
 768:../../../support/device/gd32f4xx/peripherals/src/gd32f4xx_can.c **** {
 1778              		.loc 1 768 1 is_stmt 1 view -0
 1779              		.cfi_startproc
 1780              		@ args = 0, pretend = 0, frame = 0
 1781              		@ frame_needed = 0, uses_anonymous_args = 0
 1782              		@ link register save eliminated.
 769:../../../support/device/gd32f4xx/peripherals/src/gd32f4xx_can.c ****     can_error_enum error;
 1783              		.loc 1 769 5 view .LVU637
 770:../../../support/device/gd32f4xx/peripherals/src/gd32f4xx_can.c ****     error = CAN_ERROR_NONE;
 1784              		.loc 1 770 5 view .LVU638
 771:../../../support/device/gd32f4xx/peripherals/src/gd32f4xx_can.c **** 
 772:../../../support/device/gd32f4xx/peripherals/src/gd32f4xx_can.c ****     /* get error type */
 773:../../../support/device/gd32f4xx/peripherals/src/gd32f4xx_can.c ****     error = (can_error_enum)(GET_ERR_ERRN(CAN_ERR(can_periph)));
ARM GAS  /var/folders/_f/88qcw_5n2jl40jjphvxyt7wh0000gn/T//ccVo6N4q.s 			page 50


 1785              		.loc 1 773 5 view .LVU639
 1786              		.loc 1 773 30 is_stmt 0 view .LVU640
 1787 0000 8069     		ldr	r0, [r0, #24]
 1788              	.LVL107:
 774:../../../support/device/gd32f4xx/peripherals/src/gd32f4xx_can.c ****     return error;
 1789              		.loc 1 774 5 is_stmt 1 view .LVU641
 775:../../../support/device/gd32f4xx/peripherals/src/gd32f4xx_can.c **** }
 1790              		.loc 1 775 1 is_stmt 0 view .LVU642
 1791 0002 C0F30210 		ubfx	r0, r0, #4, #3
 1792              	.LVL108:
 1793              		.loc 1 775 1 view .LVU643
 1794 0006 7047     		bx	lr
 1795              		.cfi_endproc
 1796              	.LFE133:
 1798              		.section	.text.can_receive_error_number_get,"ax",%progbits
 1799              		.align	1
 1800              		.p2align 2,,3
 1801              		.global	can_receive_error_number_get
 1802              		.syntax unified
 1803              		.thumb
 1804              		.thumb_func
 1806              	can_receive_error_number_get:
 1807              	.LVL109:
 1808              	.LFB134:
 776:../../../support/device/gd32f4xx/peripherals/src/gd32f4xx_can.c **** 
 777:../../../support/device/gd32f4xx/peripherals/src/gd32f4xx_can.c **** /*!
 778:../../../support/device/gd32f4xx/peripherals/src/gd32f4xx_can.c ****     \brief      get CAN receive error number
 779:../../../support/device/gd32f4xx/peripherals/src/gd32f4xx_can.c ****     \param[in]  can_periph
 780:../../../support/device/gd32f4xx/peripherals/src/gd32f4xx_can.c ****       \arg        CANx(x=0,1)
 781:../../../support/device/gd32f4xx/peripherals/src/gd32f4xx_can.c ****     \param[out] none
 782:../../../support/device/gd32f4xx/peripherals/src/gd32f4xx_can.c ****     \retval     error number
 783:../../../support/device/gd32f4xx/peripherals/src/gd32f4xx_can.c **** */
 784:../../../support/device/gd32f4xx/peripherals/src/gd32f4xx_can.c **** uint8_t can_receive_error_number_get(uint32_t can_periph)
 785:../../../support/device/gd32f4xx/peripherals/src/gd32f4xx_can.c **** {
 1809              		.loc 1 785 1 is_stmt 1 view -0
 1810              		.cfi_startproc
 1811              		@ args = 0, pretend = 0, frame = 0
 1812              		@ frame_needed = 0, uses_anonymous_args = 0
 1813              		@ link register save eliminated.
 786:../../../support/device/gd32f4xx/peripherals/src/gd32f4xx_can.c ****     uint8_t val;
 1814              		.loc 1 786 5 view .LVU645
 787:../../../support/device/gd32f4xx/peripherals/src/gd32f4xx_can.c **** 
 788:../../../support/device/gd32f4xx/peripherals/src/gd32f4xx_can.c ****     /* get error count */
 789:../../../support/device/gd32f4xx/peripherals/src/gd32f4xx_can.c ****     val = (uint8_t)(GET_ERR_RECNT(CAN_ERR(can_periph)));
 1815              		.loc 1 789 5 view .LVU646
 1816              		.loc 1 789 21 is_stmt 0 view .LVU647
 1817 0000 8069     		ldr	r0, [r0, #24]
 1818              	.LVL110:
 790:../../../support/device/gd32f4xx/peripherals/src/gd32f4xx_can.c ****     return val;
 1819              		.loc 1 790 5 is_stmt 1 view .LVU648
 791:../../../support/device/gd32f4xx/peripherals/src/gd32f4xx_can.c **** }
 1820              		.loc 1 791 1 is_stmt 0 view .LVU649
 1821 0002 000E     		lsrs	r0, r0, #24
 1822              	.LVL111:
 1823              		.loc 1 791 1 view .LVU650
 1824 0004 7047     		bx	lr
 1825              		.cfi_endproc
ARM GAS  /var/folders/_f/88qcw_5n2jl40jjphvxyt7wh0000gn/T//ccVo6N4q.s 			page 51


 1826              	.LFE134:
 1828 0006 00BF     		.section	.text.can_transmit_error_number_get,"ax",%progbits
 1829              		.align	1
 1830              		.p2align 2,,3
 1831              		.global	can_transmit_error_number_get
 1832              		.syntax unified
 1833              		.thumb
 1834              		.thumb_func
 1836              	can_transmit_error_number_get:
 1837              	.LVL112:
 1838              	.LFB135:
 792:../../../support/device/gd32f4xx/peripherals/src/gd32f4xx_can.c **** 
 793:../../../support/device/gd32f4xx/peripherals/src/gd32f4xx_can.c **** /*!
 794:../../../support/device/gd32f4xx/peripherals/src/gd32f4xx_can.c ****     \brief      get CAN transmit error number
 795:../../../support/device/gd32f4xx/peripherals/src/gd32f4xx_can.c ****     \param[in]  can_periph
 796:../../../support/device/gd32f4xx/peripherals/src/gd32f4xx_can.c ****       \arg        CANx(x=0,1)
 797:../../../support/device/gd32f4xx/peripherals/src/gd32f4xx_can.c ****     \param[out] none
 798:../../../support/device/gd32f4xx/peripherals/src/gd32f4xx_can.c ****     \retval     error number
 799:../../../support/device/gd32f4xx/peripherals/src/gd32f4xx_can.c **** */
 800:../../../support/device/gd32f4xx/peripherals/src/gd32f4xx_can.c **** uint8_t can_transmit_error_number_get(uint32_t can_periph)
 801:../../../support/device/gd32f4xx/peripherals/src/gd32f4xx_can.c **** {
 1839              		.loc 1 801 1 is_stmt 1 view -0
 1840              		.cfi_startproc
 1841              		@ args = 0, pretend = 0, frame = 0
 1842              		@ frame_needed = 0, uses_anonymous_args = 0
 1843              		@ link register save eliminated.
 802:../../../support/device/gd32f4xx/peripherals/src/gd32f4xx_can.c ****     uint8_t val;
 1844              		.loc 1 802 5 view .LVU652
 803:../../../support/device/gd32f4xx/peripherals/src/gd32f4xx_can.c **** 
 804:../../../support/device/gd32f4xx/peripherals/src/gd32f4xx_can.c ****     val = (uint8_t)(GET_ERR_TECNT(CAN_ERR(can_periph)));
 1845              		.loc 1 804 5 view .LVU653
 1846              		.loc 1 804 21 is_stmt 0 view .LVU654
 1847 0000 8069     		ldr	r0, [r0, #24]
 1848              	.LVL113:
 805:../../../support/device/gd32f4xx/peripherals/src/gd32f4xx_can.c ****     return val;
 1849              		.loc 1 805 5 is_stmt 1 view .LVU655
 806:../../../support/device/gd32f4xx/peripherals/src/gd32f4xx_can.c **** }
 1850              		.loc 1 806 1 is_stmt 0 view .LVU656
 1851 0002 C0F30740 		ubfx	r0, r0, #16, #8
 1852              	.LVL114:
 1853              		.loc 1 806 1 view .LVU657
 1854 0006 7047     		bx	lr
 1855              		.cfi_endproc
 1856              	.LFE135:
 1858              		.section	.text.can_flag_get,"ax",%progbits
 1859              		.align	1
 1860              		.p2align 2,,3
 1861              		.global	can_flag_get
 1862              		.syntax unified
 1863              		.thumb
 1864              		.thumb_func
 1866              	can_flag_get:
 1867              	.LVL115:
 1868              	.LFB136:
 807:../../../support/device/gd32f4xx/peripherals/src/gd32f4xx_can.c **** 
 808:../../../support/device/gd32f4xx/peripherals/src/gd32f4xx_can.c **** /*!
 809:../../../support/device/gd32f4xx/peripherals/src/gd32f4xx_can.c ****     \brief      get CAN flag state
ARM GAS  /var/folders/_f/88qcw_5n2jl40jjphvxyt7wh0000gn/T//ccVo6N4q.s 			page 52


 810:../../../support/device/gd32f4xx/peripherals/src/gd32f4xx_can.c ****     \param[in]  can_periph
 811:../../../support/device/gd32f4xx/peripherals/src/gd32f4xx_can.c ****       \arg        CANx(x=0,1)
 812:../../../support/device/gd32f4xx/peripherals/src/gd32f4xx_can.c ****     \param[in]  flag: CAN flags, refer to can_flag_enum
 813:../../../support/device/gd32f4xx/peripherals/src/gd32f4xx_can.c ****                 only one parameter can be selected which is shown as below:
 814:../../../support/device/gd32f4xx/peripherals/src/gd32f4xx_can.c ****       \arg        CAN_FLAG_RXL: RX level
 815:../../../support/device/gd32f4xx/peripherals/src/gd32f4xx_can.c ****       \arg        CAN_FLAG_LASTRX: last sample value of RX pin
 816:../../../support/device/gd32f4xx/peripherals/src/gd32f4xx_can.c ****       \arg        CAN_FLAG_RS: receiving state
 817:../../../support/device/gd32f4xx/peripherals/src/gd32f4xx_can.c ****       \arg        CAN_FLAG_TS: transmitting state
 818:../../../support/device/gd32f4xx/peripherals/src/gd32f4xx_can.c ****       \arg        CAN_FLAG_SLPIF: status change flag of entering sleep working mode
 819:../../../support/device/gd32f4xx/peripherals/src/gd32f4xx_can.c ****       \arg        CAN_FLAG_WUIF: status change flag of wakeup from sleep working mode
 820:../../../support/device/gd32f4xx/peripherals/src/gd32f4xx_can.c ****       \arg        CAN_FLAG_ERRIF: error flag
 821:../../../support/device/gd32f4xx/peripherals/src/gd32f4xx_can.c ****       \arg        CAN_FLAG_SLPWS: sleep working state
 822:../../../support/device/gd32f4xx/peripherals/src/gd32f4xx_can.c ****       \arg        CAN_FLAG_IWS: initial working state
 823:../../../support/device/gd32f4xx/peripherals/src/gd32f4xx_can.c ****       \arg        CAN_FLAG_TMLS2: transmit mailbox 2 last sending in TX FIFO
 824:../../../support/device/gd32f4xx/peripherals/src/gd32f4xx_can.c ****       \arg        CAN_FLAG_TMLS1: transmit mailbox 1 last sending in TX FIFO
 825:../../../support/device/gd32f4xx/peripherals/src/gd32f4xx_can.c ****       \arg        CAN_FLAG_TMLS0: transmit mailbox 0 last sending in TX FIFO
 826:../../../support/device/gd32f4xx/peripherals/src/gd32f4xx_can.c ****       \arg        CAN_FLAG_TME2: transmit mailbox 2 empty
 827:../../../support/device/gd32f4xx/peripherals/src/gd32f4xx_can.c ****       \arg        CAN_FLAG_TME1: transmit mailbox 1 empty
 828:../../../support/device/gd32f4xx/peripherals/src/gd32f4xx_can.c ****       \arg        CAN_FLAG_TME0: transmit mailbox 0 empty
 829:../../../support/device/gd32f4xx/peripherals/src/gd32f4xx_can.c ****       \arg        CAN_FLAG_MTE2: mailbox 2 transmit error
 830:../../../support/device/gd32f4xx/peripherals/src/gd32f4xx_can.c ****       \arg        CAN_FLAG_MTE1: mailbox 1 transmit error
 831:../../../support/device/gd32f4xx/peripherals/src/gd32f4xx_can.c ****       \arg        CAN_FLAG_MTE0: mailbox 0 transmit error
 832:../../../support/device/gd32f4xx/peripherals/src/gd32f4xx_can.c ****       \arg        CAN_FLAG_MAL2: mailbox 2 arbitration lost
 833:../../../support/device/gd32f4xx/peripherals/src/gd32f4xx_can.c ****       \arg        CAN_FLAG_MAL1: mailbox 1 arbitration lost
 834:../../../support/device/gd32f4xx/peripherals/src/gd32f4xx_can.c ****       \arg        CAN_FLAG_MAL0: mailbox 0 arbitration lost
 835:../../../support/device/gd32f4xx/peripherals/src/gd32f4xx_can.c ****       \arg        CAN_FLAG_MTFNERR2: mailbox 2 transmit finished with no error
 836:../../../support/device/gd32f4xx/peripherals/src/gd32f4xx_can.c ****       \arg        CAN_FLAG_MTFNERR1: mailbox 1 transmit finished with no error
 837:../../../support/device/gd32f4xx/peripherals/src/gd32f4xx_can.c ****       \arg        CAN_FLAG_MTFNERR0: mailbox 0 transmit finished with no error
 838:../../../support/device/gd32f4xx/peripherals/src/gd32f4xx_can.c ****       \arg        CAN_FLAG_MTF2: mailbox 2 transmit finished
 839:../../../support/device/gd32f4xx/peripherals/src/gd32f4xx_can.c ****       \arg        CAN_FLAG_MTF1: mailbox 1 transmit finished
 840:../../../support/device/gd32f4xx/peripherals/src/gd32f4xx_can.c ****       \arg        CAN_FLAG_MTF0: mailbox 0 transmit finished
 841:../../../support/device/gd32f4xx/peripherals/src/gd32f4xx_can.c ****       \arg        CAN_FLAG_RFO0: receive FIFO0 overfull
 842:../../../support/device/gd32f4xx/peripherals/src/gd32f4xx_can.c ****       \arg        CAN_FLAG_RFF0: receive FIFO0 full
 843:../../../support/device/gd32f4xx/peripherals/src/gd32f4xx_can.c ****       \arg        CAN_FLAG_RFO1: receive FIFO1 overfull
 844:../../../support/device/gd32f4xx/peripherals/src/gd32f4xx_can.c ****       \arg        CAN_FLAG_RFF1: receive FIFO1 full
 845:../../../support/device/gd32f4xx/peripherals/src/gd32f4xx_can.c ****       \arg        CAN_FLAG_BOERR: bus-off error
 846:../../../support/device/gd32f4xx/peripherals/src/gd32f4xx_can.c ****       \arg        CAN_FLAG_PERR: passive error
 847:../../../support/device/gd32f4xx/peripherals/src/gd32f4xx_can.c ****       \arg        CAN_FLAG_WERR: warning error
 848:../../../support/device/gd32f4xx/peripherals/src/gd32f4xx_can.c ****     \param[out] none
 849:../../../support/device/gd32f4xx/peripherals/src/gd32f4xx_can.c ****     \retval     FlagStatus: SET or RESET
 850:../../../support/device/gd32f4xx/peripherals/src/gd32f4xx_can.c **** */
 851:../../../support/device/gd32f4xx/peripherals/src/gd32f4xx_can.c **** FlagStatus can_flag_get(uint32_t can_periph, can_flag_enum flag)
 852:../../../support/device/gd32f4xx/peripherals/src/gd32f4xx_can.c **** {
 1869              		.loc 1 852 1 is_stmt 1 view -0
 1870              		.cfi_startproc
 1871              		@ args = 0, pretend = 0, frame = 0
 1872              		@ frame_needed = 0, uses_anonymous_args = 0
 1873              		@ link register save eliminated.
 853:../../../support/device/gd32f4xx/peripherals/src/gd32f4xx_can.c ****     /* get flag and interrupt enable state */
 854:../../../support/device/gd32f4xx/peripherals/src/gd32f4xx_can.c ****     if(RESET != (CAN_REG_VAL(can_periph, flag) & BIT(CAN_BIT_POS(flag)))) {
 1874              		.loc 1 854 5 view .LVU659
 1875              		.loc 1 854 18 is_stmt 0 view .LVU660
 1876 0000 8B09     		lsrs	r3, r1, #6
 1877              		.loc 1 854 50 view .LVU661
 1878 0002 01F01F01 		and	r1, r1, #31
 1879              	.LVL116:
 1880              		.loc 1 854 18 view .LVU662
ARM GAS  /var/folders/_f/88qcw_5n2jl40jjphvxyt7wh0000gn/T//ccVo6N4q.s 			page 53


 1881 0006 1858     		ldr	r0, [r3, r0]
 1882              	.LVL117:
 1883              		.loc 1 854 14 view .LVU663
 1884 0008 C840     		lsrs	r0, r0, r1
 855:../../../support/device/gd32f4xx/peripherals/src/gd32f4xx_can.c ****         return SET;
 856:../../../support/device/gd32f4xx/peripherals/src/gd32f4xx_can.c ****     } else {
 857:../../../support/device/gd32f4xx/peripherals/src/gd32f4xx_can.c ****         return RESET;
 858:../../../support/device/gd32f4xx/peripherals/src/gd32f4xx_can.c ****     }
 859:../../../support/device/gd32f4xx/peripherals/src/gd32f4xx_can.c **** }
 1885              		.loc 1 859 1 view .LVU664
 1886 000a 00F00100 		and	r0, r0, #1
 1887 000e 7047     		bx	lr
 1888              		.cfi_endproc
 1889              	.LFE136:
 1891              		.section	.text.can_flag_clear,"ax",%progbits
 1892              		.align	1
 1893              		.p2align 2,,3
 1894              		.global	can_flag_clear
 1895              		.syntax unified
 1896              		.thumb
 1897              		.thumb_func
 1899              	can_flag_clear:
 1900              	.LVL118:
 1901              	.LFB137:
 860:../../../support/device/gd32f4xx/peripherals/src/gd32f4xx_can.c **** 
 861:../../../support/device/gd32f4xx/peripherals/src/gd32f4xx_can.c **** /*!
 862:../../../support/device/gd32f4xx/peripherals/src/gd32f4xx_can.c ****     \brief      clear CAN flag state
 863:../../../support/device/gd32f4xx/peripherals/src/gd32f4xx_can.c ****     \param[in]  can_periph
 864:../../../support/device/gd32f4xx/peripherals/src/gd32f4xx_can.c ****       \arg        CANx(x=0,1)
 865:../../../support/device/gd32f4xx/peripherals/src/gd32f4xx_can.c ****     \param[in]  flag: CAN flags, refer to can_flag_enum
 866:../../../support/device/gd32f4xx/peripherals/src/gd32f4xx_can.c ****                 only one parameter can be selected which is shown as below:
 867:../../../support/device/gd32f4xx/peripherals/src/gd32f4xx_can.c ****       \arg        CAN_FLAG_SLPIF: status change flag of entering sleep working mode
 868:../../../support/device/gd32f4xx/peripherals/src/gd32f4xx_can.c ****       \arg        CAN_FLAG_WUIF: status change flag of wakeup from sleep working mode
 869:../../../support/device/gd32f4xx/peripherals/src/gd32f4xx_can.c ****       \arg        CAN_FLAG_ERRIF: error flag
 870:../../../support/device/gd32f4xx/peripherals/src/gd32f4xx_can.c ****       \arg        CAN_FLAG_MTE2: mailbox 2 transmit error
 871:../../../support/device/gd32f4xx/peripherals/src/gd32f4xx_can.c ****       \arg        CAN_FLAG_MTE1: mailbox 1 transmit error
 872:../../../support/device/gd32f4xx/peripherals/src/gd32f4xx_can.c ****       \arg        CAN_FLAG_MTE0: mailbox 0 transmit error
 873:../../../support/device/gd32f4xx/peripherals/src/gd32f4xx_can.c ****       \arg        CAN_FLAG_MAL2: mailbox 2 arbitration lost
 874:../../../support/device/gd32f4xx/peripherals/src/gd32f4xx_can.c ****       \arg        CAN_FLAG_MAL1: mailbox 1 arbitration lost
 875:../../../support/device/gd32f4xx/peripherals/src/gd32f4xx_can.c ****       \arg        CAN_FLAG_MAL0: mailbox 0 arbitration lost
 876:../../../support/device/gd32f4xx/peripherals/src/gd32f4xx_can.c ****       \arg        CAN_FLAG_MTFNERR2: mailbox 2 transmit finished with no error
 877:../../../support/device/gd32f4xx/peripherals/src/gd32f4xx_can.c ****       \arg        CAN_FLAG_MTFNERR1: mailbox 1 transmit finished with no error
 878:../../../support/device/gd32f4xx/peripherals/src/gd32f4xx_can.c ****       \arg        CAN_FLAG_MTFNERR0: mailbox 0 transmit finished with no error
 879:../../../support/device/gd32f4xx/peripherals/src/gd32f4xx_can.c ****       \arg        CAN_FLAG_MTF2: mailbox 2 transmit finished
 880:../../../support/device/gd32f4xx/peripherals/src/gd32f4xx_can.c ****       \arg        CAN_FLAG_MTF1: mailbox 1 transmit finished
 881:../../../support/device/gd32f4xx/peripherals/src/gd32f4xx_can.c ****       \arg        CAN_FLAG_MTF0: mailbox 0 transmit finished
 882:../../../support/device/gd32f4xx/peripherals/src/gd32f4xx_can.c ****       \arg        CAN_FLAG_RFO0: receive FIFO0 overfull
 883:../../../support/device/gd32f4xx/peripherals/src/gd32f4xx_can.c ****       \arg        CAN_FLAG_RFF0: receive FIFO0 full
 884:../../../support/device/gd32f4xx/peripherals/src/gd32f4xx_can.c ****       \arg        CAN_FLAG_RFO1: receive FIFO1 overfull
 885:../../../support/device/gd32f4xx/peripherals/src/gd32f4xx_can.c ****       \arg        CAN_FLAG_RFF1: receive FIFO1 full
 886:../../../support/device/gd32f4xx/peripherals/src/gd32f4xx_can.c ****     \param[out] none
 887:../../../support/device/gd32f4xx/peripherals/src/gd32f4xx_can.c ****     \retval     none
 888:../../../support/device/gd32f4xx/peripherals/src/gd32f4xx_can.c **** */
 889:../../../support/device/gd32f4xx/peripherals/src/gd32f4xx_can.c **** void can_flag_clear(uint32_t can_periph, can_flag_enum flag)
 890:../../../support/device/gd32f4xx/peripherals/src/gd32f4xx_can.c **** {
 1902              		.loc 1 890 1 is_stmt 1 view -0
 1903              		.cfi_startproc
ARM GAS  /var/folders/_f/88qcw_5n2jl40jjphvxyt7wh0000gn/T//ccVo6N4q.s 			page 54


 1904              		@ args = 0, pretend = 0, frame = 0
 1905              		@ frame_needed = 0, uses_anonymous_args = 0
 1906              		@ link register save eliminated.
 891:../../../support/device/gd32f4xx/peripherals/src/gd32f4xx_can.c ****     CAN_REG_VAL(can_periph, flag) = BIT(CAN_BIT_POS(flag));
 1907              		.loc 1 891 5 view .LVU666
 1908 0000 8A09     		lsrs	r2, r1, #6
 1909              		.loc 1 891 37 is_stmt 0 view .LVU667
 1910 0002 0123     		movs	r3, #1
 1911 0004 01F01F01 		and	r1, r1, #31
 1912              	.LVL119:
 1913              		.loc 1 891 37 view .LVU668
 1914 0008 03FA01F1 		lsl	r1, r3, r1
 1915              		.loc 1 891 35 view .LVU669
 1916 000c 1150     		str	r1, [r2, r0]
 892:../../../support/device/gd32f4xx/peripherals/src/gd32f4xx_can.c **** }
 1917              		.loc 1 892 1 view .LVU670
 1918 000e 7047     		bx	lr
 1919              		.cfi_endproc
 1920              	.LFE137:
 1922              		.section	.text.can_interrupt_enable,"ax",%progbits
 1923              		.align	1
 1924              		.p2align 2,,3
 1925              		.global	can_interrupt_enable
 1926              		.syntax unified
 1927              		.thumb
 1928              		.thumb_func
 1930              	can_interrupt_enable:
 1931              	.LVL120:
 1932              	.LFB138:
 893:../../../support/device/gd32f4xx/peripherals/src/gd32f4xx_can.c **** 
 894:../../../support/device/gd32f4xx/peripherals/src/gd32f4xx_can.c **** /*!
 895:../../../support/device/gd32f4xx/peripherals/src/gd32f4xx_can.c ****     \brief      enable CAN interrupt
 896:../../../support/device/gd32f4xx/peripherals/src/gd32f4xx_can.c ****     \param[in]  can_periph
 897:../../../support/device/gd32f4xx/peripherals/src/gd32f4xx_can.c ****       \arg        CANx(x=0,1)
 898:../../../support/device/gd32f4xx/peripherals/src/gd32f4xx_can.c ****     \param[in]  interrupt
 899:../../../support/device/gd32f4xx/peripherals/src/gd32f4xx_can.c ****                 one or more parameters can be selected which are shown as below:
 900:../../../support/device/gd32f4xx/peripherals/src/gd32f4xx_can.c ****       \arg        CAN_INT_TME: transmit mailbox empty interrupt enable
 901:../../../support/device/gd32f4xx/peripherals/src/gd32f4xx_can.c ****       \arg        CAN_INT_RFNE0: receive FIFO0 not empty interrupt enable
 902:../../../support/device/gd32f4xx/peripherals/src/gd32f4xx_can.c ****       \arg        CAN_INT_RFF0: receive FIFO0 full interrupt enable
 903:../../../support/device/gd32f4xx/peripherals/src/gd32f4xx_can.c ****       \arg        CAN_INT_RFO0: receive FIFO0 overfull interrupt enable
 904:../../../support/device/gd32f4xx/peripherals/src/gd32f4xx_can.c ****       \arg        CAN_INT_RFNE1: receive FIFO1 not empty interrupt enable
 905:../../../support/device/gd32f4xx/peripherals/src/gd32f4xx_can.c ****       \arg        CAN_INT_RFF1: receive FIFO1 full interrupt enable
 906:../../../support/device/gd32f4xx/peripherals/src/gd32f4xx_can.c ****       \arg        CAN_INT_RFO1: receive FIFO1 overfull interrupt enable
 907:../../../support/device/gd32f4xx/peripherals/src/gd32f4xx_can.c ****       \arg        CAN_INT_WERR: warning error interrupt enable
 908:../../../support/device/gd32f4xx/peripherals/src/gd32f4xx_can.c ****       \arg        CAN_INT_PERR: passive error interrupt enable
 909:../../../support/device/gd32f4xx/peripherals/src/gd32f4xx_can.c ****       \arg        CAN_INT_BO: bus-off interrupt enable
 910:../../../support/device/gd32f4xx/peripherals/src/gd32f4xx_can.c ****       \arg        CAN_INT_ERRN: error number interrupt enable
 911:../../../support/device/gd32f4xx/peripherals/src/gd32f4xx_can.c ****       \arg        CAN_INT_ERR: error interrupt enable
 912:../../../support/device/gd32f4xx/peripherals/src/gd32f4xx_can.c ****       \arg        CAN_INT_WAKEUP: wakeup interrupt enable
 913:../../../support/device/gd32f4xx/peripherals/src/gd32f4xx_can.c ****       \arg        CAN_INT_SLPW: sleep working interrupt enable
 914:../../../support/device/gd32f4xx/peripherals/src/gd32f4xx_can.c ****     \param[out] none
 915:../../../support/device/gd32f4xx/peripherals/src/gd32f4xx_can.c ****     \retval     none
 916:../../../support/device/gd32f4xx/peripherals/src/gd32f4xx_can.c **** */
 917:../../../support/device/gd32f4xx/peripherals/src/gd32f4xx_can.c **** void can_interrupt_enable(uint32_t can_periph, uint32_t interrupt)
 918:../../../support/device/gd32f4xx/peripherals/src/gd32f4xx_can.c **** {
 1933              		.loc 1 918 1 is_stmt 1 view -0
 1934              		.cfi_startproc
ARM GAS  /var/folders/_f/88qcw_5n2jl40jjphvxyt7wh0000gn/T//ccVo6N4q.s 			page 55


 1935              		@ args = 0, pretend = 0, frame = 0
 1936              		@ frame_needed = 0, uses_anonymous_args = 0
 1937              		@ link register save eliminated.
 919:../../../support/device/gd32f4xx/peripherals/src/gd32f4xx_can.c ****     CAN_INTEN(can_periph) |= interrupt;
 1938              		.loc 1 919 5 view .LVU672
 1939              		.loc 1 919 27 is_stmt 0 view .LVU673
 1940 0000 4369     		ldr	r3, [r0, #20]
 1941 0002 0B43     		orrs	r3, r3, r1
 1942 0004 4361     		str	r3, [r0, #20]
 920:../../../support/device/gd32f4xx/peripherals/src/gd32f4xx_can.c **** }
 1943              		.loc 1 920 1 view .LVU674
 1944 0006 7047     		bx	lr
 1945              		.cfi_endproc
 1946              	.LFE138:
 1948              		.section	.text.can_interrupt_disable,"ax",%progbits
 1949              		.align	1
 1950              		.p2align 2,,3
 1951              		.global	can_interrupt_disable
 1952              		.syntax unified
 1953              		.thumb
 1954              		.thumb_func
 1956              	can_interrupt_disable:
 1957              	.LVL121:
 1958              	.LFB139:
 921:../../../support/device/gd32f4xx/peripherals/src/gd32f4xx_can.c **** 
 922:../../../support/device/gd32f4xx/peripherals/src/gd32f4xx_can.c **** /*!
 923:../../../support/device/gd32f4xx/peripherals/src/gd32f4xx_can.c ****     \brief      disable CAN interrupt
 924:../../../support/device/gd32f4xx/peripherals/src/gd32f4xx_can.c ****     \param[in]  can_periph
 925:../../../support/device/gd32f4xx/peripherals/src/gd32f4xx_can.c ****       \arg        CANx(x=0,1)
 926:../../../support/device/gd32f4xx/peripherals/src/gd32f4xx_can.c ****     \param[in]  interrupt
 927:../../../support/device/gd32f4xx/peripherals/src/gd32f4xx_can.c ****                 one or more parameters can be selected which are shown as below:
 928:../../../support/device/gd32f4xx/peripherals/src/gd32f4xx_can.c ****       \arg        CAN_INT_TME: transmit mailbox empty interrupt enable
 929:../../../support/device/gd32f4xx/peripherals/src/gd32f4xx_can.c ****       \arg        CAN_INT_RFNE0: receive FIFO0 not empty interrupt enable
 930:../../../support/device/gd32f4xx/peripherals/src/gd32f4xx_can.c ****       \arg        CAN_INT_RFF0: receive FIFO0 full interrupt enable
 931:../../../support/device/gd32f4xx/peripherals/src/gd32f4xx_can.c ****       \arg        CAN_INT_RFO0: receive FIFO0 overfull interrupt enable
 932:../../../support/device/gd32f4xx/peripherals/src/gd32f4xx_can.c ****       \arg        CAN_INT_RFNE1: receive FIFO1 not empty interrupt enable
 933:../../../support/device/gd32f4xx/peripherals/src/gd32f4xx_can.c ****       \arg        CAN_INT_RFF1: receive FIFO1 full interrupt enable
 934:../../../support/device/gd32f4xx/peripherals/src/gd32f4xx_can.c ****       \arg        CAN_INT_RFO1: receive FIFO1 overfull interrupt enable
 935:../../../support/device/gd32f4xx/peripherals/src/gd32f4xx_can.c ****       \arg        CAN_INT_WERR: warning error interrupt enable
 936:../../../support/device/gd32f4xx/peripherals/src/gd32f4xx_can.c ****       \arg        CAN_INT_PERR: passive error interrupt enable
 937:../../../support/device/gd32f4xx/peripherals/src/gd32f4xx_can.c ****       \arg        CAN_INT_BO: bus-off interrupt enable
 938:../../../support/device/gd32f4xx/peripherals/src/gd32f4xx_can.c ****       \arg        CAN_INT_ERRN: error number interrupt enable
 939:../../../support/device/gd32f4xx/peripherals/src/gd32f4xx_can.c ****       \arg        CAN_INT_ERR: error interrupt enable
 940:../../../support/device/gd32f4xx/peripherals/src/gd32f4xx_can.c ****       \arg        CAN_INT_WAKEUP: wakeup interrupt enable
 941:../../../support/device/gd32f4xx/peripherals/src/gd32f4xx_can.c ****       \arg        CAN_INT_SLPW: sleep working interrupt enable
 942:../../../support/device/gd32f4xx/peripherals/src/gd32f4xx_can.c ****     \param[out] none
 943:../../../support/device/gd32f4xx/peripherals/src/gd32f4xx_can.c ****     \retval     none
 944:../../../support/device/gd32f4xx/peripherals/src/gd32f4xx_can.c **** */
 945:../../../support/device/gd32f4xx/peripherals/src/gd32f4xx_can.c **** void can_interrupt_disable(uint32_t can_periph, uint32_t interrupt)
 946:../../../support/device/gd32f4xx/peripherals/src/gd32f4xx_can.c **** {
 1959              		.loc 1 946 1 is_stmt 1 view -0
 1960              		.cfi_startproc
 1961              		@ args = 0, pretend = 0, frame = 0
 1962              		@ frame_needed = 0, uses_anonymous_args = 0
 1963              		@ link register save eliminated.
 947:../../../support/device/gd32f4xx/peripherals/src/gd32f4xx_can.c ****     CAN_INTEN(can_periph) &= ~interrupt;
 1964              		.loc 1 947 5 view .LVU676
ARM GAS  /var/folders/_f/88qcw_5n2jl40jjphvxyt7wh0000gn/T//ccVo6N4q.s 			page 56


 1965              		.loc 1 947 27 is_stmt 0 view .LVU677
 1966 0000 4369     		ldr	r3, [r0, #20]
 1967 0002 23EA0103 		bic	r3, r3, r1
 1968 0006 4361     		str	r3, [r0, #20]
 948:../../../support/device/gd32f4xx/peripherals/src/gd32f4xx_can.c **** }
 1969              		.loc 1 948 1 view .LVU678
 1970 0008 7047     		bx	lr
 1971              		.cfi_endproc
 1972              	.LFE139:
 1974 000a 00BF     		.section	.text.can_interrupt_flag_get,"ax",%progbits
 1975              		.align	1
 1976              		.p2align 2,,3
 1977              		.global	can_interrupt_flag_get
 1978              		.syntax unified
 1979              		.thumb
 1980              		.thumb_func
 1982              	can_interrupt_flag_get:
 1983              	.LVL122:
 1984              	.LFB140:
 949:../../../support/device/gd32f4xx/peripherals/src/gd32f4xx_can.c **** 
 950:../../../support/device/gd32f4xx/peripherals/src/gd32f4xx_can.c **** /*!
 951:../../../support/device/gd32f4xx/peripherals/src/gd32f4xx_can.c ****     \brief      get CAN interrupt flag state
 952:../../../support/device/gd32f4xx/peripherals/src/gd32f4xx_can.c ****     \param[in]  can_periph
 953:../../../support/device/gd32f4xx/peripherals/src/gd32f4xx_can.c ****       \arg        CANx(x=0,1)
 954:../../../support/device/gd32f4xx/peripherals/src/gd32f4xx_can.c ****     \param[in]  flag: CAN interrupt flags, refer to can_interrupt_flag_enum
 955:../../../support/device/gd32f4xx/peripherals/src/gd32f4xx_can.c ****                 only one parameter can be selected which is shown as below:
 956:../../../support/device/gd32f4xx/peripherals/src/gd32f4xx_can.c ****       \arg        CAN_INT_FLAG_SLPIF: status change interrupt flag of sleep working mode entering
 957:../../../support/device/gd32f4xx/peripherals/src/gd32f4xx_can.c ****       \arg        CAN_INT_FLAG_WUIF: status change interrupt flag of wakeup from sleep working mode
 958:../../../support/device/gd32f4xx/peripherals/src/gd32f4xx_can.c ****       \arg        CAN_INT_FLAG_ERRIF: error interrupt flag
 959:../../../support/device/gd32f4xx/peripherals/src/gd32f4xx_can.c ****       \arg        CAN_INT_FLAG_MTF2: mailbox 2 transmit finished interrupt flag
 960:../../../support/device/gd32f4xx/peripherals/src/gd32f4xx_can.c ****       \arg        CAN_INT_FLAG_MTF1: mailbox 1 transmit finished interrupt flag
 961:../../../support/device/gd32f4xx/peripherals/src/gd32f4xx_can.c ****       \arg        CAN_INT_FLAG_MTF0: mailbox 0 transmit finished interrupt flag
 962:../../../support/device/gd32f4xx/peripherals/src/gd32f4xx_can.c ****       \arg        CAN_INT_FLAG_RFO0: receive FIFO0 overfull interrupt flag
 963:../../../support/device/gd32f4xx/peripherals/src/gd32f4xx_can.c ****       \arg        CAN_INT_FLAG_RFF0: receive FIFO0 full interrupt flag
 964:../../../support/device/gd32f4xx/peripherals/src/gd32f4xx_can.c ****       \arg        CAN_INT_FLAG_RFL0: receive FIFO0 not empty interrupt flag
 965:../../../support/device/gd32f4xx/peripherals/src/gd32f4xx_can.c ****       \arg        CAN_INT_FLAG_RFO1: receive FIFO1 overfull interrupt flag
 966:../../../support/device/gd32f4xx/peripherals/src/gd32f4xx_can.c ****       \arg        CAN_INT_FLAG_RFF1: receive FIFO1 full interrupt flag
 967:../../../support/device/gd32f4xx/peripherals/src/gd32f4xx_can.c ****       \arg        CAN_INT_FLAG_RFL1: receive FIFO1 not empty interrupt flag
 968:../../../support/device/gd32f4xx/peripherals/src/gd32f4xx_can.c ****       \arg        CAN_INT_FLAG_ERRN: error number interrupt flag
 969:../../../support/device/gd32f4xx/peripherals/src/gd32f4xx_can.c ****       \arg        CAN_INT_FLAG_BOERR: bus-off error interrupt flag
 970:../../../support/device/gd32f4xx/peripherals/src/gd32f4xx_can.c ****       \arg        CAN_INT_FLAG_PERR: passive error interrupt flag
 971:../../../support/device/gd32f4xx/peripherals/src/gd32f4xx_can.c ****       \arg        CAN_INT_FLAG_WERR: warning error interrupt flag
 972:../../../support/device/gd32f4xx/peripherals/src/gd32f4xx_can.c ****     \param[out] none
 973:../../../support/device/gd32f4xx/peripherals/src/gd32f4xx_can.c ****     \retval     FlagStatus: SET or RESET
 974:../../../support/device/gd32f4xx/peripherals/src/gd32f4xx_can.c **** */
 975:../../../support/device/gd32f4xx/peripherals/src/gd32f4xx_can.c **** FlagStatus can_interrupt_flag_get(uint32_t can_periph, can_interrupt_flag_enum flag)
 976:../../../support/device/gd32f4xx/peripherals/src/gd32f4xx_can.c **** {
 1985              		.loc 1 976 1 is_stmt 1 view -0
 1986              		.cfi_startproc
 1987              		@ args = 0, pretend = 0, frame = 0
 1988              		@ frame_needed = 0, uses_anonymous_args = 0
 1989              		@ link register save eliminated.
 977:../../../support/device/gd32f4xx/peripherals/src/gd32f4xx_can.c ****     uint32_t ret1 = RESET;
 1990              		.loc 1 977 5 view .LVU680
 978:../../../support/device/gd32f4xx/peripherals/src/gd32f4xx_can.c ****     uint32_t ret2 = RESET;
 1991              		.loc 1 978 5 view .LVU681
 979:../../../support/device/gd32f4xx/peripherals/src/gd32f4xx_can.c **** 
ARM GAS  /var/folders/_f/88qcw_5n2jl40jjphvxyt7wh0000gn/T//ccVo6N4q.s 			page 57


 980:../../../support/device/gd32f4xx/peripherals/src/gd32f4xx_can.c ****     /* get the status of interrupt flag */
 981:../../../support/device/gd32f4xx/peripherals/src/gd32f4xx_can.c ****     if(flag == CAN_INT_FLAG_RFL0) {
 1992              		.loc 1 981 5 view .LVU682
 1993              		.loc 1 981 7 is_stmt 0 view .LVU683
 1994 0000 4CF28103 		movw	r3, #49281
 1995 0004 9942     		cmp	r1, r3
 1996 0006 1BD0     		beq	.L172
 982:../../../support/device/gd32f4xx/peripherals/src/gd32f4xx_can.c ****         ret1 = can_receive_message_length_get(can_periph, CAN_FIFO0);
 983:../../../support/device/gd32f4xx/peripherals/src/gd32f4xx_can.c ****     } else if(flag == CAN_INT_FLAG_RFL1) {
 1997              		.loc 1 983 12 is_stmt 1 view .LVU684
 1998              		.loc 1 983 14 is_stmt 0 view .LVU685
 1999 0008 134B     		ldr	r3, .L175
 2000 000a 9942     		cmp	r1, r3
 2001 000c 20D0     		beq	.L173
 984:../../../support/device/gd32f4xx/peripherals/src/gd32f4xx_can.c ****         ret1 = can_receive_message_length_get(can_periph, CAN_FIFO1);
 985:../../../support/device/gd32f4xx/peripherals/src/gd32f4xx_can.c ****     } else if(flag == CAN_INT_FLAG_ERRN) {
 2002              		.loc 1 985 12 is_stmt 1 view .LVU686
 2003              		.loc 1 985 14 is_stmt 0 view .LVU687
 2004 000e 134B     		ldr	r3, .L175+4
 2005 0010 9942     		cmp	r1, r3
 2006 0012 19D0     		beq	.L174
 986:../../../support/device/gd32f4xx/peripherals/src/gd32f4xx_can.c ****         ret1 = can_error_get(can_periph);
 987:../../../support/device/gd32f4xx/peripherals/src/gd32f4xx_can.c ****     } else {
 988:../../../support/device/gd32f4xx/peripherals/src/gd32f4xx_can.c ****         ret1 = CAN_REG_VALS(can_periph, flag) & BIT(CAN_BIT_POS0(flag));
 2007              		.loc 1 988 9 is_stmt 1 view .LVU688
 2008              		.loc 1 988 16 is_stmt 0 view .LVU689
 2009 0014 0A0B     		lsrs	r2, r1, #12
 2010              		.loc 1 988 49 view .LVU690
 2011 0016 C1F3841C 		ubfx	ip, r1, #6, #5
 2012              		.loc 1 988 16 view .LVU691
 2013 001a 1258     		ldr	r2, [r2, r0]
 2014              		.loc 1 988 49 view .LVU692
 2015 001c 0123     		movs	r3, #1
 2016 001e 03FA0CF3 		lsl	r3, r3, ip
 2017              		.loc 1 988 14 view .LVU693
 2018 0022 1340     		ands	r3, r3, r2
 2019              	.LVL123:
 2020              	.L167:
 989:../../../support/device/gd32f4xx/peripherals/src/gd32f4xx_can.c ****     }
 990:../../../support/device/gd32f4xx/peripherals/src/gd32f4xx_can.c ****     /* get the status of interrupt enable bit */
 991:../../../support/device/gd32f4xx/peripherals/src/gd32f4xx_can.c ****     ret2 = CAN_INTEN(can_periph) & BIT(CAN_BIT_POS1(flag));
 2021              		.loc 1 991 5 is_stmt 1 view .LVU694
 2022              		.loc 1 991 12 is_stmt 0 view .LVU695
 2023 0024 4269     		ldr	r2, [r0, #20]
 2024              	.LVL124:
 992:../../../support/device/gd32f4xx/peripherals/src/gd32f4xx_can.c ****     if(ret1 && ret2) {
 2025              		.loc 1 992 5 is_stmt 1 view .LVU696
 2026              		.loc 1 992 7 is_stmt 0 view .LVU697
 2027 0026 4BB1     		cbz	r3, .L171
 991:../../../support/device/gd32f4xx/peripherals/src/gd32f4xx_can.c ****     if(ret1 && ret2) {
 2028              		.loc 1 991 36 discriminator 1 view .LVU698
 2029 0028 0123     		movs	r3, #1
 2030              	.LVL125:
 991:../../../support/device/gd32f4xx/peripherals/src/gd32f4xx_can.c ****     if(ret1 && ret2) {
 2031              		.loc 1 991 36 discriminator 1 view .LVU699
 2032 002a 01F01F01 		and	r1, r1, #31
 2033              	.LVL126:
ARM GAS  /var/folders/_f/88qcw_5n2jl40jjphvxyt7wh0000gn/T//ccVo6N4q.s 			page 58


 991:../../../support/device/gd32f4xx/peripherals/src/gd32f4xx_can.c ****     if(ret1 && ret2) {
 2034              		.loc 1 991 36 discriminator 1 view .LVU700
 2035 002e 03FA01F1 		lsl	r1, r3, r1
 2036              	.LVL127:
 2037              		.loc 1 992 13 discriminator 1 view .LVU701
 2038 0032 1142     		tst	r1, r2
 993:../../../support/device/gd32f4xx/peripherals/src/gd32f4xx_can.c ****         return SET;
 994:../../../support/device/gd32f4xx/peripherals/src/gd32f4xx_can.c ****     } else {
 995:../../../support/device/gd32f4xx/peripherals/src/gd32f4xx_can.c ****         return RESET;
 2039              		.loc 1 995 16 discriminator 1 view .LVU702
 2040 0034 14BF     		ite	ne
 2041 0036 1846     		movne	r0, r3
 2042              	.LVL128:
 2043              		.loc 1 995 16 discriminator 1 view .LVU703
 2044 0038 0020     		moveq	r0, #0
 2045 003a 7047     		bx	lr
 2046              	.LVL129:
 2047              	.L171:
 2048              		.loc 1 995 16 view .LVU704
 2049 003c 1846     		mov	r0, r3
 2050              	.LVL130:
 996:../../../support/device/gd32f4xx/peripherals/src/gd32f4xx_can.c ****     }
 997:../../../support/device/gd32f4xx/peripherals/src/gd32f4xx_can.c **** }
 2051              		.loc 1 997 1 view .LVU705
 2052 003e 7047     		bx	lr
 2053              	.LVL131:
 2054              	.L172:
 982:../../../support/device/gd32f4xx/peripherals/src/gd32f4xx_can.c ****     } else if(flag == CAN_INT_FLAG_RFL1) {
 2055              		.loc 1 982 9 is_stmt 1 view .LVU706
 2056              	.LBB20:
 2057              	.LBI20:
 645:../../../support/device/gd32f4xx/peripherals/src/gd32f4xx_can.c **** {
 2058              		.loc 1 645 9 view .LVU707
 2059              	.LBB21:
 647:../../../support/device/gd32f4xx/peripherals/src/gd32f4xx_can.c **** 
 2060              		.loc 1 647 5 view .LVU708
 649:../../../support/device/gd32f4xx/peripherals/src/gd32f4xx_can.c ****         /* FIFO0 */
 2061              		.loc 1 649 5 view .LVU709
 651:../../../support/device/gd32f4xx/peripherals/src/gd32f4xx_can.c ****     } else if(CAN_FIFO1 == fifo_number) {
 2062              		.loc 1 651 9 view .LVU710
 651:../../../support/device/gd32f4xx/peripherals/src/gd32f4xx_can.c ****     } else if(CAN_FIFO1 == fifo_number) {
 2063              		.loc 1 651 25 is_stmt 0 view .LVU711
 2064 0040 C368     		ldr	r3, [r0, #12]
 2065              	.LVL132:
 657:../../../support/device/gd32f4xx/peripherals/src/gd32f4xx_can.c ****     return val;
 2066              		.loc 1 657 5 is_stmt 1 view .LVU712
 658:../../../support/device/gd32f4xx/peripherals/src/gd32f4xx_can.c **** }
 2067              		.loc 1 658 5 view .LVU713
 658:../../../support/device/gd32f4xx/peripherals/src/gd32f4xx_can.c **** }
 2068              		.loc 1 658 5 is_stmt 0 view .LVU714
 2069              	.LBE21:
 2070              	.LBE20:
 982:../../../support/device/gd32f4xx/peripherals/src/gd32f4xx_can.c ****     } else if(flag == CAN_INT_FLAG_RFL1) {
 2071              		.loc 1 982 14 view .LVU715
 2072 0042 03F00303 		and	r3, r3, #3
 2073              	.LVL133:
 982:../../../support/device/gd32f4xx/peripherals/src/gd32f4xx_can.c ****     } else if(flag == CAN_INT_FLAG_RFL1) {
ARM GAS  /var/folders/_f/88qcw_5n2jl40jjphvxyt7wh0000gn/T//ccVo6N4q.s 			page 59


 2074              		.loc 1 982 14 view .LVU716
 2075 0046 EDE7     		b	.L167
 2076              	.LVL134:
 2077              	.L174:
 986:../../../support/device/gd32f4xx/peripherals/src/gd32f4xx_can.c ****     } else {
 2078              		.loc 1 986 9 is_stmt 1 view .LVU717
 2079              	.LBB22:
 2080              	.LBI22:
 767:../../../support/device/gd32f4xx/peripherals/src/gd32f4xx_can.c **** {
 2081              		.loc 1 767 16 view .LVU718
 2082              	.LBB23:
 769:../../../support/device/gd32f4xx/peripherals/src/gd32f4xx_can.c ****     error = CAN_ERROR_NONE;
 2083              		.loc 1 769 5 view .LVU719
 770:../../../support/device/gd32f4xx/peripherals/src/gd32f4xx_can.c **** 
 2084              		.loc 1 770 5 view .LVU720
 773:../../../support/device/gd32f4xx/peripherals/src/gd32f4xx_can.c ****     return error;
 2085              		.loc 1 773 5 view .LVU721
 773:../../../support/device/gd32f4xx/peripherals/src/gd32f4xx_can.c ****     return error;
 2086              		.loc 1 773 30 is_stmt 0 view .LVU722
 2087 0048 8369     		ldr	r3, [r0, #24]
 2088 004a C3F30213 		ubfx	r3, r3, #4, #3
 2089              	.LVL135:
 774:../../../support/device/gd32f4xx/peripherals/src/gd32f4xx_can.c **** }
 2090              		.loc 1 774 5 is_stmt 1 view .LVU723
 774:../../../support/device/gd32f4xx/peripherals/src/gd32f4xx_can.c **** }
 2091              		.loc 1 774 5 is_stmt 0 view .LVU724
 2092              	.LBE23:
 2093              	.LBE22:
 2094 004e E9E7     		b	.L167
 2095              	.LVL136:
 2096              	.L173:
 984:../../../support/device/gd32f4xx/peripherals/src/gd32f4xx_can.c ****     } else if(flag == CAN_INT_FLAG_ERRN) {
 2097              		.loc 1 984 9 is_stmt 1 view .LVU725
 2098              	.LBB24:
 2099              	.LBI24:
 645:../../../support/device/gd32f4xx/peripherals/src/gd32f4xx_can.c **** {
 2100              		.loc 1 645 9 view .LVU726
 2101              	.LBB25:
 647:../../../support/device/gd32f4xx/peripherals/src/gd32f4xx_can.c **** 
 2102              		.loc 1 647 5 view .LVU727
 649:../../../support/device/gd32f4xx/peripherals/src/gd32f4xx_can.c ****         /* FIFO0 */
 2103              		.loc 1 649 5 view .LVU728
 2104              	.LBB26:
 2105              	.LBI26:
 645:../../../support/device/gd32f4xx/peripherals/src/gd32f4xx_can.c **** {
 2106              		.loc 1 645 9 view .LVU729
 2107              	.LBB27:
 652:../../../support/device/gd32f4xx/peripherals/src/gd32f4xx_can.c ****         /* FIFO1 */
 2108              		.loc 1 652 12 view .LVU730
 654:../../../support/device/gd32f4xx/peripherals/src/gd32f4xx_can.c ****     } else {
 2109              		.loc 1 654 9 view .LVU731
 654:../../../support/device/gd32f4xx/peripherals/src/gd32f4xx_can.c ****     } else {
 2110              		.loc 1 654 25 is_stmt 0 view .LVU732
 2111 0050 0369     		ldr	r3, [r0, #16]
 2112              	.LVL137:
 657:../../../support/device/gd32f4xx/peripherals/src/gd32f4xx_can.c ****     return val;
 2113              		.loc 1 657 5 is_stmt 1 view .LVU733
ARM GAS  /var/folders/_f/88qcw_5n2jl40jjphvxyt7wh0000gn/T//ccVo6N4q.s 			page 60


 658:../../../support/device/gd32f4xx/peripherals/src/gd32f4xx_can.c **** }
 2114              		.loc 1 658 5 view .LVU734
 658:../../../support/device/gd32f4xx/peripherals/src/gd32f4xx_can.c **** }
 2115              		.loc 1 658 5 is_stmt 0 view .LVU735
 2116              	.LBE27:
 2117              	.LBE26:
 657:../../../support/device/gd32f4xx/peripherals/src/gd32f4xx_can.c ****     return val;
 2118              		.loc 1 657 5 is_stmt 1 view .LVU736
 658:../../../support/device/gd32f4xx/peripherals/src/gd32f4xx_can.c **** }
 2119              		.loc 1 658 5 view .LVU737
 658:../../../support/device/gd32f4xx/peripherals/src/gd32f4xx_can.c **** }
 2120              		.loc 1 658 5 is_stmt 0 view .LVU738
 2121              	.LBE25:
 2122              	.LBE24:
 984:../../../support/device/gd32f4xx/peripherals/src/gd32f4xx_can.c ****     } else if(flag == CAN_INT_FLAG_ERRN) {
 2123              		.loc 1 984 14 view .LVU739
 2124 0052 03F00303 		and	r3, r3, #3
 2125              	.LVL138:
 984:../../../support/device/gd32f4xx/peripherals/src/gd32f4xx_can.c ****     } else if(flag == CAN_INT_FLAG_ERRN) {
 2126              		.loc 1 984 14 view .LVU740
 2127 0056 E5E7     		b	.L167
 2128              	.L176:
 2129              		.align	2
 2130              	.L175:
 2131 0058 84000100 		.word	65668
 2132 005c CB800100 		.word	98507
 2133              		.cfi_endproc
 2134              	.LFE140:
 2136              		.section	.text.can_interrupt_flag_clear,"ax",%progbits
 2137              		.align	1
 2138              		.p2align 2,,3
 2139              		.global	can_interrupt_flag_clear
 2140              		.syntax unified
 2141              		.thumb
 2142              		.thumb_func
 2144              	can_interrupt_flag_clear:
 2145              	.LVL139:
 2146              	.LFB141:
 998:../../../support/device/gd32f4xx/peripherals/src/gd32f4xx_can.c **** 
 999:../../../support/device/gd32f4xx/peripherals/src/gd32f4xx_can.c **** /*!
1000:../../../support/device/gd32f4xx/peripherals/src/gd32f4xx_can.c ****     \brief      clear CAN interrupt flag state
1001:../../../support/device/gd32f4xx/peripherals/src/gd32f4xx_can.c ****     \param[in]  can_periph
1002:../../../support/device/gd32f4xx/peripherals/src/gd32f4xx_can.c ****       \arg        CANx(x=0,1)
1003:../../../support/device/gd32f4xx/peripherals/src/gd32f4xx_can.c ****     \param[in]  flag: CAN interrupt flags, refer to can_interrupt_flag_enum
1004:../../../support/device/gd32f4xx/peripherals/src/gd32f4xx_can.c ****                 only one parameter can be selected which is shown as below:
1005:../../../support/device/gd32f4xx/peripherals/src/gd32f4xx_can.c ****       \arg        CAN_INT_FLAG_SLPIF: status change interrupt flag of sleep working mode entering
1006:../../../support/device/gd32f4xx/peripherals/src/gd32f4xx_can.c ****       \arg        CAN_INT_FLAG_WUIF: status change interrupt flag of wakeup from sleep working mode
1007:../../../support/device/gd32f4xx/peripherals/src/gd32f4xx_can.c ****       \arg        CAN_INT_FLAG_ERRIF: error interrupt flag
1008:../../../support/device/gd32f4xx/peripherals/src/gd32f4xx_can.c ****       \arg        CAN_INT_FLAG_MTF2: mailbox 2 transmit finished interrupt flag
1009:../../../support/device/gd32f4xx/peripherals/src/gd32f4xx_can.c ****       \arg        CAN_INT_FLAG_MTF1: mailbox 1 transmit finished interrupt flag
1010:../../../support/device/gd32f4xx/peripherals/src/gd32f4xx_can.c ****       \arg        CAN_INT_FLAG_MTF0: mailbox 0 transmit finished interrupt flag
1011:../../../support/device/gd32f4xx/peripherals/src/gd32f4xx_can.c ****       \arg        CAN_INT_FLAG_RFO0: receive FIFO0 overfull interrupt flag
1012:../../../support/device/gd32f4xx/peripherals/src/gd32f4xx_can.c ****       \arg        CAN_INT_FLAG_RFF0: receive FIFO0 full interrupt flag
1013:../../../support/device/gd32f4xx/peripherals/src/gd32f4xx_can.c ****       \arg        CAN_INT_FLAG_RFO1: receive FIFO1 overfull interrupt flag
1014:../../../support/device/gd32f4xx/peripherals/src/gd32f4xx_can.c ****       \arg        CAN_INT_FLAG_RFF1: receive FIFO1 full interrupt flag
1015:../../../support/device/gd32f4xx/peripherals/src/gd32f4xx_can.c ****     \param[out] none
1016:../../../support/device/gd32f4xx/peripherals/src/gd32f4xx_can.c ****     \retval     none
ARM GAS  /var/folders/_f/88qcw_5n2jl40jjphvxyt7wh0000gn/T//ccVo6N4q.s 			page 61


1017:../../../support/device/gd32f4xx/peripherals/src/gd32f4xx_can.c **** */
1018:../../../support/device/gd32f4xx/peripherals/src/gd32f4xx_can.c **** void can_interrupt_flag_clear(uint32_t can_periph, can_interrupt_flag_enum flag)
1019:../../../support/device/gd32f4xx/peripherals/src/gd32f4xx_can.c **** {
 2147              		.loc 1 1019 1 is_stmt 1 view -0
 2148              		.cfi_startproc
 2149              		@ args = 0, pretend = 0, frame = 0
 2150              		@ frame_needed = 0, uses_anonymous_args = 0
 2151              		@ link register save eliminated.
1020:../../../support/device/gd32f4xx/peripherals/src/gd32f4xx_can.c ****     CAN_REG_VALS(can_periph, flag) = BIT(CAN_BIT_POS0(flag));
 2152              		.loc 1 1020 5 view .LVU742
 2153 0000 0A0B     		lsrs	r2, r1, #12
 2154              		.loc 1 1020 38 is_stmt 0 view .LVU743
 2155 0002 0123     		movs	r3, #1
 2156 0004 C1F38411 		ubfx	r1, r1, #6, #5
 2157              	.LVL140:
 2158              		.loc 1 1020 38 view .LVU744
 2159 0008 03FA01F1 		lsl	r1, r3, r1
 2160              		.loc 1 1020 36 view .LVU745
 2161 000c 1150     		str	r1, [r2, r0]
1021:../../../support/device/gd32f4xx/peripherals/src/gd32f4xx_can.c **** }
 2162              		.loc 1 1021 1 view .LVU746
 2163 000e 7047     		bx	lr
 2164              		.cfi_endproc
 2165              	.LFE141:
 2167              		.text
 2168              	.Letext0:
 2169              		.file 2 "/Applications/ARM/arm-none-eabi/include/machine/_default_types.h"
 2170              		.file 3 "/Applications/ARM/arm-none-eabi/include/sys/_stdint.h"
 2171              		.file 4 "../../../support/device/gd32f4xx/inc/gd32f4xx.h"
 2172              		.file 5 "../../../support/device/gd32f4xx/peripherals/inc/gd32f4xx_rcu.h"
 2173              		.file 6 "../../../support/device/gd32f4xx/peripherals/inc/gd32f4xx_dbg.h"
 2174              		.file 7 "../../../support/device/gd32f4xx/peripherals/inc/gd32f4xx_can.h"
ARM GAS  /var/folders/_f/88qcw_5n2jl40jjphvxyt7wh0000gn/T//ccVo6N4q.s 			page 62

