ARM GAS  /var/folders/_f/88qcw_5n2jl40jjphvxyt7wh0000gn/T//cckB9tNt.s 			page 1


   1              		.cpu cortex-m4
   2              		.arch armv7e-m
   3              		.fpu softvfp
   4              		.eabi_attribute 20, 1
   5              		.eabi_attribute 21, 1
   6              		.eabi_attribute 23, 3
   7              		.eabi_attribute 24, 1
   8              		.eabi_attribute 25, 1
   9              		.eabi_attribute 26, 1
  10              		.eabi_attribute 30, 2
  11              		.eabi_attribute 34, 1
  12              		.eabi_attribute 18, 4
  13              		.file	"gd32f4xx_wwdgt.c"
  14              		.text
  15              	.Ltext0:
  16              		.cfi_sections	.debug_frame
  17              		.section	.text.wwdgt_deinit,"ax",%progbits
  18              		.align	1
  19              		.p2align 2,,3
  20              		.global	wwdgt_deinit
  21              		.syntax unified
  22              		.thumb
  23              		.thumb_func
  25              	wwdgt_deinit:
  26              	.LFB116:
  27              		.file 1 "../../../support/device/gd32f4xx/peripherals/src/gd32f4xx_wwdgt.c"
   1:../../../support/device/gd32f4xx/peripherals/src/gd32f4xx_wwdgt.c **** /*!
   2:../../../support/device/gd32f4xx/peripherals/src/gd32f4xx_wwdgt.c ****     \file    gd32f4xx_wwdgt.c
   3:../../../support/device/gd32f4xx/peripherals/src/gd32f4xx_wwdgt.c ****     \brief   WWDGT driver
   4:../../../support/device/gd32f4xx/peripherals/src/gd32f4xx_wwdgt.c **** 
   5:../../../support/device/gd32f4xx/peripherals/src/gd32f4xx_wwdgt.c ****     \version 2016-08-15, V1.0.0, firmware for GD32F4xx
   6:../../../support/device/gd32f4xx/peripherals/src/gd32f4xx_wwdgt.c ****     \version 2018-12-12, V2.0.0, firmware for GD32F4xx
   7:../../../support/device/gd32f4xx/peripherals/src/gd32f4xx_wwdgt.c ****     \version 2020-09-30, V2.1.0, firmware for GD32F4xx
   8:../../../support/device/gd32f4xx/peripherals/src/gd32f4xx_wwdgt.c ****     \version 2022-03-09, V3.0.0, firmware for GD32F4xx
   9:../../../support/device/gd32f4xx/peripherals/src/gd32f4xx_wwdgt.c **** */
  10:../../../support/device/gd32f4xx/peripherals/src/gd32f4xx_wwdgt.c **** 
  11:../../../support/device/gd32f4xx/peripherals/src/gd32f4xx_wwdgt.c **** /*
  12:../../../support/device/gd32f4xx/peripherals/src/gd32f4xx_wwdgt.c ****     Copyright (c) 2022, GigaDevice Semiconductor Inc.
  13:../../../support/device/gd32f4xx/peripherals/src/gd32f4xx_wwdgt.c **** 
  14:../../../support/device/gd32f4xx/peripherals/src/gd32f4xx_wwdgt.c ****     Redistribution and use in source and binary forms, with or without modification, 
  15:../../../support/device/gd32f4xx/peripherals/src/gd32f4xx_wwdgt.c **** are permitted provided that the following conditions are met:
  16:../../../support/device/gd32f4xx/peripherals/src/gd32f4xx_wwdgt.c **** 
  17:../../../support/device/gd32f4xx/peripherals/src/gd32f4xx_wwdgt.c ****     1. Redistributions of source code must retain the above copyright notice, this 
  18:../../../support/device/gd32f4xx/peripherals/src/gd32f4xx_wwdgt.c ****        list of conditions and the following disclaimer.
  19:../../../support/device/gd32f4xx/peripherals/src/gd32f4xx_wwdgt.c ****     2. Redistributions in binary form must reproduce the above copyright notice, 
  20:../../../support/device/gd32f4xx/peripherals/src/gd32f4xx_wwdgt.c ****        this list of conditions and the following disclaimer in the documentation 
  21:../../../support/device/gd32f4xx/peripherals/src/gd32f4xx_wwdgt.c ****        and/or other materials provided with the distribution.
  22:../../../support/device/gd32f4xx/peripherals/src/gd32f4xx_wwdgt.c ****     3. Neither the name of the copyright holder nor the names of its contributors 
  23:../../../support/device/gd32f4xx/peripherals/src/gd32f4xx_wwdgt.c ****        may be used to endorse or promote products derived from this software without 
  24:../../../support/device/gd32f4xx/peripherals/src/gd32f4xx_wwdgt.c ****        specific prior written permission.
  25:../../../support/device/gd32f4xx/peripherals/src/gd32f4xx_wwdgt.c **** 
  26:../../../support/device/gd32f4xx/peripherals/src/gd32f4xx_wwdgt.c ****     THIS SOFTWARE IS PROVIDED BY THE COPYRIGHT HOLDERS AND CONTRIBUTORS "AS IS" 
  27:../../../support/device/gd32f4xx/peripherals/src/gd32f4xx_wwdgt.c **** AND ANY EXPRESS OR IMPLIED WARRANTIES, INCLUDING, BUT NOT LIMITED TO, THE IMPLIED 
  28:../../../support/device/gd32f4xx/peripherals/src/gd32f4xx_wwdgt.c **** WARRANTIES OF MERCHANTABILITY AND FITNESS FOR A PARTICULAR PURPOSE ARE DISCLAIMED. 
  29:../../../support/device/gd32f4xx/peripherals/src/gd32f4xx_wwdgt.c **** IN NO EVENT SHALL THE COPYRIGHT HOLDER OR CONTRIBUTORS BE LIABLE FOR ANY DIRECT, 
  30:../../../support/device/gd32f4xx/peripherals/src/gd32f4xx_wwdgt.c **** INDIRECT, INCIDENTAL, SPECIAL, EXEMPLARY, OR CONSEQUENTIAL DAMAGES (INCLUDING, BUT 
  31:../../../support/device/gd32f4xx/peripherals/src/gd32f4xx_wwdgt.c **** NOT LIMITED TO, PROCUREMENT OF SUBSTITUTE GOODS OR SERVICES; LOSS OF USE, DATA, OR 
ARM GAS  /var/folders/_f/88qcw_5n2jl40jjphvxyt7wh0000gn/T//cckB9tNt.s 			page 2


  32:../../../support/device/gd32f4xx/peripherals/src/gd32f4xx_wwdgt.c **** PROFITS; OR BUSINESS INTERRUPTION) HOWEVER CAUSED AND ON ANY THEORY OF LIABILITY, 
  33:../../../support/device/gd32f4xx/peripherals/src/gd32f4xx_wwdgt.c **** WHETHER IN CONTRACT, STRICT LIABILITY, OR TORT (INCLUDING NEGLIGENCE OR OTHERWISE) 
  34:../../../support/device/gd32f4xx/peripherals/src/gd32f4xx_wwdgt.c **** ARISING IN ANY WAY OUT OF THE USE OF THIS SOFTWARE, EVEN IF ADVISED OF THE POSSIBILITY 
  35:../../../support/device/gd32f4xx/peripherals/src/gd32f4xx_wwdgt.c **** OF SUCH DAMAGE.
  36:../../../support/device/gd32f4xx/peripherals/src/gd32f4xx_wwdgt.c **** */
  37:../../../support/device/gd32f4xx/peripherals/src/gd32f4xx_wwdgt.c **** 
  38:../../../support/device/gd32f4xx/peripherals/src/gd32f4xx_wwdgt.c **** #include "gd32f4xx_wwdgt.h"
  39:../../../support/device/gd32f4xx/peripherals/src/gd32f4xx_wwdgt.c **** 
  40:../../../support/device/gd32f4xx/peripherals/src/gd32f4xx_wwdgt.c **** /*!
  41:../../../support/device/gd32f4xx/peripherals/src/gd32f4xx_wwdgt.c ****     \brief    reset the window watchdog timer configuration
  42:../../../support/device/gd32f4xx/peripherals/src/gd32f4xx_wwdgt.c ****     \param[in]  none
  43:../../../support/device/gd32f4xx/peripherals/src/gd32f4xx_wwdgt.c ****     \param[out] none
  44:../../../support/device/gd32f4xx/peripherals/src/gd32f4xx_wwdgt.c ****     \retval     none
  45:../../../support/device/gd32f4xx/peripherals/src/gd32f4xx_wwdgt.c **** */
  46:../../../support/device/gd32f4xx/peripherals/src/gd32f4xx_wwdgt.c **** void wwdgt_deinit(void)
  47:../../../support/device/gd32f4xx/peripherals/src/gd32f4xx_wwdgt.c **** {
  28              		.loc 1 47 1 view -0
  29              		.cfi_startproc
  30              		@ args = 0, pretend = 0, frame = 0
  31              		@ frame_needed = 0, uses_anonymous_args = 0
  48:../../../support/device/gd32f4xx/peripherals/src/gd32f4xx_wwdgt.c ****     rcu_periph_reset_enable(RCU_WWDGTRST);
  32              		.loc 1 48 5 view .LVU1
  47:../../../support/device/gd32f4xx/peripherals/src/gd32f4xx_wwdgt.c ****     rcu_periph_reset_enable(RCU_WWDGTRST);
  33              		.loc 1 47 1 is_stmt 0 view .LVU2
  34 0000 08B5     		push	{r3, lr}
  35              	.LCFI0:
  36              		.cfi_def_cfa_offset 8
  37              		.cfi_offset 3, -8
  38              		.cfi_offset 14, -4
  39              		.loc 1 48 5 view .LVU3
  40 0002 40F60B00 		movw	r0, #2059
  41 0006 FFF7FEFF 		bl	rcu_periph_reset_enable
  42              	.LVL0:
  49:../../../support/device/gd32f4xx/peripherals/src/gd32f4xx_wwdgt.c ****     rcu_periph_reset_disable(RCU_WWDGTRST);
  43              		.loc 1 49 5 is_stmt 1 view .LVU4
  50:../../../support/device/gd32f4xx/peripherals/src/gd32f4xx_wwdgt.c **** }
  44              		.loc 1 50 1 is_stmt 0 view .LVU5
  45 000a BDE80840 		pop	{r3, lr}
  46              	.LCFI1:
  47              		.cfi_restore 14
  48              		.cfi_restore 3
  49              		.cfi_def_cfa_offset 0
  49:../../../support/device/gd32f4xx/peripherals/src/gd32f4xx_wwdgt.c ****     rcu_periph_reset_disable(RCU_WWDGTRST);
  50              		.loc 1 49 5 view .LVU6
  51 000e 40F60B00 		movw	r0, #2059
  52 0012 FFF7FEBF 		b	rcu_periph_reset_disable
  53              	.LVL1:
  54              		.cfi_endproc
  55              	.LFE116:
  57 0016 00BF     		.section	.text.wwdgt_enable,"ax",%progbits
  58              		.align	1
  59              		.p2align 2,,3
  60              		.global	wwdgt_enable
  61              		.syntax unified
  62              		.thumb
  63              		.thumb_func
  65              	wwdgt_enable:
ARM GAS  /var/folders/_f/88qcw_5n2jl40jjphvxyt7wh0000gn/T//cckB9tNt.s 			page 3


  66              	.LFB117:
  51:../../../support/device/gd32f4xx/peripherals/src/gd32f4xx_wwdgt.c **** 
  52:../../../support/device/gd32f4xx/peripherals/src/gd32f4xx_wwdgt.c **** /*!
  53:../../../support/device/gd32f4xx/peripherals/src/gd32f4xx_wwdgt.c ****     \brief    start the window watchdog timer counter
  54:../../../support/device/gd32f4xx/peripherals/src/gd32f4xx_wwdgt.c ****     \param[in]  none
  55:../../../support/device/gd32f4xx/peripherals/src/gd32f4xx_wwdgt.c ****     \param[out] none
  56:../../../support/device/gd32f4xx/peripherals/src/gd32f4xx_wwdgt.c ****     \retval     none
  57:../../../support/device/gd32f4xx/peripherals/src/gd32f4xx_wwdgt.c **** */
  58:../../../support/device/gd32f4xx/peripherals/src/gd32f4xx_wwdgt.c **** void wwdgt_enable(void)
  59:../../../support/device/gd32f4xx/peripherals/src/gd32f4xx_wwdgt.c **** {
  67              		.loc 1 59 1 is_stmt 1 view -0
  68              		.cfi_startproc
  69              		@ args = 0, pretend = 0, frame = 0
  70              		@ frame_needed = 0, uses_anonymous_args = 0
  71              		@ link register save eliminated.
  60:../../../support/device/gd32f4xx/peripherals/src/gd32f4xx_wwdgt.c ****     WWDGT_CTL |= WWDGT_CTL_WDGTEN;
  72              		.loc 1 60 5 view .LVU8
  73              		.loc 1 60 15 is_stmt 0 view .LVU9
  74 0000 034A     		ldr	r2, .L5
  75 0002 D2F8003C 		ldr	r3, [r2, #3072]
  76 0006 43F08003 		orr	r3, r3, #128
  77 000a C2F8003C 		str	r3, [r2, #3072]
  61:../../../support/device/gd32f4xx/peripherals/src/gd32f4xx_wwdgt.c **** }
  78              		.loc 1 61 1 view .LVU10
  79 000e 7047     		bx	lr
  80              	.L6:
  81              		.align	2
  82              	.L5:
  83 0010 00200040 		.word	1073750016
  84              		.cfi_endproc
  85              	.LFE117:
  87              		.section	.text.wwdgt_counter_update,"ax",%progbits
  88              		.align	1
  89              		.p2align 2,,3
  90              		.global	wwdgt_counter_update
  91              		.syntax unified
  92              		.thumb
  93              		.thumb_func
  95              	wwdgt_counter_update:
  96              	.LVL2:
  97              	.LFB118:
  62:../../../support/device/gd32f4xx/peripherals/src/gd32f4xx_wwdgt.c **** 
  63:../../../support/device/gd32f4xx/peripherals/src/gd32f4xx_wwdgt.c **** /*!
  64:../../../support/device/gd32f4xx/peripherals/src/gd32f4xx_wwdgt.c ****     \brief    configure the window watchdog timer counter value
  65:../../../support/device/gd32f4xx/peripherals/src/gd32f4xx_wwdgt.c ****     \param[in]  counter_value: 0x00 - 0x7F
  66:../../../support/device/gd32f4xx/peripherals/src/gd32f4xx_wwdgt.c ****     \param[out] none
  67:../../../support/device/gd32f4xx/peripherals/src/gd32f4xx_wwdgt.c ****     \retval     none
  68:../../../support/device/gd32f4xx/peripherals/src/gd32f4xx_wwdgt.c **** */
  69:../../../support/device/gd32f4xx/peripherals/src/gd32f4xx_wwdgt.c **** void wwdgt_counter_update(uint16_t counter_value)
  70:../../../support/device/gd32f4xx/peripherals/src/gd32f4xx_wwdgt.c **** {
  98              		.loc 1 70 1 is_stmt 1 view -0
  99              		.cfi_startproc
 100              		@ args = 0, pretend = 0, frame = 0
 101              		@ frame_needed = 0, uses_anonymous_args = 0
 102              		@ link register save eliminated.
  71:../../../support/device/gd32f4xx/peripherals/src/gd32f4xx_wwdgt.c ****     WWDGT_CTL = (uint32_t)(CTL_CNT(counter_value));
 103              		.loc 1 71 5 view .LVU12
ARM GAS  /var/folders/_f/88qcw_5n2jl40jjphvxyt7wh0000gn/T//cckB9tNt.s 			page 4


 104              		.loc 1 71 15 is_stmt 0 view .LVU13
 105 0000 024B     		ldr	r3, .L8
 106              		.loc 1 71 17 view .LVU14
 107 0002 00F07F00 		and	r0, r0, #127
 108              	.LVL3:
 109              		.loc 1 71 15 view .LVU15
 110 0006 C3F8000C 		str	r0, [r3, #3072]
  72:../../../support/device/gd32f4xx/peripherals/src/gd32f4xx_wwdgt.c **** }
 111              		.loc 1 72 1 view .LVU16
 112 000a 7047     		bx	lr
 113              	.L9:
 114              		.align	2
 115              	.L8:
 116 000c 00200040 		.word	1073750016
 117              		.cfi_endproc
 118              	.LFE118:
 120              		.section	.text.wwdgt_config,"ax",%progbits
 121              		.align	1
 122              		.p2align 2,,3
 123              		.global	wwdgt_config
 124              		.syntax unified
 125              		.thumb
 126              		.thumb_func
 128              	wwdgt_config:
 129              	.LVL4:
 130              	.LFB119:
  73:../../../support/device/gd32f4xx/peripherals/src/gd32f4xx_wwdgt.c **** 
  74:../../../support/device/gd32f4xx/peripherals/src/gd32f4xx_wwdgt.c **** /*!
  75:../../../support/device/gd32f4xx/peripherals/src/gd32f4xx_wwdgt.c ****     \brief    configure counter value, window value, and prescaler divider value  
  76:../../../support/device/gd32f4xx/peripherals/src/gd32f4xx_wwdgt.c ****     \param[in]  counter: 0x00 - 0x7F   
  77:../../../support/device/gd32f4xx/peripherals/src/gd32f4xx_wwdgt.c ****     \param[in]  window: 0x00 - 0x7F
  78:../../../support/device/gd32f4xx/peripherals/src/gd32f4xx_wwdgt.c ****     \param[in]  prescaler: wwdgt prescaler value
  79:../../../support/device/gd32f4xx/peripherals/src/gd32f4xx_wwdgt.c ****                 only one parameter can be selected which is shown as below:
  80:../../../support/device/gd32f4xx/peripherals/src/gd32f4xx_wwdgt.c ****       \arg        WWDGT_CFG_PSC_DIV1: the time base of window watchdog counter = (PCLK1/4096)/1
  81:../../../support/device/gd32f4xx/peripherals/src/gd32f4xx_wwdgt.c ****       \arg        WWDGT_CFG_PSC_DIV2: the time base of window watchdog counter = (PCLK1/4096)/2
  82:../../../support/device/gd32f4xx/peripherals/src/gd32f4xx_wwdgt.c ****       \arg        WWDGT_CFG_PSC_DIV4: the time base of window watchdog counter = (PCLK1/4096)/4
  83:../../../support/device/gd32f4xx/peripherals/src/gd32f4xx_wwdgt.c ****       \arg        WWDGT_CFG_PSC_DIV8: the time base of window watchdog counter = (PCLK1/4096)/8
  84:../../../support/device/gd32f4xx/peripherals/src/gd32f4xx_wwdgt.c ****     \param[out] none
  85:../../../support/device/gd32f4xx/peripherals/src/gd32f4xx_wwdgt.c ****     \retval     none
  86:../../../support/device/gd32f4xx/peripherals/src/gd32f4xx_wwdgt.c **** */
  87:../../../support/device/gd32f4xx/peripherals/src/gd32f4xx_wwdgt.c **** void wwdgt_config(uint16_t counter, uint16_t window, uint32_t prescaler)
  88:../../../support/device/gd32f4xx/peripherals/src/gd32f4xx_wwdgt.c **** {
 131              		.loc 1 88 1 is_stmt 1 view -0
 132              		.cfi_startproc
 133              		@ args = 0, pretend = 0, frame = 0
 134              		@ frame_needed = 0, uses_anonymous_args = 0
 135              		@ link register save eliminated.
  89:../../../support/device/gd32f4xx/peripherals/src/gd32f4xx_wwdgt.c ****     /* configure WIN and PSC bits, configure CNT bit */
  90:../../../support/device/gd32f4xx/peripherals/src/gd32f4xx_wwdgt.c ****     WWDGT_CTL = (uint32_t)(CTL_CNT(counter));
 136              		.loc 1 90 5 view .LVU18
 137              		.loc 1 90 15 is_stmt 0 view .LVU19
 138 0000 054B     		ldr	r3, .L11
  91:../../../support/device/gd32f4xx/peripherals/src/gd32f4xx_wwdgt.c ****     WWDGT_CFG = (uint32_t)(CFG_WIN(window) | prescaler);
 139              		.loc 1 91 28 view .LVU20
 140 0002 01F07F01 		and	r1, r1, #127
 141              	.LVL5:
  90:../../../support/device/gd32f4xx/peripherals/src/gd32f4xx_wwdgt.c ****     WWDGT_CFG = (uint32_t)(CFG_WIN(window) | prescaler);
ARM GAS  /var/folders/_f/88qcw_5n2jl40jjphvxyt7wh0000gn/T//cckB9tNt.s 			page 5


 142              		.loc 1 90 17 view .LVU21
 143 0006 00F07F00 		and	r0, r0, #127
 144              	.LVL6:
 145              		.loc 1 91 17 view .LVU22
 146 000a 1143     		orrs	r1, r1, r2
  90:../../../support/device/gd32f4xx/peripherals/src/gd32f4xx_wwdgt.c ****     WWDGT_CFG = (uint32_t)(CFG_WIN(window) | prescaler);
 147              		.loc 1 90 15 view .LVU23
 148 000c C3F8000C 		str	r0, [r3, #3072]
 149              		.loc 1 91 5 is_stmt 1 view .LVU24
 150              		.loc 1 91 15 is_stmt 0 view .LVU25
 151 0010 C3F8041C 		str	r1, [r3, #3076]
  92:../../../support/device/gd32f4xx/peripherals/src/gd32f4xx_wwdgt.c **** }
 152              		.loc 1 92 1 view .LVU26
 153 0014 7047     		bx	lr
 154              	.L12:
 155 0016 00BF     		.align	2
 156              	.L11:
 157 0018 00200040 		.word	1073750016
 158              		.cfi_endproc
 159              	.LFE119:
 161              		.section	.text.wwdgt_flag_get,"ax",%progbits
 162              		.align	1
 163              		.p2align 2,,3
 164              		.global	wwdgt_flag_get
 165              		.syntax unified
 166              		.thumb
 167              		.thumb_func
 169              	wwdgt_flag_get:
 170              	.LFB120:
  93:../../../support/device/gd32f4xx/peripherals/src/gd32f4xx_wwdgt.c **** 
  94:../../../support/device/gd32f4xx/peripherals/src/gd32f4xx_wwdgt.c **** /*!
  95:../../../support/device/gd32f4xx/peripherals/src/gd32f4xx_wwdgt.c ****     \brief    check early wakeup interrupt state of WWDGT
  96:../../../support/device/gd32f4xx/peripherals/src/gd32f4xx_wwdgt.c ****     \param[in]  none
  97:../../../support/device/gd32f4xx/peripherals/src/gd32f4xx_wwdgt.c ****     \param[out] none
  98:../../../support/device/gd32f4xx/peripherals/src/gd32f4xx_wwdgt.c ****     \retval     FlagStatus: SET or RESET
  99:../../../support/device/gd32f4xx/peripherals/src/gd32f4xx_wwdgt.c **** */
 100:../../../support/device/gd32f4xx/peripherals/src/gd32f4xx_wwdgt.c **** FlagStatus wwdgt_flag_get(void)
 101:../../../support/device/gd32f4xx/peripherals/src/gd32f4xx_wwdgt.c **** {
 171              		.loc 1 101 1 is_stmt 1 view -0
 172              		.cfi_startproc
 173              		@ args = 0, pretend = 0, frame = 0
 174              		@ frame_needed = 0, uses_anonymous_args = 0
 175              		@ link register save eliminated.
 102:../../../support/device/gd32f4xx/peripherals/src/gd32f4xx_wwdgt.c ****     if(RESET != (WWDGT_STAT & WWDGT_STAT_EWIF)){
 176              		.loc 1 102 5 view .LVU28
 177              		.loc 1 102 18 is_stmt 0 view .LVU29
 178 0000 024B     		ldr	r3, .L14
 179 0002 D3F8080C 		ldr	r0, [r3, #3080]
 103:../../../support/device/gd32f4xx/peripherals/src/gd32f4xx_wwdgt.c ****         return SET;
 104:../../../support/device/gd32f4xx/peripherals/src/gd32f4xx_wwdgt.c ****     }
 105:../../../support/device/gd32f4xx/peripherals/src/gd32f4xx_wwdgt.c **** 
 106:../../../support/device/gd32f4xx/peripherals/src/gd32f4xx_wwdgt.c ****     return RESET;
 107:../../../support/device/gd32f4xx/peripherals/src/gd32f4xx_wwdgt.c **** }
 180              		.loc 1 107 1 view .LVU30
 181 0006 00F00100 		and	r0, r0, #1
 182 000a 7047     		bx	lr
 183              	.L15:
ARM GAS  /var/folders/_f/88qcw_5n2jl40jjphvxyt7wh0000gn/T//cckB9tNt.s 			page 6


 184              		.align	2
 185              	.L14:
 186 000c 00200040 		.word	1073750016
 187              		.cfi_endproc
 188              	.LFE120:
 190              		.section	.text.wwdgt_flag_clear,"ax",%progbits
 191              		.align	1
 192              		.p2align 2,,3
 193              		.global	wwdgt_flag_clear
 194              		.syntax unified
 195              		.thumb
 196              		.thumb_func
 198              	wwdgt_flag_clear:
 199              	.LFB121:
 108:../../../support/device/gd32f4xx/peripherals/src/gd32f4xx_wwdgt.c **** 
 109:../../../support/device/gd32f4xx/peripherals/src/gd32f4xx_wwdgt.c **** /*!
 110:../../../support/device/gd32f4xx/peripherals/src/gd32f4xx_wwdgt.c ****     \brief    clear early wakeup interrupt state of WWDGT
 111:../../../support/device/gd32f4xx/peripherals/src/gd32f4xx_wwdgt.c ****     \param[in]  none
 112:../../../support/device/gd32f4xx/peripherals/src/gd32f4xx_wwdgt.c ****     \param[out] none
 113:../../../support/device/gd32f4xx/peripherals/src/gd32f4xx_wwdgt.c ****     \retval     none
 114:../../../support/device/gd32f4xx/peripherals/src/gd32f4xx_wwdgt.c **** */
 115:../../../support/device/gd32f4xx/peripherals/src/gd32f4xx_wwdgt.c **** void wwdgt_flag_clear(void)
 116:../../../support/device/gd32f4xx/peripherals/src/gd32f4xx_wwdgt.c **** {
 200              		.loc 1 116 1 is_stmt 1 view -0
 201              		.cfi_startproc
 202              		@ args = 0, pretend = 0, frame = 0
 203              		@ frame_needed = 0, uses_anonymous_args = 0
 204              		@ link register save eliminated.
 117:../../../support/device/gd32f4xx/peripherals/src/gd32f4xx_wwdgt.c ****     WWDGT_STAT = (uint32_t)(RESET);
 205              		.loc 1 117 5 view .LVU32
 206              		.loc 1 117 16 is_stmt 0 view .LVU33
 207 0000 024B     		ldr	r3, .L17
 208 0002 0022     		movs	r2, #0
 209 0004 C3F8082C 		str	r2, [r3, #3080]
 118:../../../support/device/gd32f4xx/peripherals/src/gd32f4xx_wwdgt.c **** }
 210              		.loc 1 118 1 view .LVU34
 211 0008 7047     		bx	lr
 212              	.L18:
 213 000a 00BF     		.align	2
 214              	.L17:
 215 000c 00200040 		.word	1073750016
 216              		.cfi_endproc
 217              	.LFE121:
 219              		.section	.text.wwdgt_interrupt_enable,"ax",%progbits
 220              		.align	1
 221              		.p2align 2,,3
 222              		.global	wwdgt_interrupt_enable
 223              		.syntax unified
 224              		.thumb
 225              		.thumb_func
 227              	wwdgt_interrupt_enable:
 228              	.LFB122:
 119:../../../support/device/gd32f4xx/peripherals/src/gd32f4xx_wwdgt.c **** 
 120:../../../support/device/gd32f4xx/peripherals/src/gd32f4xx_wwdgt.c **** /*!
 121:../../../support/device/gd32f4xx/peripherals/src/gd32f4xx_wwdgt.c ****     \brief    enable early wakeup interrupt of WWDGT
 122:../../../support/device/gd32f4xx/peripherals/src/gd32f4xx_wwdgt.c ****     \param[in]  none
 123:../../../support/device/gd32f4xx/peripherals/src/gd32f4xx_wwdgt.c ****     \param[out] none
ARM GAS  /var/folders/_f/88qcw_5n2jl40jjphvxyt7wh0000gn/T//cckB9tNt.s 			page 7


 124:../../../support/device/gd32f4xx/peripherals/src/gd32f4xx_wwdgt.c ****     \retval     none
 125:../../../support/device/gd32f4xx/peripherals/src/gd32f4xx_wwdgt.c **** */
 126:../../../support/device/gd32f4xx/peripherals/src/gd32f4xx_wwdgt.c **** void wwdgt_interrupt_enable(void)
 127:../../../support/device/gd32f4xx/peripherals/src/gd32f4xx_wwdgt.c **** {
 229              		.loc 1 127 1 is_stmt 1 view -0
 230              		.cfi_startproc
 231              		@ args = 0, pretend = 0, frame = 0
 232              		@ frame_needed = 0, uses_anonymous_args = 0
 233              		@ link register save eliminated.
 128:../../../support/device/gd32f4xx/peripherals/src/gd32f4xx_wwdgt.c ****     WWDGT_CFG |= WWDGT_CFG_EWIE;
 234              		.loc 1 128 5 view .LVU36
 235              		.loc 1 128 15 is_stmt 0 view .LVU37
 236 0000 034A     		ldr	r2, .L20
 237 0002 D2F8043C 		ldr	r3, [r2, #3076]
 238 0006 43F40073 		orr	r3, r3, #512
 239 000a C2F8043C 		str	r3, [r2, #3076]
 129:../../../support/device/gd32f4xx/peripherals/src/gd32f4xx_wwdgt.c **** }
 240              		.loc 1 129 1 view .LVU38
 241 000e 7047     		bx	lr
 242              	.L21:
 243              		.align	2
 244              	.L20:
 245 0010 00200040 		.word	1073750016
 246              		.cfi_endproc
 247              	.LFE122:
 249              		.text
 250              	.Letext0:
 251              		.file 2 "/Applications/ARM/arm-none-eabi/include/machine/_default_types.h"
 252              		.file 3 "/Applications/ARM/arm-none-eabi/include/sys/_stdint.h"
 253              		.file 4 "../../../support/device/gd32f4xx/inc/gd32f4xx.h"
 254              		.file 5 "../../../support/device/gd32f4xx/peripherals/inc/gd32f4xx_rcu.h"
ARM GAS  /var/folders/_f/88qcw_5n2jl40jjphvxyt7wh0000gn/T//cckB9tNt.s 			page 8

