ARM GAS  /var/folders/_f/88qcw_5n2jl40jjphvxyt7wh0000gn/T//cctfNtoi.s 			page 1


   1              		.cpu cortex-m4
   2              		.arch armv7e-m
   3              		.fpu softvfp
   4              		.eabi_attribute 20, 1
   5              		.eabi_attribute 21, 1
   6              		.eabi_attribute 23, 3
   7              		.eabi_attribute 24, 1
   8              		.eabi_attribute 25, 1
   9              		.eabi_attribute 26, 1
  10              		.eabi_attribute 30, 2
  11              		.eabi_attribute 34, 1
  12              		.eabi_attribute 18, 4
  13              		.file	"gd32f4xx_tli.c"
  14              		.text
  15              	.Ltext0:
  16              		.cfi_sections	.debug_frame
  17              		.section	.text.tli_deinit,"ax",%progbits
  18              		.align	1
  19              		.p2align 2,,3
  20              		.global	tli_deinit
  21              		.syntax unified
  22              		.thumb
  23              		.thumb_func
  25              	tli_deinit:
  26              	.LFB116:
  27              		.file 1 "../../../support/device/gd32f4xx/peripherals/src/gd32f4xx_tli.c"
   1:../../../support/device/gd32f4xx/peripherals/src/gd32f4xx_tli.c **** /*!
   2:../../../support/device/gd32f4xx/peripherals/src/gd32f4xx_tli.c ****     \file    gd32f4xx_tli.c
   3:../../../support/device/gd32f4xx/peripherals/src/gd32f4xx_tli.c ****     \brief   TLI driver
   4:../../../support/device/gd32f4xx/peripherals/src/gd32f4xx_tli.c **** 
   5:../../../support/device/gd32f4xx/peripherals/src/gd32f4xx_tli.c ****     \version 2016-08-15, V1.0.0, firmware for GD32F4xx
   6:../../../support/device/gd32f4xx/peripherals/src/gd32f4xx_tli.c ****     \version 2018-12-12, V2.0.0, firmware for GD32F4xx
   7:../../../support/device/gd32f4xx/peripherals/src/gd32f4xx_tli.c ****     \version 2020-09-30, V2.1.0, firmware for GD32F4xx
   8:../../../support/device/gd32f4xx/peripherals/src/gd32f4xx_tli.c ****     \version 2022-03-09, V3.0.0, firmware for GD32F4xx
   9:../../../support/device/gd32f4xx/peripherals/src/gd32f4xx_tli.c **** */
  10:../../../support/device/gd32f4xx/peripherals/src/gd32f4xx_tli.c **** 
  11:../../../support/device/gd32f4xx/peripherals/src/gd32f4xx_tli.c **** /*
  12:../../../support/device/gd32f4xx/peripherals/src/gd32f4xx_tli.c ****     Copyright (c) 2022, GigaDevice Semiconductor Inc.
  13:../../../support/device/gd32f4xx/peripherals/src/gd32f4xx_tli.c **** 
  14:../../../support/device/gd32f4xx/peripherals/src/gd32f4xx_tli.c ****     Redistribution and use in source and binary forms, with or without modification,
  15:../../../support/device/gd32f4xx/peripherals/src/gd32f4xx_tli.c **** are permitted provided that the following conditions are met:
  16:../../../support/device/gd32f4xx/peripherals/src/gd32f4xx_tli.c **** 
  17:../../../support/device/gd32f4xx/peripherals/src/gd32f4xx_tli.c ****     1. Redistributions of source code must retain the above copyright notice, this
  18:../../../support/device/gd32f4xx/peripherals/src/gd32f4xx_tli.c ****        list of conditions and the following disclaimer.
  19:../../../support/device/gd32f4xx/peripherals/src/gd32f4xx_tli.c ****     2. Redistributions in binary form must reproduce the above copyright notice,
  20:../../../support/device/gd32f4xx/peripherals/src/gd32f4xx_tli.c ****        this list of conditions and the following disclaimer in the documentation
  21:../../../support/device/gd32f4xx/peripherals/src/gd32f4xx_tli.c ****        and/or other materials provided with the distribution.
  22:../../../support/device/gd32f4xx/peripherals/src/gd32f4xx_tli.c ****     3. Neither the name of the copyright holder nor the names of its contributors
  23:../../../support/device/gd32f4xx/peripherals/src/gd32f4xx_tli.c ****        may be used to endorse or promote products derived from this software without
  24:../../../support/device/gd32f4xx/peripherals/src/gd32f4xx_tli.c ****        specific prior written permission.
  25:../../../support/device/gd32f4xx/peripherals/src/gd32f4xx_tli.c **** 
  26:../../../support/device/gd32f4xx/peripherals/src/gd32f4xx_tli.c ****     THIS SOFTWARE IS PROVIDED BY THE COPYRIGHT HOLDERS AND CONTRIBUTORS "AS IS"
  27:../../../support/device/gd32f4xx/peripherals/src/gd32f4xx_tli.c **** AND ANY EXPRESS OR IMPLIED WARRANTIES, INCLUDING, BUT NOT LIMITED TO, THE IMPLIED
  28:../../../support/device/gd32f4xx/peripherals/src/gd32f4xx_tli.c **** WARRANTIES OF MERCHANTABILITY AND FITNESS FOR A PARTICULAR PURPOSE ARE DISCLAIMED.
  29:../../../support/device/gd32f4xx/peripherals/src/gd32f4xx_tli.c **** IN NO EVENT SHALL THE COPYRIGHT HOLDER OR CONTRIBUTORS BE LIABLE FOR ANY DIRECT,
  30:../../../support/device/gd32f4xx/peripherals/src/gd32f4xx_tli.c **** INDIRECT, INCIDENTAL, SPECIAL, EXEMPLARY, OR CONSEQUENTIAL DAMAGES (INCLUDING, BUT
  31:../../../support/device/gd32f4xx/peripherals/src/gd32f4xx_tli.c **** NOT LIMITED TO, PROCUREMENT OF SUBSTITUTE GOODS OR SERVICES; LOSS OF USE, DATA, OR
ARM GAS  /var/folders/_f/88qcw_5n2jl40jjphvxyt7wh0000gn/T//cctfNtoi.s 			page 2


  32:../../../support/device/gd32f4xx/peripherals/src/gd32f4xx_tli.c **** PROFITS; OR BUSINESS INTERRUPTION) HOWEVER CAUSED AND ON ANY THEORY OF LIABILITY,
  33:../../../support/device/gd32f4xx/peripherals/src/gd32f4xx_tli.c **** WHETHER IN CONTRACT, STRICT LIABILITY, OR TORT (INCLUDING NEGLIGENCE OR OTHERWISE)
  34:../../../support/device/gd32f4xx/peripherals/src/gd32f4xx_tli.c **** ARISING IN ANY WAY OUT OF THE USE OF THIS SOFTWARE, EVEN IF ADVISED OF THE POSSIBILITY
  35:../../../support/device/gd32f4xx/peripherals/src/gd32f4xx_tli.c **** OF SUCH DAMAGE.
  36:../../../support/device/gd32f4xx/peripherals/src/gd32f4xx_tli.c **** */
  37:../../../support/device/gd32f4xx/peripherals/src/gd32f4xx_tli.c **** 
  38:../../../support/device/gd32f4xx/peripherals/src/gd32f4xx_tli.c **** #include "gd32f4xx_tli.h"
  39:../../../support/device/gd32f4xx/peripherals/src/gd32f4xx_tli.c **** 
  40:../../../support/device/gd32f4xx/peripherals/src/gd32f4xx_tli.c **** #define TLI_DEFAULT_VALUE   0x00000000U
  41:../../../support/device/gd32f4xx/peripherals/src/gd32f4xx_tli.c **** #define TLI_OPAQUE_VALUE    0x000000FFU
  42:../../../support/device/gd32f4xx/peripherals/src/gd32f4xx_tli.c **** 
  43:../../../support/device/gd32f4xx/peripherals/src/gd32f4xx_tli.c **** /*!
  44:../../../support/device/gd32f4xx/peripherals/src/gd32f4xx_tli.c ****     \brief    deinitialize TLI registers
  45:../../../support/device/gd32f4xx/peripherals/src/gd32f4xx_tli.c ****     \param[in]  none
  46:../../../support/device/gd32f4xx/peripherals/src/gd32f4xx_tli.c ****     \param[out] none
  47:../../../support/device/gd32f4xx/peripherals/src/gd32f4xx_tli.c ****     \retval     none
  48:../../../support/device/gd32f4xx/peripherals/src/gd32f4xx_tli.c **** */
  49:../../../support/device/gd32f4xx/peripherals/src/gd32f4xx_tli.c **** void tli_deinit(void)
  50:../../../support/device/gd32f4xx/peripherals/src/gd32f4xx_tli.c **** {
  28              		.loc 1 50 1 view -0
  29              		.cfi_startproc
  30              		@ args = 0, pretend = 0, frame = 0
  31              		@ frame_needed = 0, uses_anonymous_args = 0
  51:../../../support/device/gd32f4xx/peripherals/src/gd32f4xx_tli.c ****     rcu_periph_reset_enable(RCU_TLIRST);
  32              		.loc 1 51 5 view .LVU1
  50:../../../support/device/gd32f4xx/peripherals/src/gd32f4xx_tli.c ****     rcu_periph_reset_enable(RCU_TLIRST);
  33              		.loc 1 50 1 is_stmt 0 view .LVU2
  34 0000 08B5     		push	{r3, lr}
  35              	.LCFI0:
  36              		.cfi_def_cfa_offset 8
  37              		.cfi_offset 3, -8
  38              		.cfi_offset 14, -4
  39              		.loc 1 51 5 view .LVU3
  40 0002 40F61A10 		movw	r0, #2330
  41 0006 FFF7FEFF 		bl	rcu_periph_reset_enable
  42              	.LVL0:
  52:../../../support/device/gd32f4xx/peripherals/src/gd32f4xx_tli.c ****     rcu_periph_reset_disable(RCU_TLIRST);
  43              		.loc 1 52 5 is_stmt 1 view .LVU4
  53:../../../support/device/gd32f4xx/peripherals/src/gd32f4xx_tli.c **** }
  44              		.loc 1 53 1 is_stmt 0 view .LVU5
  45 000a BDE80840 		pop	{r3, lr}
  46              	.LCFI1:
  47              		.cfi_restore 14
  48              		.cfi_restore 3
  49              		.cfi_def_cfa_offset 0
  52:../../../support/device/gd32f4xx/peripherals/src/gd32f4xx_tli.c ****     rcu_periph_reset_disable(RCU_TLIRST);
  50              		.loc 1 52 5 view .LVU6
  51 000e 40F61A10 		movw	r0, #2330
  52 0012 FFF7FEBF 		b	rcu_periph_reset_disable
  53              	.LVL1:
  54              		.cfi_endproc
  55              	.LFE116:
  57 0016 00BF     		.section	.text.tli_struct_para_init,"ax",%progbits
  58              		.align	1
  59              		.p2align 2,,3
  60              		.global	tli_struct_para_init
  61              		.syntax unified
ARM GAS  /var/folders/_f/88qcw_5n2jl40jjphvxyt7wh0000gn/T//cctfNtoi.s 			page 3


  62              		.thumb
  63              		.thumb_func
  65              	tli_struct_para_init:
  66              	.LVL2:
  67              	.LFB117:
  54:../../../support/device/gd32f4xx/peripherals/src/gd32f4xx_tli.c **** 
  55:../../../support/device/gd32f4xx/peripherals/src/gd32f4xx_tli.c **** /*!
  56:../../../support/device/gd32f4xx/peripherals/src/gd32f4xx_tli.c ****     \brief    initialize the parameters of TLI parameter structure with the default values, it is s
  57:../../../support/device/gd32f4xx/peripherals/src/gd32f4xx_tli.c ****                 that call this function after a tli_parameter_struct structure is defined
  58:../../../support/device/gd32f4xx/peripherals/src/gd32f4xx_tli.c ****     \param[in]  none
  59:../../../support/device/gd32f4xx/peripherals/src/gd32f4xx_tli.c ****     \param[out] tli_struct: the data needed to initialize TLI
  60:../../../support/device/gd32f4xx/peripherals/src/gd32f4xx_tli.c ****                   synpsz_vpsz: size of the vertical synchronous pulse
  61:../../../support/device/gd32f4xx/peripherals/src/gd32f4xx_tli.c ****                   synpsz_hpsz: size of the horizontal synchronous pulse
  62:../../../support/device/gd32f4xx/peripherals/src/gd32f4xx_tli.c ****                   backpsz_vbpsz: size of the vertical back porch plus synchronous pulse
  63:../../../support/device/gd32f4xx/peripherals/src/gd32f4xx_tli.c ****                   backpsz_hbpsz: size of the horizontal back porch plus synchronous pulse
  64:../../../support/device/gd32f4xx/peripherals/src/gd32f4xx_tli.c ****                   activesz_vasz: size of the vertical active area width plus back porch and synchro
  65:../../../support/device/gd32f4xx/peripherals/src/gd32f4xx_tli.c ****                   activesz_hasz: size of the horizontal active area width plus back porch and synch
  66:../../../support/device/gd32f4xx/peripherals/src/gd32f4xx_tli.c ****                   totalsz_vtsz: vertical total size of the display, including active area, back por
  67:../../../support/device/gd32f4xx/peripherals/src/gd32f4xx_tli.c ****                   totalsz_htsz: vorizontal total size of the display, including active area, back p
  68:../../../support/device/gd32f4xx/peripherals/src/gd32f4xx_tli.c ****                   backcolor_red: background value red
  69:../../../support/device/gd32f4xx/peripherals/src/gd32f4xx_tli.c ****                   backcolor_green: background value green
  70:../../../support/device/gd32f4xx/peripherals/src/gd32f4xx_tli.c ****                   backcolor_blue: background value blue
  71:../../../support/device/gd32f4xx/peripherals/src/gd32f4xx_tli.c ****                   signalpolarity_hs: TLI_HSYN_ACTLIVE_LOW,TLI_HSYN_ACTLIVE_HIGHT
  72:../../../support/device/gd32f4xx/peripherals/src/gd32f4xx_tli.c ****                   signalpolarity_vs: TLI_VSYN_ACTLIVE_LOW,TLI_VSYN_ACTLIVE_HIGHT
  73:../../../support/device/gd32f4xx/peripherals/src/gd32f4xx_tli.c ****                   signalpolarity_de: TLI_DE_ACTLIVE_LOW,TLI_DE_ACTLIVE_HIGHT
  74:../../../support/device/gd32f4xx/peripherals/src/gd32f4xx_tli.c ****                   signalpolarity_pixelck: TLI_PIXEL_CLOCK_TLI,TLI_PIXEL_CLOCK_INVERTEDTLI
  75:../../../support/device/gd32f4xx/peripherals/src/gd32f4xx_tli.c ****     \retval     none
  76:../../../support/device/gd32f4xx/peripherals/src/gd32f4xx_tli.c **** */
  77:../../../support/device/gd32f4xx/peripherals/src/gd32f4xx_tli.c **** void tli_struct_para_init(tli_parameter_struct *tli_struct)
  78:../../../support/device/gd32f4xx/peripherals/src/gd32f4xx_tli.c **** {
  68              		.loc 1 78 1 is_stmt 1 view -0
  69              		.cfi_startproc
  70              		@ args = 0, pretend = 0, frame = 0
  71              		@ frame_needed = 0, uses_anonymous_args = 0
  72              		@ link register save eliminated.
  79:../../../support/device/gd32f4xx/peripherals/src/gd32f4xx_tli.c ****     /* initialize the struct parameters with default values */
  80:../../../support/device/gd32f4xx/peripherals/src/gd32f4xx_tli.c ****     tli_struct->synpsz_vpsz = TLI_DEFAULT_VALUE;
  73              		.loc 1 80 5 view .LVU8
  81:../../../support/device/gd32f4xx/peripherals/src/gd32f4xx_tli.c ****     tli_struct->synpsz_hpsz = TLI_DEFAULT_VALUE;
  74              		.loc 1 81 5 view .LVU9
  82:../../../support/device/gd32f4xx/peripherals/src/gd32f4xx_tli.c ****     tli_struct->backpsz_vbpsz = TLI_DEFAULT_VALUE;
  75              		.loc 1 82 5 view .LVU10
  83:../../../support/device/gd32f4xx/peripherals/src/gd32f4xx_tli.c ****     tli_struct->backpsz_hbpsz = TLI_DEFAULT_VALUE;
  76              		.loc 1 83 5 view .LVU11
  84:../../../support/device/gd32f4xx/peripherals/src/gd32f4xx_tli.c ****     tli_struct->activesz_vasz = TLI_DEFAULT_VALUE;
  77              		.loc 1 84 5 view .LVU12
  85:../../../support/device/gd32f4xx/peripherals/src/gd32f4xx_tli.c ****     tli_struct->activesz_hasz = TLI_DEFAULT_VALUE;
  78              		.loc 1 85 5 view .LVU13
  86:../../../support/device/gd32f4xx/peripherals/src/gd32f4xx_tli.c ****     tli_struct->totalsz_vtsz = TLI_DEFAULT_VALUE;
  79              		.loc 1 86 5 view .LVU14
  87:../../../support/device/gd32f4xx/peripherals/src/gd32f4xx_tli.c ****     tli_struct->totalsz_htsz = TLI_DEFAULT_VALUE;
  80              		.loc 1 87 5 view .LVU15
  88:../../../support/device/gd32f4xx/peripherals/src/gd32f4xx_tli.c ****     tli_struct->backcolor_red = TLI_DEFAULT_VALUE;
  81              		.loc 1 88 5 view .LVU16
  89:../../../support/device/gd32f4xx/peripherals/src/gd32f4xx_tli.c ****     tli_struct->backcolor_green = TLI_DEFAULT_VALUE;
  82              		.loc 1 89 5 view .LVU17
  90:../../../support/device/gd32f4xx/peripherals/src/gd32f4xx_tli.c ****     tli_struct->backcolor_blue = TLI_DEFAULT_VALUE;
ARM GAS  /var/folders/_f/88qcw_5n2jl40jjphvxyt7wh0000gn/T//cctfNtoi.s 			page 4


  83              		.loc 1 90 5 view .LVU18
  91:../../../support/device/gd32f4xx/peripherals/src/gd32f4xx_tli.c ****     tli_struct->signalpolarity_hs = TLI_HSYN_ACTLIVE_LOW;
  84              		.loc 1 91 5 view .LVU19
  92:../../../support/device/gd32f4xx/peripherals/src/gd32f4xx_tli.c ****     tli_struct->signalpolarity_vs = TLI_VSYN_ACTLIVE_LOW;
  85              		.loc 1 92 5 view .LVU20
  93:../../../support/device/gd32f4xx/peripherals/src/gd32f4xx_tli.c ****     tli_struct->signalpolarity_de = TLI_DE_ACTLIVE_LOW;
  86              		.loc 1 93 5 view .LVU21
  94:../../../support/device/gd32f4xx/peripherals/src/gd32f4xx_tli.c ****     tli_struct->signalpolarity_pixelck = TLI_PIXEL_CLOCK_TLI;
  87              		.loc 1 94 5 view .LVU22
  80:../../../support/device/gd32f4xx/peripherals/src/gd32f4xx_tli.c ****     tli_struct->synpsz_hpsz = TLI_DEFAULT_VALUE;
  88              		.loc 1 80 29 is_stmt 0 view .LVU23
  89 0000 0023     		movs	r3, #0
  82:../../../support/device/gd32f4xx/peripherals/src/gd32f4xx_tli.c ****     tli_struct->backpsz_hbpsz = TLI_DEFAULT_VALUE;
  90              		.loc 1 82 31 view .LVU24
  91 0002 C0E90033 		strd	r3, r3, [r0]
  85:../../../support/device/gd32f4xx/peripherals/src/gd32f4xx_tli.c ****     tli_struct->totalsz_vtsz = TLI_DEFAULT_VALUE;
  92              		.loc 1 85 31 view .LVU25
  93 0006 C0E90233 		strd	r3, r3, [r0, #8]
  87:../../../support/device/gd32f4xx/peripherals/src/gd32f4xx_tli.c ****     tli_struct->backcolor_red = TLI_DEFAULT_VALUE;
  94              		.loc 1 87 30 view .LVU26
  95 000a C0E90433 		strd	r3, r3, [r0, #16]
  89:../../../support/device/gd32f4xx/peripherals/src/gd32f4xx_tli.c ****     tli_struct->backcolor_blue = TLI_DEFAULT_VALUE;
  96              		.loc 1 89 33 view .LVU27
  97 000e C0E90633 		strd	r3, r3, [r0, #24]
  91:../../../support/device/gd32f4xx/peripherals/src/gd32f4xx_tli.c ****     tli_struct->signalpolarity_vs = TLI_VSYN_ACTLIVE_LOW;
  98              		.loc 1 91 35 view .LVU28
  99 0012 C0E90833 		strd	r3, r3, [r0, #32]
  93:../../../support/device/gd32f4xx/peripherals/src/gd32f4xx_tli.c ****     tli_struct->signalpolarity_pixelck = TLI_PIXEL_CLOCK_TLI;
 100              		.loc 1 93 35 view .LVU29
 101 0016 C0E90A33 		strd	r3, r3, [r0, #40]
 102              		.loc 1 94 40 view .LVU30
 103 001a 0363     		str	r3, [r0, #48]
  95:../../../support/device/gd32f4xx/peripherals/src/gd32f4xx_tli.c **** }
 104              		.loc 1 95 1 view .LVU31
 105 001c 7047     		bx	lr
 106              		.cfi_endproc
 107              	.LFE117:
 109 001e 00BF     		.section	.text.tli_init,"ax",%progbits
 110              		.align	1
 111              		.p2align 2,,3
 112              		.global	tli_init
 113              		.syntax unified
 114              		.thumb
 115              		.thumb_func
 117              	tli_init:
 118              	.LVL3:
 119              	.LFB118:
  96:../../../support/device/gd32f4xx/peripherals/src/gd32f4xx_tli.c **** 
  97:../../../support/device/gd32f4xx/peripherals/src/gd32f4xx_tli.c **** /*!
  98:../../../support/device/gd32f4xx/peripherals/src/gd32f4xx_tli.c ****     \brief    initialize TLI display timing parameters
  99:../../../support/device/gd32f4xx/peripherals/src/gd32f4xx_tli.c ****     \param[in]  tli_struct: the data needed to initialize TLI
 100:../../../support/device/gd32f4xx/peripherals/src/gd32f4xx_tli.c ****                   synpsz_vpsz: size of the vertical synchronous pulse
 101:../../../support/device/gd32f4xx/peripherals/src/gd32f4xx_tli.c ****                   synpsz_hpsz: size of the horizontal synchronous pulse
 102:../../../support/device/gd32f4xx/peripherals/src/gd32f4xx_tli.c ****                   backpsz_vbpsz: size of the vertical back porch plus synchronous pulse
 103:../../../support/device/gd32f4xx/peripherals/src/gd32f4xx_tli.c ****                   backpsz_hbpsz: size of the horizontal back porch plus synchronous pulse
 104:../../../support/device/gd32f4xx/peripherals/src/gd32f4xx_tli.c ****                   activesz_vasz: size of the vertical active area width plus back porch and synchro
 105:../../../support/device/gd32f4xx/peripherals/src/gd32f4xx_tli.c ****                   activesz_hasz: size of the horizontal active area width plus back porch and synch
ARM GAS  /var/folders/_f/88qcw_5n2jl40jjphvxyt7wh0000gn/T//cctfNtoi.s 			page 5


 106:../../../support/device/gd32f4xx/peripherals/src/gd32f4xx_tli.c ****                   totalsz_vtsz: vertical total size of the display, including active area, back por
 107:../../../support/device/gd32f4xx/peripherals/src/gd32f4xx_tli.c ****                   totalsz_htsz: vorizontal total size of the display, including active area, back p
 108:../../../support/device/gd32f4xx/peripherals/src/gd32f4xx_tli.c ****                   backcolor_red: background value red
 109:../../../support/device/gd32f4xx/peripherals/src/gd32f4xx_tli.c ****                   backcolor_green: background value green
 110:../../../support/device/gd32f4xx/peripherals/src/gd32f4xx_tli.c ****                   backcolor_blue: background value blue
 111:../../../support/device/gd32f4xx/peripherals/src/gd32f4xx_tli.c ****                   signalpolarity_hs: TLI_HSYN_ACTLIVE_LOW,TLI_HSYN_ACTLIVE_HIGHT
 112:../../../support/device/gd32f4xx/peripherals/src/gd32f4xx_tli.c ****                   signalpolarity_vs: TLI_VSYN_ACTLIVE_LOW,TLI_VSYN_ACTLIVE_HIGHT
 113:../../../support/device/gd32f4xx/peripherals/src/gd32f4xx_tli.c ****                   signalpolarity_de: TLI_DE_ACTLIVE_LOW,TLI_DE_ACTLIVE_HIGHT
 114:../../../support/device/gd32f4xx/peripherals/src/gd32f4xx_tli.c ****                   signalpolarity_pixelck: TLI_PIXEL_CLOCK_TLI,TLI_PIXEL_CLOCK_INVERTEDTLI
 115:../../../support/device/gd32f4xx/peripherals/src/gd32f4xx_tli.c ****     \param[out] none
 116:../../../support/device/gd32f4xx/peripherals/src/gd32f4xx_tli.c ****     \retval     none
 117:../../../support/device/gd32f4xx/peripherals/src/gd32f4xx_tli.c **** */
 118:../../../support/device/gd32f4xx/peripherals/src/gd32f4xx_tli.c **** void tli_init(tli_parameter_struct *tli_struct)
 119:../../../support/device/gd32f4xx/peripherals/src/gd32f4xx_tli.c **** {
 120              		.loc 1 119 1 is_stmt 1 view -0
 121              		.cfi_startproc
 122              		@ args = 0, pretend = 0, frame = 0
 123              		@ frame_needed = 0, uses_anonymous_args = 0
 124              		@ link register save eliminated.
 120:../../../support/device/gd32f4xx/peripherals/src/gd32f4xx_tli.c ****     /* synchronous pulse size configuration */
 121:../../../support/device/gd32f4xx/peripherals/src/gd32f4xx_tli.c ****     TLI_SPSZ &= ~(TLI_SPSZ_VPSZ | TLI_SPSZ_HPSZ);
 125              		.loc 1 121 5 view .LVU33
 126              		.loc 1 121 14 is_stmt 0 view .LVU34
 127 0000 274B     		ldr	r3, .L7
 122:../../../support/device/gd32f4xx/peripherals/src/gd32f4xx_tli.c ****     TLI_SPSZ = (uint32_t)((uint32_t)tli_struct->synpsz_vpsz | ((uint32_t)tli_struct->synpsz_hpsz <<
 128              		.loc 1 122 16 view .LVU35
 129 0002 0168     		ldr	r1, [r0]
 121:../../../support/device/gd32f4xx/peripherals/src/gd32f4xx_tli.c ****     TLI_SPSZ = (uint32_t)((uint32_t)tli_struct->synpsz_vpsz | ((uint32_t)tli_struct->synpsz_hpsz <<
 130              		.loc 1 121 14 view .LVU36
 131 0004 D3F80828 		ldr	r2, [r3, #2056]
 132 0008 02F0F022 		and	r2, r2, #-268374016
 119:../../../support/device/gd32f4xx/peripherals/src/gd32f4xx_tli.c ****     /* synchronous pulse size configuration */
 133              		.loc 1 119 1 view .LVU37
 134 000c 30B4     		push	{r4, r5}
 135              	.LCFI2:
 136              		.cfi_def_cfa_offset 8
 137              		.cfi_offset 4, -8
 138              		.cfi_offset 5, -4
 121:../../../support/device/gd32f4xx/peripherals/src/gd32f4xx_tli.c ****     TLI_SPSZ = (uint32_t)((uint32_t)tli_struct->synpsz_vpsz | ((uint32_t)tli_struct->synpsz_hpsz <<
 139              		.loc 1 121 14 view .LVU38
 140 000e C3F80828 		str	r2, [r3, #2056]
 141              		.loc 1 122 5 is_stmt 1 view .LVU39
 142              		.loc 1 122 14 is_stmt 0 view .LVU40
 143 0012 C3F80818 		str	r1, [r3, #2056]
 123:../../../support/device/gd32f4xx/peripherals/src/gd32f4xx_tli.c ****     /* back-porch size configuration */
 124:../../../support/device/gd32f4xx/peripherals/src/gd32f4xx_tli.c ****     TLI_BPSZ &= ~(TLI_BPSZ_VBPSZ | TLI_BPSZ_HBPSZ);
 144              		.loc 1 124 5 is_stmt 1 view .LVU41
 145              		.loc 1 124 14 is_stmt 0 view .LVU42
 146 0016 D3F80C28 		ldr	r2, [r3, #2060]
 125:../../../support/device/gd32f4xx/peripherals/src/gd32f4xx_tli.c ****     TLI_BPSZ = (uint32_t)((uint32_t)tli_struct->backpsz_vbpsz | ((uint32_t)tli_struct->backpsz_hbps
 147              		.loc 1 125 16 view .LVU43
 148 001a 4168     		ldr	r1, [r0, #4]
 124:../../../support/device/gd32f4xx/peripherals/src/gd32f4xx_tli.c ****     TLI_BPSZ = (uint32_t)((uint32_t)tli_struct->backpsz_vbpsz | ((uint32_t)tli_struct->backpsz_hbps
 149              		.loc 1 124 14 view .LVU44
 150 001c 02F0F022 		and	r2, r2, #-268374016
 151 0020 C3F80C28 		str	r2, [r3, #2060]
 152              		.loc 1 125 5 is_stmt 1 view .LVU45
ARM GAS  /var/folders/_f/88qcw_5n2jl40jjphvxyt7wh0000gn/T//cctfNtoi.s 			page 6


 153              		.loc 1 125 14 is_stmt 0 view .LVU46
 154 0024 C3F80C18 		str	r1, [r3, #2060]
 126:../../../support/device/gd32f4xx/peripherals/src/gd32f4xx_tli.c ****     /* active size configuration */
 127:../../../support/device/gd32f4xx/peripherals/src/gd32f4xx_tli.c ****     TLI_ASZ &= ~(TLI_ASZ_VASZ | TLI_ASZ_HASZ);
 155              		.loc 1 127 5 is_stmt 1 view .LVU47
 156              		.loc 1 127 13 is_stmt 0 view .LVU48
 157 0028 D3F81028 		ldr	r2, [r3, #2064]
 158 002c 02F0F022 		and	r2, r2, #-268374016
 159 0030 C3F81028 		str	r2, [r3, #2064]
 128:../../../support/device/gd32f4xx/peripherals/src/gd32f4xx_tli.c ****     TLI_ASZ = (tli_struct->activesz_vasz | (tli_struct->activesz_hasz << 16U));
 160              		.loc 1 128 5 is_stmt 1 view .LVU49
 161              		.loc 1 128 42 is_stmt 0 view .LVU50
 162 0034 D0E90221 		ldrd	r2, r1, [r0, #8]
 163 0038 42EA0142 		orr	r2, r2, r1, lsl #16
 164              		.loc 1 128 13 view .LVU51
 165 003c C3F81028 		str	r2, [r3, #2064]
 129:../../../support/device/gd32f4xx/peripherals/src/gd32f4xx_tli.c ****     /* total size configuration */
 130:../../../support/device/gd32f4xx/peripherals/src/gd32f4xx_tli.c ****     TLI_TSZ &= ~(TLI_TSZ_VTSZ | TLI_TSZ_HTSZ);
 166              		.loc 1 130 5 is_stmt 1 view .LVU52
 167              		.loc 1 130 13 is_stmt 0 view .LVU53
 168 0040 D3F81428 		ldr	r2, [r3, #2068]
 169 0044 02F0F022 		and	r2, r2, #-268374016
 170 0048 C3F81428 		str	r2, [r3, #2068]
 131:../../../support/device/gd32f4xx/peripherals/src/gd32f4xx_tli.c ****     TLI_TSZ = (tli_struct->totalsz_vtsz | (tli_struct->totalsz_htsz << 16U));
 171              		.loc 1 131 5 is_stmt 1 view .LVU54
 172              		.loc 1 131 41 is_stmt 0 view .LVU55
 173 004c D0E90421 		ldrd	r2, r1, [r0, #16]
 174 0050 42EA0142 		orr	r2, r2, r1, lsl #16
 175              		.loc 1 131 13 view .LVU56
 176 0054 C3F81428 		str	r2, [r3, #2068]
 132:../../../support/device/gd32f4xx/peripherals/src/gd32f4xx_tli.c ****     /* background color configuration */
 133:../../../support/device/gd32f4xx/peripherals/src/gd32f4xx_tli.c ****     TLI_BGC &= ~(TLI_BGC_BVB | (TLI_BGC_BVG) | (TLI_BGC_BVR));
 177              		.loc 1 133 5 is_stmt 1 view .LVU57
 178              		.loc 1 133 13 is_stmt 0 view .LVU58
 179 0058 D3F82C28 		ldr	r2, [r3, #2092]
 180 005c 02F07F42 		and	r2, r2, #-16777216
 181 0060 C3F82C28 		str	r2, [r3, #2092]
 134:../../../support/device/gd32f4xx/peripherals/src/gd32f4xx_tli.c ****     TLI_BGC = (tli_struct->backcolor_blue | (tli_struct->backcolor_green << 8U) | (tli_struct->back
 182              		.loc 1 134 5 is_stmt 1 view .LVU59
 183              		.loc 1 134 74 is_stmt 0 view .LVU60
 184 0064 D0E90624 		ldrd	r2, r4, [r0, #24]
 185              		.loc 1 134 81 view .LVU61
 186 0068 016A     		ldr	r1, [r0, #32]
 187              		.loc 1 134 110 view .LVU62
 188 006a 1204     		lsls	r2, r2, #16
 189              		.loc 1 134 81 view .LVU63
 190 006c 42EA0422 		orr	r2, r2, r4, lsl #8
 191 0070 0A43     		orrs	r2, r2, r1
 192              		.loc 1 134 13 view .LVU64
 193 0072 C3F82C28 		str	r2, [r3, #2092]
 135:../../../support/device/gd32f4xx/peripherals/src/gd32f4xx_tli.c ****     TLI_CTL &= ~(TLI_CTL_HPPS | TLI_CTL_VPPS | TLI_CTL_DEPS | TLI_CTL_CLKPS);
 194              		.loc 1 135 5 is_stmt 1 view .LVU65
 195              		.loc 1 135 13 is_stmt 0 view .LVU66
 196 0076 D3F81828 		ldr	r2, [r3, #2072]
 197 007a 22F07042 		bic	r2, r2, #-268435456
 198 007e C3F81828 		str	r2, [r3, #2072]
 136:../../../support/device/gd32f4xx/peripherals/src/gd32f4xx_tli.c ****     TLI_CTL |= (tli_struct->signalpolarity_hs | tli_struct->signalpolarity_vs | \
ARM GAS  /var/folders/_f/88qcw_5n2jl40jjphvxyt7wh0000gn/T//cctfNtoi.s 			page 7


 199              		.loc 1 136 5 is_stmt 1 view .LVU67
 200              		.loc 1 136 47 is_stmt 0 view .LVU68
 201 0082 D0E90921 		ldrd	r2, r1, [r0, #36]
 202              		.loc 1 136 13 view .LVU69
 203 0086 D3F81858 		ldr	r5, [r3, #2072]
 204              		.loc 1 136 47 view .LVU70
 205 008a 0A43     		orrs	r2, r2, r1
 206              		.loc 1 136 13 view .LVU71
 207 008c D0E90B41 		ldrd	r4, r1, [r0, #44]
 208 0090 2A43     		orrs	r2, r2, r5
 209 0092 2243     		orrs	r2, r2, r4
 210 0094 0A43     		orrs	r2, r2, r1
 211 0096 C3F81828 		str	r2, [r3, #2072]
 137:../../../support/device/gd32f4xx/peripherals/src/gd32f4xx_tli.c ****                 tli_struct->signalpolarity_de | tli_struct->signalpolarity_pixelck);
 138:../../../support/device/gd32f4xx/peripherals/src/gd32f4xx_tli.c **** 
 139:../../../support/device/gd32f4xx/peripherals/src/gd32f4xx_tli.c **** }
 212              		.loc 1 139 1 view .LVU72
 213 009a 30BC     		pop	{r4, r5}
 214              	.LCFI3:
 215              		.cfi_restore 5
 216              		.cfi_restore 4
 217              		.cfi_def_cfa_offset 0
 218 009c 7047     		bx	lr
 219              	.L8:
 220 009e 00BF     		.align	2
 221              	.L7:
 222 00a0 00600140 		.word	1073831936
 223              		.cfi_endproc
 224              	.LFE118:
 226              		.section	.text.tli_dither_config,"ax",%progbits
 227              		.align	1
 228              		.p2align 2,,3
 229              		.global	tli_dither_config
 230              		.syntax unified
 231              		.thumb
 232              		.thumb_func
 234              	tli_dither_config:
 235              	.LVL4:
 236              	.LFB119:
 140:../../../support/device/gd32f4xx/peripherals/src/gd32f4xx_tli.c **** 
 141:../../../support/device/gd32f4xx/peripherals/src/gd32f4xx_tli.c **** /*!
 142:../../../support/device/gd32f4xx/peripherals/src/gd32f4xx_tli.c ****     \brief    configure TLI dither function
 143:../../../support/device/gd32f4xx/peripherals/src/gd32f4xx_tli.c ****     \param[in]  dither_stat
 144:../../../support/device/gd32f4xx/peripherals/src/gd32f4xx_tli.c ****                 only one parameter can be selected which is shown as below:
 145:../../../support/device/gd32f4xx/peripherals/src/gd32f4xx_tli.c ****       \arg        TLI_DITHER_ENABLE
 146:../../../support/device/gd32f4xx/peripherals/src/gd32f4xx_tli.c ****       \arg        TLI_DITHER_DISABLE
 147:../../../support/device/gd32f4xx/peripherals/src/gd32f4xx_tli.c ****     \param[out] none
 148:../../../support/device/gd32f4xx/peripherals/src/gd32f4xx_tli.c ****     \retval     none
 149:../../../support/device/gd32f4xx/peripherals/src/gd32f4xx_tli.c **** */
 150:../../../support/device/gd32f4xx/peripherals/src/gd32f4xx_tli.c **** void tli_dither_config(uint8_t dither_stat)
 151:../../../support/device/gd32f4xx/peripherals/src/gd32f4xx_tli.c **** {
 237              		.loc 1 151 1 is_stmt 1 view -0
 238              		.cfi_startproc
 239              		@ args = 0, pretend = 0, frame = 0
 240              		@ frame_needed = 0, uses_anonymous_args = 0
 241              		@ link register save eliminated.
 152:../../../support/device/gd32f4xx/peripherals/src/gd32f4xx_tli.c ****     if(TLI_DITHER_ENABLE == dither_stat) {
ARM GAS  /var/folders/_f/88qcw_5n2jl40jjphvxyt7wh0000gn/T//cctfNtoi.s 			page 8


 242              		.loc 1 152 5 view .LVU74
 153:../../../support/device/gd32f4xx/peripherals/src/gd32f4xx_tli.c ****         TLI_CTL |= TLI_CTL_DFEN;
 243              		.loc 1 153 17 is_stmt 0 view .LVU75
 244 0000 054A     		ldr	r2, .L12
 245 0002 D2F81838 		ldr	r3, [r2, #2072]
 152:../../../support/device/gd32f4xx/peripherals/src/gd32f4xx_tli.c ****     if(TLI_DITHER_ENABLE == dither_stat) {
 246              		.loc 1 152 7 view .LVU76
 247 0006 0128     		cmp	r0, #1
 248              		.loc 1 153 9 is_stmt 1 view .LVU77
 249              		.loc 1 153 17 is_stmt 0 view .LVU78
 250 0008 0CBF     		ite	eq
 251 000a 43F48033 		orreq	r3, r3, #65536
 154:../../../support/device/gd32f4xx/peripherals/src/gd32f4xx_tli.c ****     } else {
 155:../../../support/device/gd32f4xx/peripherals/src/gd32f4xx_tli.c ****         TLI_CTL &= ~(TLI_CTL_DFEN);
 252              		.loc 1 155 9 is_stmt 1 view .LVU79
 253              		.loc 1 155 17 is_stmt 0 view .LVU80
 254 000e 23F48033 		bicne	r3, r3, #65536
 255 0012 C2F81838 		str	r3, [r2, #2072]
 156:../../../support/device/gd32f4xx/peripherals/src/gd32f4xx_tli.c ****     }
 157:../../../support/device/gd32f4xx/peripherals/src/gd32f4xx_tli.c **** }
 256              		.loc 1 157 1 view .LVU81
 257 0016 7047     		bx	lr
 258              	.L13:
 259              		.align	2
 260              	.L12:
 261 0018 00600140 		.word	1073831936
 262              		.cfi_endproc
 263              	.LFE119:
 265              		.section	.text.tli_enable,"ax",%progbits
 266              		.align	1
 267              		.p2align 2,,3
 268              		.global	tli_enable
 269              		.syntax unified
 270              		.thumb
 271              		.thumb_func
 273              	tli_enable:
 274              	.LFB120:
 158:../../../support/device/gd32f4xx/peripherals/src/gd32f4xx_tli.c **** 
 159:../../../support/device/gd32f4xx/peripherals/src/gd32f4xx_tli.c **** /*!
 160:../../../support/device/gd32f4xx/peripherals/src/gd32f4xx_tli.c ****     \brief    enable TLI
 161:../../../support/device/gd32f4xx/peripherals/src/gd32f4xx_tli.c ****     \param[in]  none
 162:../../../support/device/gd32f4xx/peripherals/src/gd32f4xx_tli.c ****     \param[out] none
 163:../../../support/device/gd32f4xx/peripherals/src/gd32f4xx_tli.c ****     \retval     none
 164:../../../support/device/gd32f4xx/peripherals/src/gd32f4xx_tli.c **** */
 165:../../../support/device/gd32f4xx/peripherals/src/gd32f4xx_tli.c **** void tli_enable(void)
 166:../../../support/device/gd32f4xx/peripherals/src/gd32f4xx_tli.c **** {
 275              		.loc 1 166 1 is_stmt 1 view -0
 276              		.cfi_startproc
 277              		@ args = 0, pretend = 0, frame = 0
 278              		@ frame_needed = 0, uses_anonymous_args = 0
 279              		@ link register save eliminated.
 167:../../../support/device/gd32f4xx/peripherals/src/gd32f4xx_tli.c ****     TLI_CTL |= TLI_CTL_TLIEN;
 280              		.loc 1 167 5 view .LVU83
 281              		.loc 1 167 13 is_stmt 0 view .LVU84
 282 0000 034A     		ldr	r2, .L15
 283 0002 D2F81838 		ldr	r3, [r2, #2072]
 284 0006 43F00103 		orr	r3, r3, #1
ARM GAS  /var/folders/_f/88qcw_5n2jl40jjphvxyt7wh0000gn/T//cctfNtoi.s 			page 9


 285 000a C2F81838 		str	r3, [r2, #2072]
 168:../../../support/device/gd32f4xx/peripherals/src/gd32f4xx_tli.c **** }
 286              		.loc 1 168 1 view .LVU85
 287 000e 7047     		bx	lr
 288              	.L16:
 289              		.align	2
 290              	.L15:
 291 0010 00600140 		.word	1073831936
 292              		.cfi_endproc
 293              	.LFE120:
 295              		.section	.text.tli_disable,"ax",%progbits
 296              		.align	1
 297              		.p2align 2,,3
 298              		.global	tli_disable
 299              		.syntax unified
 300              		.thumb
 301              		.thumb_func
 303              	tli_disable:
 304              	.LFB121:
 169:../../../support/device/gd32f4xx/peripherals/src/gd32f4xx_tli.c **** 
 170:../../../support/device/gd32f4xx/peripherals/src/gd32f4xx_tli.c **** /*!
 171:../../../support/device/gd32f4xx/peripherals/src/gd32f4xx_tli.c ****     \brief    disable TLI
 172:../../../support/device/gd32f4xx/peripherals/src/gd32f4xx_tli.c ****     \param[in]  none
 173:../../../support/device/gd32f4xx/peripherals/src/gd32f4xx_tli.c ****     \param[out] none
 174:../../../support/device/gd32f4xx/peripherals/src/gd32f4xx_tli.c ****     \retval     none
 175:../../../support/device/gd32f4xx/peripherals/src/gd32f4xx_tli.c **** */
 176:../../../support/device/gd32f4xx/peripherals/src/gd32f4xx_tli.c **** void tli_disable(void)
 177:../../../support/device/gd32f4xx/peripherals/src/gd32f4xx_tli.c **** {
 305              		.loc 1 177 1 is_stmt 1 view -0
 306              		.cfi_startproc
 307              		@ args = 0, pretend = 0, frame = 0
 308              		@ frame_needed = 0, uses_anonymous_args = 0
 309              		@ link register save eliminated.
 178:../../../support/device/gd32f4xx/peripherals/src/gd32f4xx_tli.c ****     TLI_CTL &= ~(TLI_CTL_TLIEN);
 310              		.loc 1 178 5 view .LVU87
 311              		.loc 1 178 13 is_stmt 0 view .LVU88
 312 0000 034A     		ldr	r2, .L18
 313 0002 D2F81838 		ldr	r3, [r2, #2072]
 314 0006 23F00103 		bic	r3, r3, #1
 315 000a C2F81838 		str	r3, [r2, #2072]
 179:../../../support/device/gd32f4xx/peripherals/src/gd32f4xx_tli.c **** }
 316              		.loc 1 179 1 view .LVU89
 317 000e 7047     		bx	lr
 318              	.L19:
 319              		.align	2
 320              	.L18:
 321 0010 00600140 		.word	1073831936
 322              		.cfi_endproc
 323              	.LFE121:
 325              		.section	.text.tli_reload_config,"ax",%progbits
 326              		.align	1
 327              		.p2align 2,,3
 328              		.global	tli_reload_config
 329              		.syntax unified
 330              		.thumb
 331              		.thumb_func
 333              	tli_reload_config:
ARM GAS  /var/folders/_f/88qcw_5n2jl40jjphvxyt7wh0000gn/T//cctfNtoi.s 			page 10


 334              	.LVL5:
 335              	.LFB122:
 180:../../../support/device/gd32f4xx/peripherals/src/gd32f4xx_tli.c **** 
 181:../../../support/device/gd32f4xx/peripherals/src/gd32f4xx_tli.c **** /*!
 182:../../../support/device/gd32f4xx/peripherals/src/gd32f4xx_tli.c ****     \brief    configure TLI reload mode
 183:../../../support/device/gd32f4xx/peripherals/src/gd32f4xx_tli.c ****     \param[in]  reload_mod
 184:../../../support/device/gd32f4xx/peripherals/src/gd32f4xx_tli.c ****                 only one parameter can be selected which is shown as below:
 185:../../../support/device/gd32f4xx/peripherals/src/gd32f4xx_tli.c ****       \arg        TLI_FRAME_BLANK_RELOAD_EN
 186:../../../support/device/gd32f4xx/peripherals/src/gd32f4xx_tli.c ****       \arg        TLI_REQUEST_RELOAD_EN
 187:../../../support/device/gd32f4xx/peripherals/src/gd32f4xx_tli.c ****     \param[out] none
 188:../../../support/device/gd32f4xx/peripherals/src/gd32f4xx_tli.c ****     \retval     none
 189:../../../support/device/gd32f4xx/peripherals/src/gd32f4xx_tli.c **** */
 190:../../../support/device/gd32f4xx/peripherals/src/gd32f4xx_tli.c **** void tli_reload_config(uint8_t reload_mod)
 191:../../../support/device/gd32f4xx/peripherals/src/gd32f4xx_tli.c **** {
 336              		.loc 1 191 1 is_stmt 1 view -0
 337              		.cfi_startproc
 338              		@ args = 0, pretend = 0, frame = 0
 339              		@ frame_needed = 0, uses_anonymous_args = 0
 340              		@ link register save eliminated.
 192:../../../support/device/gd32f4xx/peripherals/src/gd32f4xx_tli.c ****     if(TLI_FRAME_BLANK_RELOAD_EN == reload_mod) {
 341              		.loc 1 192 5 view .LVU91
 193:../../../support/device/gd32f4xx/peripherals/src/gd32f4xx_tli.c ****         /* the layer configuration will be reloaded at frame blank */
 194:../../../support/device/gd32f4xx/peripherals/src/gd32f4xx_tli.c ****         TLI_RL |= TLI_RL_FBR;
 342              		.loc 1 194 16 is_stmt 0 view .LVU92
 343 0000 064A     		ldr	r2, .L23
 344 0002 D2F82438 		ldr	r3, [r2, #2084]
 192:../../../support/device/gd32f4xx/peripherals/src/gd32f4xx_tli.c ****     if(TLI_FRAME_BLANK_RELOAD_EN == reload_mod) {
 345              		.loc 1 192 7 view .LVU93
 346 0006 20B9     		cbnz	r0, .L21
 347              		.loc 1 194 9 is_stmt 1 view .LVU94
 348              		.loc 1 194 16 is_stmt 0 view .LVU95
 349 0008 43F00203 		orr	r3, r3, #2
 350 000c C2F82438 		str	r3, [r2, #2084]
 351 0010 7047     		bx	lr
 352              	.L21:
 195:../../../support/device/gd32f4xx/peripherals/src/gd32f4xx_tli.c ****     } else {
 196:../../../support/device/gd32f4xx/peripherals/src/gd32f4xx_tli.c ****         /* the layer configuration will be reloaded after this bit sets */
 197:../../../support/device/gd32f4xx/peripherals/src/gd32f4xx_tli.c ****         TLI_RL |= TLI_RL_RQR;
 353              		.loc 1 197 9 is_stmt 1 view .LVU96
 354              		.loc 1 197 16 is_stmt 0 view .LVU97
 355 0012 43F00103 		orr	r3, r3, #1
 356 0016 C2F82438 		str	r3, [r2, #2084]
 198:../../../support/device/gd32f4xx/peripherals/src/gd32f4xx_tli.c ****     }
 199:../../../support/device/gd32f4xx/peripherals/src/gd32f4xx_tli.c **** }
 357              		.loc 1 199 1 view .LVU98
 358 001a 7047     		bx	lr
 359              	.L24:
 360              		.align	2
 361              	.L23:
 362 001c 00600140 		.word	1073831936
 363              		.cfi_endproc
 364              	.LFE122:
 366              		.section	.text.tli_layer_struct_para_init,"ax",%progbits
 367              		.align	1
 368              		.p2align 2,,3
 369              		.global	tli_layer_struct_para_init
 370              		.syntax unified
ARM GAS  /var/folders/_f/88qcw_5n2jl40jjphvxyt7wh0000gn/T//cctfNtoi.s 			page 11


 371              		.thumb
 372              		.thumb_func
 374              	tli_layer_struct_para_init:
 375              	.LVL6:
 376              	.LFB123:
 200:../../../support/device/gd32f4xx/peripherals/src/gd32f4xx_tli.c **** 
 201:../../../support/device/gd32f4xx/peripherals/src/gd32f4xx_tli.c **** /*!
 202:../../../support/device/gd32f4xx/peripherals/src/gd32f4xx_tli.c ****     \brief    initialize the parameters of TLI layer structure with the default values, it is sugge
 203:../../../support/device/gd32f4xx/peripherals/src/gd32f4xx_tli.c ****                 that call this function after a tli_layer_parameter_struct structure is defined
 204:../../../support/device/gd32f4xx/peripherals/src/gd32f4xx_tli.c ****     \param[in]  none
 205:../../../support/device/gd32f4xx/peripherals/src/gd32f4xx_tli.c ****     \param[out] layer_struct: TLI Layer parameter struct
 206:../../../support/device/gd32f4xx/peripherals/src/gd32f4xx_tli.c ****                   layer_window_rightpos: window right position
 207:../../../support/device/gd32f4xx/peripherals/src/gd32f4xx_tli.c ****                   layer_window_leftpos: window left position
 208:../../../support/device/gd32f4xx/peripherals/src/gd32f4xx_tli.c ****                   layer_window_bottompos: window bottom position
 209:../../../support/device/gd32f4xx/peripherals/src/gd32f4xx_tli.c ****                   layer_window_toppos: window top position
 210:../../../support/device/gd32f4xx/peripherals/src/gd32f4xx_tli.c ****                   layer_ppf: LAYER_PPF_ARGB8888,LAYER_PPF_RGB888,LAYER_PPF_RGB565,
 211:../../../support/device/gd32f4xx/peripherals/src/gd32f4xx_tli.c ****                                  LAYER_PPF_ARG1555,LAYER_PPF_ARGB4444,LAYER_PPF_L8,
 212:../../../support/device/gd32f4xx/peripherals/src/gd32f4xx_tli.c ****                                  LAYER_PPF_AL44,LAYER_PPF_AL88
 213:../../../support/device/gd32f4xx/peripherals/src/gd32f4xx_tli.c ****                   layer_sa: specified alpha
 214:../../../support/device/gd32f4xx/peripherals/src/gd32f4xx_tli.c ****                   layer_default_alpha: the default color alpha
 215:../../../support/device/gd32f4xx/peripherals/src/gd32f4xx_tli.c ****                   layer_default_red: the default color red
 216:../../../support/device/gd32f4xx/peripherals/src/gd32f4xx_tli.c ****                   layer_default_green: the default color green
 217:../../../support/device/gd32f4xx/peripherals/src/gd32f4xx_tli.c ****                   layer_default_blue: the default color blue
 218:../../../support/device/gd32f4xx/peripherals/src/gd32f4xx_tli.c ****                   layer_acf1: LAYER_ACF1_SA,LAYER_ACF1_PASA
 219:../../../support/device/gd32f4xx/peripherals/src/gd32f4xx_tli.c ****                   layer_acf2: LAYER_ACF2_SA,LAYER_ACF2_PASA
 220:../../../support/device/gd32f4xx/peripherals/src/gd32f4xx_tli.c ****                   layer_frame_bufaddr: frame buffer base address
 221:../../../support/device/gd32f4xx/peripherals/src/gd32f4xx_tli.c ****                   layer_frame_buf_stride_offset: frame buffer stride offset
 222:../../../support/device/gd32f4xx/peripherals/src/gd32f4xx_tli.c ****                   layer_frame_line_length: frame line length
 223:../../../support/device/gd32f4xx/peripherals/src/gd32f4xx_tli.c ****                   layer_frame_total_line_number: frame total line number
 224:../../../support/device/gd32f4xx/peripherals/src/gd32f4xx_tli.c ****     \retval     none
 225:../../../support/device/gd32f4xx/peripherals/src/gd32f4xx_tli.c **** */
 226:../../../support/device/gd32f4xx/peripherals/src/gd32f4xx_tli.c **** void tli_layer_struct_para_init(tli_layer_parameter_struct *layer_struct)
 227:../../../support/device/gd32f4xx/peripherals/src/gd32f4xx_tli.c **** {
 377              		.loc 1 227 1 is_stmt 1 view -0
 378              		.cfi_startproc
 379              		@ args = 0, pretend = 0, frame = 0
 380              		@ frame_needed = 0, uses_anonymous_args = 0
 381              		@ link register save eliminated.
 228:../../../support/device/gd32f4xx/peripherals/src/gd32f4xx_tli.c ****     /* initialize the struct parameters with default values */
 229:../../../support/device/gd32f4xx/peripherals/src/gd32f4xx_tli.c ****     layer_struct->layer_window_rightpos = TLI_DEFAULT_VALUE;
 382              		.loc 1 229 5 view .LVU100
 230:../../../support/device/gd32f4xx/peripherals/src/gd32f4xx_tli.c ****     layer_struct->layer_window_leftpos = TLI_DEFAULT_VALUE;
 383              		.loc 1 230 5 view .LVU101
 231:../../../support/device/gd32f4xx/peripherals/src/gd32f4xx_tli.c ****     layer_struct->layer_window_bottompos = TLI_DEFAULT_VALUE;
 384              		.loc 1 231 5 view .LVU102
 232:../../../support/device/gd32f4xx/peripherals/src/gd32f4xx_tli.c ****     layer_struct->layer_window_toppos = TLI_DEFAULT_VALUE;
 385              		.loc 1 232 5 view .LVU103
 233:../../../support/device/gd32f4xx/peripherals/src/gd32f4xx_tli.c ****     layer_struct->layer_ppf = LAYER_PPF_ARGB8888;
 386              		.loc 1 233 5 view .LVU104
 234:../../../support/device/gd32f4xx/peripherals/src/gd32f4xx_tli.c ****     layer_struct->layer_sa = TLI_OPAQUE_VALUE;
 387              		.loc 1 234 5 view .LVU105
 235:../../../support/device/gd32f4xx/peripherals/src/gd32f4xx_tli.c ****     layer_struct->layer_default_alpha = TLI_DEFAULT_VALUE;
 388              		.loc 1 235 5 view .LVU106
 236:../../../support/device/gd32f4xx/peripherals/src/gd32f4xx_tli.c ****     layer_struct->layer_default_red = TLI_DEFAULT_VALUE;
 389              		.loc 1 236 5 view .LVU107
 237:../../../support/device/gd32f4xx/peripherals/src/gd32f4xx_tli.c ****     layer_struct->layer_default_green = TLI_DEFAULT_VALUE;
 390              		.loc 1 237 5 view .LVU108
ARM GAS  /var/folders/_f/88qcw_5n2jl40jjphvxyt7wh0000gn/T//cctfNtoi.s 			page 12


 238:../../../support/device/gd32f4xx/peripherals/src/gd32f4xx_tli.c ****     layer_struct->layer_default_blue = TLI_DEFAULT_VALUE;
 391              		.loc 1 238 5 view .LVU109
 229:../../../support/device/gd32f4xx/peripherals/src/gd32f4xx_tli.c ****     layer_struct->layer_window_leftpos = TLI_DEFAULT_VALUE;
 392              		.loc 1 229 41 is_stmt 0 view .LVU110
 393 0000 0023     		movs	r3, #0
 227:../../../support/device/gd32f4xx/peripherals/src/gd32f4xx_tli.c ****     /* initialize the struct parameters with default values */
 394              		.loc 1 227 1 view .LVU111
 395 0002 10B4     		push	{r4}
 396              	.LCFI4:
 397              		.cfi_def_cfa_offset 4
 398              		.cfi_offset 4, -4
 239:../../../support/device/gd32f4xx/peripherals/src/gd32f4xx_tli.c ****     layer_struct->layer_acf1 = LAYER_ACF1_PASA;
 399              		.loc 1 239 30 view .LVU112
 400 0004 4FF4C061 		mov	r1, #1536
 234:../../../support/device/gd32f4xx/peripherals/src/gd32f4xx_tli.c ****     layer_struct->layer_default_alpha = TLI_DEFAULT_VALUE;
 401              		.loc 1 234 28 view .LVU113
 402 0008 FF24     		movs	r4, #255
 240:../../../support/device/gd32f4xx/peripherals/src/gd32f4xx_tli.c ****     layer_struct->layer_acf2 = LAYER_ACF2_PASA;
 403              		.loc 1 240 30 view .LVU114
 404 000a 0722     		movs	r2, #7
 234:../../../support/device/gd32f4xx/peripherals/src/gd32f4xx_tli.c ****     layer_struct->layer_default_alpha = TLI_DEFAULT_VALUE;
 405              		.loc 1 234 28 view .LVU115
 406 000c C0E90234 		strd	r3, r4, [r0, #8]
 231:../../../support/device/gd32f4xx/peripherals/src/gd32f4xx_tli.c ****     layer_struct->layer_window_toppos = TLI_DEFAULT_VALUE;
 407              		.loc 1 231 42 view .LVU116
 408 0010 C0E90033 		strd	r3, r3, [r0]
 409              		.loc 1 240 30 view .LVU117
 410 0014 C0E90512 		strd	r1, r2, [r0, #20]
 241:../../../support/device/gd32f4xx/peripherals/src/gd32f4xx_tli.c ****     layer_struct->layer_frame_bufaddr = TLI_DEFAULT_VALUE;
 242:../../../support/device/gd32f4xx/peripherals/src/gd32f4xx_tli.c ****     layer_struct->layer_frame_buf_stride_offset = TLI_DEFAULT_VALUE;
 411              		.loc 1 242 49 view .LVU118
 412 0018 C0E90733 		strd	r3, r3, [r0, #28]
 243:../../../support/device/gd32f4xx/peripherals/src/gd32f4xx_tli.c ****     layer_struct->layer_frame_line_length = TLI_DEFAULT_VALUE;
 244:../../../support/device/gd32f4xx/peripherals/src/gd32f4xx_tli.c ****     layer_struct->layer_frame_total_line_number = TLI_DEFAULT_VALUE;
 245:../../../support/device/gd32f4xx/peripherals/src/gd32f4xx_tli.c **** }
 413              		.loc 1 245 1 view .LVU119
 414 001c 10BC     		pop	{r4}
 415              	.LCFI5:
 416              		.cfi_restore 4
 417              		.cfi_def_cfa_offset 0
 238:../../../support/device/gd32f4xx/peripherals/src/gd32f4xx_tli.c ****     layer_struct->layer_acf1 = LAYER_ACF1_PASA;
 418              		.loc 1 238 38 view .LVU120
 419 001e 0374     		strb	r3, [r0, #16]
 239:../../../support/device/gd32f4xx/peripherals/src/gd32f4xx_tli.c ****     layer_struct->layer_acf2 = LAYER_ACF2_PASA;
 420              		.loc 1 239 5 is_stmt 1 view .LVU121
 241:../../../support/device/gd32f4xx/peripherals/src/gd32f4xx_tli.c ****     layer_struct->layer_frame_buf_stride_offset = TLI_DEFAULT_VALUE;
 421              		.loc 1 241 5 view .LVU122
 244:../../../support/device/gd32f4xx/peripherals/src/gd32f4xx_tli.c **** }
 422              		.loc 1 244 5 view .LVU123
 244:../../../support/device/gd32f4xx/peripherals/src/gd32f4xx_tli.c **** }
 423              		.loc 1 244 49 is_stmt 0 view .LVU124
 424 0020 8384     		strh	r3, [r0, #36]	@ movhi
 425              		.loc 1 245 1 view .LVU125
 426 0022 7047     		bx	lr
 427              		.cfi_endproc
 428              	.LFE123:
 430              		.section	.text.tli_layer_init,"ax",%progbits
ARM GAS  /var/folders/_f/88qcw_5n2jl40jjphvxyt7wh0000gn/T//cctfNtoi.s 			page 13


 431              		.align	1
 432              		.p2align 2,,3
 433              		.global	tli_layer_init
 434              		.syntax unified
 435              		.thumb
 436              		.thumb_func
 438              	tli_layer_init:
 439              	.LVL7:
 440              	.LFB124:
 246:../../../support/device/gd32f4xx/peripherals/src/gd32f4xx_tli.c **** 
 247:../../../support/device/gd32f4xx/peripherals/src/gd32f4xx_tli.c **** /*!
 248:../../../support/device/gd32f4xx/peripherals/src/gd32f4xx_tli.c ****     \brief    initialize TLI layer
 249:../../../support/device/gd32f4xx/peripherals/src/gd32f4xx_tli.c ****     \param[in]  layerx: LAYERx(x=0,1)
 250:../../../support/device/gd32f4xx/peripherals/src/gd32f4xx_tli.c ****     \param[in]  layer_struct: TLI Layer parameter struct
 251:../../../support/device/gd32f4xx/peripherals/src/gd32f4xx_tli.c ****                   layer_window_rightpos: window right position
 252:../../../support/device/gd32f4xx/peripherals/src/gd32f4xx_tli.c ****                   layer_window_leftpos: window left position
 253:../../../support/device/gd32f4xx/peripherals/src/gd32f4xx_tli.c ****                   layer_window_bottompos: window bottom position
 254:../../../support/device/gd32f4xx/peripherals/src/gd32f4xx_tli.c ****                   layer_window_toppos: window top position
 255:../../../support/device/gd32f4xx/peripherals/src/gd32f4xx_tli.c ****                   layer_ppf: LAYER_PPF_ARGB8888,LAYER_PPF_RGB888,LAYER_PPF_RGB565,
 256:../../../support/device/gd32f4xx/peripherals/src/gd32f4xx_tli.c ****                                  LAYER_PPF_ARG1555,LAYER_PPF_ARGB4444,LAYER_PPF_L8,
 257:../../../support/device/gd32f4xx/peripherals/src/gd32f4xx_tli.c ****                                  LAYER_PPF_AL44,LAYER_PPF_AL88
 258:../../../support/device/gd32f4xx/peripherals/src/gd32f4xx_tli.c ****                   layer_sa: specified alpha
 259:../../../support/device/gd32f4xx/peripherals/src/gd32f4xx_tli.c ****                   layer_default_alpha: the default color alpha
 260:../../../support/device/gd32f4xx/peripherals/src/gd32f4xx_tli.c ****                   layer_default_red: the default color red
 261:../../../support/device/gd32f4xx/peripherals/src/gd32f4xx_tli.c ****                   layer_default_green: the default color green
 262:../../../support/device/gd32f4xx/peripherals/src/gd32f4xx_tli.c ****                   layer_default_blue: the default color blue
 263:../../../support/device/gd32f4xx/peripherals/src/gd32f4xx_tli.c ****                   layer_acf1: LAYER_ACF1_SA,LAYER_ACF1_PASA
 264:../../../support/device/gd32f4xx/peripherals/src/gd32f4xx_tli.c ****                   layer_acf2: LAYER_ACF2_SA,LAYER_ACF2_PASA
 265:../../../support/device/gd32f4xx/peripherals/src/gd32f4xx_tli.c ****                   layer_frame_bufaddr: frame buffer base address
 266:../../../support/device/gd32f4xx/peripherals/src/gd32f4xx_tli.c ****                   layer_frame_buf_stride_offset: frame buffer stride offset
 267:../../../support/device/gd32f4xx/peripherals/src/gd32f4xx_tli.c ****                   layer_frame_line_length: frame line length
 268:../../../support/device/gd32f4xx/peripherals/src/gd32f4xx_tli.c ****                   layer_frame_total_line_number: frame total line number
 269:../../../support/device/gd32f4xx/peripherals/src/gd32f4xx_tli.c ****     \param[out] none
 270:../../../support/device/gd32f4xx/peripherals/src/gd32f4xx_tli.c ****     \retval     none
 271:../../../support/device/gd32f4xx/peripherals/src/gd32f4xx_tli.c **** */
 272:../../../support/device/gd32f4xx/peripherals/src/gd32f4xx_tli.c **** void tli_layer_init(uint32_t layerx, tli_layer_parameter_struct *layer_struct)
 273:../../../support/device/gd32f4xx/peripherals/src/gd32f4xx_tli.c **** {
 441              		.loc 1 273 1 is_stmt 1 view -0
 442              		.cfi_startproc
 443              		@ args = 0, pretend = 0, frame = 0
 444              		@ frame_needed = 0, uses_anonymous_args = 0
 445              		@ link register save eliminated.
 274:../../../support/device/gd32f4xx/peripherals/src/gd32f4xx_tli.c ****     /* configure layer window horizontal position */
 275:../../../support/device/gd32f4xx/peripherals/src/gd32f4xx_tli.c ****     TLI_LxHPOS(layerx) &= ~(TLI_LxHPOS_WLP | (TLI_LxHPOS_WRP));
 446              		.loc 1 275 5 view .LVU127
 447              		.loc 1 275 24 is_stmt 0 view .LVU128
 448 0000 D0F88820 		ldr	r2, [r0, #136]
 276:../../../support/device/gd32f4xx/peripherals/src/gd32f4xx_tli.c ****     TLI_LxHPOS(layerx) = (uint32_t)((uint32_t)layer_struct->layer_window_leftpos | ((uint32_t)layer
 449              		.loc 1 276 85 view .LVU129
 450 0004 B1F800C0 		ldrh	ip, [r1]
 451              		.loc 1 276 37 view .LVU130
 452 0008 4B88     		ldrh	r3, [r1, #2]
 275:../../../support/device/gd32f4xx/peripherals/src/gd32f4xx_tli.c ****     TLI_LxHPOS(layerx) = (uint32_t)((uint32_t)layer_struct->layer_window_leftpos | ((uint32_t)layer
 453              		.loc 1 275 24 view .LVU131
 454 000a 02F0F022 		and	r2, r2, #-268374016
 455              		.loc 1 276 26 view .LVU132
 456 000e 43EA0C43 		orr	r3, r3, ip, lsl #16
ARM GAS  /var/folders/_f/88qcw_5n2jl40jjphvxyt7wh0000gn/T//cctfNtoi.s 			page 14


 273:../../../support/device/gd32f4xx/peripherals/src/gd32f4xx_tli.c ****     /* configure layer window horizontal position */
 457              		.loc 1 273 1 view .LVU133
 458 0012 10B4     		push	{r4}
 459              	.LCFI6:
 460              		.cfi_def_cfa_offset 4
 461              		.cfi_offset 4, -4
 275:../../../support/device/gd32f4xx/peripherals/src/gd32f4xx_tli.c ****     TLI_LxHPOS(layerx) = (uint32_t)((uint32_t)layer_struct->layer_window_leftpos | ((uint32_t)layer
 462              		.loc 1 275 24 view .LVU134
 463 0014 C0F88820 		str	r2, [r0, #136]
 464              		.loc 1 276 5 is_stmt 1 view .LVU135
 465              		.loc 1 276 24 is_stmt 0 view .LVU136
 466 0018 C0F88830 		str	r3, [r0, #136]
 277:../../../support/device/gd32f4xx/peripherals/src/gd32f4xx_tli.c ****     /* configure layer window vertical position */
 278:../../../support/device/gd32f4xx/peripherals/src/gd32f4xx_tli.c ****     TLI_LxVPOS(layerx) &= ~(TLI_LxVPOS_WTP | (TLI_LxVPOS_WBP));
 467              		.loc 1 278 5 is_stmt 1 view .LVU137
 468              		.loc 1 278 24 is_stmt 0 view .LVU138
 469 001c D0F88C20 		ldr	r2, [r0, #140]
 279:../../../support/device/gd32f4xx/peripherals/src/gd32f4xx_tli.c ****     TLI_LxVPOS(layerx) = (uint32_t)((uint32_t)layer_struct->layer_window_toppos | ((uint32_t)layer_
 470              		.loc 1 279 84 view .LVU139
 471 0020 B1F804C0 		ldrh	ip, [r1, #4]
 472              		.loc 1 279 37 view .LVU140
 473 0024 CB88     		ldrh	r3, [r1, #6]
 278:../../../support/device/gd32f4xx/peripherals/src/gd32f4xx_tli.c ****     TLI_LxVPOS(layerx) = (uint32_t)((uint32_t)layer_struct->layer_window_toppos | ((uint32_t)layer_
 474              		.loc 1 278 24 view .LVU141
 475 0026 02F0F022 		and	r2, r2, #-268374016
 476              		.loc 1 279 26 view .LVU142
 477 002a 43EA0C43 		orr	r3, r3, ip, lsl #16
 278:../../../support/device/gd32f4xx/peripherals/src/gd32f4xx_tli.c ****     TLI_LxVPOS(layerx) = (uint32_t)((uint32_t)layer_struct->layer_window_toppos | ((uint32_t)layer_
 478              		.loc 1 278 24 view .LVU143
 479 002e C0F88C20 		str	r2, [r0, #140]
 480              		.loc 1 279 5 is_stmt 1 view .LVU144
 481              		.loc 1 279 24 is_stmt 0 view .LVU145
 482 0032 C0F88C30 		str	r3, [r0, #140]
 280:../../../support/device/gd32f4xx/peripherals/src/gd32f4xx_tli.c ****     /* configure layer packeted pixel format */
 281:../../../support/device/gd32f4xx/peripherals/src/gd32f4xx_tli.c ****     TLI_LxPPF(layerx) &= ~(TLI_LxPPF_PPF);
 483              		.loc 1 281 5 is_stmt 1 view .LVU146
 484              		.loc 1 281 23 is_stmt 0 view .LVU147
 485 0036 D0F89430 		ldr	r3, [r0, #148]
 486 003a 23F00703 		bic	r3, r3, #7
 487 003e C0F89430 		str	r3, [r0, #148]
 282:../../../support/device/gd32f4xx/peripherals/src/gd32f4xx_tli.c ****     TLI_LxPPF(layerx) = layer_struct->layer_ppf;
 488              		.loc 1 282 5 is_stmt 1 view .LVU148
 489              		.loc 1 282 37 is_stmt 0 view .LVU149
 490 0042 8B68     		ldr	r3, [r1, #8]
 491              		.loc 1 282 23 view .LVU150
 492 0044 C0F89430 		str	r3, [r0, #148]
 283:../../../support/device/gd32f4xx/peripherals/src/gd32f4xx_tli.c ****     /* configure layer specified alpha */
 284:../../../support/device/gd32f4xx/peripherals/src/gd32f4xx_tli.c ****     TLI_LxSA(layerx) &= ~(TLI_LxSA_SA);
 493              		.loc 1 284 5 is_stmt 1 view .LVU151
 494              		.loc 1 284 22 is_stmt 0 view .LVU152
 495 0048 D0F89830 		ldr	r3, [r0, #152]
 496 004c 23F0FF03 		bic	r3, r3, #255
 497 0050 C0F89830 		str	r3, [r0, #152]
 285:../../../support/device/gd32f4xx/peripherals/src/gd32f4xx_tli.c ****     TLI_LxSA(layerx) = layer_struct->layer_sa;
 498              		.loc 1 285 5 is_stmt 1 view .LVU153
 499              		.loc 1 285 36 is_stmt 0 view .LVU154
 500 0054 0B7B     		ldrb	r3, [r1, #12]	@ zero_extendqisi2
ARM GAS  /var/folders/_f/88qcw_5n2jl40jjphvxyt7wh0000gn/T//cctfNtoi.s 			page 15


 501              		.loc 1 285 22 view .LVU155
 502 0056 C0F89830 		str	r3, [r0, #152]
 286:../../../support/device/gd32f4xx/peripherals/src/gd32f4xx_tli.c ****     /* configure layer default color */
 287:../../../support/device/gd32f4xx/peripherals/src/gd32f4xx_tli.c ****     TLI_LxDC(layerx) &= ~(TLI_LxDC_DCB | (TLI_LxDC_DCG) | (TLI_LxDC_DCR) | (TLI_LxDC_DCA));
 503              		.loc 1 287 5 is_stmt 1 view .LVU156
 504              		.loc 1 287 22 is_stmt 0 view .LVU157
 505 005a 0022     		movs	r2, #0
 506 005c D0F89C30 		ldr	r3, [r0, #156]
 507 0060 C0F89C20 		str	r2, [r0, #156]
 288:../../../support/device/gd32f4xx/peripherals/src/gd32f4xx_tli.c ****     TLI_LxDC(layerx) = (uint32_t)((uint32_t)layer_struct->layer_default_blue | ((uint32_t)layer_str
 508              		.loc 1 288 5 is_stmt 1 view .LVU158
 509 0064 D1F80D30 		ldr	r3, [r1, #13]	@ unaligned
 510 0068 1BBA     		rev	r3, r3
 511              		.loc 1 288 22 is_stmt 0 view .LVU159
 512 006a C0F89C30 		str	r3, [r0, #156]
 289:../../../support/device/gd32f4xx/peripherals/src/gd32f4xx_tli.c ****                                   | ((uint32_t)layer_struct->layer_default_red << 16U)
 290:../../../support/device/gd32f4xx/peripherals/src/gd32f4xx_tli.c ****                                   | ((uint32_t)layer_struct->layer_default_alpha << 24U));
 291:../../../support/device/gd32f4xx/peripherals/src/gd32f4xx_tli.c **** 
 292:../../../support/device/gd32f4xx/peripherals/src/gd32f4xx_tli.c ****     /* configure layer alpha calculation factors */
 293:../../../support/device/gd32f4xx/peripherals/src/gd32f4xx_tli.c ****     TLI_LxBLEND(layerx) &= ~(TLI_LxBLEND_ACF2 | (TLI_LxBLEND_ACF1));
 513              		.loc 1 293 5 is_stmt 1 view .LVU160
 514              		.loc 1 293 25 is_stmt 0 view .LVU161
 515 006e D0F8A030 		ldr	r3, [r0, #160]
 516 0072 23F4E063 		bic	r3, r3, #1792
 517 0076 23F00703 		bic	r3, r3, #7
 518 007a C0F8A030 		str	r3, [r0, #160]
 294:../../../support/device/gd32f4xx/peripherals/src/gd32f4xx_tli.c ****     TLI_LxBLEND(layerx) = ((layer_struct->layer_acf2) | (layer_struct->layer_acf1));
 519              		.loc 1 294 5 is_stmt 1 view .LVU162
 520              		.loc 1 294 55 is_stmt 0 view .LVU163
 521 007e D1E90543 		ldrd	r4, r3, [r1, #20]
 522 0082 2343     		orrs	r3, r3, r4
 523              		.loc 1 294 25 view .LVU164
 524 0084 C0F8A030 		str	r3, [r0, #160]
 295:../../../support/device/gd32f4xx/peripherals/src/gd32f4xx_tli.c ****     /* configure layer frame buffer base address */
 296:../../../support/device/gd32f4xx/peripherals/src/gd32f4xx_tli.c ****     TLI_LxFBADDR(layerx) &= ~(TLI_LxFBADDR_FBADD);
 525              		.loc 1 296 5 is_stmt 1 view .LVU165
 526              		.loc 1 296 26 is_stmt 0 view .LVU166
 527 0088 D0F8AC30 		ldr	r3, [r0, #172]
 528 008c C0F8AC20 		str	r2, [r0, #172]
 297:../../../support/device/gd32f4xx/peripherals/src/gd32f4xx_tli.c ****     TLI_LxFBADDR(layerx) = (layer_struct->layer_frame_bufaddr);
 529              		.loc 1 297 5 is_stmt 1 view .LVU167
 530              		.loc 1 297 41 is_stmt 0 view .LVU168
 531 0090 CB69     		ldr	r3, [r1, #28]
 532              		.loc 1 297 26 view .LVU169
 533 0092 C0F8AC30 		str	r3, [r0, #172]
 298:../../../support/device/gd32f4xx/peripherals/src/gd32f4xx_tli.c ****     /* configure layer frame line length */
 299:../../../support/device/gd32f4xx/peripherals/src/gd32f4xx_tli.c ****     TLI_LxFLLEN(layerx) &= ~(TLI_LxFLLEN_FLL | (TLI_LxFLLEN_STDOFF));
 534              		.loc 1 299 5 is_stmt 1 view .LVU170
 535              		.loc 1 299 25 is_stmt 0 view .LVU171
 536 0096 D0F8B030 		ldr	r3, [r0, #176]
 300:../../../support/device/gd32f4xx/peripherals/src/gd32f4xx_tli.c ****     TLI_LxFLLEN(layerx) = (uint32_t)((uint32_t)layer_struct->layer_frame_line_length | ((uint32_t)l
 537              		.loc 1 300 89 view .LVU172
 538 009a B1F820C0 		ldrh	ip, [r1, #32]
 301:../../../support/device/gd32f4xx/peripherals/src/gd32f4xx_tli.c ****     /* configure layer frame total line number */
 302:../../../support/device/gd32f4xx/peripherals/src/gd32f4xx_tli.c ****     TLI_LxFTLN(layerx) &= ~(TLI_LxFTLN_FTLN);
 303:../../../support/device/gd32f4xx/peripherals/src/gd32f4xx_tli.c ****     TLI_LxFTLN(layerx) = (uint32_t)(layer_struct->layer_frame_total_line_number);
 539              		.loc 1 303 26 view .LVU173
ARM GAS  /var/folders/_f/88qcw_5n2jl40jjphvxyt7wh0000gn/T//cctfNtoi.s 			page 16


 540 009e 8A8C     		ldrh	r2, [r1, #36]
 304:../../../support/device/gd32f4xx/peripherals/src/gd32f4xx_tli.c **** 
 305:../../../support/device/gd32f4xx/peripherals/src/gd32f4xx_tli.c **** }
 541              		.loc 1 305 1 view .LVU174
 542 00a0 10BC     		pop	{r4}
 543              	.LCFI7:
 544              		.cfi_restore 4
 545              		.cfi_def_cfa_offset 0
 299:../../../support/device/gd32f4xx/peripherals/src/gd32f4xx_tli.c ****     TLI_LxFLLEN(layerx) = (uint32_t)((uint32_t)layer_struct->layer_frame_line_length | ((uint32_t)l
 546              		.loc 1 299 25 view .LVU175
 547 00a2 03F0C023 		and	r3, r3, #-1073692672
 548 00a6 C0F8B030 		str	r3, [r0, #176]
 300:../../../support/device/gd32f4xx/peripherals/src/gd32f4xx_tli.c ****     /* configure layer frame total line number */
 549              		.loc 1 300 5 is_stmt 1 view .LVU176
 300:../../../support/device/gd32f4xx/peripherals/src/gd32f4xx_tli.c ****     /* configure layer frame total line number */
 550              		.loc 1 300 38 is_stmt 0 view .LVU177
 551 00aa 4B8C     		ldrh	r3, [r1, #34]
 300:../../../support/device/gd32f4xx/peripherals/src/gd32f4xx_tli.c ****     /* configure layer frame total line number */
 552              		.loc 1 300 27 view .LVU178
 553 00ac 43EA0C43 		orr	r3, r3, ip, lsl #16
 300:../../../support/device/gd32f4xx/peripherals/src/gd32f4xx_tli.c ****     /* configure layer frame total line number */
 554              		.loc 1 300 25 view .LVU179
 555 00b0 C0F8B030 		str	r3, [r0, #176]
 302:../../../support/device/gd32f4xx/peripherals/src/gd32f4xx_tli.c ****     TLI_LxFTLN(layerx) = (uint32_t)(layer_struct->layer_frame_total_line_number);
 556              		.loc 1 302 5 is_stmt 1 view .LVU180
 302:../../../support/device/gd32f4xx/peripherals/src/gd32f4xx_tli.c ****     TLI_LxFTLN(layerx) = (uint32_t)(layer_struct->layer_frame_total_line_number);
 557              		.loc 1 302 24 is_stmt 0 view .LVU181
 558 00b4 D0F8B430 		ldr	r3, [r0, #180]
 559 00b8 23F4FF63 		bic	r3, r3, #2040
 560 00bc 23F00703 		bic	r3, r3, #7
 561 00c0 C0F8B430 		str	r3, [r0, #180]
 303:../../../support/device/gd32f4xx/peripherals/src/gd32f4xx_tli.c **** 
 562              		.loc 1 303 5 is_stmt 1 view .LVU182
 303:../../../support/device/gd32f4xx/peripherals/src/gd32f4xx_tli.c **** 
 563              		.loc 1 303 24 is_stmt 0 view .LVU183
 564 00c4 C0F8B420 		str	r2, [r0, #180]
 565              		.loc 1 305 1 view .LVU184
 566 00c8 7047     		bx	lr
 567              		.cfi_endproc
 568              	.LFE124:
 570 00ca 00BF     		.section	.text.tli_layer_window_offset_modify,"ax",%progbits
 571              		.align	1
 572              		.p2align 2,,3
 573              		.global	tli_layer_window_offset_modify
 574              		.syntax unified
 575              		.thumb
 576              		.thumb_func
 578              	tli_layer_window_offset_modify:
 579              	.LVL8:
 580              	.LFB125:
 306:../../../support/device/gd32f4xx/peripherals/src/gd32f4xx_tli.c **** 
 307:../../../support/device/gd32f4xx/peripherals/src/gd32f4xx_tli.c **** /*!
 308:../../../support/device/gd32f4xx/peripherals/src/gd32f4xx_tli.c ****     \brief    reconfigure window position
 309:../../../support/device/gd32f4xx/peripherals/src/gd32f4xx_tli.c ****     \param[in]  layerx: LAYERx(x=0,1)
 310:../../../support/device/gd32f4xx/peripherals/src/gd32f4xx_tli.c ****     \param[in]  offset_x: new horizontal offset
 311:../../../support/device/gd32f4xx/peripherals/src/gd32f4xx_tli.c ****     \param[in]  offset_y: new vertical offset
 312:../../../support/device/gd32f4xx/peripherals/src/gd32f4xx_tli.c ****     \param[out] none
ARM GAS  /var/folders/_f/88qcw_5n2jl40jjphvxyt7wh0000gn/T//cctfNtoi.s 			page 17


 313:../../../support/device/gd32f4xx/peripherals/src/gd32f4xx_tli.c ****     \retval     none
 314:../../../support/device/gd32f4xx/peripherals/src/gd32f4xx_tli.c **** */
 315:../../../support/device/gd32f4xx/peripherals/src/gd32f4xx_tli.c **** void tli_layer_window_offset_modify(uint32_t layerx, uint16_t offset_x, uint16_t offset_y)
 316:../../../support/device/gd32f4xx/peripherals/src/gd32f4xx_tli.c **** {
 581              		.loc 1 316 1 is_stmt 1 view -0
 582              		.cfi_startproc
 583              		@ args = 0, pretend = 0, frame = 0
 584              		@ frame_needed = 0, uses_anonymous_args = 0
 585              		@ link register save eliminated.
 317:../../../support/device/gd32f4xx/peripherals/src/gd32f4xx_tli.c ****     /* configure window start position */
 318:../../../support/device/gd32f4xx/peripherals/src/gd32f4xx_tli.c ****     uint32_t layer_ppf, line_num, hstart, vstart;
 586              		.loc 1 318 5 view .LVU186
 319:../../../support/device/gd32f4xx/peripherals/src/gd32f4xx_tli.c ****     uint32_t line_length = 0U;
 587              		.loc 1 319 5 view .LVU187
 320:../../../support/device/gd32f4xx/peripherals/src/gd32f4xx_tli.c ****     TLI_LxHPOS(layerx) &= ~(TLI_LxHPOS_WLP | (TLI_LxHPOS_WRP));
 588              		.loc 1 320 5 view .LVU188
 589              		.loc 1 320 24 is_stmt 0 view .LVU189
 590 0000 D0F88830 		ldr	r3, [r0, #136]
 591 0004 03F0F023 		and	r3, r3, #-268374016
 316:../../../support/device/gd32f4xx/peripherals/src/gd32f4xx_tli.c ****     /* configure window start position */
 592              		.loc 1 316 1 view .LVU190
 593 0008 30B4     		push	{r4, r5}
 594              	.LCFI8:
 595              		.cfi_def_cfa_offset 8
 596              		.cfi_offset 4, -8
 597              		.cfi_offset 5, -4
 598              		.loc 1 320 24 view .LVU191
 599 000a C0F88830 		str	r3, [r0, #136]
 321:../../../support/device/gd32f4xx/peripherals/src/gd32f4xx_tli.c ****     TLI_LxVPOS(layerx) &= ~(TLI_LxVPOS_WTP | (TLI_LxVPOS_WBP));
 600              		.loc 1 321 5 is_stmt 1 view .LVU192
 601              		.loc 1 321 24 is_stmt 0 view .LVU193
 602 000e D0F88C30 		ldr	r3, [r0, #140]
 322:../../../support/device/gd32f4xx/peripherals/src/gd32f4xx_tli.c ****     hstart = (uint32_t)offset_x + (((TLI_BPSZ & TLI_BPSZ_HBPSZ) >> 16U) + 1U);
 603              		.loc 1 322 38 view .LVU194
 604 0012 274D     		ldr	r5, .L37
 321:../../../support/device/gd32f4xx/peripherals/src/gd32f4xx_tli.c ****     TLI_LxVPOS(layerx) &= ~(TLI_LxVPOS_WTP | (TLI_LxVPOS_WBP));
 605              		.loc 1 321 24 view .LVU195
 606 0014 03F0F023 		and	r3, r3, #-268374016
 607 0018 C0F88C30 		str	r3, [r0, #140]
 608              		.loc 1 322 5 is_stmt 1 view .LVU196
 609              		.loc 1 322 38 is_stmt 0 view .LVU197
 610 001c D5F80C48 		ldr	r4, [r5, #2060]
 323:../../../support/device/gd32f4xx/peripherals/src/gd32f4xx_tli.c ****     vstart = (uint32_t)offset_y + ((TLI_BPSZ & TLI_BPSZ_VBPSZ) + 1U);
 611              		.loc 1 323 37 view .LVU198
 612 0020 D5F80C38 		ldr	r3, [r5, #2060]
 613              		.loc 1 323 46 view .LVU199
 614 0024 C3F30B03 		ubfx	r3, r3, #0, #12
 615              		.loc 1 323 12 view .LVU200
 616 0028 0133     		adds	r3, r3, #1
 322:../../../support/device/gd32f4xx/peripherals/src/gd32f4xx_tli.c ****     hstart = (uint32_t)offset_x + (((TLI_BPSZ & TLI_BPSZ_HBPSZ) >> 16U) + 1U);
 617              		.loc 1 322 65 view .LVU201
 618 002a C4F30B4C 		ubfx	ip, r4, #16, #12
 619              		.loc 1 323 12 view .LVU202
 620 002e 1A44     		add	r2, r2, r3
 621              	.LVL9:
 324:../../../support/device/gd32f4xx/peripherals/src/gd32f4xx_tli.c ****     line_num = (TLI_LxFTLN(layerx) & TLI_LxFTLN_FTLN);
 622              		.loc 1 324 17 view .LVU203
ARM GAS  /var/folders/_f/88qcw_5n2jl40jjphvxyt7wh0000gn/T//cctfNtoi.s 			page 18


 623 0030 D0F8B440 		ldr	r4, [r0, #180]
 325:../../../support/device/gd32f4xx/peripherals/src/gd32f4xx_tli.c ****     layer_ppf = (TLI_LxPPF(layerx) & TLI_LxPPF_PPF);
 624              		.loc 1 325 18 view .LVU204
 625 0034 D0F89430 		ldr	r3, [r0, #148]
 626              		.loc 1 325 15 view .LVU205
 627 0038 03F00703 		and	r3, r3, #7
 322:../../../support/device/gd32f4xx/peripherals/src/gd32f4xx_tli.c ****     vstart = (uint32_t)offset_y + ((TLI_BPSZ & TLI_BPSZ_VBPSZ) + 1U);
 628              		.loc 1 322 12 view .LVU206
 629 003c 0CF1010C 		add	ip, ip, #1
 326:../../../support/device/gd32f4xx/peripherals/src/gd32f4xx_tli.c ****     /* the bytes of a line equal TLI_LxFLLEN_FLL bits value minus 3 */
 327:../../../support/device/gd32f4xx/peripherals/src/gd32f4xx_tli.c ****     switch(layer_ppf) {
 630              		.loc 1 327 5 view .LVU207
 631 0040 013B     		subs	r3, r3, #1
 322:../../../support/device/gd32f4xx/peripherals/src/gd32f4xx_tli.c ****     vstart = (uint32_t)offset_y + ((TLI_BPSZ & TLI_BPSZ_VBPSZ) + 1U);
 632              		.loc 1 322 12 view .LVU208
 633 0042 6144     		add	r1, r1, ip
 634              	.LVL10:
 323:../../../support/device/gd32f4xx/peripherals/src/gd32f4xx_tli.c ****     line_num = (TLI_LxFTLN(layerx) & TLI_LxFTLN_FTLN);
 635              		.loc 1 323 5 is_stmt 1 view .LVU209
 324:../../../support/device/gd32f4xx/peripherals/src/gd32f4xx_tli.c ****     layer_ppf = (TLI_LxPPF(layerx) & TLI_LxPPF_PPF);
 636              		.loc 1 324 5 view .LVU210
 324:../../../support/device/gd32f4xx/peripherals/src/gd32f4xx_tli.c ****     layer_ppf = (TLI_LxPPF(layerx) & TLI_LxPPF_PPF);
 637              		.loc 1 324 14 is_stmt 0 view .LVU211
 638 0044 C4F30A0C 		ubfx	ip, r4, #0, #11
 639              	.LVL11:
 325:../../../support/device/gd32f4xx/peripherals/src/gd32f4xx_tli.c ****     /* the bytes of a line equal TLI_LxFLLEN_FLL bits value minus 3 */
 640              		.loc 1 325 5 is_stmt 1 view .LVU212
 641              		.loc 1 327 5 view .LVU213
 642 0048 062B     		cmp	r3, #6
 643 004a 29D8     		bhi	.L30
 644 004c DFE803F0 		tbb	[pc, r3]
 645              	.L32:
 646 0050 1E       		.byte	(.L34-.L32)/2
 647 0051 04       		.byte	(.L31-.L32)/2
 648 0052 04       		.byte	(.L31-.L32)/2
 649 0053 04       		.byte	(.L31-.L32)/2
 650 0054 18       		.byte	(.L33-.L32)/2
 651 0055 18       		.byte	(.L33-.L32)/2
 652 0056 04       		.byte	(.L31-.L32)/2
 653 0057 00       		.p2align 1
 654              	.L31:
 328:../../../support/device/gd32f4xx/peripherals/src/gd32f4xx_tli.c ****     case LAYER_PPF_ARGB8888:
 329:../../../support/device/gd32f4xx/peripherals/src/gd32f4xx_tli.c ****         /* each pixel includes 4bytes, when pixel format is ARGB8888 */
 330:../../../support/device/gd32f4xx/peripherals/src/gd32f4xx_tli.c ****         line_length = (((TLI_LxFLLEN(layerx) & TLI_LxFLLEN_FLL) - 3U) / 4U);
 331:../../../support/device/gd32f4xx/peripherals/src/gd32f4xx_tli.c ****         break;
 332:../../../support/device/gd32f4xx/peripherals/src/gd32f4xx_tli.c ****     case LAYER_PPF_RGB888:
 333:../../../support/device/gd32f4xx/peripherals/src/gd32f4xx_tli.c ****         /* each pixel includes 3bytes, when pixel format is RGB888 */
 334:../../../support/device/gd32f4xx/peripherals/src/gd32f4xx_tli.c ****         line_length = (((TLI_LxFLLEN(layerx) & TLI_LxFLLEN_FLL) - 3U) / 3U);
 335:../../../support/device/gd32f4xx/peripherals/src/gd32f4xx_tli.c ****         break;
 336:../../../support/device/gd32f4xx/peripherals/src/gd32f4xx_tli.c ****     case LAYER_PPF_RGB565:
 337:../../../support/device/gd32f4xx/peripherals/src/gd32f4xx_tli.c ****     case LAYER_PPF_ARGB1555:
 338:../../../support/device/gd32f4xx/peripherals/src/gd32f4xx_tli.c ****     case LAYER_PPF_ARGB4444:
 339:../../../support/device/gd32f4xx/peripherals/src/gd32f4xx_tli.c ****     case LAYER_PPF_AL88:
 340:../../../support/device/gd32f4xx/peripherals/src/gd32f4xx_tli.c ****         /* each pixel includes 2bytes, when pixel format is RGB565,ARG1555,ARGB4444 or AL88 */
 341:../../../support/device/gd32f4xx/peripherals/src/gd32f4xx_tli.c ****         line_length = (((TLI_LxFLLEN(layerx) & TLI_LxFLLEN_FLL) - 3U) / 2U);
 655              		.loc 1 341 9 view .LVU214
 656              		.loc 1 341 26 is_stmt 0 view .LVU215
ARM GAS  /var/folders/_f/88qcw_5n2jl40jjphvxyt7wh0000gn/T//cctfNtoi.s 			page 19


 657 0058 D0F8B030 		ldr	r3, [r0, #176]
 658              		.loc 1 341 46 view .LVU216
 659 005c C3F30D03 		ubfx	r3, r3, #0, #14
 660              		.loc 1 341 65 view .LVU217
 661 0060 033B     		subs	r3, r3, #3
 662              		.loc 1 341 21 view .LVU218
 663 0062 5B08     		lsrs	r3, r3, #1
 664              	.LVL12:
 342:../../../support/device/gd32f4xx/peripherals/src/gd32f4xx_tli.c ****         break;
 665              		.loc 1 342 9 is_stmt 1 view .LVU219
 666              	.L35:
 343:../../../support/device/gd32f4xx/peripherals/src/gd32f4xx_tli.c ****     case LAYER_PPF_L8:
 344:../../../support/device/gd32f4xx/peripherals/src/gd32f4xx_tli.c ****     case LAYER_PPF_AL44:
 345:../../../support/device/gd32f4xx/peripherals/src/gd32f4xx_tli.c ****         /* each pixel includes 1byte, when pixel format is L8 or AL44 */
 346:../../../support/device/gd32f4xx/peripherals/src/gd32f4xx_tli.c ****         line_length = (((TLI_LxFLLEN(layerx) & TLI_LxFLLEN_FLL) - 3U));
 347:../../../support/device/gd32f4xx/peripherals/src/gd32f4xx_tli.c ****         break;
 348:../../../support/device/gd32f4xx/peripherals/src/gd32f4xx_tli.c ****     default:
 349:../../../support/device/gd32f4xx/peripherals/src/gd32f4xx_tli.c ****         break;
 350:../../../support/device/gd32f4xx/peripherals/src/gd32f4xx_tli.c ****     }
 351:../../../support/device/gd32f4xx/peripherals/src/gd32f4xx_tli.c ****     /* reconfigure window position */
 352:../../../support/device/gd32f4xx/peripherals/src/gd32f4xx_tli.c ****     TLI_LxHPOS(layerx) = (hstart | ((hstart + line_length - 1U) << 16U));
 667              		.loc 1 352 5 view .LVU220
 668              		.loc 1 352 59 is_stmt 0 view .LVU221
 669 0064 4C1E     		subs	r4, r1, #1
 670 0066 2344     		add	r3, r3, r4
 671              	.LVL13:
 672              		.loc 1 352 34 view .LVU222
 673 0068 41EA0341 		orr	r1, r1, r3, lsl #16
 674              	.LVL14:
 353:../../../support/device/gd32f4xx/peripherals/src/gd32f4xx_tli.c ****     TLI_LxVPOS(layerx) = (vstart | ((vstart + line_num - 1U) << 16U));
 675              		.loc 1 353 56 view .LVU223
 676 006c 531E     		subs	r3, r2, #1
 677 006e 9C44     		add	ip, ip, r3
 678              	.LVL15:
 679              		.loc 1 353 34 view .LVU224
 680 0070 42EA0C42 		orr	r2, r2, ip, lsl #16
 681              	.LVL16:
 352:../../../support/device/gd32f4xx/peripherals/src/gd32f4xx_tli.c ****     TLI_LxVPOS(layerx) = (vstart | ((vstart + line_num - 1U) << 16U));
 682              		.loc 1 352 24 view .LVU225
 683 0074 C0F88810 		str	r1, [r0, #136]
 684              		.loc 1 353 5 is_stmt 1 view .LVU226
 354:../../../support/device/gd32f4xx/peripherals/src/gd32f4xx_tli.c **** }
 685              		.loc 1 354 1 is_stmt 0 view .LVU227
 686 0078 30BC     		pop	{r4, r5}
 687              	.LCFI9:
 688              		.cfi_remember_state
 689              		.cfi_restore 5
 690              		.cfi_restore 4
 691              		.cfi_def_cfa_offset 0
 692              	.LVL17:
 353:../../../support/device/gd32f4xx/peripherals/src/gd32f4xx_tli.c ****     TLI_LxVPOS(layerx) = (vstart | ((vstart + line_num - 1U) << 16U));
 693              		.loc 1 353 24 view .LVU228
 694 007a C0F88C20 		str	r2, [r0, #140]
 695              		.loc 1 354 1 view .LVU229
 696 007e 7047     		bx	lr
 697              	.LVL18:
 698              	.L33:
ARM GAS  /var/folders/_f/88qcw_5n2jl40jjphvxyt7wh0000gn/T//cctfNtoi.s 			page 20


 699              	.LCFI10:
 700              		.cfi_restore_state
 346:../../../support/device/gd32f4xx/peripherals/src/gd32f4xx_tli.c ****         break;
 701              		.loc 1 346 9 is_stmt 1 view .LVU230
 346:../../../support/device/gd32f4xx/peripherals/src/gd32f4xx_tli.c ****         break;
 702              		.loc 1 346 26 is_stmt 0 view .LVU231
 703 0080 D0F8B030 		ldr	r3, [r0, #176]
 346:../../../support/device/gd32f4xx/peripherals/src/gd32f4xx_tli.c ****         break;
 704              		.loc 1 346 46 view .LVU232
 705 0084 C3F30D03 		ubfx	r3, r3, #0, #14
 346:../../../support/device/gd32f4xx/peripherals/src/gd32f4xx_tli.c ****         break;
 706              		.loc 1 346 21 view .LVU233
 707 0088 033B     		subs	r3, r3, #3
 708              	.LVL19:
 347:../../../support/device/gd32f4xx/peripherals/src/gd32f4xx_tli.c ****     default:
 709              		.loc 1 347 9 is_stmt 1 view .LVU234
 710 008a EBE7     		b	.L35
 711              	.LVL20:
 712              	.L34:
 334:../../../support/device/gd32f4xx/peripherals/src/gd32f4xx_tli.c ****         break;
 713              		.loc 1 334 9 view .LVU235
 334:../../../support/device/gd32f4xx/peripherals/src/gd32f4xx_tli.c ****         break;
 714              		.loc 1 334 26 is_stmt 0 view .LVU236
 715 008c D0F8B030 		ldr	r3, [r0, #176]
 334:../../../support/device/gd32f4xx/peripherals/src/gd32f4xx_tli.c ****         break;
 716              		.loc 1 334 21 view .LVU237
 717 0090 084C     		ldr	r4, .L37+4
 334:../../../support/device/gd32f4xx/peripherals/src/gd32f4xx_tli.c ****         break;
 718              		.loc 1 334 46 view .LVU238
 719 0092 C3F30D03 		ubfx	r3, r3, #0, #14
 334:../../../support/device/gd32f4xx/peripherals/src/gd32f4xx_tli.c ****         break;
 720              		.loc 1 334 65 view .LVU239
 721 0096 033B     		subs	r3, r3, #3
 334:../../../support/device/gd32f4xx/peripherals/src/gd32f4xx_tli.c ****         break;
 722              		.loc 1 334 21 view .LVU240
 723 0098 A4FB0343 		umull	r4, r3, r4, r3
 724 009c 5B08     		lsrs	r3, r3, #1
 725              	.LVL21:
 335:../../../support/device/gd32f4xx/peripherals/src/gd32f4xx_tli.c ****     case LAYER_PPF_RGB565:
 726              		.loc 1 335 9 is_stmt 1 view .LVU241
 727 009e E1E7     		b	.L35
 728              	.LVL22:
 729              	.L30:
 330:../../../support/device/gd32f4xx/peripherals/src/gd32f4xx_tli.c ****         break;
 730              		.loc 1 330 9 view .LVU242
 330:../../../support/device/gd32f4xx/peripherals/src/gd32f4xx_tli.c ****         break;
 731              		.loc 1 330 26 is_stmt 0 view .LVU243
 732 00a0 D0F8B030 		ldr	r3, [r0, #176]
 330:../../../support/device/gd32f4xx/peripherals/src/gd32f4xx_tli.c ****         break;
 733              		.loc 1 330 46 view .LVU244
 734 00a4 C3F30D03 		ubfx	r3, r3, #0, #14
 330:../../../support/device/gd32f4xx/peripherals/src/gd32f4xx_tli.c ****         break;
 735              		.loc 1 330 65 view .LVU245
 736 00a8 033B     		subs	r3, r3, #3
 330:../../../support/device/gd32f4xx/peripherals/src/gd32f4xx_tli.c ****         break;
 737              		.loc 1 330 21 view .LVU246
 738 00aa 9B08     		lsrs	r3, r3, #2
ARM GAS  /var/folders/_f/88qcw_5n2jl40jjphvxyt7wh0000gn/T//cctfNtoi.s 			page 21


 739              	.LVL23:
 331:../../../support/device/gd32f4xx/peripherals/src/gd32f4xx_tli.c ****     case LAYER_PPF_RGB888:
 740              		.loc 1 331 9 is_stmt 1 view .LVU247
 741 00ac DAE7     		b	.L35
 742              	.L38:
 743 00ae 00BF     		.align	2
 744              	.L37:
 745 00b0 00600140 		.word	1073831936
 746 00b4 ABAAAAAA 		.word	-1431655765
 747              		.cfi_endproc
 748              	.LFE125:
 750              		.section	.text.tli_lut_struct_para_init,"ax",%progbits
 751              		.align	1
 752              		.p2align 2,,3
 753              		.global	tli_lut_struct_para_init
 754              		.syntax unified
 755              		.thumb
 756              		.thumb_func
 758              	tli_lut_struct_para_init:
 759              	.LVL24:
 760              	.LFB126:
 355:../../../support/device/gd32f4xx/peripherals/src/gd32f4xx_tli.c **** 
 356:../../../support/device/gd32f4xx/peripherals/src/gd32f4xx_tli.c **** /*!
 357:../../../support/device/gd32f4xx/peripherals/src/gd32f4xx_tli.c ****     \brief    initialize the parameters of TLI layer LUT structure with the default values, it is s
 358:../../../support/device/gd32f4xx/peripherals/src/gd32f4xx_tli.c ****                 that call this function after a tli_layer_lut_parameter_struct structure is defined
 359:../../../support/device/gd32f4xx/peripherals/src/gd32f4xx_tli.c ****     \param[in]  none
 360:../../../support/device/gd32f4xx/peripherals/src/gd32f4xx_tli.c ****     \param[out] lut_struct: TLI layer LUT parameter struct
 361:../../../support/device/gd32f4xx/peripherals/src/gd32f4xx_tli.c ****                   layer_table_addr: look up table write address
 362:../../../support/device/gd32f4xx/peripherals/src/gd32f4xx_tli.c ****                   layer_lut_channel_red: red channel of a LUT entry
 363:../../../support/device/gd32f4xx/peripherals/src/gd32f4xx_tli.c ****                   layer_lut_channel_green: green channel of a LUT entry
 364:../../../support/device/gd32f4xx/peripherals/src/gd32f4xx_tli.c ****                   layer_lut_channel_blue: blue channel of a LUT entry
 365:../../../support/device/gd32f4xx/peripherals/src/gd32f4xx_tli.c ****     \retval     none
 366:../../../support/device/gd32f4xx/peripherals/src/gd32f4xx_tli.c **** */
 367:../../../support/device/gd32f4xx/peripherals/src/gd32f4xx_tli.c **** void tli_lut_struct_para_init(tli_layer_lut_parameter_struct *lut_struct)
 368:../../../support/device/gd32f4xx/peripherals/src/gd32f4xx_tli.c **** {
 761              		.loc 1 368 1 view -0
 762              		.cfi_startproc
 763              		@ args = 0, pretend = 0, frame = 0
 764              		@ frame_needed = 0, uses_anonymous_args = 0
 765              		@ link register save eliminated.
 369:../../../support/device/gd32f4xx/peripherals/src/gd32f4xx_tli.c ****     /* initialize the struct parameters with default values */
 370:../../../support/device/gd32f4xx/peripherals/src/gd32f4xx_tli.c ****     lut_struct->layer_table_addr = TLI_DEFAULT_VALUE;
 766              		.loc 1 370 5 view .LVU249
 767              		.loc 1 370 34 is_stmt 0 view .LVU250
 768 0000 0023     		movs	r3, #0
 769 0002 0360     		str	r3, [r0]
 371:../../../support/device/gd32f4xx/peripherals/src/gd32f4xx_tli.c ****     lut_struct->layer_lut_channel_red = TLI_DEFAULT_VALUE;
 770              		.loc 1 371 5 is_stmt 1 view .LVU251
 372:../../../support/device/gd32f4xx/peripherals/src/gd32f4xx_tli.c ****     lut_struct->layer_lut_channel_green = TLI_DEFAULT_VALUE;
 771              		.loc 1 372 5 view .LVU252
 371:../../../support/device/gd32f4xx/peripherals/src/gd32f4xx_tli.c ****     lut_struct->layer_lut_channel_red = TLI_DEFAULT_VALUE;
 772              		.loc 1 371 39 is_stmt 0 view .LVU253
 773 0004 8380     		strh	r3, [r0, #4]	@ movhi
 373:../../../support/device/gd32f4xx/peripherals/src/gd32f4xx_tli.c ****     lut_struct->layer_lut_channel_blue = TLI_DEFAULT_VALUE;
 774              		.loc 1 373 5 is_stmt 1 view .LVU254
 775              		.loc 1 373 40 is_stmt 0 view .LVU255
 776 0006 8371     		strb	r3, [r0, #6]
ARM GAS  /var/folders/_f/88qcw_5n2jl40jjphvxyt7wh0000gn/T//cctfNtoi.s 			page 22


 374:../../../support/device/gd32f4xx/peripherals/src/gd32f4xx_tli.c **** }
 777              		.loc 1 374 1 view .LVU256
 778 0008 7047     		bx	lr
 779              		.cfi_endproc
 780              	.LFE126:
 782 000a 00BF     		.section	.text.tli_lut_init,"ax",%progbits
 783              		.align	1
 784              		.p2align 2,,3
 785              		.global	tli_lut_init
 786              		.syntax unified
 787              		.thumb
 788              		.thumb_func
 790              	tli_lut_init:
 791              	.LVL25:
 792              	.LFB127:
 375:../../../support/device/gd32f4xx/peripherals/src/gd32f4xx_tli.c **** 
 376:../../../support/device/gd32f4xx/peripherals/src/gd32f4xx_tli.c **** /*!
 377:../../../support/device/gd32f4xx/peripherals/src/gd32f4xx_tli.c ****     \brief    initialize TLI layer LUT
 378:../../../support/device/gd32f4xx/peripherals/src/gd32f4xx_tli.c ****     \param[in]  layerx: LAYERx(x=0,1)
 379:../../../support/device/gd32f4xx/peripherals/src/gd32f4xx_tli.c ****     \param[in]  lut_struct: TLI layer LUT parameter struct
 380:../../../support/device/gd32f4xx/peripherals/src/gd32f4xx_tli.c ****                   layer_table_addr: look up table write address
 381:../../../support/device/gd32f4xx/peripherals/src/gd32f4xx_tli.c ****                   layer_lut_channel_red: red channel of a LUT entry
 382:../../../support/device/gd32f4xx/peripherals/src/gd32f4xx_tli.c ****                   layer_lut_channel_green: green channel of a LUT entry
 383:../../../support/device/gd32f4xx/peripherals/src/gd32f4xx_tli.c ****                   layer_lut_channel_blue: blue channel of a LUT entry
 384:../../../support/device/gd32f4xx/peripherals/src/gd32f4xx_tli.c ****     \param[out] none
 385:../../../support/device/gd32f4xx/peripherals/src/gd32f4xx_tli.c ****     \retval     none
 386:../../../support/device/gd32f4xx/peripherals/src/gd32f4xx_tli.c **** */
 387:../../../support/device/gd32f4xx/peripherals/src/gd32f4xx_tli.c **** void tli_lut_init(uint32_t layerx, tli_layer_lut_parameter_struct *lut_struct)
 388:../../../support/device/gd32f4xx/peripherals/src/gd32f4xx_tli.c **** {
 793              		.loc 1 388 1 is_stmt 1 view -0
 794              		.cfi_startproc
 795              		@ args = 0, pretend = 0, frame = 0
 796              		@ frame_needed = 0, uses_anonymous_args = 0
 797              		@ link register save eliminated.
 389:../../../support/device/gd32f4xx/peripherals/src/gd32f4xx_tli.c ****     TLI_LxLUT(layerx) = (uint32_t)(((uint32_t)lut_struct->layer_lut_channel_blue) | ((uint32_t)lut_
 798              		.loc 1 389 5 view .LVU258
 388:../../../support/device/gd32f4xx/peripherals/src/gd32f4xx_tli.c ****     TLI_LxLUT(layerx) = (uint32_t)(((uint32_t)lut_struct->layer_lut_channel_blue) | ((uint32_t)lut_
 799              		.loc 1 388 1 is_stmt 0 view .LVU259
 800 0000 10B4     		push	{r4}
 801              	.LCFI11:
 802              		.cfi_def_cfa_offset 4
 803              		.cfi_offset 4, -4
 804              		.loc 1 389 37 view .LVU260
 805 0002 8B79     		ldrb	r3, [r1, #6]	@ zero_extendqisi2
 390:../../../support/device/gd32f4xx/peripherals/src/gd32f4xx_tli.c ****                                    | ((uint32_t)lut_struct->layer_lut_channel_red << 16U
 391:../../../support/device/gd32f4xx/peripherals/src/gd32f4xx_tli.c ****                                       | ((uint32_t)lut_struct->layer_table_addr << 24U)));
 806              		.loc 1 391 81 view .LVU261
 807 0004 0C68     		ldr	r4, [r1]
 389:../../../support/device/gd32f4xx/peripherals/src/gd32f4xx_tli.c ****                                    | ((uint32_t)lut_struct->layer_lut_channel_red << 16U
 808              		.loc 1 389 86 view .LVU262
 809 0006 91F805C0 		ldrb	ip, [r1, #5]	@ zero_extendqisi2
 390:../../../support/device/gd32f4xx/peripherals/src/gd32f4xx_tli.c ****                                    | ((uint32_t)lut_struct->layer_lut_channel_red << 16U
 810              		.loc 1 390 39 view .LVU263
 811 000a 0A79     		ldrb	r2, [r1, #4]	@ zero_extendqisi2
 389:../../../support/device/gd32f4xx/peripherals/src/gd32f4xx_tli.c ****                                    | ((uint32_t)lut_struct->layer_lut_channel_red << 16U
 812              		.loc 1 389 25 view .LVU264
 813 000c 43EA0463 		orr	r3, r3, r4, lsl #24
ARM GAS  /var/folders/_f/88qcw_5n2jl40jjphvxyt7wh0000gn/T//cctfNtoi.s 			page 23


 814 0010 43EA0C23 		orr	r3, r3, ip, lsl #8
 815 0014 43EA0243 		orr	r3, r3, r2, lsl #16
 392:../../../support/device/gd32f4xx/peripherals/src/gd32f4xx_tli.c **** }
 816              		.loc 1 392 1 view .LVU265
 817 0018 10BC     		pop	{r4}
 818              	.LCFI12:
 819              		.cfi_restore 4
 820              		.cfi_def_cfa_offset 0
 389:../../../support/device/gd32f4xx/peripherals/src/gd32f4xx_tli.c ****                                    | ((uint32_t)lut_struct->layer_lut_channel_red << 16U
 821              		.loc 1 389 23 view .LVU266
 822 001a C0F8C430 		str	r3, [r0, #196]
 823              		.loc 1 392 1 view .LVU267
 824 001e 7047     		bx	lr
 825              		.cfi_endproc
 826              	.LFE127:
 828              		.section	.text.tli_color_key_init,"ax",%progbits
 829              		.align	1
 830              		.p2align 2,,3
 831              		.global	tli_color_key_init
 832              		.syntax unified
 833              		.thumb
 834              		.thumb_func
 836              	tli_color_key_init:
 837              	.LVL26:
 838              	.LFB128:
 393:../../../support/device/gd32f4xx/peripherals/src/gd32f4xx_tli.c **** 
 394:../../../support/device/gd32f4xx/peripherals/src/gd32f4xx_tli.c **** /*!
 395:../../../support/device/gd32f4xx/peripherals/src/gd32f4xx_tli.c ****     \brief    initialize TLI layer color key
 396:../../../support/device/gd32f4xx/peripherals/src/gd32f4xx_tli.c ****     \param[in]  layerx: LAYERx(x=0,1)
 397:../../../support/device/gd32f4xx/peripherals/src/gd32f4xx_tli.c ****     \param[in]  redkey: color key red
 398:../../../support/device/gd32f4xx/peripherals/src/gd32f4xx_tli.c ****     \param[in]  greenkey: color key green
 399:../../../support/device/gd32f4xx/peripherals/src/gd32f4xx_tli.c ****     \param[in]  bluekey: color key blue
 400:../../../support/device/gd32f4xx/peripherals/src/gd32f4xx_tli.c ****     \param[out] none
 401:../../../support/device/gd32f4xx/peripherals/src/gd32f4xx_tli.c ****     \retval     none
 402:../../../support/device/gd32f4xx/peripherals/src/gd32f4xx_tli.c **** */
 403:../../../support/device/gd32f4xx/peripherals/src/gd32f4xx_tli.c **** void tli_color_key_init(uint32_t layerx, uint8_t redkey, uint8_t greenkey, uint8_t bluekey)
 404:../../../support/device/gd32f4xx/peripherals/src/gd32f4xx_tli.c **** {
 839              		.loc 1 404 1 is_stmt 1 view -0
 840              		.cfi_startproc
 841              		@ args = 0, pretend = 0, frame = 0
 842              		@ frame_needed = 0, uses_anonymous_args = 0
 843              		@ link register save eliminated.
 405:../../../support/device/gd32f4xx/peripherals/src/gd32f4xx_tli.c ****     TLI_LxCKEY(layerx) = (((uint32_t)bluekey) | ((uint32_t)greenkey << 8U) | ((uint32_t)redkey << 1
 844              		.loc 1 405 5 view .LVU269
 845              		.loc 1 405 47 is_stmt 0 view .LVU270
 846 0000 43EA0223 		orr	r3, r3, r2, lsl #8
 847              	.LVL27:
 848              		.loc 1 405 76 view .LVU271
 849 0004 43EA0143 		orr	r3, r3, r1, lsl #16
 850              		.loc 1 405 24 view .LVU272
 851 0008 C0F89030 		str	r3, [r0, #144]
 406:../../../support/device/gd32f4xx/peripherals/src/gd32f4xx_tli.c **** }
 852              		.loc 1 406 1 view .LVU273
 853 000c 7047     		bx	lr
 854              		.cfi_endproc
 855              	.LFE128:
 857 000e 00BF     		.section	.text.tli_layer_enable,"ax",%progbits
ARM GAS  /var/folders/_f/88qcw_5n2jl40jjphvxyt7wh0000gn/T//cctfNtoi.s 			page 24


 858              		.align	1
 859              		.p2align 2,,3
 860              		.global	tli_layer_enable
 861              		.syntax unified
 862              		.thumb
 863              		.thumb_func
 865              	tli_layer_enable:
 866              	.LVL28:
 867              	.LFB129:
 407:../../../support/device/gd32f4xx/peripherals/src/gd32f4xx_tli.c **** 
 408:../../../support/device/gd32f4xx/peripherals/src/gd32f4xx_tli.c **** /*!
 409:../../../support/device/gd32f4xx/peripherals/src/gd32f4xx_tli.c ****     \brief    enable TLI layer
 410:../../../support/device/gd32f4xx/peripherals/src/gd32f4xx_tli.c ****     \param[in]  layerx: LAYERx(x=0,1)
 411:../../../support/device/gd32f4xx/peripherals/src/gd32f4xx_tli.c ****     \param[out] none
 412:../../../support/device/gd32f4xx/peripherals/src/gd32f4xx_tli.c ****     \retval     none
 413:../../../support/device/gd32f4xx/peripherals/src/gd32f4xx_tli.c **** */
 414:../../../support/device/gd32f4xx/peripherals/src/gd32f4xx_tli.c **** void tli_layer_enable(uint32_t layerx)
 415:../../../support/device/gd32f4xx/peripherals/src/gd32f4xx_tli.c **** {
 868              		.loc 1 415 1 is_stmt 1 view -0
 869              		.cfi_startproc
 870              		@ args = 0, pretend = 0, frame = 0
 871              		@ frame_needed = 0, uses_anonymous_args = 0
 872              		@ link register save eliminated.
 416:../../../support/device/gd32f4xx/peripherals/src/gd32f4xx_tli.c ****     TLI_LxCTL(layerx) |= TLI_LxCTL_LEN;
 873              		.loc 1 416 5 view .LVU275
 874              		.loc 1 416 23 is_stmt 0 view .LVU276
 875 0000 D0F88430 		ldr	r3, [r0, #132]
 876 0004 43F00103 		orr	r3, r3, #1
 877 0008 C0F88430 		str	r3, [r0, #132]
 417:../../../support/device/gd32f4xx/peripherals/src/gd32f4xx_tli.c **** }
 878              		.loc 1 417 1 view .LVU277
 879 000c 7047     		bx	lr
 880              		.cfi_endproc
 881              	.LFE129:
 883 000e 00BF     		.section	.text.tli_layer_disable,"ax",%progbits
 884              		.align	1
 885              		.p2align 2,,3
 886              		.global	tli_layer_disable
 887              		.syntax unified
 888              		.thumb
 889              		.thumb_func
 891              	tli_layer_disable:
 892              	.LVL29:
 893              	.LFB130:
 418:../../../support/device/gd32f4xx/peripherals/src/gd32f4xx_tli.c **** 
 419:../../../support/device/gd32f4xx/peripherals/src/gd32f4xx_tli.c **** /*!
 420:../../../support/device/gd32f4xx/peripherals/src/gd32f4xx_tli.c ****     \brief    disable TLI layer
 421:../../../support/device/gd32f4xx/peripherals/src/gd32f4xx_tli.c ****     \param[in]  layerx: LAYERx(x=0,1)
 422:../../../support/device/gd32f4xx/peripherals/src/gd32f4xx_tli.c ****     \param[out] none
 423:../../../support/device/gd32f4xx/peripherals/src/gd32f4xx_tli.c ****     \retval     none
 424:../../../support/device/gd32f4xx/peripherals/src/gd32f4xx_tli.c **** */
 425:../../../support/device/gd32f4xx/peripherals/src/gd32f4xx_tli.c **** void tli_layer_disable(uint32_t layerx)
 426:../../../support/device/gd32f4xx/peripherals/src/gd32f4xx_tli.c **** {
 894              		.loc 1 426 1 is_stmt 1 view -0
 895              		.cfi_startproc
 896              		@ args = 0, pretend = 0, frame = 0
 897              		@ frame_needed = 0, uses_anonymous_args = 0
ARM GAS  /var/folders/_f/88qcw_5n2jl40jjphvxyt7wh0000gn/T//cctfNtoi.s 			page 25


 898              		@ link register save eliminated.
 427:../../../support/device/gd32f4xx/peripherals/src/gd32f4xx_tli.c ****     TLI_LxCTL(layerx) &= ~(TLI_LxCTL_LEN);
 899              		.loc 1 427 5 view .LVU279
 900              		.loc 1 427 23 is_stmt 0 view .LVU280
 901 0000 D0F88430 		ldr	r3, [r0, #132]
 902 0004 23F00103 		bic	r3, r3, #1
 903 0008 C0F88430 		str	r3, [r0, #132]
 428:../../../support/device/gd32f4xx/peripherals/src/gd32f4xx_tli.c **** }
 904              		.loc 1 428 1 view .LVU281
 905 000c 7047     		bx	lr
 906              		.cfi_endproc
 907              	.LFE130:
 909 000e 00BF     		.section	.text.tli_color_key_enable,"ax",%progbits
 910              		.align	1
 911              		.p2align 2,,3
 912              		.global	tli_color_key_enable
 913              		.syntax unified
 914              		.thumb
 915              		.thumb_func
 917              	tli_color_key_enable:
 918              	.LVL30:
 919              	.LFB131:
 429:../../../support/device/gd32f4xx/peripherals/src/gd32f4xx_tli.c **** 
 430:../../../support/device/gd32f4xx/peripherals/src/gd32f4xx_tli.c **** /*!
 431:../../../support/device/gd32f4xx/peripherals/src/gd32f4xx_tli.c ****     \brief    enable TLI layer color keying
 432:../../../support/device/gd32f4xx/peripherals/src/gd32f4xx_tli.c ****     \param[in]  layerx: LAYERx(x=0,1)
 433:../../../support/device/gd32f4xx/peripherals/src/gd32f4xx_tli.c ****     \param[out] none
 434:../../../support/device/gd32f4xx/peripherals/src/gd32f4xx_tli.c ****     \retval     none
 435:../../../support/device/gd32f4xx/peripherals/src/gd32f4xx_tli.c **** */
 436:../../../support/device/gd32f4xx/peripherals/src/gd32f4xx_tli.c **** void tli_color_key_enable(uint32_t layerx)
 437:../../../support/device/gd32f4xx/peripherals/src/gd32f4xx_tli.c **** {
 920              		.loc 1 437 1 is_stmt 1 view -0
 921              		.cfi_startproc
 922              		@ args = 0, pretend = 0, frame = 0
 923              		@ frame_needed = 0, uses_anonymous_args = 0
 924              		@ link register save eliminated.
 438:../../../support/device/gd32f4xx/peripherals/src/gd32f4xx_tli.c ****     TLI_LxCTL(layerx) |= TLI_LxCTL_CKEYEN;
 925              		.loc 1 438 5 view .LVU283
 926              		.loc 1 438 23 is_stmt 0 view .LVU284
 927 0000 D0F88430 		ldr	r3, [r0, #132]
 928 0004 43F00203 		orr	r3, r3, #2
 929 0008 C0F88430 		str	r3, [r0, #132]
 439:../../../support/device/gd32f4xx/peripherals/src/gd32f4xx_tli.c **** }
 930              		.loc 1 439 1 view .LVU285
 931 000c 7047     		bx	lr
 932              		.cfi_endproc
 933              	.LFE131:
 935 000e 00BF     		.section	.text.tli_color_key_disable,"ax",%progbits
 936              		.align	1
 937              		.p2align 2,,3
 938              		.global	tli_color_key_disable
 939              		.syntax unified
 940              		.thumb
 941              		.thumb_func
 943              	tli_color_key_disable:
 944              	.LVL31:
 945              	.LFB132:
ARM GAS  /var/folders/_f/88qcw_5n2jl40jjphvxyt7wh0000gn/T//cctfNtoi.s 			page 26


 440:../../../support/device/gd32f4xx/peripherals/src/gd32f4xx_tli.c **** 
 441:../../../support/device/gd32f4xx/peripherals/src/gd32f4xx_tli.c **** /*!
 442:../../../support/device/gd32f4xx/peripherals/src/gd32f4xx_tli.c ****     \brief    disable TLI layer color keying
 443:../../../support/device/gd32f4xx/peripherals/src/gd32f4xx_tli.c ****     \param[in]  layerx: LAYERx(x=0,1)
 444:../../../support/device/gd32f4xx/peripherals/src/gd32f4xx_tli.c ****     \param[out] none
 445:../../../support/device/gd32f4xx/peripherals/src/gd32f4xx_tli.c ****     \retval     none
 446:../../../support/device/gd32f4xx/peripherals/src/gd32f4xx_tli.c **** */
 447:../../../support/device/gd32f4xx/peripherals/src/gd32f4xx_tli.c **** void tli_color_key_disable(uint32_t layerx)
 448:../../../support/device/gd32f4xx/peripherals/src/gd32f4xx_tli.c **** {
 946              		.loc 1 448 1 is_stmt 1 view -0
 947              		.cfi_startproc
 948              		@ args = 0, pretend = 0, frame = 0
 949              		@ frame_needed = 0, uses_anonymous_args = 0
 950              		@ link register save eliminated.
 449:../../../support/device/gd32f4xx/peripherals/src/gd32f4xx_tli.c ****     TLI_LxCTL(layerx) &= ~(TLI_LxCTL_CKEYEN);
 951              		.loc 1 449 5 view .LVU287
 952              		.loc 1 449 23 is_stmt 0 view .LVU288
 953 0000 D0F88430 		ldr	r3, [r0, #132]
 954 0004 23F00203 		bic	r3, r3, #2
 955 0008 C0F88430 		str	r3, [r0, #132]
 450:../../../support/device/gd32f4xx/peripherals/src/gd32f4xx_tli.c **** }
 956              		.loc 1 450 1 view .LVU289
 957 000c 7047     		bx	lr
 958              		.cfi_endproc
 959              	.LFE132:
 961 000e 00BF     		.section	.text.tli_lut_enable,"ax",%progbits
 962              		.align	1
 963              		.p2align 2,,3
 964              		.global	tli_lut_enable
 965              		.syntax unified
 966              		.thumb
 967              		.thumb_func
 969              	tli_lut_enable:
 970              	.LVL32:
 971              	.LFB133:
 451:../../../support/device/gd32f4xx/peripherals/src/gd32f4xx_tli.c **** 
 452:../../../support/device/gd32f4xx/peripherals/src/gd32f4xx_tli.c **** /*!
 453:../../../support/device/gd32f4xx/peripherals/src/gd32f4xx_tli.c ****     \brief    enable TLI layer LUT
 454:../../../support/device/gd32f4xx/peripherals/src/gd32f4xx_tli.c ****     \param[in]  layerx: LAYERx(x=0,1)
 455:../../../support/device/gd32f4xx/peripherals/src/gd32f4xx_tli.c ****     \param[out] none
 456:../../../support/device/gd32f4xx/peripherals/src/gd32f4xx_tli.c ****     \retval     none
 457:../../../support/device/gd32f4xx/peripherals/src/gd32f4xx_tli.c **** */
 458:../../../support/device/gd32f4xx/peripherals/src/gd32f4xx_tli.c **** void tli_lut_enable(uint32_t layerx)
 459:../../../support/device/gd32f4xx/peripherals/src/gd32f4xx_tli.c **** {
 972              		.loc 1 459 1 is_stmt 1 view -0
 973              		.cfi_startproc
 974              		@ args = 0, pretend = 0, frame = 0
 975              		@ frame_needed = 0, uses_anonymous_args = 0
 976              		@ link register save eliminated.
 460:../../../support/device/gd32f4xx/peripherals/src/gd32f4xx_tli.c ****     TLI_LxCTL(layerx) |= TLI_LxCTL_LUTEN;
 977              		.loc 1 460 5 view .LVU291
 978              		.loc 1 460 23 is_stmt 0 view .LVU292
 979 0000 D0F88430 		ldr	r3, [r0, #132]
 980 0004 43F01003 		orr	r3, r3, #16
 981 0008 C0F88430 		str	r3, [r0, #132]
 461:../../../support/device/gd32f4xx/peripherals/src/gd32f4xx_tli.c **** }
 982              		.loc 1 461 1 view .LVU293
ARM GAS  /var/folders/_f/88qcw_5n2jl40jjphvxyt7wh0000gn/T//cctfNtoi.s 			page 27


 983 000c 7047     		bx	lr
 984              		.cfi_endproc
 985              	.LFE133:
 987 000e 00BF     		.section	.text.tli_lut_disable,"ax",%progbits
 988              		.align	1
 989              		.p2align 2,,3
 990              		.global	tli_lut_disable
 991              		.syntax unified
 992              		.thumb
 993              		.thumb_func
 995              	tli_lut_disable:
 996              	.LVL33:
 997              	.LFB134:
 462:../../../support/device/gd32f4xx/peripherals/src/gd32f4xx_tli.c **** 
 463:../../../support/device/gd32f4xx/peripherals/src/gd32f4xx_tli.c **** /*!
 464:../../../support/device/gd32f4xx/peripherals/src/gd32f4xx_tli.c ****     \brief    disable TLI layer LUT
 465:../../../support/device/gd32f4xx/peripherals/src/gd32f4xx_tli.c ****     \param[in]  layerx: LAYERx(x=0,1)
 466:../../../support/device/gd32f4xx/peripherals/src/gd32f4xx_tli.c ****     \param[out] none
 467:../../../support/device/gd32f4xx/peripherals/src/gd32f4xx_tli.c ****     \retval     none
 468:../../../support/device/gd32f4xx/peripherals/src/gd32f4xx_tli.c **** */
 469:../../../support/device/gd32f4xx/peripherals/src/gd32f4xx_tli.c **** void tli_lut_disable(uint32_t layerx)
 470:../../../support/device/gd32f4xx/peripherals/src/gd32f4xx_tli.c **** {
 998              		.loc 1 470 1 is_stmt 1 view -0
 999              		.cfi_startproc
 1000              		@ args = 0, pretend = 0, frame = 0
 1001              		@ frame_needed = 0, uses_anonymous_args = 0
 1002              		@ link register save eliminated.
 471:../../../support/device/gd32f4xx/peripherals/src/gd32f4xx_tli.c ****     TLI_LxCTL(layerx) &= ~(TLI_LxCTL_LUTEN);
 1003              		.loc 1 471 5 view .LVU295
 1004              		.loc 1 471 23 is_stmt 0 view .LVU296
 1005 0000 D0F88430 		ldr	r3, [r0, #132]
 1006 0004 23F01003 		bic	r3, r3, #16
 1007 0008 C0F88430 		str	r3, [r0, #132]
 472:../../../support/device/gd32f4xx/peripherals/src/gd32f4xx_tli.c **** }
 1008              		.loc 1 472 1 view .LVU297
 1009 000c 7047     		bx	lr
 1010              		.cfi_endproc
 1011              	.LFE134:
 1013 000e 00BF     		.section	.text.tli_line_mark_set,"ax",%progbits
 1014              		.align	1
 1015              		.p2align 2,,3
 1016              		.global	tli_line_mark_set
 1017              		.syntax unified
 1018              		.thumb
 1019              		.thumb_func
 1021              	tli_line_mark_set:
 1022              	.LVL34:
 1023              	.LFB135:
 473:../../../support/device/gd32f4xx/peripherals/src/gd32f4xx_tli.c **** 
 474:../../../support/device/gd32f4xx/peripherals/src/gd32f4xx_tli.c **** /*!
 475:../../../support/device/gd32f4xx/peripherals/src/gd32f4xx_tli.c ****     \brief    set line mark value
 476:../../../support/device/gd32f4xx/peripherals/src/gd32f4xx_tli.c ****     \param[in]  line_num: line number
 477:../../../support/device/gd32f4xx/peripherals/src/gd32f4xx_tli.c ****     \param[out] none
 478:../../../support/device/gd32f4xx/peripherals/src/gd32f4xx_tli.c ****     \retval     none
 479:../../../support/device/gd32f4xx/peripherals/src/gd32f4xx_tli.c **** */
 480:../../../support/device/gd32f4xx/peripherals/src/gd32f4xx_tli.c **** void tli_line_mark_set(uint16_t line_num)
 481:../../../support/device/gd32f4xx/peripherals/src/gd32f4xx_tli.c **** {
ARM GAS  /var/folders/_f/88qcw_5n2jl40jjphvxyt7wh0000gn/T//cctfNtoi.s 			page 28


 1024              		.loc 1 481 1 is_stmt 1 view -0
 1025              		.cfi_startproc
 1026              		@ args = 0, pretend = 0, frame = 0
 1027              		@ frame_needed = 0, uses_anonymous_args = 0
 1028              		@ link register save eliminated.
 482:../../../support/device/gd32f4xx/peripherals/src/gd32f4xx_tli.c ****     TLI_LM &= ~(TLI_LM_LM);
 1029              		.loc 1 482 5 view .LVU299
 1030              		.loc 1 482 12 is_stmt 0 view .LVU300
 1031 0000 054A     		ldr	r2, .L50
 1032 0002 D2F84038 		ldr	r3, [r2, #2112]
 1033 0006 23F4FF63 		bic	r3, r3, #2040
 1034 000a 23F00703 		bic	r3, r3, #7
 1035 000e C2F84038 		str	r3, [r2, #2112]
 483:../../../support/device/gd32f4xx/peripherals/src/gd32f4xx_tli.c ****     TLI_LM = (uint32_t)line_num;
 1036              		.loc 1 483 5 is_stmt 1 view .LVU301
 1037              		.loc 1 483 12 is_stmt 0 view .LVU302
 1038 0012 C2F84008 		str	r0, [r2, #2112]
 484:../../../support/device/gd32f4xx/peripherals/src/gd32f4xx_tli.c **** }
 1039              		.loc 1 484 1 view .LVU303
 1040 0016 7047     		bx	lr
 1041              	.L51:
 1042              		.align	2
 1043              	.L50:
 1044 0018 00600140 		.word	1073831936
 1045              		.cfi_endproc
 1046              	.LFE135:
 1048              		.section	.text.tli_current_pos_get,"ax",%progbits
 1049              		.align	1
 1050              		.p2align 2,,3
 1051              		.global	tli_current_pos_get
 1052              		.syntax unified
 1053              		.thumb
 1054              		.thumb_func
 1056              	tli_current_pos_get:
 1057              	.LFB136:
 485:../../../support/device/gd32f4xx/peripherals/src/gd32f4xx_tli.c **** 
 486:../../../support/device/gd32f4xx/peripherals/src/gd32f4xx_tli.c **** /*!
 487:../../../support/device/gd32f4xx/peripherals/src/gd32f4xx_tli.c ****     \brief    get current displayed position
 488:../../../support/device/gd32f4xx/peripherals/src/gd32f4xx_tli.c ****     \param[in]  none
 489:../../../support/device/gd32f4xx/peripherals/src/gd32f4xx_tli.c ****     \param[out] none
 490:../../../support/device/gd32f4xx/peripherals/src/gd32f4xx_tli.c ****     \retval     position of current pixel
 491:../../../support/device/gd32f4xx/peripherals/src/gd32f4xx_tli.c **** */
 492:../../../support/device/gd32f4xx/peripherals/src/gd32f4xx_tli.c **** uint32_t tli_current_pos_get(void)
 493:../../../support/device/gd32f4xx/peripherals/src/gd32f4xx_tli.c **** {
 1058              		.loc 1 493 1 is_stmt 1 view -0
 1059              		.cfi_startproc
 1060              		@ args = 0, pretend = 0, frame = 0
 1061              		@ frame_needed = 0, uses_anonymous_args = 0
 1062              		@ link register save eliminated.
 494:../../../support/device/gd32f4xx/peripherals/src/gd32f4xx_tli.c ****     return TLI_CPPOS;
 1063              		.loc 1 494 5 view .LVU305
 1064              		.loc 1 494 12 is_stmt 0 view .LVU306
 1065 0000 014B     		ldr	r3, .L53
 1066 0002 D3F84408 		ldr	r0, [r3, #2116]
 495:../../../support/device/gd32f4xx/peripherals/src/gd32f4xx_tli.c **** }
 1067              		.loc 1 495 1 view .LVU307
 1068 0006 7047     		bx	lr
ARM GAS  /var/folders/_f/88qcw_5n2jl40jjphvxyt7wh0000gn/T//cctfNtoi.s 			page 29


 1069              	.L54:
 1070              		.align	2
 1071              	.L53:
 1072 0008 00600140 		.word	1073831936
 1073              		.cfi_endproc
 1074              	.LFE136:
 1076              		.section	.text.tli_interrupt_enable,"ax",%progbits
 1077              		.align	1
 1078              		.p2align 2,,3
 1079              		.global	tli_interrupt_enable
 1080              		.syntax unified
 1081              		.thumb
 1082              		.thumb_func
 1084              	tli_interrupt_enable:
 1085              	.LVL35:
 1086              	.LFB137:
 496:../../../support/device/gd32f4xx/peripherals/src/gd32f4xx_tli.c **** 
 497:../../../support/device/gd32f4xx/peripherals/src/gd32f4xx_tli.c **** /*!
 498:../../../support/device/gd32f4xx/peripherals/src/gd32f4xx_tli.c ****     \brief    enable TLI interrupt
 499:../../../support/device/gd32f4xx/peripherals/src/gd32f4xx_tli.c ****     \param[in]  int_flag: TLI interrupt flags
 500:../../../support/device/gd32f4xx/peripherals/src/gd32f4xx_tli.c ****                 one or more parameters can be selected which are shown as below:
 501:../../../support/device/gd32f4xx/peripherals/src/gd32f4xx_tli.c ****       \arg        TLI_INT_LM: line mark interrupt
 502:../../../support/device/gd32f4xx/peripherals/src/gd32f4xx_tli.c ****       \arg        TLI_INT_FE: FIFO error interrupt
 503:../../../support/device/gd32f4xx/peripherals/src/gd32f4xx_tli.c ****       \arg        TLI_INT_TE: transaction error interrupt
 504:../../../support/device/gd32f4xx/peripherals/src/gd32f4xx_tli.c ****       \arg        TLI_INT_LCR: layer configuration reloaded interrupt
 505:../../../support/device/gd32f4xx/peripherals/src/gd32f4xx_tli.c ****     \param[out] none
 506:../../../support/device/gd32f4xx/peripherals/src/gd32f4xx_tli.c ****     \retval     none
 507:../../../support/device/gd32f4xx/peripherals/src/gd32f4xx_tli.c **** */
 508:../../../support/device/gd32f4xx/peripherals/src/gd32f4xx_tli.c **** void tli_interrupt_enable(uint32_t int_flag)
 509:../../../support/device/gd32f4xx/peripherals/src/gd32f4xx_tli.c **** {
 1087              		.loc 1 509 1 is_stmt 1 view -0
 1088              		.cfi_startproc
 1089              		@ args = 0, pretend = 0, frame = 0
 1090              		@ frame_needed = 0, uses_anonymous_args = 0
 1091              		@ link register save eliminated.
 510:../../../support/device/gd32f4xx/peripherals/src/gd32f4xx_tli.c ****     TLI_INTEN |= (int_flag);
 1092              		.loc 1 510 5 view .LVU309
 1093              		.loc 1 510 15 is_stmt 0 view .LVU310
 1094 0000 034A     		ldr	r2, .L56
 1095 0002 D2F83438 		ldr	r3, [r2, #2100]
 1096 0006 0343     		orrs	r3, r3, r0
 1097 0008 C2F83438 		str	r3, [r2, #2100]
 511:../../../support/device/gd32f4xx/peripherals/src/gd32f4xx_tli.c **** }
 1098              		.loc 1 511 1 view .LVU311
 1099 000c 7047     		bx	lr
 1100              	.L57:
 1101 000e 00BF     		.align	2
 1102              	.L56:
 1103 0010 00600140 		.word	1073831936
 1104              		.cfi_endproc
 1105              	.LFE137:
 1107              		.section	.text.tli_interrupt_disable,"ax",%progbits
 1108              		.align	1
 1109              		.p2align 2,,3
 1110              		.global	tli_interrupt_disable
 1111              		.syntax unified
 1112              		.thumb
ARM GAS  /var/folders/_f/88qcw_5n2jl40jjphvxyt7wh0000gn/T//cctfNtoi.s 			page 30


 1113              		.thumb_func
 1115              	tli_interrupt_disable:
 1116              	.LVL36:
 1117              	.LFB138:
 512:../../../support/device/gd32f4xx/peripherals/src/gd32f4xx_tli.c **** 
 513:../../../support/device/gd32f4xx/peripherals/src/gd32f4xx_tli.c **** /*!
 514:../../../support/device/gd32f4xx/peripherals/src/gd32f4xx_tli.c ****     \brief    disable TLI interrupt
 515:../../../support/device/gd32f4xx/peripherals/src/gd32f4xx_tli.c ****     \param[in]  int_flag: TLI interrupt flags
 516:../../../support/device/gd32f4xx/peripherals/src/gd32f4xx_tli.c ****                 one or more parameters can be selected which are shown as below:
 517:../../../support/device/gd32f4xx/peripherals/src/gd32f4xx_tli.c ****       \arg        TLI_INT_LM: line mark interrupt
 518:../../../support/device/gd32f4xx/peripherals/src/gd32f4xx_tli.c ****       \arg        TLI_INT_FE: FIFO error interrupt
 519:../../../support/device/gd32f4xx/peripherals/src/gd32f4xx_tli.c ****       \arg        TLI_INT_TE: transaction error interrupt
 520:../../../support/device/gd32f4xx/peripherals/src/gd32f4xx_tli.c ****       \arg        TLI_INT_LCR: layer configuration reloaded interrupt
 521:../../../support/device/gd32f4xx/peripherals/src/gd32f4xx_tli.c ****     \param[out] none
 522:../../../support/device/gd32f4xx/peripherals/src/gd32f4xx_tli.c ****     \retval     none
 523:../../../support/device/gd32f4xx/peripherals/src/gd32f4xx_tli.c **** */
 524:../../../support/device/gd32f4xx/peripherals/src/gd32f4xx_tli.c **** void tli_interrupt_disable(uint32_t int_flag)
 525:../../../support/device/gd32f4xx/peripherals/src/gd32f4xx_tli.c **** {
 1118              		.loc 1 525 1 is_stmt 1 view -0
 1119              		.cfi_startproc
 1120              		@ args = 0, pretend = 0, frame = 0
 1121              		@ frame_needed = 0, uses_anonymous_args = 0
 1122              		@ link register save eliminated.
 526:../../../support/device/gd32f4xx/peripherals/src/gd32f4xx_tli.c ****     TLI_INTEN &= ~(int_flag);
 1123              		.loc 1 526 5 view .LVU313
 1124              		.loc 1 526 15 is_stmt 0 view .LVU314
 1125 0000 034A     		ldr	r2, .L59
 1126 0002 D2F83438 		ldr	r3, [r2, #2100]
 1127 0006 23EA0003 		bic	r3, r3, r0
 1128 000a C2F83438 		str	r3, [r2, #2100]
 527:../../../support/device/gd32f4xx/peripherals/src/gd32f4xx_tli.c **** }
 1129              		.loc 1 527 1 view .LVU315
 1130 000e 7047     		bx	lr
 1131              	.L60:
 1132              		.align	2
 1133              	.L59:
 1134 0010 00600140 		.word	1073831936
 1135              		.cfi_endproc
 1136              	.LFE138:
 1138              		.section	.text.tli_interrupt_flag_get,"ax",%progbits
 1139              		.align	1
 1140              		.p2align 2,,3
 1141              		.global	tli_interrupt_flag_get
 1142              		.syntax unified
 1143              		.thumb
 1144              		.thumb_func
 1146              	tli_interrupt_flag_get:
 1147              	.LVL37:
 1148              	.LFB139:
 528:../../../support/device/gd32f4xx/peripherals/src/gd32f4xx_tli.c **** 
 529:../../../support/device/gd32f4xx/peripherals/src/gd32f4xx_tli.c **** /*!
 530:../../../support/device/gd32f4xx/peripherals/src/gd32f4xx_tli.c ****     \brief    get TLI interrupt flag
 531:../../../support/device/gd32f4xx/peripherals/src/gd32f4xx_tli.c ****     \param[in]  int_flag: TLI interrupt flags
 532:../../../support/device/gd32f4xx/peripherals/src/gd32f4xx_tli.c ****                 one or more parameters can be selected which are shown as below:
 533:../../../support/device/gd32f4xx/peripherals/src/gd32f4xx_tli.c ****       \arg        TLI_INT_FLAG_LM: line mark interrupt flag
 534:../../../support/device/gd32f4xx/peripherals/src/gd32f4xx_tli.c ****       \arg        TLI_INT_FLAG_FE: FIFO error interrupt flag
 535:../../../support/device/gd32f4xx/peripherals/src/gd32f4xx_tli.c ****       \arg        TLI_INT_FLAG_TE: transaction error interrupt flag
ARM GAS  /var/folders/_f/88qcw_5n2jl40jjphvxyt7wh0000gn/T//cctfNtoi.s 			page 31


 536:../../../support/device/gd32f4xx/peripherals/src/gd32f4xx_tli.c ****       \arg        TLI_INT_FLAG_LCR: layer configuration reloaded interrupt flag
 537:../../../support/device/gd32f4xx/peripherals/src/gd32f4xx_tli.c ****     \param[out] none
 538:../../../support/device/gd32f4xx/peripherals/src/gd32f4xx_tli.c ****     \retval     FlagStatus: SET or RESET
 539:../../../support/device/gd32f4xx/peripherals/src/gd32f4xx_tli.c **** */
 540:../../../support/device/gd32f4xx/peripherals/src/gd32f4xx_tli.c **** FlagStatus tli_interrupt_flag_get(uint32_t int_flag)
 541:../../../support/device/gd32f4xx/peripherals/src/gd32f4xx_tli.c **** {
 1149              		.loc 1 541 1 is_stmt 1 view -0
 1150              		.cfi_startproc
 1151              		@ args = 0, pretend = 0, frame = 0
 1152              		@ frame_needed = 0, uses_anonymous_args = 0
 1153              		@ link register save eliminated.
 542:../../../support/device/gd32f4xx/peripherals/src/gd32f4xx_tli.c ****     uint32_t state;
 1154              		.loc 1 542 5 view .LVU317
 543:../../../support/device/gd32f4xx/peripherals/src/gd32f4xx_tli.c ****     state = TLI_INTF;
 1155              		.loc 1 543 5 view .LVU318
 1156              		.loc 1 543 11 is_stmt 0 view .LVU319
 1157 0000 0649     		ldr	r1, .L64
 1158 0002 D1F83838 		ldr	r3, [r1, #2104]
 1159              	.LVL38:
 544:../../../support/device/gd32f4xx/peripherals/src/gd32f4xx_tli.c ****     if(state & int_flag) {
 1160              		.loc 1 544 5 is_stmt 1 view .LVU320
 541:../../../support/device/gd32f4xx/peripherals/src/gd32f4xx_tli.c ****     uint32_t state;
 1161              		.loc 1 541 1 is_stmt 0 view .LVU321
 1162 0006 0246     		mov	r2, r0
 1163              		.loc 1 544 7 view .LVU322
 1164 0008 1840     		ands	r0, r3, r0
 1165              	.LVL39:
 1166              		.loc 1 544 7 view .LVU323
 1167 000a 05D0     		beq	.L62
 545:../../../support/device/gd32f4xx/peripherals/src/gd32f4xx_tli.c ****         state = TLI_INTEN;
 1168              		.loc 1 545 9 is_stmt 1 view .LVU324
 1169              		.loc 1 545 15 is_stmt 0 view .LVU325
 1170 000c D1F83438 		ldr	r3, [r1, #2100]
 1171              	.LVL40:
 546:../../../support/device/gd32f4xx/peripherals/src/gd32f4xx_tli.c ****         if(state & int_flag) {
 1172              		.loc 1 546 9 is_stmt 1 view .LVU326
 1173              		.loc 1 546 11 is_stmt 0 view .LVU327
 1174 0010 1A42     		tst	r2, r3
 547:../../../support/device/gd32f4xx/peripherals/src/gd32f4xx_tli.c ****             return SET;
 1175              		.loc 1 547 20 view .LVU328
 1176 0012 14BF     		ite	ne
 1177 0014 0120     		movne	r0, #1
 1178 0016 0020     		moveq	r0, #0
 1179              	.L62:
 548:../../../support/device/gd32f4xx/peripherals/src/gd32f4xx_tli.c ****         }
 549:../../../support/device/gd32f4xx/peripherals/src/gd32f4xx_tli.c ****     }
 550:../../../support/device/gd32f4xx/peripherals/src/gd32f4xx_tli.c ****     return RESET;
 551:../../../support/device/gd32f4xx/peripherals/src/gd32f4xx_tli.c **** }
 1180              		.loc 1 551 1 view .LVU329
 1181 0018 7047     		bx	lr
 1182              	.L65:
 1183 001a 00BF     		.align	2
 1184              	.L64:
 1185 001c 00600140 		.word	1073831936
 1186              		.cfi_endproc
 1187              	.LFE139:
 1189              		.section	.text.tli_interrupt_flag_clear,"ax",%progbits
ARM GAS  /var/folders/_f/88qcw_5n2jl40jjphvxyt7wh0000gn/T//cctfNtoi.s 			page 32


 1190              		.align	1
 1191              		.p2align 2,,3
 1192              		.global	tli_interrupt_flag_clear
 1193              		.syntax unified
 1194              		.thumb
 1195              		.thumb_func
 1197              	tli_interrupt_flag_clear:
 1198              	.LVL41:
 1199              	.LFB140:
 552:../../../support/device/gd32f4xx/peripherals/src/gd32f4xx_tli.c **** 
 553:../../../support/device/gd32f4xx/peripherals/src/gd32f4xx_tli.c **** /*!
 554:../../../support/device/gd32f4xx/peripherals/src/gd32f4xx_tli.c ****     \brief    clear TLI interrupt flag
 555:../../../support/device/gd32f4xx/peripherals/src/gd32f4xx_tli.c ****     \param[in]  int_flag: TLI interrupt flags
 556:../../../support/device/gd32f4xx/peripherals/src/gd32f4xx_tli.c ****                 one or more parameters can be selected which are shown as below:
 557:../../../support/device/gd32f4xx/peripherals/src/gd32f4xx_tli.c ****       \arg        TLI_INT_FLAG_LM: line mark interrupt flag
 558:../../../support/device/gd32f4xx/peripherals/src/gd32f4xx_tli.c ****       \arg        TLI_INT_FLAG_FE: FIFO error interrupt flag
 559:../../../support/device/gd32f4xx/peripherals/src/gd32f4xx_tli.c ****       \arg        TLI_INT_FLAG_TE: transaction error interrupt flag
 560:../../../support/device/gd32f4xx/peripherals/src/gd32f4xx_tli.c ****       \arg        TLI_INT_FLAG_LCR: layer configuration reloaded interrupt flag
 561:../../../support/device/gd32f4xx/peripherals/src/gd32f4xx_tli.c ****     \param[out] none
 562:../../../support/device/gd32f4xx/peripherals/src/gd32f4xx_tli.c ****     \retval     none
 563:../../../support/device/gd32f4xx/peripherals/src/gd32f4xx_tli.c **** */
 564:../../../support/device/gd32f4xx/peripherals/src/gd32f4xx_tli.c **** void tli_interrupt_flag_clear(uint32_t int_flag)
 565:../../../support/device/gd32f4xx/peripherals/src/gd32f4xx_tli.c **** {
 1200              		.loc 1 565 1 is_stmt 1 view -0
 1201              		.cfi_startproc
 1202              		@ args = 0, pretend = 0, frame = 0
 1203              		@ frame_needed = 0, uses_anonymous_args = 0
 1204              		@ link register save eliminated.
 566:../../../support/device/gd32f4xx/peripherals/src/gd32f4xx_tli.c ****     TLI_INTC |= (int_flag);
 1205              		.loc 1 566 5 view .LVU331
 1206              		.loc 1 566 14 is_stmt 0 view .LVU332
 1207 0000 034A     		ldr	r2, .L67
 1208 0002 D2F83C38 		ldr	r3, [r2, #2108]
 1209 0006 0343     		orrs	r3, r3, r0
 1210 0008 C2F83C38 		str	r3, [r2, #2108]
 567:../../../support/device/gd32f4xx/peripherals/src/gd32f4xx_tli.c **** }
 1211              		.loc 1 567 1 view .LVU333
 1212 000c 7047     		bx	lr
 1213              	.L68:
 1214 000e 00BF     		.align	2
 1215              	.L67:
 1216 0010 00600140 		.word	1073831936
 1217              		.cfi_endproc
 1218              	.LFE140:
 1220              		.section	.text.tli_flag_get,"ax",%progbits
 1221              		.align	1
 1222              		.p2align 2,,3
 1223              		.global	tli_flag_get
 1224              		.syntax unified
 1225              		.thumb
 1226              		.thumb_func
 1228              	tli_flag_get:
 1229              	.LVL42:
 1230              	.LFB141:
 568:../../../support/device/gd32f4xx/peripherals/src/gd32f4xx_tli.c **** 
 569:../../../support/device/gd32f4xx/peripherals/src/gd32f4xx_tli.c **** /*!
 570:../../../support/device/gd32f4xx/peripherals/src/gd32f4xx_tli.c ****     \brief    get TLI flag or state in TLI_INTF register or TLI_STAT register
ARM GAS  /var/folders/_f/88qcw_5n2jl40jjphvxyt7wh0000gn/T//cctfNtoi.s 			page 33


 571:../../../support/device/gd32f4xx/peripherals/src/gd32f4xx_tli.c ****     \param[in]  flag: TLI flags or states
 572:../../../support/device/gd32f4xx/peripherals/src/gd32f4xx_tli.c ****                 only one parameter can be selected which is shown as below:
 573:../../../support/device/gd32f4xx/peripherals/src/gd32f4xx_tli.c ****       \arg        TLI_FLAG_VDE: current VDE state
 574:../../../support/device/gd32f4xx/peripherals/src/gd32f4xx_tli.c ****       \arg        TLI_FLAG_HDE: current HDE state
 575:../../../support/device/gd32f4xx/peripherals/src/gd32f4xx_tli.c ****       \arg        TLI_FLAG_VS: current VS status of the TLI
 576:../../../support/device/gd32f4xx/peripherals/src/gd32f4xx_tli.c ****       \arg        TLI_FLAG_HS: current HS status of the TLI
 577:../../../support/device/gd32f4xx/peripherals/src/gd32f4xx_tli.c ****       \arg        TLI_FLAG_LM: line mark interrupt flag
 578:../../../support/device/gd32f4xx/peripherals/src/gd32f4xx_tli.c ****       \arg        TLI_FLAG_FE: FIFO error interrupt flag
 579:../../../support/device/gd32f4xx/peripherals/src/gd32f4xx_tli.c ****       \arg        TLI_FLAG_TE: transaction error interrupt flag
 580:../../../support/device/gd32f4xx/peripherals/src/gd32f4xx_tli.c ****       \arg        TLI_FLAG_LCR: layer configuration reloaded interrupt flag
 581:../../../support/device/gd32f4xx/peripherals/src/gd32f4xx_tli.c ****     \param[out] none
 582:../../../support/device/gd32f4xx/peripherals/src/gd32f4xx_tli.c ****     \retval     FlagStatus: SET or RESET
 583:../../../support/device/gd32f4xx/peripherals/src/gd32f4xx_tli.c **** */
 584:../../../support/device/gd32f4xx/peripherals/src/gd32f4xx_tli.c **** FlagStatus tli_flag_get(uint32_t flag)
 585:../../../support/device/gd32f4xx/peripherals/src/gd32f4xx_tli.c **** {
 1231              		.loc 1 585 1 is_stmt 1 view -0
 1232              		.cfi_startproc
 1233              		@ args = 0, pretend = 0, frame = 0
 1234              		@ frame_needed = 0, uses_anonymous_args = 0
 1235              		@ link register save eliminated.
 586:../../../support/device/gd32f4xx/peripherals/src/gd32f4xx_tli.c ****     uint32_t stat;
 1236              		.loc 1 586 5 view .LVU335
 587:../../../support/device/gd32f4xx/peripherals/src/gd32f4xx_tli.c ****     /* choose which register to get flag or state */
 588:../../../support/device/gd32f4xx/peripherals/src/gd32f4xx_tli.c ****     if(flag >> 31U) {
 1237              		.loc 1 588 5 view .LVU336
 589:../../../support/device/gd32f4xx/peripherals/src/gd32f4xx_tli.c ****         stat = TLI_INTF;
 1238              		.loc 1 589 14 is_stmt 0 view .LVU337
 1239 0000 054B     		ldr	r3, .L72
 588:../../../support/device/gd32f4xx/peripherals/src/gd32f4xx_tli.c ****         stat = TLI_INTF;
 1240              		.loc 1 588 7 view .LVU338
 1241 0002 0028     		cmp	r0, #0
 1242              		.loc 1 589 9 is_stmt 1 view .LVU339
 1243              		.loc 1 589 14 is_stmt 0 view .LVU340
 1244 0004 B4BF     		ite	lt
 1245 0006 D3F83838 		ldrlt	r3, [r3, #2104]
 1246              	.LVL43:
 590:../../../support/device/gd32f4xx/peripherals/src/gd32f4xx_tli.c ****     } else {
 591:../../../support/device/gd32f4xx/peripherals/src/gd32f4xx_tli.c ****         stat = TLI_STAT;
 1247              		.loc 1 591 9 is_stmt 1 view .LVU341
 1248              		.loc 1 591 14 is_stmt 0 view .LVU342
 1249 000a D3F84838 		ldrge	r3, [r3, #2120]
 1250              	.LVL44:
 592:../../../support/device/gd32f4xx/peripherals/src/gd32f4xx_tli.c ****     }
 593:../../../support/device/gd32f4xx/peripherals/src/gd32f4xx_tli.c ****     if(flag & stat) {
 1251              		.loc 1 593 5 is_stmt 1 view .LVU343
 1252              		.loc 1 593 7 is_stmt 0 view .LVU344
 1253 000e 0342     		tst	r3, r0
 594:../../../support/device/gd32f4xx/peripherals/src/gd32f4xx_tli.c ****         return SET;
 595:../../../support/device/gd32f4xx/peripherals/src/gd32f4xx_tli.c ****     } else {
 596:../../../support/device/gd32f4xx/peripherals/src/gd32f4xx_tli.c ****         return RESET;
 597:../../../support/device/gd32f4xx/peripherals/src/gd32f4xx_tli.c ****     }
 598:../../../support/device/gd32f4xx/peripherals/src/gd32f4xx_tli.c **** }
 1254              		.loc 1 598 1 view .LVU345
 1255 0010 14BF     		ite	ne
 1256 0012 0120     		movne	r0, #1
 1257              	.LVL45:
 1258              		.loc 1 598 1 view .LVU346
ARM GAS  /var/folders/_f/88qcw_5n2jl40jjphvxyt7wh0000gn/T//cctfNtoi.s 			page 34


 1259 0014 0020     		moveq	r0, #0
 1260 0016 7047     		bx	lr
 1261              	.L73:
 1262              		.align	2
 1263              	.L72:
 1264 0018 00600140 		.word	1073831936
 1265              		.cfi_endproc
 1266              	.LFE141:
 1268              		.text
 1269              	.Letext0:
 1270              		.file 2 "/Applications/ARM/arm-none-eabi/include/machine/_default_types.h"
 1271              		.file 3 "/Applications/ARM/arm-none-eabi/include/sys/_stdint.h"
 1272              		.file 4 "../../../support/device/gd32f4xx/inc/gd32f4xx.h"
 1273              		.file 5 "../../../support/device/gd32f4xx/peripherals/inc/gd32f4xx_rcu.h"
 1274              		.file 6 "../../../support/device/gd32f4xx/peripherals/inc/gd32f4xx_tli.h"
ARM GAS  /var/folders/_f/88qcw_5n2jl40jjphvxyt7wh0000gn/T//cctfNtoi.s 			page 35

