ARM GAS  /var/folders/_f/88qcw_5n2jl40jjphvxyt7wh0000gn/T//ccHCIeWZ.s 			page 1


   1              		.cpu cortex-m4
   2              		.arch armv7e-m
   3              		.fpu softvfp
   4              		.eabi_attribute 20, 1
   5              		.eabi_attribute 21, 1
   6              		.eabi_attribute 23, 3
   7              		.eabi_attribute 24, 1
   8              		.eabi_attribute 25, 1
   9              		.eabi_attribute 26, 1
  10              		.eabi_attribute 30, 2
  11              		.eabi_attribute 34, 1
  12              		.eabi_attribute 18, 4
  13              		.file	"gd32f4xx_fwdgt.c"
  14              		.text
  15              	.Ltext0:
  16              		.cfi_sections	.debug_frame
  17              		.section	.text.fwdgt_write_enable,"ax",%progbits
  18              		.align	1
  19              		.p2align 2,,3
  20              		.global	fwdgt_write_enable
  21              		.syntax unified
  22              		.thumb
  23              		.thumb_func
  25              	fwdgt_write_enable:
  26              	.LFB116:
  27              		.file 1 "../../../support/device/gd32f4xx/peripherals/src/gd32f4xx_fwdgt.c"
   1:../../../support/device/gd32f4xx/peripherals/src/gd32f4xx_fwdgt.c **** /*!
   2:../../../support/device/gd32f4xx/peripherals/src/gd32f4xx_fwdgt.c ****     \file    gd32f4xx_fwdgt.c
   3:../../../support/device/gd32f4xx/peripherals/src/gd32f4xx_fwdgt.c ****     \brief   FWDGT driver
   4:../../../support/device/gd32f4xx/peripherals/src/gd32f4xx_fwdgt.c **** 
   5:../../../support/device/gd32f4xx/peripherals/src/gd32f4xx_fwdgt.c ****     \version 2016-08-15, V1.0.0, firmware for GD32F4xx
   6:../../../support/device/gd32f4xx/peripherals/src/gd32f4xx_fwdgt.c ****     \version 2018-12-12, V2.0.0, firmware for GD32F4xx
   7:../../../support/device/gd32f4xx/peripherals/src/gd32f4xx_fwdgt.c ****     \version 2020-09-30, V2.1.0, firmware for GD32F4xx
   8:../../../support/device/gd32f4xx/peripherals/src/gd32f4xx_fwdgt.c ****     \version 2022-03-09, V3.0.0, firmware for GD32F4xx
   9:../../../support/device/gd32f4xx/peripherals/src/gd32f4xx_fwdgt.c **** */
  10:../../../support/device/gd32f4xx/peripherals/src/gd32f4xx_fwdgt.c **** 
  11:../../../support/device/gd32f4xx/peripherals/src/gd32f4xx_fwdgt.c **** /*
  12:../../../support/device/gd32f4xx/peripherals/src/gd32f4xx_fwdgt.c ****     Copyright (c) 2022, GigaDevice Semiconductor Inc.
  13:../../../support/device/gd32f4xx/peripherals/src/gd32f4xx_fwdgt.c **** 
  14:../../../support/device/gd32f4xx/peripherals/src/gd32f4xx_fwdgt.c ****     Redistribution and use in source and binary forms, with or without modification, 
  15:../../../support/device/gd32f4xx/peripherals/src/gd32f4xx_fwdgt.c **** are permitted provided that the following conditions are met:
  16:../../../support/device/gd32f4xx/peripherals/src/gd32f4xx_fwdgt.c **** 
  17:../../../support/device/gd32f4xx/peripherals/src/gd32f4xx_fwdgt.c ****     1. Redistributions of source code must retain the above copyright notice, this 
  18:../../../support/device/gd32f4xx/peripherals/src/gd32f4xx_fwdgt.c ****        list of conditions and the following disclaimer.
  19:../../../support/device/gd32f4xx/peripherals/src/gd32f4xx_fwdgt.c ****     2. Redistributions in binary form must reproduce the above copyright notice, 
  20:../../../support/device/gd32f4xx/peripherals/src/gd32f4xx_fwdgt.c ****        this list of conditions and the following disclaimer in the documentation 
  21:../../../support/device/gd32f4xx/peripherals/src/gd32f4xx_fwdgt.c ****        and/or other materials provided with the distribution.
  22:../../../support/device/gd32f4xx/peripherals/src/gd32f4xx_fwdgt.c ****     3. Neither the name of the copyright holder nor the names of its contributors 
  23:../../../support/device/gd32f4xx/peripherals/src/gd32f4xx_fwdgt.c ****        may be used to endorse or promote products derived from this software without 
  24:../../../support/device/gd32f4xx/peripherals/src/gd32f4xx_fwdgt.c ****        specific prior written permission.
  25:../../../support/device/gd32f4xx/peripherals/src/gd32f4xx_fwdgt.c **** 
  26:../../../support/device/gd32f4xx/peripherals/src/gd32f4xx_fwdgt.c ****     THIS SOFTWARE IS PROVIDED BY THE COPYRIGHT HOLDERS AND CONTRIBUTORS "AS IS" 
  27:../../../support/device/gd32f4xx/peripherals/src/gd32f4xx_fwdgt.c **** AND ANY EXPRESS OR IMPLIED WARRANTIES, INCLUDING, BUT NOT LIMITED TO, THE IMPLIED 
  28:../../../support/device/gd32f4xx/peripherals/src/gd32f4xx_fwdgt.c **** WARRANTIES OF MERCHANTABILITY AND FITNESS FOR A PARTICULAR PURPOSE ARE DISCLAIMED. 
  29:../../../support/device/gd32f4xx/peripherals/src/gd32f4xx_fwdgt.c **** IN NO EVENT SHALL THE COPYRIGHT HOLDER OR CONTRIBUTORS BE LIABLE FOR ANY DIRECT, 
  30:../../../support/device/gd32f4xx/peripherals/src/gd32f4xx_fwdgt.c **** INDIRECT, INCIDENTAL, SPECIAL, EXEMPLARY, OR CONSEQUENTIAL DAMAGES (INCLUDING, BUT 
  31:../../../support/device/gd32f4xx/peripherals/src/gd32f4xx_fwdgt.c **** NOT LIMITED TO, PROCUREMENT OF SUBSTITUTE GOODS OR SERVICES; LOSS OF USE, DATA, OR 
ARM GAS  /var/folders/_f/88qcw_5n2jl40jjphvxyt7wh0000gn/T//ccHCIeWZ.s 			page 2


  32:../../../support/device/gd32f4xx/peripherals/src/gd32f4xx_fwdgt.c **** PROFITS; OR BUSINESS INTERRUPTION) HOWEVER CAUSED AND ON ANY THEORY OF LIABILITY, 
  33:../../../support/device/gd32f4xx/peripherals/src/gd32f4xx_fwdgt.c **** WHETHER IN CONTRACT, STRICT LIABILITY, OR TORT (INCLUDING NEGLIGENCE OR OTHERWISE) 
  34:../../../support/device/gd32f4xx/peripherals/src/gd32f4xx_fwdgt.c **** ARISING IN ANY WAY OUT OF THE USE OF THIS SOFTWARE, EVEN IF ADVISED OF THE POSSIBILITY 
  35:../../../support/device/gd32f4xx/peripherals/src/gd32f4xx_fwdgt.c **** OF SUCH DAMAGE.
  36:../../../support/device/gd32f4xx/peripherals/src/gd32f4xx_fwdgt.c **** */
  37:../../../support/device/gd32f4xx/peripherals/src/gd32f4xx_fwdgt.c **** 
  38:../../../support/device/gd32f4xx/peripherals/src/gd32f4xx_fwdgt.c **** #include "gd32f4xx_fwdgt.h"
  39:../../../support/device/gd32f4xx/peripherals/src/gd32f4xx_fwdgt.c **** 
  40:../../../support/device/gd32f4xx/peripherals/src/gd32f4xx_fwdgt.c **** /*!
  41:../../../support/device/gd32f4xx/peripherals/src/gd32f4xx_fwdgt.c ****     \brief    enable write access to FWDGT_PSC and FWDGT_RLD
  42:../../../support/device/gd32f4xx/peripherals/src/gd32f4xx_fwdgt.c ****     \param[in]  none
  43:../../../support/device/gd32f4xx/peripherals/src/gd32f4xx_fwdgt.c ****     \param[out] none
  44:../../../support/device/gd32f4xx/peripherals/src/gd32f4xx_fwdgt.c ****     \retval     none
  45:../../../support/device/gd32f4xx/peripherals/src/gd32f4xx_fwdgt.c **** */
  46:../../../support/device/gd32f4xx/peripherals/src/gd32f4xx_fwdgt.c **** void fwdgt_write_enable(void)
  47:../../../support/device/gd32f4xx/peripherals/src/gd32f4xx_fwdgt.c **** {
  28              		.loc 1 47 1 view -0
  29              		.cfi_startproc
  30              		@ args = 0, pretend = 0, frame = 0
  31              		@ frame_needed = 0, uses_anonymous_args = 0
  32              		@ link register save eliminated.
  48:../../../support/device/gd32f4xx/peripherals/src/gd32f4xx_fwdgt.c ****     FWDGT_CTL = FWDGT_WRITEACCESS_ENABLE;
  33              		.loc 1 48 5 view .LVU1
  34              		.loc 1 48 15 is_stmt 0 view .LVU2
  35 0000 024B     		ldr	r3, .L3
  36 0002 45F25552 		movw	r2, #21845
  37 0006 1A60     		str	r2, [r3]
  49:../../../support/device/gd32f4xx/peripherals/src/gd32f4xx_fwdgt.c **** }
  38              		.loc 1 49 1 view .LVU3
  39 0008 7047     		bx	lr
  40              	.L4:
  41 000a 00BF     		.align	2
  42              	.L3:
  43 000c 00300040 		.word	1073754112
  44              		.cfi_endproc
  45              	.LFE116:
  47              		.section	.text.fwdgt_write_disable,"ax",%progbits
  48              		.align	1
  49              		.p2align 2,,3
  50              		.global	fwdgt_write_disable
  51              		.syntax unified
  52              		.thumb
  53              		.thumb_func
  55              	fwdgt_write_disable:
  56              	.LFB117:
  50:../../../support/device/gd32f4xx/peripherals/src/gd32f4xx_fwdgt.c **** 
  51:../../../support/device/gd32f4xx/peripherals/src/gd32f4xx_fwdgt.c **** /*!
  52:../../../support/device/gd32f4xx/peripherals/src/gd32f4xx_fwdgt.c ****     \brief    disable write access to FWDGT_PSC and FWDGT_RLD
  53:../../../support/device/gd32f4xx/peripherals/src/gd32f4xx_fwdgt.c ****     \param[in]  none
  54:../../../support/device/gd32f4xx/peripherals/src/gd32f4xx_fwdgt.c ****     \param[out] none
  55:../../../support/device/gd32f4xx/peripherals/src/gd32f4xx_fwdgt.c ****     \retval     none
  56:../../../support/device/gd32f4xx/peripherals/src/gd32f4xx_fwdgt.c **** */
  57:../../../support/device/gd32f4xx/peripherals/src/gd32f4xx_fwdgt.c **** void fwdgt_write_disable(void)
  58:../../../support/device/gd32f4xx/peripherals/src/gd32f4xx_fwdgt.c **** {
  57              		.loc 1 58 1 is_stmt 1 view -0
  58              		.cfi_startproc
  59              		@ args = 0, pretend = 0, frame = 0
ARM GAS  /var/folders/_f/88qcw_5n2jl40jjphvxyt7wh0000gn/T//ccHCIeWZ.s 			page 3


  60              		@ frame_needed = 0, uses_anonymous_args = 0
  61              		@ link register save eliminated.
  59:../../../support/device/gd32f4xx/peripherals/src/gd32f4xx_fwdgt.c ****     FWDGT_CTL = FWDGT_WRITEACCESS_DISABLE;
  62              		.loc 1 59 5 view .LVU5
  63              		.loc 1 59 15 is_stmt 0 view .LVU6
  64 0000 014B     		ldr	r3, .L6
  65 0002 0022     		movs	r2, #0
  66 0004 1A60     		str	r2, [r3]
  60:../../../support/device/gd32f4xx/peripherals/src/gd32f4xx_fwdgt.c **** }
  67              		.loc 1 60 1 view .LVU7
  68 0006 7047     		bx	lr
  69              	.L7:
  70              		.align	2
  71              	.L6:
  72 0008 00300040 		.word	1073754112
  73              		.cfi_endproc
  74              	.LFE117:
  76              		.section	.text.fwdgt_enable,"ax",%progbits
  77              		.align	1
  78              		.p2align 2,,3
  79              		.global	fwdgt_enable
  80              		.syntax unified
  81              		.thumb
  82              		.thumb_func
  84              	fwdgt_enable:
  85              	.LFB118:
  61:../../../support/device/gd32f4xx/peripherals/src/gd32f4xx_fwdgt.c **** 
  62:../../../support/device/gd32f4xx/peripherals/src/gd32f4xx_fwdgt.c **** /*!
  63:../../../support/device/gd32f4xx/peripherals/src/gd32f4xx_fwdgt.c ****     \brief    start the free watchdog timer counter
  64:../../../support/device/gd32f4xx/peripherals/src/gd32f4xx_fwdgt.c ****     \param[in]  none
  65:../../../support/device/gd32f4xx/peripherals/src/gd32f4xx_fwdgt.c ****     \param[out] none
  66:../../../support/device/gd32f4xx/peripherals/src/gd32f4xx_fwdgt.c ****     \retval     none
  67:../../../support/device/gd32f4xx/peripherals/src/gd32f4xx_fwdgt.c **** */
  68:../../../support/device/gd32f4xx/peripherals/src/gd32f4xx_fwdgt.c **** void fwdgt_enable(void)
  69:../../../support/device/gd32f4xx/peripherals/src/gd32f4xx_fwdgt.c **** {
  86              		.loc 1 69 1 is_stmt 1 view -0
  87              		.cfi_startproc
  88              		@ args = 0, pretend = 0, frame = 0
  89              		@ frame_needed = 0, uses_anonymous_args = 0
  90              		@ link register save eliminated.
  70:../../../support/device/gd32f4xx/peripherals/src/gd32f4xx_fwdgt.c ****     FWDGT_CTL = FWDGT_KEY_ENABLE;
  91              		.loc 1 70 5 view .LVU9
  92              		.loc 1 70 15 is_stmt 0 view .LVU10
  93 0000 024B     		ldr	r3, .L9
  94 0002 4CF6CC42 		movw	r2, #52428
  95 0006 1A60     		str	r2, [r3]
  71:../../../support/device/gd32f4xx/peripherals/src/gd32f4xx_fwdgt.c **** }
  96              		.loc 1 71 1 view .LVU11
  97 0008 7047     		bx	lr
  98              	.L10:
  99 000a 00BF     		.align	2
 100              	.L9:
 101 000c 00300040 		.word	1073754112
 102              		.cfi_endproc
 103              	.LFE118:
 105              		.section	.text.fwdgt_prescaler_value_config,"ax",%progbits
 106              		.align	1
ARM GAS  /var/folders/_f/88qcw_5n2jl40jjphvxyt7wh0000gn/T//ccHCIeWZ.s 			page 4


 107              		.p2align 2,,3
 108              		.global	fwdgt_prescaler_value_config
 109              		.syntax unified
 110              		.thumb
 111              		.thumb_func
 113              	fwdgt_prescaler_value_config:
 114              	.LVL0:
 115              	.LFB119:
  72:../../../support/device/gd32f4xx/peripherals/src/gd32f4xx_fwdgt.c **** 
  73:../../../support/device/gd32f4xx/peripherals/src/gd32f4xx_fwdgt.c **** /*!
  74:../../../support/device/gd32f4xx/peripherals/src/gd32f4xx_fwdgt.c ****     \brief      configure the free watchdog timer counter prescaler value
  75:../../../support/device/gd32f4xx/peripherals/src/gd32f4xx_fwdgt.c ****     \param[in]  prescaler_value: specify prescaler value
  76:../../../support/device/gd32f4xx/peripherals/src/gd32f4xx_fwdgt.c ****                 only one parameter can be selected which is shown as below:
  77:../../../support/device/gd32f4xx/peripherals/src/gd32f4xx_fwdgt.c ****       \arg        FWDGT_PSC_DIV4: FWDGT prescaler set to 4
  78:../../../support/device/gd32f4xx/peripherals/src/gd32f4xx_fwdgt.c ****       \arg        FWDGT_PSC_DIV8: FWDGT prescaler set to 8
  79:../../../support/device/gd32f4xx/peripherals/src/gd32f4xx_fwdgt.c ****       \arg        FWDGT_PSC_DIV16: FWDGT prescaler set to 16
  80:../../../support/device/gd32f4xx/peripherals/src/gd32f4xx_fwdgt.c ****       \arg        FWDGT_PSC_DIV32: FWDGT prescaler set to 32
  81:../../../support/device/gd32f4xx/peripherals/src/gd32f4xx_fwdgt.c ****       \arg        FWDGT_PSC_DIV64: FWDGT prescaler set to 64
  82:../../../support/device/gd32f4xx/peripherals/src/gd32f4xx_fwdgt.c ****       \arg        FWDGT_PSC_DIV128: FWDGT prescaler set to 128
  83:../../../support/device/gd32f4xx/peripherals/src/gd32f4xx_fwdgt.c ****       \arg        FWDGT_PSC_DIV256: FWDGT prescaler set to 256
  84:../../../support/device/gd32f4xx/peripherals/src/gd32f4xx_fwdgt.c ****     \param[out] none
  85:../../../support/device/gd32f4xx/peripherals/src/gd32f4xx_fwdgt.c ****     \retval     ErrStatus: ERROR or SUCCESS
  86:../../../support/device/gd32f4xx/peripherals/src/gd32f4xx_fwdgt.c **** */
  87:../../../support/device/gd32f4xx/peripherals/src/gd32f4xx_fwdgt.c **** ErrStatus fwdgt_prescaler_value_config(uint16_t prescaler_value)
  88:../../../support/device/gd32f4xx/peripherals/src/gd32f4xx_fwdgt.c **** {
 116              		.loc 1 88 1 is_stmt 1 view -0
 117              		.cfi_startproc
 118              		@ args = 0, pretend = 0, frame = 0
 119              		@ frame_needed = 0, uses_anonymous_args = 0
 120              		@ link register save eliminated.
  89:../../../support/device/gd32f4xx/peripherals/src/gd32f4xx_fwdgt.c ****     uint32_t timeout = FWDGT_PSC_TIMEOUT;
 121              		.loc 1 89 5 view .LVU13
  90:../../../support/device/gd32f4xx/peripherals/src/gd32f4xx_fwdgt.c ****     uint32_t flag_status = RESET;
 122              		.loc 1 90 5 view .LVU14
  91:../../../support/device/gd32f4xx/peripherals/src/gd32f4xx_fwdgt.c ****   
  92:../../../support/device/gd32f4xx/peripherals/src/gd32f4xx_fwdgt.c ****     /* enable write access to FWDGT_PSC */
  93:../../../support/device/gd32f4xx/peripherals/src/gd32f4xx_fwdgt.c ****     FWDGT_CTL = FWDGT_WRITEACCESS_ENABLE;
 123              		.loc 1 93 5 view .LVU15
 124              		.loc 1 93 15 is_stmt 0 view .LVU16
 125 0000 0B49     		ldr	r1, .L20
  94:../../../support/device/gd32f4xx/peripherals/src/gd32f4xx_fwdgt.c ****   
  95:../../../support/device/gd32f4xx/peripherals/src/gd32f4xx_fwdgt.c ****     /* wait until the PUD flag to be reset */
  96:../../../support/device/gd32f4xx/peripherals/src/gd32f4xx_fwdgt.c ****     do{
  97:../../../support/device/gd32f4xx/peripherals/src/gd32f4xx_fwdgt.c ****         flag_status = FWDGT_STAT & FWDGT_STAT_PUD;
 126              		.loc 1 97 21 view .LVU17
 127 0002 0C4A     		ldr	r2, .L20+4
  93:../../../support/device/gd32f4xx/peripherals/src/gd32f4xx_fwdgt.c ****   
 128              		.loc 1 93 15 view .LVU18
 129 0004 45F25553 		movw	r3, #21845
  88:../../../support/device/gd32f4xx/peripherals/src/gd32f4xx_fwdgt.c ****     uint32_t timeout = FWDGT_PSC_TIMEOUT;
 130              		.loc 1 88 1 view .LVU19
 131 0008 10B4     		push	{r4}
 132              	.LCFI0:
 133              		.cfi_def_cfa_offset 4
 134              		.cfi_offset 4, -4
  93:../../../support/device/gd32f4xx/peripherals/src/gd32f4xx_fwdgt.c ****   
 135              		.loc 1 93 15 view .LVU20
ARM GAS  /var/folders/_f/88qcw_5n2jl40jjphvxyt7wh0000gn/T//ccHCIeWZ.s 			page 5


 136 000a 0B60     		str	r3, [r1]
  96:../../../support/device/gd32f4xx/peripherals/src/gd32f4xx_fwdgt.c ****         flag_status = FWDGT_STAT & FWDGT_STAT_PUD;
 137              		.loc 1 96 5 is_stmt 1 view .LVU21
 138              		.loc 1 97 9 view .LVU22
 139              		.loc 1 97 23 is_stmt 0 view .LVU23
 140 000c CB68     		ldr	r3, [r1, #12]
  88:../../../support/device/gd32f4xx/peripherals/src/gd32f4xx_fwdgt.c ****     uint32_t timeout = FWDGT_PSC_TIMEOUT;
 141              		.loc 1 88 1 view .LVU24
 142 000e 0446     		mov	r4, r0
 143              		.loc 1 97 21 view .LVU25
 144 0010 03F00103 		and	r3, r3, #1
 145              	.LVL1:
  98:../../../support/device/gd32f4xx/peripherals/src/gd32f4xx_fwdgt.c ****     }while((--timeout > 0U) && ((uint32_t)RESET != flag_status));
 146              		.loc 1 98 11 is_stmt 1 view .LVU26
 147              	.L12:
  96:../../../support/device/gd32f4xx/peripherals/src/gd32f4xx_fwdgt.c ****         flag_status = FWDGT_STAT & FWDGT_STAT_PUD;
 148              		.loc 1 96 5 discriminator 1 view .LVU27
  97:../../../support/device/gd32f4xx/peripherals/src/gd32f4xx_fwdgt.c ****     }while((--timeout > 0U) && ((uint32_t)RESET != flag_status));
 149              		.loc 1 97 9 discriminator 1 view .LVU28
 150              		.loc 1 98 29 is_stmt 0 discriminator 1 view .LVU29
 151 0014 33B1     		cbz	r3, .L15
  97:../../../support/device/gd32f4xx/peripherals/src/gd32f4xx_fwdgt.c ****     }while((--timeout > 0U) && ((uint32_t)RESET != flag_status));
 152              		.loc 1 97 23 discriminator 2 view .LVU30
 153 0016 CB68     		ldr	r3, [r1, #12]
 154              	.LVL2:
 155              		.loc 1 98 5 discriminator 2 view .LVU31
 156 0018 013A     		subs	r2, r2, #1
  97:../../../support/device/gd32f4xx/peripherals/src/gd32f4xx_fwdgt.c ****     }while((--timeout > 0U) && ((uint32_t)RESET != flag_status));
 157              		.loc 1 97 21 discriminator 2 view .LVU32
 158 001a 03F00103 		and	r3, r3, #1
 159              	.LVL3:
 160              		.loc 1 98 11 is_stmt 1 discriminator 2 view .LVU33
 161              		.loc 1 98 5 is_stmt 0 discriminator 2 view .LVU34
 162 001e F9D1     		bne	.L12
  99:../../../support/device/gd32f4xx/peripherals/src/gd32f4xx_fwdgt.c ****     
 100:../../../support/device/gd32f4xx/peripherals/src/gd32f4xx_fwdgt.c ****     if ((uint32_t)RESET != flag_status){
 163              		.loc 1 100 5 is_stmt 1 view .LVU35
 101:../../../support/device/gd32f4xx/peripherals/src/gd32f4xx_fwdgt.c ****         return ERROR;
 164              		.loc 1 101 16 is_stmt 0 view .LVU36
 165 0020 1046     		mov	r0, r2
 166              	.LVL4:
 100:../../../support/device/gd32f4xx/peripherals/src/gd32f4xx_fwdgt.c ****         return ERROR;
 167              		.loc 1 100 8 view .LVU37
 168 0022 13B9     		cbnz	r3, .L16
 169              	.L15:
 102:../../../support/device/gd32f4xx/peripherals/src/gd32f4xx_fwdgt.c ****     }
 103:../../../support/device/gd32f4xx/peripherals/src/gd32f4xx_fwdgt.c ****     
 104:../../../support/device/gd32f4xx/peripherals/src/gd32f4xx_fwdgt.c ****     /* configure FWDGT */
 105:../../../support/device/gd32f4xx/peripherals/src/gd32f4xx_fwdgt.c ****     FWDGT_PSC = (uint32_t)prescaler_value; 
 170              		.loc 1 105 5 is_stmt 1 view .LVU38
 171              		.loc 1 105 15 is_stmt 0 view .LVU39
 172 0024 024B     		ldr	r3, .L20
 173              	.LVL5:
 106:../../../support/device/gd32f4xx/peripherals/src/gd32f4xx_fwdgt.c **** 
 107:../../../support/device/gd32f4xx/peripherals/src/gd32f4xx_fwdgt.c ****     return SUCCESS;
 174              		.loc 1 107 12 view .LVU40
 175 0026 0120     		movs	r0, #1
ARM GAS  /var/folders/_f/88qcw_5n2jl40jjphvxyt7wh0000gn/T//ccHCIeWZ.s 			page 6


 105:../../../support/device/gd32f4xx/peripherals/src/gd32f4xx_fwdgt.c **** 
 176              		.loc 1 105 15 view .LVU41
 177 0028 5C60     		str	r4, [r3, #4]
 178              		.loc 1 107 5 is_stmt 1 view .LVU42
 179              	.L16:
 108:../../../support/device/gd32f4xx/peripherals/src/gd32f4xx_fwdgt.c **** }
 180              		.loc 1 108 1 is_stmt 0 view .LVU43
 181 002a 10BC     		pop	{r4}
 182              	.LCFI1:
 183              		.cfi_restore 4
 184              		.cfi_def_cfa_offset 0
 185 002c 7047     		bx	lr
 186              	.L21:
 187 002e 00BF     		.align	2
 188              	.L20:
 189 0030 00300040 		.word	1073754112
 190 0034 FEFF0F00 		.word	1048574
 191              		.cfi_endproc
 192              	.LFE119:
 194              		.section	.text.fwdgt_reload_value_config,"ax",%progbits
 195              		.align	1
 196              		.p2align 2,,3
 197              		.global	fwdgt_reload_value_config
 198              		.syntax unified
 199              		.thumb
 200              		.thumb_func
 202              	fwdgt_reload_value_config:
 203              	.LVL6:
 204              	.LFB120:
 109:../../../support/device/gd32f4xx/peripherals/src/gd32f4xx_fwdgt.c **** 
 110:../../../support/device/gd32f4xx/peripherals/src/gd32f4xx_fwdgt.c **** /*!
 111:../../../support/device/gd32f4xx/peripherals/src/gd32f4xx_fwdgt.c ****     \brief      configure the free watchdog timer counter reload value
 112:../../../support/device/gd32f4xx/peripherals/src/gd32f4xx_fwdgt.c ****     \param[in]  reload_value: specify reload value(0x0000 - 0x0FFF)
 113:../../../support/device/gd32f4xx/peripherals/src/gd32f4xx_fwdgt.c ****     \param[out] none
 114:../../../support/device/gd32f4xx/peripherals/src/gd32f4xx_fwdgt.c ****     \retval     ErrStatus: ERROR or SUCCESS
 115:../../../support/device/gd32f4xx/peripherals/src/gd32f4xx_fwdgt.c **** */
 116:../../../support/device/gd32f4xx/peripherals/src/gd32f4xx_fwdgt.c **** ErrStatus fwdgt_reload_value_config(uint16_t reload_value)
 117:../../../support/device/gd32f4xx/peripherals/src/gd32f4xx_fwdgt.c **** {
 205              		.loc 1 117 1 is_stmt 1 view -0
 206              		.cfi_startproc
 207              		@ args = 0, pretend = 0, frame = 0
 208              		@ frame_needed = 0, uses_anonymous_args = 0
 209              		@ link register save eliminated.
 118:../../../support/device/gd32f4xx/peripherals/src/gd32f4xx_fwdgt.c ****     uint32_t timeout = FWDGT_RLD_TIMEOUT;
 210              		.loc 1 118 5 view .LVU45
 119:../../../support/device/gd32f4xx/peripherals/src/gd32f4xx_fwdgt.c ****     uint32_t flag_status = RESET;
 211              		.loc 1 119 5 view .LVU46
 120:../../../support/device/gd32f4xx/peripherals/src/gd32f4xx_fwdgt.c ****   
 121:../../../support/device/gd32f4xx/peripherals/src/gd32f4xx_fwdgt.c ****     /* enable write access to FWDGT_RLD */
 122:../../../support/device/gd32f4xx/peripherals/src/gd32f4xx_fwdgt.c ****     FWDGT_CTL = FWDGT_WRITEACCESS_ENABLE;
 212              		.loc 1 122 5 view .LVU47
 213              		.loc 1 122 15 is_stmt 0 view .LVU48
 214 0000 0B49     		ldr	r1, .L30
 123:../../../support/device/gd32f4xx/peripherals/src/gd32f4xx_fwdgt.c ****   
 124:../../../support/device/gd32f4xx/peripherals/src/gd32f4xx_fwdgt.c ****     /* wait until the RUD flag to be reset */
 125:../../../support/device/gd32f4xx/peripherals/src/gd32f4xx_fwdgt.c ****     do{
 126:../../../support/device/gd32f4xx/peripherals/src/gd32f4xx_fwdgt.c ****         flag_status = FWDGT_STAT & FWDGT_STAT_RUD;
ARM GAS  /var/folders/_f/88qcw_5n2jl40jjphvxyt7wh0000gn/T//ccHCIeWZ.s 			page 7


 215              		.loc 1 126 21 view .LVU49
 216 0002 0C4A     		ldr	r2, .L30+4
 122:../../../support/device/gd32f4xx/peripherals/src/gd32f4xx_fwdgt.c ****   
 217              		.loc 1 122 15 view .LVU50
 218 0004 45F25553 		movw	r3, #21845
 219 0008 0B60     		str	r3, [r1]
 125:../../../support/device/gd32f4xx/peripherals/src/gd32f4xx_fwdgt.c ****         flag_status = FWDGT_STAT & FWDGT_STAT_RUD;
 220              		.loc 1 125 5 is_stmt 1 view .LVU51
 221              		.loc 1 126 9 view .LVU52
 222              		.loc 1 126 23 is_stmt 0 view .LVU53
 223 000a CB68     		ldr	r3, [r1, #12]
 224              		.loc 1 126 21 view .LVU54
 225 000c 03F00203 		and	r3, r3, #2
 226              	.LVL7:
 127:../../../support/device/gd32f4xx/peripherals/src/gd32f4xx_fwdgt.c ****     }while((--timeout > 0U) && ((uint32_t)RESET != flag_status));
 227              		.loc 1 127 11 is_stmt 1 view .LVU55
 228              	.L23:
 125:../../../support/device/gd32f4xx/peripherals/src/gd32f4xx_fwdgt.c ****         flag_status = FWDGT_STAT & FWDGT_STAT_RUD;
 229              		.loc 1 125 5 discriminator 1 view .LVU56
 126:../../../support/device/gd32f4xx/peripherals/src/gd32f4xx_fwdgt.c ****     }while((--timeout > 0U) && ((uint32_t)RESET != flag_status));
 230              		.loc 1 126 9 discriminator 1 view .LVU57
 231              		.loc 1 127 29 is_stmt 0 discriminator 1 view .LVU58
 232 0010 3BB1     		cbz	r3, .L26
 126:../../../support/device/gd32f4xx/peripherals/src/gd32f4xx_fwdgt.c ****     }while((--timeout > 0U) && ((uint32_t)RESET != flag_status));
 233              		.loc 1 126 23 discriminator 2 view .LVU59
 234 0012 CB68     		ldr	r3, [r1, #12]
 235              	.LVL8:
 236              		.loc 1 127 5 discriminator 2 view .LVU60
 237 0014 013A     		subs	r2, r2, #1
 126:../../../support/device/gd32f4xx/peripherals/src/gd32f4xx_fwdgt.c ****     }while((--timeout > 0U) && ((uint32_t)RESET != flag_status));
 238              		.loc 1 126 21 discriminator 2 view .LVU61
 239 0016 03F00203 		and	r3, r3, #2
 240              	.LVL9:
 241              		.loc 1 127 11 is_stmt 1 discriminator 2 view .LVU62
 242              		.loc 1 127 5 is_stmt 0 discriminator 2 view .LVU63
 243 001a F9D1     		bne	.L23
 128:../../../support/device/gd32f4xx/peripherals/src/gd32f4xx_fwdgt.c ****    
 129:../../../support/device/gd32f4xx/peripherals/src/gd32f4xx_fwdgt.c ****     if ((uint32_t)RESET != flag_status){
 244              		.loc 1 129 5 is_stmt 1 view .LVU64
 245              		.loc 1 129 8 is_stmt 0 view .LVU65
 246 001c 0BB1     		cbz	r3, .L26
 130:../../../support/device/gd32f4xx/peripherals/src/gd32f4xx_fwdgt.c ****         return ERROR;
 247              		.loc 1 130 16 view .LVU66
 248 001e 1046     		mov	r0, r2
 249              	.LVL10:
 131:../../../support/device/gd32f4xx/peripherals/src/gd32f4xx_fwdgt.c ****     }
 132:../../../support/device/gd32f4xx/peripherals/src/gd32f4xx_fwdgt.c ****     
 133:../../../support/device/gd32f4xx/peripherals/src/gd32f4xx_fwdgt.c ****     FWDGT_RLD = RLD_RLD(reload_value);
 134:../../../support/device/gd32f4xx/peripherals/src/gd32f4xx_fwdgt.c **** 
 135:../../../support/device/gd32f4xx/peripherals/src/gd32f4xx_fwdgt.c ****     return SUCCESS;
 136:../../../support/device/gd32f4xx/peripherals/src/gd32f4xx_fwdgt.c **** }
 250              		.loc 1 136 1 view .LVU67
 251 0020 7047     		bx	lr
 252              	.LVL11:
 253              	.L26:
 133:../../../support/device/gd32f4xx/peripherals/src/gd32f4xx_fwdgt.c **** 
 254              		.loc 1 133 5 is_stmt 1 view .LVU68
ARM GAS  /var/folders/_f/88qcw_5n2jl40jjphvxyt7wh0000gn/T//ccHCIeWZ.s 			page 8


 133:../../../support/device/gd32f4xx/peripherals/src/gd32f4xx_fwdgt.c **** 
 255              		.loc 1 133 15 is_stmt 0 view .LVU69
 256 0022 034B     		ldr	r3, .L30
 257              	.LVL12:
 133:../../../support/device/gd32f4xx/peripherals/src/gd32f4xx_fwdgt.c **** 
 258              		.loc 1 133 17 view .LVU70
 259 0024 C0F30B00 		ubfx	r0, r0, #0, #12
 260              	.LVL13:
 133:../../../support/device/gd32f4xx/peripherals/src/gd32f4xx_fwdgt.c **** 
 261              		.loc 1 133 15 view .LVU71
 262 0028 9860     		str	r0, [r3, #8]
 135:../../../support/device/gd32f4xx/peripherals/src/gd32f4xx_fwdgt.c **** }
 263              		.loc 1 135 5 is_stmt 1 view .LVU72
 135:../../../support/device/gd32f4xx/peripherals/src/gd32f4xx_fwdgt.c **** }
 264              		.loc 1 135 12 is_stmt 0 view .LVU73
 265 002a 0120     		movs	r0, #1
 266 002c 7047     		bx	lr
 267              	.L31:
 268 002e 00BF     		.align	2
 269              	.L30:
 270 0030 00300040 		.word	1073754112
 271 0034 FEFF0F00 		.word	1048574
 272              		.cfi_endproc
 273              	.LFE120:
 275              		.section	.text.fwdgt_counter_reload,"ax",%progbits
 276              		.align	1
 277              		.p2align 2,,3
 278              		.global	fwdgt_counter_reload
 279              		.syntax unified
 280              		.thumb
 281              		.thumb_func
 283              	fwdgt_counter_reload:
 284              	.LFB121:
 137:../../../support/device/gd32f4xx/peripherals/src/gd32f4xx_fwdgt.c **** 
 138:../../../support/device/gd32f4xx/peripherals/src/gd32f4xx_fwdgt.c **** /*!
 139:../../../support/device/gd32f4xx/peripherals/src/gd32f4xx_fwdgt.c ****     \brief    reload the counter of FWDGT
 140:../../../support/device/gd32f4xx/peripherals/src/gd32f4xx_fwdgt.c ****     \param[in]  none
 141:../../../support/device/gd32f4xx/peripherals/src/gd32f4xx_fwdgt.c ****     \param[out] none
 142:../../../support/device/gd32f4xx/peripherals/src/gd32f4xx_fwdgt.c ****     \retval     none
 143:../../../support/device/gd32f4xx/peripherals/src/gd32f4xx_fwdgt.c **** */
 144:../../../support/device/gd32f4xx/peripherals/src/gd32f4xx_fwdgt.c **** void fwdgt_counter_reload(void)
 145:../../../support/device/gd32f4xx/peripherals/src/gd32f4xx_fwdgt.c **** {
 285              		.loc 1 145 1 is_stmt 1 view -0
 286              		.cfi_startproc
 287              		@ args = 0, pretend = 0, frame = 0
 288              		@ frame_needed = 0, uses_anonymous_args = 0
 289              		@ link register save eliminated.
 146:../../../support/device/gd32f4xx/peripherals/src/gd32f4xx_fwdgt.c ****     FWDGT_CTL = FWDGT_KEY_RELOAD;
 290              		.loc 1 146 5 view .LVU75
 291              		.loc 1 146 15 is_stmt 0 view .LVU76
 292 0000 024B     		ldr	r3, .L33
 293 0002 4AF6AA22 		movw	r2, #43690
 294 0006 1A60     		str	r2, [r3]
 147:../../../support/device/gd32f4xx/peripherals/src/gd32f4xx_fwdgt.c **** }
 295              		.loc 1 147 1 view .LVU77
 296 0008 7047     		bx	lr
 297              	.L34:
ARM GAS  /var/folders/_f/88qcw_5n2jl40jjphvxyt7wh0000gn/T//ccHCIeWZ.s 			page 9


 298 000a 00BF     		.align	2
 299              	.L33:
 300 000c 00300040 		.word	1073754112
 301              		.cfi_endproc
 302              	.LFE121:
 304              		.section	.text.fwdgt_config,"ax",%progbits
 305              		.align	1
 306              		.p2align 2,,3
 307              		.global	fwdgt_config
 308              		.syntax unified
 309              		.thumb
 310              		.thumb_func
 312              	fwdgt_config:
 313              	.LVL14:
 314              	.LFB122:
 148:../../../support/device/gd32f4xx/peripherals/src/gd32f4xx_fwdgt.c **** 
 149:../../../support/device/gd32f4xx/peripherals/src/gd32f4xx_fwdgt.c **** /*!
 150:../../../support/device/gd32f4xx/peripherals/src/gd32f4xx_fwdgt.c ****     \brief    configure counter reload value, and prescaler divider value
 151:../../../support/device/gd32f4xx/peripherals/src/gd32f4xx_fwdgt.c ****     \param[in]  reload_value: specify reload value(0x0000 - 0x0FFF)
 152:../../../support/device/gd32f4xx/peripherals/src/gd32f4xx_fwdgt.c ****     \param[in]  prescaler_div: FWDGT prescaler value
 153:../../../support/device/gd32f4xx/peripherals/src/gd32f4xx_fwdgt.c ****                 only one parameter can be selected which is shown as below:
 154:../../../support/device/gd32f4xx/peripherals/src/gd32f4xx_fwdgt.c ****       \arg        FWDGT_PSC_DIV4: FWDGT prescaler set to 4
 155:../../../support/device/gd32f4xx/peripherals/src/gd32f4xx_fwdgt.c ****       \arg        FWDGT_PSC_DIV8: FWDGT prescaler set to 8
 156:../../../support/device/gd32f4xx/peripherals/src/gd32f4xx_fwdgt.c ****       \arg        FWDGT_PSC_DIV16: FWDGT prescaler set to 16
 157:../../../support/device/gd32f4xx/peripherals/src/gd32f4xx_fwdgt.c ****       \arg        FWDGT_PSC_DIV32: FWDGT prescaler set to 32
 158:../../../support/device/gd32f4xx/peripherals/src/gd32f4xx_fwdgt.c ****       \arg        FWDGT_PSC_DIV64: FWDGT prescaler set to 64
 159:../../../support/device/gd32f4xx/peripherals/src/gd32f4xx_fwdgt.c ****       \arg        FWDGT_PSC_DIV128: FWDGT prescaler set to 128
 160:../../../support/device/gd32f4xx/peripherals/src/gd32f4xx_fwdgt.c ****       \arg        FWDGT_PSC_DIV256: FWDGT prescaler set to 256
 161:../../../support/device/gd32f4xx/peripherals/src/gd32f4xx_fwdgt.c ****     \param[out] none
 162:../../../support/device/gd32f4xx/peripherals/src/gd32f4xx_fwdgt.c ****     \retval     ErrStatus: ERROR or SUCCESS
 163:../../../support/device/gd32f4xx/peripherals/src/gd32f4xx_fwdgt.c **** */
 164:../../../support/device/gd32f4xx/peripherals/src/gd32f4xx_fwdgt.c **** ErrStatus fwdgt_config(uint16_t reload_value, uint8_t prescaler_div)
 165:../../../support/device/gd32f4xx/peripherals/src/gd32f4xx_fwdgt.c **** {
 315              		.loc 1 165 1 is_stmt 1 view -0
 316              		.cfi_startproc
 317              		@ args = 0, pretend = 0, frame = 0
 318              		@ frame_needed = 0, uses_anonymous_args = 0
 319              		@ link register save eliminated.
 166:../../../support/device/gd32f4xx/peripherals/src/gd32f4xx_fwdgt.c ****     uint32_t timeout = FWDGT_PSC_TIMEOUT;
 320              		.loc 1 166 5 view .LVU79
 167:../../../support/device/gd32f4xx/peripherals/src/gd32f4xx_fwdgt.c ****     uint32_t flag_status = RESET;
 321              		.loc 1 167 5 view .LVU80
 168:../../../support/device/gd32f4xx/peripherals/src/gd32f4xx_fwdgt.c ****   
 169:../../../support/device/gd32f4xx/peripherals/src/gd32f4xx_fwdgt.c ****     /* enable write access to FWDGT_PSC,and FWDGT_RLD */
 170:../../../support/device/gd32f4xx/peripherals/src/gd32f4xx_fwdgt.c ****     FWDGT_CTL = FWDGT_WRITEACCESS_ENABLE;
 322              		.loc 1 170 5 view .LVU81
 165:../../../support/device/gd32f4xx/peripherals/src/gd32f4xx_fwdgt.c ****     uint32_t timeout = FWDGT_PSC_TIMEOUT;
 323              		.loc 1 165 1 is_stmt 0 view .LVU82
 324 0000 10B4     		push	{r4}
 325              	.LCFI2:
 326              		.cfi_def_cfa_offset 4
 327              		.cfi_offset 4, -4
 328              		.loc 1 170 15 view .LVU83
 329 0002 154C     		ldr	r4, .L52
 171:../../../support/device/gd32f4xx/peripherals/src/gd32f4xx_fwdgt.c ****   
 172:../../../support/device/gd32f4xx/peripherals/src/gd32f4xx_fwdgt.c ****     /* wait until the PUD flag to be reset */
 173:../../../support/device/gd32f4xx/peripherals/src/gd32f4xx_fwdgt.c ****     do{
ARM GAS  /var/folders/_f/88qcw_5n2jl40jjphvxyt7wh0000gn/T//ccHCIeWZ.s 			page 10


 174:../../../support/device/gd32f4xx/peripherals/src/gd32f4xx_fwdgt.c ****        flag_status = FWDGT_STAT & FWDGT_STAT_PUD;
 330              		.loc 1 174 20 view .LVU84
 331 0004 154A     		ldr	r2, .L52+4
 170:../../../support/device/gd32f4xx/peripherals/src/gd32f4xx_fwdgt.c ****   
 332              		.loc 1 170 15 view .LVU85
 333 0006 45F25553 		movw	r3, #21845
 334 000a 2360     		str	r3, [r4]
 173:../../../support/device/gd32f4xx/peripherals/src/gd32f4xx_fwdgt.c ****        flag_status = FWDGT_STAT & FWDGT_STAT_PUD;
 335              		.loc 1 173 5 is_stmt 1 view .LVU86
 336              		.loc 1 174 8 view .LVU87
 337              		.loc 1 174 22 is_stmt 0 view .LVU88
 338 000c E368     		ldr	r3, [r4, #12]
 339              		.loc 1 174 20 view .LVU89
 340 000e 03F00103 		and	r3, r3, #1
 341              	.LVL15:
 175:../../../support/device/gd32f4xx/peripherals/src/gd32f4xx_fwdgt.c ****     }while((--timeout > 0U) && ((uint32_t)RESET != flag_status));
 342              		.loc 1 175 11 is_stmt 1 view .LVU90
 343              	.L36:
 173:../../../support/device/gd32f4xx/peripherals/src/gd32f4xx_fwdgt.c ****        flag_status = FWDGT_STAT & FWDGT_STAT_PUD;
 344              		.loc 1 173 5 discriminator 1 view .LVU91
 174:../../../support/device/gd32f4xx/peripherals/src/gd32f4xx_fwdgt.c ****     }while((--timeout > 0U) && ((uint32_t)RESET != flag_status));
 345              		.loc 1 174 8 discriminator 1 view .LVU92
 346              		.loc 1 175 29 is_stmt 0 discriminator 1 view .LVU93
 347 0012 43B1     		cbz	r3, .L39
 174:../../../support/device/gd32f4xx/peripherals/src/gd32f4xx_fwdgt.c ****     }while((--timeout > 0U) && ((uint32_t)RESET != flag_status));
 348              		.loc 1 174 22 discriminator 2 view .LVU94
 349 0014 E368     		ldr	r3, [r4, #12]
 350              	.LVL16:
 351              		.loc 1 175 5 discriminator 2 view .LVU95
 352 0016 013A     		subs	r2, r2, #1
 174:../../../support/device/gd32f4xx/peripherals/src/gd32f4xx_fwdgt.c ****     }while((--timeout > 0U) && ((uint32_t)RESET != flag_status));
 353              		.loc 1 174 20 discriminator 2 view .LVU96
 354 0018 03F00103 		and	r3, r3, #1
 355              	.LVL17:
 356              		.loc 1 175 11 is_stmt 1 discriminator 2 view .LVU97
 357              		.loc 1 175 5 is_stmt 0 discriminator 2 view .LVU98
 358 001c F9D1     		bne	.L36
 176:../../../support/device/gd32f4xx/peripherals/src/gd32f4xx_fwdgt.c ****     
 177:../../../support/device/gd32f4xx/peripherals/src/gd32f4xx_fwdgt.c ****     if ((uint32_t)RESET != flag_status){
 359              		.loc 1 177 5 is_stmt 1 view .LVU99
 360              		.loc 1 177 8 is_stmt 0 view .LVU100
 361 001e 13B1     		cbz	r3, .L39
 362              	.L45:
 178:../../../support/device/gd32f4xx/peripherals/src/gd32f4xx_fwdgt.c ****         return ERROR;
 363              		.loc 1 178 16 view .LVU101
 364 0020 0020     		movs	r0, #0
 365              	.LVL18:
 179:../../../support/device/gd32f4xx/peripherals/src/gd32f4xx_fwdgt.c ****     }
 180:../../../support/device/gd32f4xx/peripherals/src/gd32f4xx_fwdgt.c **** 
 181:../../../support/device/gd32f4xx/peripherals/src/gd32f4xx_fwdgt.c ****     /* configure FWDGT */
 182:../../../support/device/gd32f4xx/peripherals/src/gd32f4xx_fwdgt.c ****     FWDGT_PSC = (uint32_t)prescaler_div;
 183:../../../support/device/gd32f4xx/peripherals/src/gd32f4xx_fwdgt.c **** 
 184:../../../support/device/gd32f4xx/peripherals/src/gd32f4xx_fwdgt.c ****     timeout = FWDGT_RLD_TIMEOUT;
 185:../../../support/device/gd32f4xx/peripherals/src/gd32f4xx_fwdgt.c ****     /* wait until the RUD flag to be reset */
 186:../../../support/device/gd32f4xx/peripherals/src/gd32f4xx_fwdgt.c ****     do{
 187:../../../support/device/gd32f4xx/peripherals/src/gd32f4xx_fwdgt.c ****        flag_status = FWDGT_STAT & FWDGT_STAT_RUD;
 188:../../../support/device/gd32f4xx/peripherals/src/gd32f4xx_fwdgt.c ****     }while((--timeout > 0U) && ((uint32_t)RESET != flag_status));
ARM GAS  /var/folders/_f/88qcw_5n2jl40jjphvxyt7wh0000gn/T//ccHCIeWZ.s 			page 11


 189:../../../support/device/gd32f4xx/peripherals/src/gd32f4xx_fwdgt.c ****    
 190:../../../support/device/gd32f4xx/peripherals/src/gd32f4xx_fwdgt.c ****     if ((uint32_t)RESET != flag_status){
 191:../../../support/device/gd32f4xx/peripherals/src/gd32f4xx_fwdgt.c ****         return ERROR;
 192:../../../support/device/gd32f4xx/peripherals/src/gd32f4xx_fwdgt.c ****     }
 193:../../../support/device/gd32f4xx/peripherals/src/gd32f4xx_fwdgt.c ****     
 194:../../../support/device/gd32f4xx/peripherals/src/gd32f4xx_fwdgt.c ****     FWDGT_RLD = RLD_RLD(reload_value);
 195:../../../support/device/gd32f4xx/peripherals/src/gd32f4xx_fwdgt.c ****     
 196:../../../support/device/gd32f4xx/peripherals/src/gd32f4xx_fwdgt.c ****     /* reload the counter */
 197:../../../support/device/gd32f4xx/peripherals/src/gd32f4xx_fwdgt.c ****     FWDGT_CTL = FWDGT_KEY_RELOAD;
 198:../../../support/device/gd32f4xx/peripherals/src/gd32f4xx_fwdgt.c **** 
 199:../../../support/device/gd32f4xx/peripherals/src/gd32f4xx_fwdgt.c ****     return SUCCESS;
 200:../../../support/device/gd32f4xx/peripherals/src/gd32f4xx_fwdgt.c **** }
 366              		.loc 1 200 1 view .LVU102
 367 0022 10BC     		pop	{r4}
 368              	.LCFI3:
 369              		.cfi_remember_state
 370              		.cfi_restore 4
 371              		.cfi_def_cfa_offset 0
 372 0024 7047     		bx	lr
 373              	.LVL19:
 374              	.L39:
 375              	.LCFI4:
 376              		.cfi_restore_state
 182:../../../support/device/gd32f4xx/peripherals/src/gd32f4xx_fwdgt.c **** 
 377              		.loc 1 182 5 is_stmt 1 view .LVU103
 182:../../../support/device/gd32f4xx/peripherals/src/gd32f4xx_fwdgt.c **** 
 378              		.loc 1 182 15 is_stmt 0 view .LVU104
 379 0026 0C4C     		ldr	r4, .L52
 187:../../../support/device/gd32f4xx/peripherals/src/gd32f4xx_fwdgt.c ****     }while((--timeout > 0U) && ((uint32_t)RESET != flag_status));
 380              		.loc 1 187 20 view .LVU105
 381 0028 0C4A     		ldr	r2, .L52+4
 182:../../../support/device/gd32f4xx/peripherals/src/gd32f4xx_fwdgt.c **** 
 382              		.loc 1 182 15 view .LVU106
 383 002a 6160     		str	r1, [r4, #4]
 184:../../../support/device/gd32f4xx/peripherals/src/gd32f4xx_fwdgt.c ****     /* wait until the RUD flag to be reset */
 384              		.loc 1 184 5 is_stmt 1 view .LVU107
 385              	.LVL20:
 186:../../../support/device/gd32f4xx/peripherals/src/gd32f4xx_fwdgt.c ****        flag_status = FWDGT_STAT & FWDGT_STAT_RUD;
 386              		.loc 1 186 5 view .LVU108
 187:../../../support/device/gd32f4xx/peripherals/src/gd32f4xx_fwdgt.c ****     }while((--timeout > 0U) && ((uint32_t)RESET != flag_status));
 387              		.loc 1 187 8 view .LVU109
 187:../../../support/device/gd32f4xx/peripherals/src/gd32f4xx_fwdgt.c ****     }while((--timeout > 0U) && ((uint32_t)RESET != flag_status));
 388              		.loc 1 187 22 is_stmt 0 view .LVU110
 389 002c E368     		ldr	r3, [r4, #12]
 390              	.LVL21:
 187:../../../support/device/gd32f4xx/peripherals/src/gd32f4xx_fwdgt.c ****     }while((--timeout > 0U) && ((uint32_t)RESET != flag_status));
 391              		.loc 1 187 20 view .LVU111
 392 002e 03F00203 		and	r3, r3, #2
 393              	.LVL22:
 188:../../../support/device/gd32f4xx/peripherals/src/gd32f4xx_fwdgt.c ****    
 394              		.loc 1 188 11 is_stmt 1 view .LVU112
 395              	.L41:
 186:../../../support/device/gd32f4xx/peripherals/src/gd32f4xx_fwdgt.c ****        flag_status = FWDGT_STAT & FWDGT_STAT_RUD;
 396              		.loc 1 186 5 discriminator 1 view .LVU113
 187:../../../support/device/gd32f4xx/peripherals/src/gd32f4xx_fwdgt.c ****     }while((--timeout > 0U) && ((uint32_t)RESET != flag_status));
 397              		.loc 1 187 8 discriminator 1 view .LVU114
 188:../../../support/device/gd32f4xx/peripherals/src/gd32f4xx_fwdgt.c ****    
ARM GAS  /var/folders/_f/88qcw_5n2jl40jjphvxyt7wh0000gn/T//ccHCIeWZ.s 			page 12


 398              		.loc 1 188 29 is_stmt 0 discriminator 1 view .LVU115
 399 0032 33B1     		cbz	r3, .L44
 187:../../../support/device/gd32f4xx/peripherals/src/gd32f4xx_fwdgt.c ****     }while((--timeout > 0U) && ((uint32_t)RESET != flag_status));
 400              		.loc 1 187 22 discriminator 2 view .LVU116
 401 0034 E368     		ldr	r3, [r4, #12]
 402              	.LVL23:
 188:../../../support/device/gd32f4xx/peripherals/src/gd32f4xx_fwdgt.c ****    
 403              		.loc 1 188 5 discriminator 2 view .LVU117
 404 0036 013A     		subs	r2, r2, #1
 187:../../../support/device/gd32f4xx/peripherals/src/gd32f4xx_fwdgt.c ****     }while((--timeout > 0U) && ((uint32_t)RESET != flag_status));
 405              		.loc 1 187 20 discriminator 2 view .LVU118
 406 0038 03F00203 		and	r3, r3, #2
 407              	.LVL24:
 188:../../../support/device/gd32f4xx/peripherals/src/gd32f4xx_fwdgt.c ****    
 408              		.loc 1 188 11 is_stmt 1 discriminator 2 view .LVU119
 188:../../../support/device/gd32f4xx/peripherals/src/gd32f4xx_fwdgt.c ****    
 409              		.loc 1 188 5 is_stmt 0 discriminator 2 view .LVU120
 410 003c F9D1     		bne	.L41
 190:../../../support/device/gd32f4xx/peripherals/src/gd32f4xx_fwdgt.c ****         return ERROR;
 411              		.loc 1 190 5 is_stmt 1 view .LVU121
 190:../../../support/device/gd32f4xx/peripherals/src/gd32f4xx_fwdgt.c ****         return ERROR;
 412              		.loc 1 190 8 is_stmt 0 view .LVU122
 413 003e 002B     		cmp	r3, #0
 414 0040 EED1     		bne	.L45
 415              	.L44:
 194:../../../support/device/gd32f4xx/peripherals/src/gd32f4xx_fwdgt.c ****     
 416              		.loc 1 194 5 is_stmt 1 view .LVU123
 194:../../../support/device/gd32f4xx/peripherals/src/gd32f4xx_fwdgt.c ****     
 417              		.loc 1 194 15 is_stmt 0 view .LVU124
 418 0042 054B     		ldr	r3, .L52
 419              	.LVL25:
 420              		.loc 1 200 1 view .LVU125
 421 0044 10BC     		pop	{r4}
 422              	.LCFI5:
 423              		.cfi_restore 4
 424              		.cfi_def_cfa_offset 0
 194:../../../support/device/gd32f4xx/peripherals/src/gd32f4xx_fwdgt.c ****     
 425              		.loc 1 194 17 view .LVU126
 426 0046 C0F30B00 		ubfx	r0, r0, #0, #12
 427              	.LVL26:
 197:../../../support/device/gd32f4xx/peripherals/src/gd32f4xx_fwdgt.c **** 
 428              		.loc 1 197 15 view .LVU127
 429 004a 4AF6AA22 		movw	r2, #43690
 194:../../../support/device/gd32f4xx/peripherals/src/gd32f4xx_fwdgt.c ****     
 430              		.loc 1 194 15 view .LVU128
 431 004e 9860     		str	r0, [r3, #8]
 197:../../../support/device/gd32f4xx/peripherals/src/gd32f4xx_fwdgt.c **** 
 432              		.loc 1 197 5 is_stmt 1 view .LVU129
 199:../../../support/device/gd32f4xx/peripherals/src/gd32f4xx_fwdgt.c **** }
 433              		.loc 1 199 12 is_stmt 0 view .LVU130
 434 0050 0120     		movs	r0, #1
 197:../../../support/device/gd32f4xx/peripherals/src/gd32f4xx_fwdgt.c **** 
 435              		.loc 1 197 15 view .LVU131
 436 0052 1A60     		str	r2, [r3]
 199:../../../support/device/gd32f4xx/peripherals/src/gd32f4xx_fwdgt.c **** }
 437              		.loc 1 199 5 is_stmt 1 view .LVU132
 438              		.loc 1 200 1 is_stmt 0 view .LVU133
ARM GAS  /var/folders/_f/88qcw_5n2jl40jjphvxyt7wh0000gn/T//ccHCIeWZ.s 			page 13


 439 0054 7047     		bx	lr
 440              	.L53:
 441 0056 00BF     		.align	2
 442              	.L52:
 443 0058 00300040 		.word	1073754112
 444 005c FEFF0F00 		.word	1048574
 445              		.cfi_endproc
 446              	.LFE122:
 448              		.section	.text.fwdgt_flag_get,"ax",%progbits
 449              		.align	1
 450              		.p2align 2,,3
 451              		.global	fwdgt_flag_get
 452              		.syntax unified
 453              		.thumb
 454              		.thumb_func
 456              	fwdgt_flag_get:
 457              	.LVL27:
 458              	.LFB123:
 201:../../../support/device/gd32f4xx/peripherals/src/gd32f4xx_fwdgt.c **** 
 202:../../../support/device/gd32f4xx/peripherals/src/gd32f4xx_fwdgt.c **** /*!
 203:../../../support/device/gd32f4xx/peripherals/src/gd32f4xx_fwdgt.c ****     \brief    get flag state of FWDGT
 204:../../../support/device/gd32f4xx/peripherals/src/gd32f4xx_fwdgt.c ****     \param[in]  flag: flag to get 
 205:../../../support/device/gd32f4xx/peripherals/src/gd32f4xx_fwdgt.c ****                 only one parameter can be selected which is shown as below:
 206:../../../support/device/gd32f4xx/peripherals/src/gd32f4xx_fwdgt.c ****       \arg        FWDGT_STAT_PUD: a write operation to FWDGT_PSC register is on going
 207:../../../support/device/gd32f4xx/peripherals/src/gd32f4xx_fwdgt.c ****       \arg        FWDGT_STAT_RUD: a write operation to FWDGT_RLD register is on going
 208:../../../support/device/gd32f4xx/peripherals/src/gd32f4xx_fwdgt.c ****     \param[out] none
 209:../../../support/device/gd32f4xx/peripherals/src/gd32f4xx_fwdgt.c ****     \retval     FlagStatus: SET or RESET
 210:../../../support/device/gd32f4xx/peripherals/src/gd32f4xx_fwdgt.c **** */
 211:../../../support/device/gd32f4xx/peripherals/src/gd32f4xx_fwdgt.c **** FlagStatus fwdgt_flag_get(uint16_t flag)
 212:../../../support/device/gd32f4xx/peripherals/src/gd32f4xx_fwdgt.c **** {
 459              		.loc 1 212 1 is_stmt 1 view -0
 460              		.cfi_startproc
 461              		@ args = 0, pretend = 0, frame = 0
 462              		@ frame_needed = 0, uses_anonymous_args = 0
 463              		@ link register save eliminated.
 213:../../../support/device/gd32f4xx/peripherals/src/gd32f4xx_fwdgt.c ****     if(RESET != (FWDGT_STAT & flag)){
 464              		.loc 1 213 5 view .LVU135
 465              		.loc 1 213 18 is_stmt 0 view .LVU136
 466 0000 034B     		ldr	r3, .L55
 467 0002 DB68     		ldr	r3, [r3, #12]
 468              		.loc 1 213 7 view .LVU137
 469 0004 1842     		tst	r0, r3
 214:../../../support/device/gd32f4xx/peripherals/src/gd32f4xx_fwdgt.c ****         return SET;
 215:../../../support/device/gd32f4xx/peripherals/src/gd32f4xx_fwdgt.c ****   }
 216:../../../support/device/gd32f4xx/peripherals/src/gd32f4xx_fwdgt.c **** 
 217:../../../support/device/gd32f4xx/peripherals/src/gd32f4xx_fwdgt.c ****     return RESET;
 218:../../../support/device/gd32f4xx/peripherals/src/gd32f4xx_fwdgt.c **** }
 470              		.loc 1 218 1 view .LVU138
 471 0006 14BF     		ite	ne
 472 0008 0120     		movne	r0, #1
 473              	.LVL28:
 474              		.loc 1 218 1 view .LVU139
 475 000a 0020     		moveq	r0, #0
 476 000c 7047     		bx	lr
 477              	.L56:
 478 000e 00BF     		.align	2
 479              	.L55:
ARM GAS  /var/folders/_f/88qcw_5n2jl40jjphvxyt7wh0000gn/T//ccHCIeWZ.s 			page 14


 480 0010 00300040 		.word	1073754112
 481              		.cfi_endproc
 482              	.LFE123:
 484              		.text
 485              	.Letext0:
 486              		.file 2 "/Applications/ARM/arm-none-eabi/include/machine/_default_types.h"
 487              		.file 3 "/Applications/ARM/arm-none-eabi/include/sys/_stdint.h"
 488              		.file 4 "../../../support/device/gd32f4xx/inc/gd32f4xx.h"
ARM GAS  /var/folders/_f/88qcw_5n2jl40jjphvxyt7wh0000gn/T//ccHCIeWZ.s 			page 15

