ARM GAS  /var/folders/_f/88qcw_5n2jl40jjphvxyt7wh0000gn/T//ccTBtSfs.s 			page 1


   1              		.cpu cortex-m4
   2              		.arch armv7e-m
   3              		.fpu softvfp
   4              		.eabi_attribute 20, 1
   5              		.eabi_attribute 21, 1
   6              		.eabi_attribute 23, 3
   7              		.eabi_attribute 24, 1
   8              		.eabi_attribute 25, 1
   9              		.eabi_attribute 26, 1
  10              		.eabi_attribute 30, 2
  11              		.eabi_attribute 34, 1
  12              		.eabi_attribute 18, 4
  13              		.file	"gd32f4xx_fmc.c"
  14              		.text
  15              	.Ltext0:
  16              		.cfi_sections	.debug_frame
  17              		.section	.text.fmc_wscnt_set,"ax",%progbits
  18              		.align	1
  19              		.p2align 2,,3
  20              		.global	fmc_wscnt_set
  21              		.syntax unified
  22              		.thumb
  23              		.thumb_func
  25              	fmc_wscnt_set:
  26              	.LVL0:
  27              	.LFB116:
  28              		.file 1 "../../../support/device/gd32f4xx/peripherals/src/gd32f4xx_fmc.c"
   1:../../../support/device/gd32f4xx/peripherals/src/gd32f4xx_fmc.c **** /*!
   2:../../../support/device/gd32f4xx/peripherals/src/gd32f4xx_fmc.c ****     \file    gd32f4xx_fmc.c
   3:../../../support/device/gd32f4xx/peripherals/src/gd32f4xx_fmc.c ****     \brief   FMC driver
   4:../../../support/device/gd32f4xx/peripherals/src/gd32f4xx_fmc.c **** 
   5:../../../support/device/gd32f4xx/peripherals/src/gd32f4xx_fmc.c ****     \version 2016-08-15, V1.0.0, firmware for GD32F4xx
   6:../../../support/device/gd32f4xx/peripherals/src/gd32f4xx_fmc.c ****     \version 2018-12-12, V2.0.0, firmware for GD32F4xx
   7:../../../support/device/gd32f4xx/peripherals/src/gd32f4xx_fmc.c ****     \version 2020-09-30, V2.1.0, firmware for GD32F4xx
   8:../../../support/device/gd32f4xx/peripherals/src/gd32f4xx_fmc.c ****     \version 2022-03-09, V3.0.0, firmware for GD32F4xx
   9:../../../support/device/gd32f4xx/peripherals/src/gd32f4xx_fmc.c **** */
  10:../../../support/device/gd32f4xx/peripherals/src/gd32f4xx_fmc.c **** 
  11:../../../support/device/gd32f4xx/peripherals/src/gd32f4xx_fmc.c **** /*
  12:../../../support/device/gd32f4xx/peripherals/src/gd32f4xx_fmc.c ****     Copyright (c) 2022, GigaDevice Semiconductor Inc.
  13:../../../support/device/gd32f4xx/peripherals/src/gd32f4xx_fmc.c **** 
  14:../../../support/device/gd32f4xx/peripherals/src/gd32f4xx_fmc.c ****     Redistribution and use in source and binary forms, with or without modification,
  15:../../../support/device/gd32f4xx/peripherals/src/gd32f4xx_fmc.c **** are permitted provided that the following conditions are met:
  16:../../../support/device/gd32f4xx/peripherals/src/gd32f4xx_fmc.c **** 
  17:../../../support/device/gd32f4xx/peripherals/src/gd32f4xx_fmc.c ****     1. Redistributions of source code must retain the above copyright notice, this
  18:../../../support/device/gd32f4xx/peripherals/src/gd32f4xx_fmc.c ****        list of conditions and the following disclaimer.
  19:../../../support/device/gd32f4xx/peripherals/src/gd32f4xx_fmc.c ****     2. Redistributions in binary form must reproduce the above copyright notice,
  20:../../../support/device/gd32f4xx/peripherals/src/gd32f4xx_fmc.c ****        this list of conditions and the following disclaimer in the documentation
  21:../../../support/device/gd32f4xx/peripherals/src/gd32f4xx_fmc.c ****        and/or other materials provided with the distribution.
  22:../../../support/device/gd32f4xx/peripherals/src/gd32f4xx_fmc.c ****     3. Neither the name of the copyright holder nor the names of its contributors
  23:../../../support/device/gd32f4xx/peripherals/src/gd32f4xx_fmc.c ****        may be used to endorse or promote products derived from this software without
  24:../../../support/device/gd32f4xx/peripherals/src/gd32f4xx_fmc.c ****        specific prior written permission.
  25:../../../support/device/gd32f4xx/peripherals/src/gd32f4xx_fmc.c **** 
  26:../../../support/device/gd32f4xx/peripherals/src/gd32f4xx_fmc.c ****     THIS SOFTWARE IS PROVIDED BY THE COPYRIGHT HOLDERS AND CONTRIBUTORS "AS IS"
  27:../../../support/device/gd32f4xx/peripherals/src/gd32f4xx_fmc.c **** AND ANY EXPRESS OR IMPLIED WARRANTIES, INCLUDING, BUT NOT LIMITED TO, THE IMPLIED
  28:../../../support/device/gd32f4xx/peripherals/src/gd32f4xx_fmc.c **** WARRANTIES OF MERCHANTABILITY AND FITNESS FOR A PARTICULAR PURPOSE ARE DISCLAIMED.
  29:../../../support/device/gd32f4xx/peripherals/src/gd32f4xx_fmc.c **** IN NO EVENT SHALL THE COPYRIGHT HOLDER OR CONTRIBUTORS BE LIABLE FOR ANY DIRECT,
  30:../../../support/device/gd32f4xx/peripherals/src/gd32f4xx_fmc.c **** INDIRECT, INCIDENTAL, SPECIAL, EXEMPLARY, OR CONSEQUENTIAL DAMAGES (INCLUDING, BUT
ARM GAS  /var/folders/_f/88qcw_5n2jl40jjphvxyt7wh0000gn/T//ccTBtSfs.s 			page 2


  31:../../../support/device/gd32f4xx/peripherals/src/gd32f4xx_fmc.c **** NOT LIMITED TO, PROCUREMENT OF SUBSTITUTE GOODS OR SERVICES; LOSS OF USE, DATA, OR
  32:../../../support/device/gd32f4xx/peripherals/src/gd32f4xx_fmc.c **** PROFITS; OR BUSINESS INTERRUPTION) HOWEVER CAUSED AND ON ANY THEORY OF LIABILITY,
  33:../../../support/device/gd32f4xx/peripherals/src/gd32f4xx_fmc.c **** WHETHER IN CONTRACT, STRICT LIABILITY, OR TORT (INCLUDING NEGLIGENCE OR OTHERWISE)
  34:../../../support/device/gd32f4xx/peripherals/src/gd32f4xx_fmc.c **** ARISING IN ANY WAY OUT OF THE USE OF THIS SOFTWARE, EVEN IF ADVISED OF THE POSSIBILITY
  35:../../../support/device/gd32f4xx/peripherals/src/gd32f4xx_fmc.c **** OF SUCH DAMAGE.
  36:../../../support/device/gd32f4xx/peripherals/src/gd32f4xx_fmc.c **** */
  37:../../../support/device/gd32f4xx/peripherals/src/gd32f4xx_fmc.c **** 
  38:../../../support/device/gd32f4xx/peripherals/src/gd32f4xx_fmc.c **** 
  39:../../../support/device/gd32f4xx/peripherals/src/gd32f4xx_fmc.c **** #include "gd32f4xx_fmc.h"
  40:../../../support/device/gd32f4xx/peripherals/src/gd32f4xx_fmc.c **** 
  41:../../../support/device/gd32f4xx/peripherals/src/gd32f4xx_fmc.c **** /*!
  42:../../../support/device/gd32f4xx/peripherals/src/gd32f4xx_fmc.c ****     \brief    set the FMC wait state counter
  43:../../../support/device/gd32f4xx/peripherals/src/gd32f4xx_fmc.c ****     \param[in]  wscnt: wait state counter value
  44:../../../support/device/gd32f4xx/peripherals/src/gd32f4xx_fmc.c ****                 only one parameter can be selected which is shown as below:
  45:../../../support/device/gd32f4xx/peripherals/src/gd32f4xx_fmc.c ****       \arg        WS_WSCNT_0: FMC 0 wait
  46:../../../support/device/gd32f4xx/peripherals/src/gd32f4xx_fmc.c ****       \arg        WS_WSCNT_1: FMC 1 wait
  47:../../../support/device/gd32f4xx/peripherals/src/gd32f4xx_fmc.c ****       \arg        WS_WSCNT_2: FMC 2 wait
  48:../../../support/device/gd32f4xx/peripherals/src/gd32f4xx_fmc.c ****       \arg        WS_WSCNT_3: FMC 3 wait
  49:../../../support/device/gd32f4xx/peripherals/src/gd32f4xx_fmc.c ****       \arg        WS_WSCNT_4: FMC 4 wait
  50:../../../support/device/gd32f4xx/peripherals/src/gd32f4xx_fmc.c ****       \arg        WS_WSCNT_5: FMC 5 wait
  51:../../../support/device/gd32f4xx/peripherals/src/gd32f4xx_fmc.c ****       \arg        WS_WSCNT_6: FMC 6 wait
  52:../../../support/device/gd32f4xx/peripherals/src/gd32f4xx_fmc.c ****       \arg        WS_WSCNT_7: FMC 7 wait
  53:../../../support/device/gd32f4xx/peripherals/src/gd32f4xx_fmc.c ****       \arg        WS_WSCNT_8: FMC 8 wait
  54:../../../support/device/gd32f4xx/peripherals/src/gd32f4xx_fmc.c ****       \arg        WS_WSCNT_9: FMC 9 wait
  55:../../../support/device/gd32f4xx/peripherals/src/gd32f4xx_fmc.c ****       \arg        WS_WSCNT_10: FMC 10 wait
  56:../../../support/device/gd32f4xx/peripherals/src/gd32f4xx_fmc.c ****       \arg        WS_WSCNT_11: FMC 11 wait
  57:../../../support/device/gd32f4xx/peripherals/src/gd32f4xx_fmc.c ****       \arg        WS_WSCNT_12: FMC 12 wait
  58:../../../support/device/gd32f4xx/peripherals/src/gd32f4xx_fmc.c ****       \arg        WS_WSCNT_13: FMC 13 wait
  59:../../../support/device/gd32f4xx/peripherals/src/gd32f4xx_fmc.c ****       \arg        WS_WSCNT_14: FMC 14 wait
  60:../../../support/device/gd32f4xx/peripherals/src/gd32f4xx_fmc.c ****       \arg        WS_WSCNT_15: FMC 15 wait
  61:../../../support/device/gd32f4xx/peripherals/src/gd32f4xx_fmc.c ****     \param[out] none
  62:../../../support/device/gd32f4xx/peripherals/src/gd32f4xx_fmc.c ****     \retval     none
  63:../../../support/device/gd32f4xx/peripherals/src/gd32f4xx_fmc.c **** */
  64:../../../support/device/gd32f4xx/peripherals/src/gd32f4xx_fmc.c **** void fmc_wscnt_set(uint32_t wscnt)
  65:../../../support/device/gd32f4xx/peripherals/src/gd32f4xx_fmc.c **** {
  29              		.loc 1 65 1 view -0
  30              		.cfi_startproc
  31              		@ args = 0, pretend = 0, frame = 0
  32              		@ frame_needed = 0, uses_anonymous_args = 0
  33              		@ link register save eliminated.
  66:../../../support/device/gd32f4xx/peripherals/src/gd32f4xx_fmc.c ****     uint32_t reg;
  34              		.loc 1 66 5 view .LVU1
  67:../../../support/device/gd32f4xx/peripherals/src/gd32f4xx_fmc.c **** 
  68:../../../support/device/gd32f4xx/peripherals/src/gd32f4xx_fmc.c ****     reg = FMC_WS;
  35              		.loc 1 68 5 view .LVU2
  36              		.loc 1 68 9 is_stmt 0 view .LVU3
  37 0000 044A     		ldr	r2, .L3
  38 0002 D2F8003C 		ldr	r3, [r2, #3072]
  39              	.LVL1:
  69:../../../support/device/gd32f4xx/peripherals/src/gd32f4xx_fmc.c ****     /* set the wait state counter value */
  70:../../../support/device/gd32f4xx/peripherals/src/gd32f4xx_fmc.c ****     reg &= ~FMC_WC_WSCNT;
  40              		.loc 1 70 5 is_stmt 1 view .LVU4
  71:../../../support/device/gd32f4xx/peripherals/src/gd32f4xx_fmc.c ****     FMC_WS = (reg | wscnt);
  41              		.loc 1 71 5 view .LVU5
  70:../../../support/device/gd32f4xx/peripherals/src/gd32f4xx_fmc.c ****     FMC_WS = (reg | wscnt);
  42              		.loc 1 70 9 is_stmt 0 view .LVU6
  43 0006 23F00F03 		bic	r3, r3, #15
ARM GAS  /var/folders/_f/88qcw_5n2jl40jjphvxyt7wh0000gn/T//ccTBtSfs.s 			page 3


  44              	.LVL2:
  45              		.loc 1 71 19 view .LVU7
  46 000a 0343     		orrs	r3, r3, r0
  47              	.LVL3:
  48              		.loc 1 71 12 view .LVU8
  49 000c C2F8003C 		str	r3, [r2, #3072]
  72:../../../support/device/gd32f4xx/peripherals/src/gd32f4xx_fmc.c **** }
  50              		.loc 1 72 1 view .LVU9
  51 0010 7047     		bx	lr
  52              	.L4:
  53 0012 00BF     		.align	2
  54              	.L3:
  55 0014 00300240 		.word	1073885184
  56              		.cfi_endproc
  57              	.LFE116:
  59              		.section	.text.fmc_unlock,"ax",%progbits
  60              		.align	1
  61              		.p2align 2,,3
  62              		.global	fmc_unlock
  63              		.syntax unified
  64              		.thumb
  65              		.thumb_func
  67              	fmc_unlock:
  68              	.LFB117:
  73:../../../support/device/gd32f4xx/peripherals/src/gd32f4xx_fmc.c **** 
  74:../../../support/device/gd32f4xx/peripherals/src/gd32f4xx_fmc.c **** /*!
  75:../../../support/device/gd32f4xx/peripherals/src/gd32f4xx_fmc.c ****     \brief    unlock the main FMC operation
  76:../../../support/device/gd32f4xx/peripherals/src/gd32f4xx_fmc.c ****     \param[in]  none
  77:../../../support/device/gd32f4xx/peripherals/src/gd32f4xx_fmc.c ****     \param[out] none
  78:../../../support/device/gd32f4xx/peripherals/src/gd32f4xx_fmc.c ****     \retval     none
  79:../../../support/device/gd32f4xx/peripherals/src/gd32f4xx_fmc.c **** */
  80:../../../support/device/gd32f4xx/peripherals/src/gd32f4xx_fmc.c **** void fmc_unlock(void)
  81:../../../support/device/gd32f4xx/peripherals/src/gd32f4xx_fmc.c **** {
  69              		.loc 1 81 1 is_stmt 1 view -0
  70              		.cfi_startproc
  71              		@ args = 0, pretend = 0, frame = 0
  72              		@ frame_needed = 0, uses_anonymous_args = 0
  73              		@ link register save eliminated.
  82:../../../support/device/gd32f4xx/peripherals/src/gd32f4xx_fmc.c ****     if((RESET != (FMC_CTL & FMC_CTL_LK))) {
  74              		.loc 1 82 5 view .LVU11
  75              		.loc 1 82 19 is_stmt 0 view .LVU12
  76 0000 054B     		ldr	r3, .L7
  77 0002 D3F8102C 		ldr	r2, [r3, #3088]
  78              		.loc 1 82 7 view .LVU13
  79 0006 002A     		cmp	r2, #0
  80 0008 05DA     		bge	.L5
  83:../../../support/device/gd32f4xx/peripherals/src/gd32f4xx_fmc.c ****         /* write the FMC key */
  84:../../../support/device/gd32f4xx/peripherals/src/gd32f4xx_fmc.c ****         FMC_KEY = UNLOCK_KEY0;
  81              		.loc 1 84 9 is_stmt 1 view .LVU14
  82              		.loc 1 84 17 is_stmt 0 view .LVU15
  83 000a 0449     		ldr	r1, .L7+4
  85:../../../support/device/gd32f4xx/peripherals/src/gd32f4xx_fmc.c ****         FMC_KEY = UNLOCK_KEY1;
  84              		.loc 1 85 17 view .LVU16
  85 000c 044A     		ldr	r2, .L7+8
  84:../../../support/device/gd32f4xx/peripherals/src/gd32f4xx_fmc.c ****         FMC_KEY = UNLOCK_KEY1;
  86              		.loc 1 84 17 view .LVU17
  87 000e C3F8041C 		str	r1, [r3, #3076]
ARM GAS  /var/folders/_f/88qcw_5n2jl40jjphvxyt7wh0000gn/T//ccTBtSfs.s 			page 4


  88              		.loc 1 85 9 is_stmt 1 view .LVU18
  89              		.loc 1 85 17 is_stmt 0 view .LVU19
  90 0012 C3F8042C 		str	r2, [r3, #3076]
  91              	.L5:
  86:../../../support/device/gd32f4xx/peripherals/src/gd32f4xx_fmc.c ****     }
  87:../../../support/device/gd32f4xx/peripherals/src/gd32f4xx_fmc.c **** }
  92              		.loc 1 87 1 view .LVU20
  93 0016 7047     		bx	lr
  94              	.L8:
  95              		.align	2
  96              	.L7:
  97 0018 00300240 		.word	1073885184
  98 001c 23016745 		.word	1164378403
  99 0020 AB89EFCD 		.word	-839939669
 100              		.cfi_endproc
 101              	.LFE117:
 103              		.section	.text.fmc_lock,"ax",%progbits
 104              		.align	1
 105              		.p2align 2,,3
 106              		.global	fmc_lock
 107              		.syntax unified
 108              		.thumb
 109              		.thumb_func
 111              	fmc_lock:
 112              	.LFB118:
  88:../../../support/device/gd32f4xx/peripherals/src/gd32f4xx_fmc.c **** 
  89:../../../support/device/gd32f4xx/peripherals/src/gd32f4xx_fmc.c **** /*!
  90:../../../support/device/gd32f4xx/peripherals/src/gd32f4xx_fmc.c ****     \brief    lock the main FMC operation
  91:../../../support/device/gd32f4xx/peripherals/src/gd32f4xx_fmc.c ****     \param[in]  none
  92:../../../support/device/gd32f4xx/peripherals/src/gd32f4xx_fmc.c ****     \param[out] none
  93:../../../support/device/gd32f4xx/peripherals/src/gd32f4xx_fmc.c ****     \retval     none
  94:../../../support/device/gd32f4xx/peripherals/src/gd32f4xx_fmc.c **** */
  95:../../../support/device/gd32f4xx/peripherals/src/gd32f4xx_fmc.c **** void fmc_lock(void)
  96:../../../support/device/gd32f4xx/peripherals/src/gd32f4xx_fmc.c **** {
 113              		.loc 1 96 1 is_stmt 1 view -0
 114              		.cfi_startproc
 115              		@ args = 0, pretend = 0, frame = 0
 116              		@ frame_needed = 0, uses_anonymous_args = 0
 117              		@ link register save eliminated.
  97:../../../support/device/gd32f4xx/peripherals/src/gd32f4xx_fmc.c ****     /* set the LK bit*/
  98:../../../support/device/gd32f4xx/peripherals/src/gd32f4xx_fmc.c ****     FMC_CTL |= FMC_CTL_LK;
 118              		.loc 1 98 5 view .LVU22
 119              		.loc 1 98 13 is_stmt 0 view .LVU23
 120 0000 034A     		ldr	r2, .L10
 121 0002 D2F8103C 		ldr	r3, [r2, #3088]
 122 0006 43F00043 		orr	r3, r3, #-2147483648
 123 000a C2F8103C 		str	r3, [r2, #3088]
  99:../../../support/device/gd32f4xx/peripherals/src/gd32f4xx_fmc.c **** }
 124              		.loc 1 99 1 view .LVU24
 125 000e 7047     		bx	lr
 126              	.L11:
 127              		.align	2
 128              	.L10:
 129 0010 00300240 		.word	1073885184
 130              		.cfi_endproc
 131              	.LFE118:
 133              		.section	.text.fmc_sector_erase,"ax",%progbits
ARM GAS  /var/folders/_f/88qcw_5n2jl40jjphvxyt7wh0000gn/T//ccTBtSfs.s 			page 5


 134              		.align	1
 135              		.p2align 2,,3
 136              		.global	fmc_sector_erase
 137              		.syntax unified
 138              		.thumb
 139              		.thumb_func
 141              	fmc_sector_erase:
 142              	.LVL4:
 143              	.LFB119:
 100:../../../support/device/gd32f4xx/peripherals/src/gd32f4xx_fmc.c **** 
 101:../../../support/device/gd32f4xx/peripherals/src/gd32f4xx_fmc.c **** #if defined (GD32F425) || defined (GD32F427) || defined (GD32F470)
 102:../../../support/device/gd32f4xx/peripherals/src/gd32f4xx_fmc.c **** 
 103:../../../support/device/gd32f4xx/peripherals/src/gd32f4xx_fmc.c **** /*!
 104:../../../support/device/gd32f4xx/peripherals/src/gd32f4xx_fmc.c ****     \brief      FMC erase page
 105:../../../support/device/gd32f4xx/peripherals/src/gd32f4xx_fmc.c ****     \param[in]  page_addr: the page address to be erased.
 106:../../../support/device/gd32f4xx/peripherals/src/gd32f4xx_fmc.c ****     \param[out] none
 107:../../../support/device/gd32f4xx/peripherals/src/gd32f4xx_fmc.c ****     \retval     state of FMC
 108:../../../support/device/gd32f4xx/peripherals/src/gd32f4xx_fmc.c ****       \arg        FMC_READY: the operation has been completed
 109:../../../support/device/gd32f4xx/peripherals/src/gd32f4xx_fmc.c ****       \arg        FMC_BUSY: the operation is in progress
 110:../../../support/device/gd32f4xx/peripherals/src/gd32f4xx_fmc.c ****       \arg        FMC_RDDERR: read D-bus protection error
 111:../../../support/device/gd32f4xx/peripherals/src/gd32f4xx_fmc.c ****       \arg        FMC_PGSERR: program sequence error
 112:../../../support/device/gd32f4xx/peripherals/src/gd32f4xx_fmc.c ****       \arg        FMC_PGMERR: program size not match error
 113:../../../support/device/gd32f4xx/peripherals/src/gd32f4xx_fmc.c ****       \arg        FMC_WPERR: erase/program protection error
 114:../../../support/device/gd32f4xx/peripherals/src/gd32f4xx_fmc.c ****       \arg        FMC_OPERR: operation error
 115:../../../support/device/gd32f4xx/peripherals/src/gd32f4xx_fmc.c ****       \arg        FMC_TOERR: timeout error
 116:../../../support/device/gd32f4xx/peripherals/src/gd32f4xx_fmc.c **** */
 117:../../../support/device/gd32f4xx/peripherals/src/gd32f4xx_fmc.c **** fmc_state_enum fmc_page_erase(uint32_t page_addr)
 118:../../../support/device/gd32f4xx/peripherals/src/gd32f4xx_fmc.c **** {
 119:../../../support/device/gd32f4xx/peripherals/src/gd32f4xx_fmc.c ****     fmc_state_enum fmc_state = FMC_READY;
 120:../../../support/device/gd32f4xx/peripherals/src/gd32f4xx_fmc.c **** 
 121:../../../support/device/gd32f4xx/peripherals/src/gd32f4xx_fmc.c ****     /* wait for the FMC ready */
 122:../../../support/device/gd32f4xx/peripherals/src/gd32f4xx_fmc.c ****     fmc_state = fmc_ready_wait(FMC_TIMEOUT_COUNT);
 123:../../../support/device/gd32f4xx/peripherals/src/gd32f4xx_fmc.c **** 
 124:../../../support/device/gd32f4xx/peripherals/src/gd32f4xx_fmc.c ****     if(FMC_READY == fmc_state) {
 125:../../../support/device/gd32f4xx/peripherals/src/gd32f4xx_fmc.c ****         /* unlock page erase operation */
 126:../../../support/device/gd32f4xx/peripherals/src/gd32f4xx_fmc.c ****         FMC_PEKEY = UNLOCK_PE_KEY;
 127:../../../support/device/gd32f4xx/peripherals/src/gd32f4xx_fmc.c **** 
 128:../../../support/device/gd32f4xx/peripherals/src/gd32f4xx_fmc.c ****         /* start page erase */
 129:../../../support/device/gd32f4xx/peripherals/src/gd32f4xx_fmc.c ****         FMC_PECFG = FMC_PE_EN | page_addr;
 130:../../../support/device/gd32f4xx/peripherals/src/gd32f4xx_fmc.c ****         FMC_CTL &= ~FMC_CTL_SN;
 131:../../../support/device/gd32f4xx/peripherals/src/gd32f4xx_fmc.c ****         FMC_CTL |= FMC_CTL_SER;
 132:../../../support/device/gd32f4xx/peripherals/src/gd32f4xx_fmc.c ****         FMC_CTL |= FMC_CTL_START;
 133:../../../support/device/gd32f4xx/peripherals/src/gd32f4xx_fmc.c **** 
 134:../../../support/device/gd32f4xx/peripherals/src/gd32f4xx_fmc.c ****         /* wait for the FMC ready */
 135:../../../support/device/gd32f4xx/peripherals/src/gd32f4xx_fmc.c ****         fmc_state = fmc_ready_wait(FMC_TIMEOUT_COUNT);
 136:../../../support/device/gd32f4xx/peripherals/src/gd32f4xx_fmc.c **** 
 137:../../../support/device/gd32f4xx/peripherals/src/gd32f4xx_fmc.c ****         FMC_PECFG &= ~FMC_PE_EN;
 138:../../../support/device/gd32f4xx/peripherals/src/gd32f4xx_fmc.c ****         FMC_CTL &= ~FMC_CTL_SER;
 139:../../../support/device/gd32f4xx/peripherals/src/gd32f4xx_fmc.c ****     }
 140:../../../support/device/gd32f4xx/peripherals/src/gd32f4xx_fmc.c **** 
 141:../../../support/device/gd32f4xx/peripherals/src/gd32f4xx_fmc.c ****     /* return the FMC state */
 142:../../../support/device/gd32f4xx/peripherals/src/gd32f4xx_fmc.c ****     return fmc_state;
 143:../../../support/device/gd32f4xx/peripherals/src/gd32f4xx_fmc.c **** }
 144:../../../support/device/gd32f4xx/peripherals/src/gd32f4xx_fmc.c **** 
 145:../../../support/device/gd32f4xx/peripherals/src/gd32f4xx_fmc.c **** #endif
 146:../../../support/device/gd32f4xx/peripherals/src/gd32f4xx_fmc.c **** 
 147:../../../support/device/gd32f4xx/peripherals/src/gd32f4xx_fmc.c **** /*!
ARM GAS  /var/folders/_f/88qcw_5n2jl40jjphvxyt7wh0000gn/T//ccTBtSfs.s 			page 6


 148:../../../support/device/gd32f4xx/peripherals/src/gd32f4xx_fmc.c ****     \brief    FMC erase sector
 149:../../../support/device/gd32f4xx/peripherals/src/gd32f4xx_fmc.c ****     \param[in]  fmc_sector: select the sector to erase
 150:../../../support/device/gd32f4xx/peripherals/src/gd32f4xx_fmc.c ****                 only one parameter can be selected which is shown as below:
 151:../../../support/device/gd32f4xx/peripherals/src/gd32f4xx_fmc.c ****       \arg        CTL_SECTOR_NUMBER_0: sector 0
 152:../../../support/device/gd32f4xx/peripherals/src/gd32f4xx_fmc.c ****       \arg        CTL_SECTOR_NUMBER_1: sector 1
 153:../../../support/device/gd32f4xx/peripherals/src/gd32f4xx_fmc.c ****       \arg        CTL_SECTOR_NUMBER_2: sector 2
 154:../../../support/device/gd32f4xx/peripherals/src/gd32f4xx_fmc.c ****       \arg        CTL_SECTOR_NUMBER_3: sector 3
 155:../../../support/device/gd32f4xx/peripherals/src/gd32f4xx_fmc.c ****       \arg        CTL_SECTOR_NUMBER_4: sector 4
 156:../../../support/device/gd32f4xx/peripherals/src/gd32f4xx_fmc.c ****       \arg        CTL_SECTOR_NUMBER_5: sector 5
 157:../../../support/device/gd32f4xx/peripherals/src/gd32f4xx_fmc.c ****       \arg        CTL_SECTOR_NUMBER_6: sector 6
 158:../../../support/device/gd32f4xx/peripherals/src/gd32f4xx_fmc.c ****       \arg        CTL_SECTOR_NUMBER_7: sector 7
 159:../../../support/device/gd32f4xx/peripherals/src/gd32f4xx_fmc.c ****       \arg        CTL_SECTOR_NUMBER_8: sector 8
 160:../../../support/device/gd32f4xx/peripherals/src/gd32f4xx_fmc.c ****       \arg        CTL_SECTOR_NUMBER_9: sector 9
 161:../../../support/device/gd32f4xx/peripherals/src/gd32f4xx_fmc.c ****       \arg        CTL_SECTOR_NUMBER_10: sector 10
 162:../../../support/device/gd32f4xx/peripherals/src/gd32f4xx_fmc.c ****       \arg        CTL_SECTOR_NUMBER_11: sector 11
 163:../../../support/device/gd32f4xx/peripherals/src/gd32f4xx_fmc.c ****       \arg        CTL_SECTOR_NUMBER_12: sector 12
 164:../../../support/device/gd32f4xx/peripherals/src/gd32f4xx_fmc.c ****       \arg        CTL_SECTOR_NUMBER_13: sector 13
 165:../../../support/device/gd32f4xx/peripherals/src/gd32f4xx_fmc.c ****       \arg        CTL_SECTOR_NUMBER_14: sector 14
 166:../../../support/device/gd32f4xx/peripherals/src/gd32f4xx_fmc.c ****       \arg        CTL_SECTOR_NUMBER_15: sector 15
 167:../../../support/device/gd32f4xx/peripherals/src/gd32f4xx_fmc.c ****       \arg        CTL_SECTOR_NUMBER_16: sector 16
 168:../../../support/device/gd32f4xx/peripherals/src/gd32f4xx_fmc.c ****       \arg        CTL_SECTOR_NUMBER_17: sector 17
 169:../../../support/device/gd32f4xx/peripherals/src/gd32f4xx_fmc.c ****       \arg        CTL_SECTOR_NUMBER_18: sector 18
 170:../../../support/device/gd32f4xx/peripherals/src/gd32f4xx_fmc.c ****       \arg        CTL_SECTOR_NUMBER_19: sector 19
 171:../../../support/device/gd32f4xx/peripherals/src/gd32f4xx_fmc.c ****       \arg        CTL_SECTOR_NUMBER_20: sector 20
 172:../../../support/device/gd32f4xx/peripherals/src/gd32f4xx_fmc.c ****       \arg        CTL_SECTOR_NUMBER_21: sector 21
 173:../../../support/device/gd32f4xx/peripherals/src/gd32f4xx_fmc.c ****       \arg        CTL_SECTOR_NUMBER_22: sector 22
 174:../../../support/device/gd32f4xx/peripherals/src/gd32f4xx_fmc.c ****       \arg        CTL_SECTOR_NUMBER_23: sector 23
 175:../../../support/device/gd32f4xx/peripherals/src/gd32f4xx_fmc.c ****       \arg        CTL_SECTOR_NUMBER_24: sector 24
 176:../../../support/device/gd32f4xx/peripherals/src/gd32f4xx_fmc.c ****       \arg        CTL_SECTOR_NUMBER_25: sector 25
 177:../../../support/device/gd32f4xx/peripherals/src/gd32f4xx_fmc.c ****       \arg        CTL_SECTOR_NUMBER_26: sector 26
 178:../../../support/device/gd32f4xx/peripherals/src/gd32f4xx_fmc.c ****       \arg        CTL_SECTOR_NUMBER_27: sector 27
 179:../../../support/device/gd32f4xx/peripherals/src/gd32f4xx_fmc.c ****     \param[out] none
 180:../../../support/device/gd32f4xx/peripherals/src/gd32f4xx_fmc.c ****     \retval     state of FMC
 181:../../../support/device/gd32f4xx/peripherals/src/gd32f4xx_fmc.c ****       \arg        FMC_READY: the operation has been completed
 182:../../../support/device/gd32f4xx/peripherals/src/gd32f4xx_fmc.c ****       \arg        FMC_BUSY: the operation is in progress
 183:../../../support/device/gd32f4xx/peripherals/src/gd32f4xx_fmc.c ****       \arg        FMC_RDDERR: read D-bus protection error
 184:../../../support/device/gd32f4xx/peripherals/src/gd32f4xx_fmc.c ****       \arg        FMC_PGSERR: program sequence error
 185:../../../support/device/gd32f4xx/peripherals/src/gd32f4xx_fmc.c ****       \arg        FMC_PGMERR: program size not match error
 186:../../../support/device/gd32f4xx/peripherals/src/gd32f4xx_fmc.c ****       \arg        FMC_WPERR: erase/program protection error
 187:../../../support/device/gd32f4xx/peripherals/src/gd32f4xx_fmc.c ****       \arg        FMC_OPERR: operation error
 188:../../../support/device/gd32f4xx/peripherals/src/gd32f4xx_fmc.c ****       \arg        FMC_TOERR: timeout error
 189:../../../support/device/gd32f4xx/peripherals/src/gd32f4xx_fmc.c **** */
 190:../../../support/device/gd32f4xx/peripherals/src/gd32f4xx_fmc.c **** fmc_state_enum fmc_sector_erase(uint32_t fmc_sector)
 191:../../../support/device/gd32f4xx/peripherals/src/gd32f4xx_fmc.c **** {
 144              		.loc 1 191 1 is_stmt 1 view -0
 145              		.cfi_startproc
 146              		@ args = 0, pretend = 0, frame = 0
 147              		@ frame_needed = 0, uses_anonymous_args = 0
 148              		@ link register save eliminated.
 192:../../../support/device/gd32f4xx/peripherals/src/gd32f4xx_fmc.c ****     fmc_state_enum fmc_state = FMC_READY;
 149              		.loc 1 192 5 view .LVU26
 193:../../../support/device/gd32f4xx/peripherals/src/gd32f4xx_fmc.c ****     /* wait for the FMC ready */
 194:../../../support/device/gd32f4xx/peripherals/src/gd32f4xx_fmc.c ****     fmc_state = fmc_ready_wait(FMC_TIMEOUT_COUNT);
 150              		.loc 1 194 5 view .LVU27
 151              	.LBB54:
 152              	.LBI54:
 195:../../../support/device/gd32f4xx/peripherals/src/gd32f4xx_fmc.c **** 
ARM GAS  /var/folders/_f/88qcw_5n2jl40jjphvxyt7wh0000gn/T//ccTBtSfs.s 			page 7


 196:../../../support/device/gd32f4xx/peripherals/src/gd32f4xx_fmc.c ****     if(FMC_READY == fmc_state) {
 197:../../../support/device/gd32f4xx/peripherals/src/gd32f4xx_fmc.c ****         /* start sector erase */
 198:../../../support/device/gd32f4xx/peripherals/src/gd32f4xx_fmc.c ****         FMC_CTL &= ~FMC_CTL_SN;
 199:../../../support/device/gd32f4xx/peripherals/src/gd32f4xx_fmc.c ****         FMC_CTL |= (FMC_CTL_SER | fmc_sector);
 200:../../../support/device/gd32f4xx/peripherals/src/gd32f4xx_fmc.c ****         FMC_CTL |= FMC_CTL_START;
 201:../../../support/device/gd32f4xx/peripherals/src/gd32f4xx_fmc.c **** 
 202:../../../support/device/gd32f4xx/peripherals/src/gd32f4xx_fmc.c ****         /* wait for the FMC ready */
 203:../../../support/device/gd32f4xx/peripherals/src/gd32f4xx_fmc.c ****         fmc_state = fmc_ready_wait(FMC_TIMEOUT_COUNT);
 204:../../../support/device/gd32f4xx/peripherals/src/gd32f4xx_fmc.c **** 
 205:../../../support/device/gd32f4xx/peripherals/src/gd32f4xx_fmc.c ****         /* reset the SER bit */
 206:../../../support/device/gd32f4xx/peripherals/src/gd32f4xx_fmc.c ****         FMC_CTL &= (~FMC_CTL_SER);
 207:../../../support/device/gd32f4xx/peripherals/src/gd32f4xx_fmc.c ****         FMC_CTL &= ~FMC_CTL_SN;
 208:../../../support/device/gd32f4xx/peripherals/src/gd32f4xx_fmc.c ****     }
 209:../../../support/device/gd32f4xx/peripherals/src/gd32f4xx_fmc.c **** 
 210:../../../support/device/gd32f4xx/peripherals/src/gd32f4xx_fmc.c ****     /* return the FMC state */
 211:../../../support/device/gd32f4xx/peripherals/src/gd32f4xx_fmc.c ****     return fmc_state;
 212:../../../support/device/gd32f4xx/peripherals/src/gd32f4xx_fmc.c **** }
 213:../../../support/device/gd32f4xx/peripherals/src/gd32f4xx_fmc.c **** 
 214:../../../support/device/gd32f4xx/peripherals/src/gd32f4xx_fmc.c **** /*!
 215:../../../support/device/gd32f4xx/peripherals/src/gd32f4xx_fmc.c ****     \brief    FMC erase whole chip
 216:../../../support/device/gd32f4xx/peripherals/src/gd32f4xx_fmc.c ****     \param[in]  none
 217:../../../support/device/gd32f4xx/peripherals/src/gd32f4xx_fmc.c ****     \param[out] none
 218:../../../support/device/gd32f4xx/peripherals/src/gd32f4xx_fmc.c ****     \retval     state of FMC
 219:../../../support/device/gd32f4xx/peripherals/src/gd32f4xx_fmc.c ****       \arg        FMC_READY: the operation has been completed
 220:../../../support/device/gd32f4xx/peripherals/src/gd32f4xx_fmc.c ****       \arg        FMC_BUSY: the operation is in progress
 221:../../../support/device/gd32f4xx/peripherals/src/gd32f4xx_fmc.c ****       \arg        FMC_RDDERR: read D-bus protection error
 222:../../../support/device/gd32f4xx/peripherals/src/gd32f4xx_fmc.c ****       \arg        FMC_PGSERR: program sequence error
 223:../../../support/device/gd32f4xx/peripherals/src/gd32f4xx_fmc.c ****       \arg        FMC_PGMERR: program size not match error
 224:../../../support/device/gd32f4xx/peripherals/src/gd32f4xx_fmc.c ****       \arg        FMC_WPERR: erase/program protection error
 225:../../../support/device/gd32f4xx/peripherals/src/gd32f4xx_fmc.c ****       \arg        FMC_OPERR: operation error
 226:../../../support/device/gd32f4xx/peripherals/src/gd32f4xx_fmc.c ****       \arg        FMC_TOERR: timeout error
 227:../../../support/device/gd32f4xx/peripherals/src/gd32f4xx_fmc.c **** */
 228:../../../support/device/gd32f4xx/peripherals/src/gd32f4xx_fmc.c **** fmc_state_enum fmc_mass_erase(void)
 229:../../../support/device/gd32f4xx/peripherals/src/gd32f4xx_fmc.c **** {
 230:../../../support/device/gd32f4xx/peripherals/src/gd32f4xx_fmc.c ****     fmc_state_enum fmc_state = FMC_READY;
 231:../../../support/device/gd32f4xx/peripherals/src/gd32f4xx_fmc.c ****     /* wait for the FMC ready */
 232:../../../support/device/gd32f4xx/peripherals/src/gd32f4xx_fmc.c ****     fmc_state = fmc_ready_wait(FMC_TIMEOUT_COUNT);
 233:../../../support/device/gd32f4xx/peripherals/src/gd32f4xx_fmc.c **** 
 234:../../../support/device/gd32f4xx/peripherals/src/gd32f4xx_fmc.c ****     if(FMC_READY == fmc_state) {
 235:../../../support/device/gd32f4xx/peripherals/src/gd32f4xx_fmc.c ****         /* start whole chip erase */
 236:../../../support/device/gd32f4xx/peripherals/src/gd32f4xx_fmc.c ****         FMC_CTL |= (FMC_CTL_MER0 | FMC_CTL_MER1);
 237:../../../support/device/gd32f4xx/peripherals/src/gd32f4xx_fmc.c ****         FMC_CTL |= FMC_CTL_START;
 238:../../../support/device/gd32f4xx/peripherals/src/gd32f4xx_fmc.c **** 
 239:../../../support/device/gd32f4xx/peripherals/src/gd32f4xx_fmc.c ****         /* wait for the FMC ready */
 240:../../../support/device/gd32f4xx/peripherals/src/gd32f4xx_fmc.c ****         fmc_state = fmc_ready_wait(FMC_TIMEOUT_COUNT);
 241:../../../support/device/gd32f4xx/peripherals/src/gd32f4xx_fmc.c **** 
 242:../../../support/device/gd32f4xx/peripherals/src/gd32f4xx_fmc.c ****         /* reset the MER bits */
 243:../../../support/device/gd32f4xx/peripherals/src/gd32f4xx_fmc.c ****         FMC_CTL &= ~(FMC_CTL_MER0 | FMC_CTL_MER1);
 244:../../../support/device/gd32f4xx/peripherals/src/gd32f4xx_fmc.c ****     }
 245:../../../support/device/gd32f4xx/peripherals/src/gd32f4xx_fmc.c **** 
 246:../../../support/device/gd32f4xx/peripherals/src/gd32f4xx_fmc.c ****     /* return the fmc state */
 247:../../../support/device/gd32f4xx/peripherals/src/gd32f4xx_fmc.c ****     return fmc_state;
 248:../../../support/device/gd32f4xx/peripherals/src/gd32f4xx_fmc.c **** }
 249:../../../support/device/gd32f4xx/peripherals/src/gd32f4xx_fmc.c **** 
 250:../../../support/device/gd32f4xx/peripherals/src/gd32f4xx_fmc.c **** /*!
 251:../../../support/device/gd32f4xx/peripherals/src/gd32f4xx_fmc.c ****     \brief    FMC erase whole bank0
 252:../../../support/device/gd32f4xx/peripherals/src/gd32f4xx_fmc.c ****     \param[in]  none
ARM GAS  /var/folders/_f/88qcw_5n2jl40jjphvxyt7wh0000gn/T//ccTBtSfs.s 			page 8


 253:../../../support/device/gd32f4xx/peripherals/src/gd32f4xx_fmc.c ****     \param[out] none
 254:../../../support/device/gd32f4xx/peripherals/src/gd32f4xx_fmc.c ****     \retval     state of FMC
 255:../../../support/device/gd32f4xx/peripherals/src/gd32f4xx_fmc.c ****       \arg        FMC_READY: the operation has been completed
 256:../../../support/device/gd32f4xx/peripherals/src/gd32f4xx_fmc.c ****       \arg        FMC_BUSY: the operation is in progress
 257:../../../support/device/gd32f4xx/peripherals/src/gd32f4xx_fmc.c ****       \arg        FMC_RDDERR: read D-bus protection error
 258:../../../support/device/gd32f4xx/peripherals/src/gd32f4xx_fmc.c ****       \arg        FMC_PGSERR: program sequence error
 259:../../../support/device/gd32f4xx/peripherals/src/gd32f4xx_fmc.c ****       \arg        FMC_PGMERR: program size not match error
 260:../../../support/device/gd32f4xx/peripherals/src/gd32f4xx_fmc.c ****       \arg        FMC_WPERR: erase/program protection error
 261:../../../support/device/gd32f4xx/peripherals/src/gd32f4xx_fmc.c ****       \arg        FMC_OPERR: operation error
 262:../../../support/device/gd32f4xx/peripherals/src/gd32f4xx_fmc.c ****       \arg        FMC_TOERR: timeout error
 263:../../../support/device/gd32f4xx/peripherals/src/gd32f4xx_fmc.c **** */
 264:../../../support/device/gd32f4xx/peripherals/src/gd32f4xx_fmc.c **** fmc_state_enum fmc_bank0_erase(void)
 265:../../../support/device/gd32f4xx/peripherals/src/gd32f4xx_fmc.c **** {
 266:../../../support/device/gd32f4xx/peripherals/src/gd32f4xx_fmc.c ****     fmc_state_enum fmc_state = FMC_READY;
 267:../../../support/device/gd32f4xx/peripherals/src/gd32f4xx_fmc.c ****     /* wait for the FMC ready */
 268:../../../support/device/gd32f4xx/peripherals/src/gd32f4xx_fmc.c ****     fmc_state = fmc_ready_wait(FMC_TIMEOUT_COUNT);
 269:../../../support/device/gd32f4xx/peripherals/src/gd32f4xx_fmc.c **** 
 270:../../../support/device/gd32f4xx/peripherals/src/gd32f4xx_fmc.c ****     if(FMC_READY == fmc_state) {
 271:../../../support/device/gd32f4xx/peripherals/src/gd32f4xx_fmc.c ****         /* start FMC bank0 erase */
 272:../../../support/device/gd32f4xx/peripherals/src/gd32f4xx_fmc.c ****         FMC_CTL |= FMC_CTL_MER0;
 273:../../../support/device/gd32f4xx/peripherals/src/gd32f4xx_fmc.c ****         FMC_CTL |= FMC_CTL_START;
 274:../../../support/device/gd32f4xx/peripherals/src/gd32f4xx_fmc.c **** 
 275:../../../support/device/gd32f4xx/peripherals/src/gd32f4xx_fmc.c ****         /* wait for the FMC ready */
 276:../../../support/device/gd32f4xx/peripherals/src/gd32f4xx_fmc.c ****         fmc_state = fmc_ready_wait(FMC_TIMEOUT_COUNT);
 277:../../../support/device/gd32f4xx/peripherals/src/gd32f4xx_fmc.c **** 
 278:../../../support/device/gd32f4xx/peripherals/src/gd32f4xx_fmc.c ****         /* reset the MER0 bit */
 279:../../../support/device/gd32f4xx/peripherals/src/gd32f4xx_fmc.c ****         FMC_CTL &= (~FMC_CTL_MER0);
 280:../../../support/device/gd32f4xx/peripherals/src/gd32f4xx_fmc.c ****     }
 281:../../../support/device/gd32f4xx/peripherals/src/gd32f4xx_fmc.c **** 
 282:../../../support/device/gd32f4xx/peripherals/src/gd32f4xx_fmc.c ****     /* return the fmc state */
 283:../../../support/device/gd32f4xx/peripherals/src/gd32f4xx_fmc.c ****     return fmc_state;
 284:../../../support/device/gd32f4xx/peripherals/src/gd32f4xx_fmc.c **** }
 285:../../../support/device/gd32f4xx/peripherals/src/gd32f4xx_fmc.c **** 
 286:../../../support/device/gd32f4xx/peripherals/src/gd32f4xx_fmc.c **** /*!
 287:../../../support/device/gd32f4xx/peripherals/src/gd32f4xx_fmc.c ****     \brief    FMC erase whole bank1
 288:../../../support/device/gd32f4xx/peripherals/src/gd32f4xx_fmc.c ****     \param[in]  none
 289:../../../support/device/gd32f4xx/peripherals/src/gd32f4xx_fmc.c ****     \param[out] none
 290:../../../support/device/gd32f4xx/peripherals/src/gd32f4xx_fmc.c ****     \retval     state of FMC
 291:../../../support/device/gd32f4xx/peripherals/src/gd32f4xx_fmc.c ****       \arg        FMC_READY: the operation has been completed
 292:../../../support/device/gd32f4xx/peripherals/src/gd32f4xx_fmc.c ****       \arg        FMC_BUSY: the operation is in progress
 293:../../../support/device/gd32f4xx/peripherals/src/gd32f4xx_fmc.c ****       \arg        FMC_RDDERR: read D-bus protection error
 294:../../../support/device/gd32f4xx/peripherals/src/gd32f4xx_fmc.c ****       \arg        FMC_PGSERR: program sequence error
 295:../../../support/device/gd32f4xx/peripherals/src/gd32f4xx_fmc.c ****       \arg        FMC_PGMERR: program size not match error
 296:../../../support/device/gd32f4xx/peripherals/src/gd32f4xx_fmc.c ****       \arg        FMC_WPERR: erase/program protection error
 297:../../../support/device/gd32f4xx/peripherals/src/gd32f4xx_fmc.c ****       \arg        FMC_OPERR: operation error
 298:../../../support/device/gd32f4xx/peripherals/src/gd32f4xx_fmc.c ****       \arg        FMC_TOERR: timeout error
 299:../../../support/device/gd32f4xx/peripherals/src/gd32f4xx_fmc.c **** */
 300:../../../support/device/gd32f4xx/peripherals/src/gd32f4xx_fmc.c **** fmc_state_enum fmc_bank1_erase(void)
 301:../../../support/device/gd32f4xx/peripherals/src/gd32f4xx_fmc.c **** {
 302:../../../support/device/gd32f4xx/peripherals/src/gd32f4xx_fmc.c ****     fmc_state_enum fmc_state = FMC_READY;
 303:../../../support/device/gd32f4xx/peripherals/src/gd32f4xx_fmc.c ****     /* wait for the FMC ready */
 304:../../../support/device/gd32f4xx/peripherals/src/gd32f4xx_fmc.c ****     fmc_state = fmc_ready_wait(FMC_TIMEOUT_COUNT);
 305:../../../support/device/gd32f4xx/peripherals/src/gd32f4xx_fmc.c **** 
 306:../../../support/device/gd32f4xx/peripherals/src/gd32f4xx_fmc.c ****     if(FMC_READY == fmc_state) {
 307:../../../support/device/gd32f4xx/peripherals/src/gd32f4xx_fmc.c ****         /* start FMC bank1 erase */
 308:../../../support/device/gd32f4xx/peripherals/src/gd32f4xx_fmc.c ****         FMC_CTL |= FMC_CTL_MER1;
 309:../../../support/device/gd32f4xx/peripherals/src/gd32f4xx_fmc.c ****         FMC_CTL |= FMC_CTL_START;
ARM GAS  /var/folders/_f/88qcw_5n2jl40jjphvxyt7wh0000gn/T//ccTBtSfs.s 			page 9


 310:../../../support/device/gd32f4xx/peripherals/src/gd32f4xx_fmc.c **** 
 311:../../../support/device/gd32f4xx/peripherals/src/gd32f4xx_fmc.c ****         /* wait for the FMC ready */
 312:../../../support/device/gd32f4xx/peripherals/src/gd32f4xx_fmc.c ****         fmc_state = fmc_ready_wait(FMC_TIMEOUT_COUNT);
 313:../../../support/device/gd32f4xx/peripherals/src/gd32f4xx_fmc.c **** 
 314:../../../support/device/gd32f4xx/peripherals/src/gd32f4xx_fmc.c ****         /* reset the MER1 bit */
 315:../../../support/device/gd32f4xx/peripherals/src/gd32f4xx_fmc.c ****         FMC_CTL &= (~FMC_CTL_MER1);
 316:../../../support/device/gd32f4xx/peripherals/src/gd32f4xx_fmc.c ****     }
 317:../../../support/device/gd32f4xx/peripherals/src/gd32f4xx_fmc.c **** 
 318:../../../support/device/gd32f4xx/peripherals/src/gd32f4xx_fmc.c ****     /* return the fmc state */
 319:../../../support/device/gd32f4xx/peripherals/src/gd32f4xx_fmc.c ****     return fmc_state;
 320:../../../support/device/gd32f4xx/peripherals/src/gd32f4xx_fmc.c **** }
 321:../../../support/device/gd32f4xx/peripherals/src/gd32f4xx_fmc.c **** 
 322:../../../support/device/gd32f4xx/peripherals/src/gd32f4xx_fmc.c **** /*!
 323:../../../support/device/gd32f4xx/peripherals/src/gd32f4xx_fmc.c ****     \brief    program a word at the corresponding address
 324:../../../support/device/gd32f4xx/peripherals/src/gd32f4xx_fmc.c ****     \param[in]  address: address to program
 325:../../../support/device/gd32f4xx/peripherals/src/gd32f4xx_fmc.c ****     \param[in]  data: word to program(0x00000000 - 0xFFFFFFFF)
 326:../../../support/device/gd32f4xx/peripherals/src/gd32f4xx_fmc.c ****     \param[out] none
 327:../../../support/device/gd32f4xx/peripherals/src/gd32f4xx_fmc.c ****     \retval     state of FMC
 328:../../../support/device/gd32f4xx/peripherals/src/gd32f4xx_fmc.c ****       \arg        FMC_READY: the operation has been completed
 329:../../../support/device/gd32f4xx/peripherals/src/gd32f4xx_fmc.c ****       \arg        FMC_BUSY: the operation is in progress
 330:../../../support/device/gd32f4xx/peripherals/src/gd32f4xx_fmc.c ****       \arg        FMC_RDDERR: read D-bus protection error
 331:../../../support/device/gd32f4xx/peripherals/src/gd32f4xx_fmc.c ****       \arg        FMC_PGSERR: program sequence error
 332:../../../support/device/gd32f4xx/peripherals/src/gd32f4xx_fmc.c ****       \arg        FMC_PGMERR: program size not match error
 333:../../../support/device/gd32f4xx/peripherals/src/gd32f4xx_fmc.c ****       \arg        FMC_WPERR: erase/program protection error
 334:../../../support/device/gd32f4xx/peripherals/src/gd32f4xx_fmc.c ****       \arg        FMC_OPERR: operation error
 335:../../../support/device/gd32f4xx/peripherals/src/gd32f4xx_fmc.c ****       \arg        FMC_TOERR: timeout error
 336:../../../support/device/gd32f4xx/peripherals/src/gd32f4xx_fmc.c **** */
 337:../../../support/device/gd32f4xx/peripherals/src/gd32f4xx_fmc.c **** fmc_state_enum fmc_word_program(uint32_t address, uint32_t data)
 338:../../../support/device/gd32f4xx/peripherals/src/gd32f4xx_fmc.c **** {
 339:../../../support/device/gd32f4xx/peripherals/src/gd32f4xx_fmc.c ****     fmc_state_enum fmc_state = FMC_READY;
 340:../../../support/device/gd32f4xx/peripherals/src/gd32f4xx_fmc.c ****     /* wait for the FMC ready */
 341:../../../support/device/gd32f4xx/peripherals/src/gd32f4xx_fmc.c ****     fmc_state = fmc_ready_wait(FMC_TIMEOUT_COUNT);
 342:../../../support/device/gd32f4xx/peripherals/src/gd32f4xx_fmc.c **** 
 343:../../../support/device/gd32f4xx/peripherals/src/gd32f4xx_fmc.c ****     if(FMC_READY == fmc_state) {
 344:../../../support/device/gd32f4xx/peripherals/src/gd32f4xx_fmc.c ****         /* set the PG bit to start program */
 345:../../../support/device/gd32f4xx/peripherals/src/gd32f4xx_fmc.c ****         FMC_CTL &= ~FMC_CTL_PSZ;
 346:../../../support/device/gd32f4xx/peripherals/src/gd32f4xx_fmc.c ****         FMC_CTL |= CTL_PSZ_WORD;
 347:../../../support/device/gd32f4xx/peripherals/src/gd32f4xx_fmc.c ****         FMC_CTL |= FMC_CTL_PG;
 348:../../../support/device/gd32f4xx/peripherals/src/gd32f4xx_fmc.c **** 
 349:../../../support/device/gd32f4xx/peripherals/src/gd32f4xx_fmc.c ****         REG32(address) = data;
 350:../../../support/device/gd32f4xx/peripherals/src/gd32f4xx_fmc.c **** 
 351:../../../support/device/gd32f4xx/peripherals/src/gd32f4xx_fmc.c ****         /* wait for the FMC ready */
 352:../../../support/device/gd32f4xx/peripherals/src/gd32f4xx_fmc.c ****         fmc_state = fmc_ready_wait(FMC_TIMEOUT_COUNT);
 353:../../../support/device/gd32f4xx/peripherals/src/gd32f4xx_fmc.c **** 
 354:../../../support/device/gd32f4xx/peripherals/src/gd32f4xx_fmc.c ****         /* reset the PG bit */
 355:../../../support/device/gd32f4xx/peripherals/src/gd32f4xx_fmc.c ****         FMC_CTL &= ~FMC_CTL_PG;
 356:../../../support/device/gd32f4xx/peripherals/src/gd32f4xx_fmc.c ****     }
 357:../../../support/device/gd32f4xx/peripherals/src/gd32f4xx_fmc.c **** 
 358:../../../support/device/gd32f4xx/peripherals/src/gd32f4xx_fmc.c ****     /* return the FMC state */
 359:../../../support/device/gd32f4xx/peripherals/src/gd32f4xx_fmc.c ****     return fmc_state;
 360:../../../support/device/gd32f4xx/peripherals/src/gd32f4xx_fmc.c **** }
 361:../../../support/device/gd32f4xx/peripherals/src/gd32f4xx_fmc.c **** 
 362:../../../support/device/gd32f4xx/peripherals/src/gd32f4xx_fmc.c **** /*!
 363:../../../support/device/gd32f4xx/peripherals/src/gd32f4xx_fmc.c ****     \brief    program a half word at the corresponding address
 364:../../../support/device/gd32f4xx/peripherals/src/gd32f4xx_fmc.c ****     \param[in]  address: address to program
 365:../../../support/device/gd32f4xx/peripherals/src/gd32f4xx_fmc.c ****     \param[in]  data: halfword to program(0x0000 - 0xFFFF)
 366:../../../support/device/gd32f4xx/peripherals/src/gd32f4xx_fmc.c ****     \param[out] none
ARM GAS  /var/folders/_f/88qcw_5n2jl40jjphvxyt7wh0000gn/T//ccTBtSfs.s 			page 10


 367:../../../support/device/gd32f4xx/peripherals/src/gd32f4xx_fmc.c ****     \retval     state of FMC
 368:../../../support/device/gd32f4xx/peripherals/src/gd32f4xx_fmc.c ****       \arg        FMC_READY: the operation has been completed
 369:../../../support/device/gd32f4xx/peripherals/src/gd32f4xx_fmc.c ****       \arg        FMC_BUSY: the operation is in progress
 370:../../../support/device/gd32f4xx/peripherals/src/gd32f4xx_fmc.c ****       \arg        FMC_RDDERR: read D-bus protection error
 371:../../../support/device/gd32f4xx/peripherals/src/gd32f4xx_fmc.c ****       \arg        FMC_PGSERR: program sequence error
 372:../../../support/device/gd32f4xx/peripherals/src/gd32f4xx_fmc.c ****       \arg        FMC_PGMERR: program size not match error
 373:../../../support/device/gd32f4xx/peripherals/src/gd32f4xx_fmc.c ****       \arg        FMC_WPERR: erase/program protection error
 374:../../../support/device/gd32f4xx/peripherals/src/gd32f4xx_fmc.c ****       \arg        FMC_OPERR: operation error
 375:../../../support/device/gd32f4xx/peripherals/src/gd32f4xx_fmc.c ****       \arg        FMC_TOERR: timeout error
 376:../../../support/device/gd32f4xx/peripherals/src/gd32f4xx_fmc.c **** */
 377:../../../support/device/gd32f4xx/peripherals/src/gd32f4xx_fmc.c **** fmc_state_enum fmc_halfword_program(uint32_t address, uint16_t data)
 378:../../../support/device/gd32f4xx/peripherals/src/gd32f4xx_fmc.c **** {
 379:../../../support/device/gd32f4xx/peripherals/src/gd32f4xx_fmc.c ****     fmc_state_enum fmc_state = FMC_READY;
 380:../../../support/device/gd32f4xx/peripherals/src/gd32f4xx_fmc.c ****     /* wait for the FMC ready */
 381:../../../support/device/gd32f4xx/peripherals/src/gd32f4xx_fmc.c ****     fmc_state = fmc_ready_wait(FMC_TIMEOUT_COUNT);
 382:../../../support/device/gd32f4xx/peripherals/src/gd32f4xx_fmc.c **** 
 383:../../../support/device/gd32f4xx/peripherals/src/gd32f4xx_fmc.c ****     if(FMC_READY == fmc_state) {
 384:../../../support/device/gd32f4xx/peripherals/src/gd32f4xx_fmc.c ****         /* set the PG bit to start program */
 385:../../../support/device/gd32f4xx/peripherals/src/gd32f4xx_fmc.c ****         FMC_CTL &= ~FMC_CTL_PSZ;
 386:../../../support/device/gd32f4xx/peripherals/src/gd32f4xx_fmc.c ****         FMC_CTL |= CTL_PSZ_HALF_WORD;
 387:../../../support/device/gd32f4xx/peripherals/src/gd32f4xx_fmc.c ****         FMC_CTL |= FMC_CTL_PG;
 388:../../../support/device/gd32f4xx/peripherals/src/gd32f4xx_fmc.c **** 
 389:../../../support/device/gd32f4xx/peripherals/src/gd32f4xx_fmc.c ****         REG16(address) = data;
 390:../../../support/device/gd32f4xx/peripherals/src/gd32f4xx_fmc.c **** 
 391:../../../support/device/gd32f4xx/peripherals/src/gd32f4xx_fmc.c ****         /* wait for the FMC ready */
 392:../../../support/device/gd32f4xx/peripherals/src/gd32f4xx_fmc.c ****         fmc_state = fmc_ready_wait(FMC_TIMEOUT_COUNT);
 393:../../../support/device/gd32f4xx/peripherals/src/gd32f4xx_fmc.c **** 
 394:../../../support/device/gd32f4xx/peripherals/src/gd32f4xx_fmc.c ****         /* reset the PG bit */
 395:../../../support/device/gd32f4xx/peripherals/src/gd32f4xx_fmc.c ****         FMC_CTL &= ~FMC_CTL_PG;
 396:../../../support/device/gd32f4xx/peripherals/src/gd32f4xx_fmc.c ****     }
 397:../../../support/device/gd32f4xx/peripherals/src/gd32f4xx_fmc.c **** 
 398:../../../support/device/gd32f4xx/peripherals/src/gd32f4xx_fmc.c ****     /* return the FMC state */
 399:../../../support/device/gd32f4xx/peripherals/src/gd32f4xx_fmc.c ****     return fmc_state;
 400:../../../support/device/gd32f4xx/peripherals/src/gd32f4xx_fmc.c **** }
 401:../../../support/device/gd32f4xx/peripherals/src/gd32f4xx_fmc.c **** 
 402:../../../support/device/gd32f4xx/peripherals/src/gd32f4xx_fmc.c **** /*!
 403:../../../support/device/gd32f4xx/peripherals/src/gd32f4xx_fmc.c ****     \brief    program a byte at the corresponding address
 404:../../../support/device/gd32f4xx/peripherals/src/gd32f4xx_fmc.c ****     \param[in]  address: address to program
 405:../../../support/device/gd32f4xx/peripherals/src/gd32f4xx_fmc.c ****     \param[in]  data: byte to program(0x00 - 0xFF)
 406:../../../support/device/gd32f4xx/peripherals/src/gd32f4xx_fmc.c ****     \param[out] none
 407:../../../support/device/gd32f4xx/peripherals/src/gd32f4xx_fmc.c ****     \retval     state of FMC
 408:../../../support/device/gd32f4xx/peripherals/src/gd32f4xx_fmc.c ****       \arg        FMC_READY: the operation has been completed
 409:../../../support/device/gd32f4xx/peripherals/src/gd32f4xx_fmc.c ****       \arg        FMC_BUSY: the operation is in progress
 410:../../../support/device/gd32f4xx/peripherals/src/gd32f4xx_fmc.c ****       \arg        FMC_RDDERR: read D-bus protection error
 411:../../../support/device/gd32f4xx/peripherals/src/gd32f4xx_fmc.c ****       \arg        FMC_PGSERR: program sequence error
 412:../../../support/device/gd32f4xx/peripherals/src/gd32f4xx_fmc.c ****       \arg        FMC_PGMERR: program size not match error
 413:../../../support/device/gd32f4xx/peripherals/src/gd32f4xx_fmc.c ****       \arg        FMC_WPERR: erase/program protection error
 414:../../../support/device/gd32f4xx/peripherals/src/gd32f4xx_fmc.c ****       \arg        FMC_OPERR: operation error
 415:../../../support/device/gd32f4xx/peripherals/src/gd32f4xx_fmc.c ****       \arg        FMC_TOERR: timeout error
 416:../../../support/device/gd32f4xx/peripherals/src/gd32f4xx_fmc.c **** */
 417:../../../support/device/gd32f4xx/peripherals/src/gd32f4xx_fmc.c **** fmc_state_enum fmc_byte_program(uint32_t address, uint8_t data)
 418:../../../support/device/gd32f4xx/peripherals/src/gd32f4xx_fmc.c **** {
 419:../../../support/device/gd32f4xx/peripherals/src/gd32f4xx_fmc.c ****     fmc_state_enum fmc_state = FMC_READY;
 420:../../../support/device/gd32f4xx/peripherals/src/gd32f4xx_fmc.c ****     /* wait for the FMC ready */
 421:../../../support/device/gd32f4xx/peripherals/src/gd32f4xx_fmc.c ****     fmc_state = fmc_ready_wait(FMC_TIMEOUT_COUNT);
 422:../../../support/device/gd32f4xx/peripherals/src/gd32f4xx_fmc.c **** 
 423:../../../support/device/gd32f4xx/peripherals/src/gd32f4xx_fmc.c ****     if(FMC_READY == fmc_state) {
ARM GAS  /var/folders/_f/88qcw_5n2jl40jjphvxyt7wh0000gn/T//ccTBtSfs.s 			page 11


 424:../../../support/device/gd32f4xx/peripherals/src/gd32f4xx_fmc.c ****         /* set the PG bit to start program */
 425:../../../support/device/gd32f4xx/peripherals/src/gd32f4xx_fmc.c ****         FMC_CTL &= ~FMC_CTL_PSZ;
 426:../../../support/device/gd32f4xx/peripherals/src/gd32f4xx_fmc.c ****         FMC_CTL |= CTL_PSZ_BYTE;
 427:../../../support/device/gd32f4xx/peripherals/src/gd32f4xx_fmc.c ****         FMC_CTL |= FMC_CTL_PG;
 428:../../../support/device/gd32f4xx/peripherals/src/gd32f4xx_fmc.c **** 
 429:../../../support/device/gd32f4xx/peripherals/src/gd32f4xx_fmc.c ****         REG8(address) = data;
 430:../../../support/device/gd32f4xx/peripherals/src/gd32f4xx_fmc.c **** 
 431:../../../support/device/gd32f4xx/peripherals/src/gd32f4xx_fmc.c ****         /* wait for the FMC ready */
 432:../../../support/device/gd32f4xx/peripherals/src/gd32f4xx_fmc.c ****         fmc_state = fmc_ready_wait(FMC_TIMEOUT_COUNT);
 433:../../../support/device/gd32f4xx/peripherals/src/gd32f4xx_fmc.c **** 
 434:../../../support/device/gd32f4xx/peripherals/src/gd32f4xx_fmc.c ****         /* reset the PG bit */
 435:../../../support/device/gd32f4xx/peripherals/src/gd32f4xx_fmc.c ****         FMC_CTL &= ~FMC_CTL_PG;
 436:../../../support/device/gd32f4xx/peripherals/src/gd32f4xx_fmc.c ****     }
 437:../../../support/device/gd32f4xx/peripherals/src/gd32f4xx_fmc.c **** 
 438:../../../support/device/gd32f4xx/peripherals/src/gd32f4xx_fmc.c ****     /* return the FMC state */
 439:../../../support/device/gd32f4xx/peripherals/src/gd32f4xx_fmc.c ****     return fmc_state;
 440:../../../support/device/gd32f4xx/peripherals/src/gd32f4xx_fmc.c **** }
 441:../../../support/device/gd32f4xx/peripherals/src/gd32f4xx_fmc.c **** 
 442:../../../support/device/gd32f4xx/peripherals/src/gd32f4xx_fmc.c **** /*!
 443:../../../support/device/gd32f4xx/peripherals/src/gd32f4xx_fmc.c ****     \brief    unlock the option byte operation
 444:../../../support/device/gd32f4xx/peripherals/src/gd32f4xx_fmc.c ****     \param[in]  none
 445:../../../support/device/gd32f4xx/peripherals/src/gd32f4xx_fmc.c ****     \param[out] none
 446:../../../support/device/gd32f4xx/peripherals/src/gd32f4xx_fmc.c ****     \retval     none
 447:../../../support/device/gd32f4xx/peripherals/src/gd32f4xx_fmc.c **** */
 448:../../../support/device/gd32f4xx/peripherals/src/gd32f4xx_fmc.c **** void ob_unlock(void)
 449:../../../support/device/gd32f4xx/peripherals/src/gd32f4xx_fmc.c **** {
 450:../../../support/device/gd32f4xx/peripherals/src/gd32f4xx_fmc.c ****     if(RESET != (FMC_OBCTL0 & FMC_OBCTL0_OB_LK)) {
 451:../../../support/device/gd32f4xx/peripherals/src/gd32f4xx_fmc.c ****         /* write the FMC key */
 452:../../../support/device/gd32f4xx/peripherals/src/gd32f4xx_fmc.c ****         FMC_OBKEY = OB_UNLOCK_KEY0;
 453:../../../support/device/gd32f4xx/peripherals/src/gd32f4xx_fmc.c ****         FMC_OBKEY = OB_UNLOCK_KEY1;
 454:../../../support/device/gd32f4xx/peripherals/src/gd32f4xx_fmc.c ****     }
 455:../../../support/device/gd32f4xx/peripherals/src/gd32f4xx_fmc.c **** }
 456:../../../support/device/gd32f4xx/peripherals/src/gd32f4xx_fmc.c **** 
 457:../../../support/device/gd32f4xx/peripherals/src/gd32f4xx_fmc.c **** /*!
 458:../../../support/device/gd32f4xx/peripherals/src/gd32f4xx_fmc.c ****     \brief    lock the option byte operation
 459:../../../support/device/gd32f4xx/peripherals/src/gd32f4xx_fmc.c ****     \param[in]  none
 460:../../../support/device/gd32f4xx/peripherals/src/gd32f4xx_fmc.c ****     \param[out] none
 461:../../../support/device/gd32f4xx/peripherals/src/gd32f4xx_fmc.c ****     \retval     none
 462:../../../support/device/gd32f4xx/peripherals/src/gd32f4xx_fmc.c **** */
 463:../../../support/device/gd32f4xx/peripherals/src/gd32f4xx_fmc.c **** void ob_lock(void)
 464:../../../support/device/gd32f4xx/peripherals/src/gd32f4xx_fmc.c **** {
 465:../../../support/device/gd32f4xx/peripherals/src/gd32f4xx_fmc.c ****     /* reset the OB_LK bit */
 466:../../../support/device/gd32f4xx/peripherals/src/gd32f4xx_fmc.c ****     FMC_OBCTL0 |= FMC_OBCTL0_OB_LK;
 467:../../../support/device/gd32f4xx/peripherals/src/gd32f4xx_fmc.c **** }
 468:../../../support/device/gd32f4xx/peripherals/src/gd32f4xx_fmc.c **** 
 469:../../../support/device/gd32f4xx/peripherals/src/gd32f4xx_fmc.c **** /*!
 470:../../../support/device/gd32f4xx/peripherals/src/gd32f4xx_fmc.c ****     \brief    send option byte change command
 471:../../../support/device/gd32f4xx/peripherals/src/gd32f4xx_fmc.c ****     \param[in]  none
 472:../../../support/device/gd32f4xx/peripherals/src/gd32f4xx_fmc.c ****     \param[out] none
 473:../../../support/device/gd32f4xx/peripherals/src/gd32f4xx_fmc.c ****     \retval     none
 474:../../../support/device/gd32f4xx/peripherals/src/gd32f4xx_fmc.c **** */
 475:../../../support/device/gd32f4xx/peripherals/src/gd32f4xx_fmc.c **** void ob_start(void)
 476:../../../support/device/gd32f4xx/peripherals/src/gd32f4xx_fmc.c **** {
 477:../../../support/device/gd32f4xx/peripherals/src/gd32f4xx_fmc.c ****     /* set the OB_START bit in OBCTL0 register */
 478:../../../support/device/gd32f4xx/peripherals/src/gd32f4xx_fmc.c ****     FMC_OBCTL0 |= FMC_OBCTL0_OB_START;
 479:../../../support/device/gd32f4xx/peripherals/src/gd32f4xx_fmc.c **** }
 480:../../../support/device/gd32f4xx/peripherals/src/gd32f4xx_fmc.c **** 
ARM GAS  /var/folders/_f/88qcw_5n2jl40jjphvxyt7wh0000gn/T//ccTBtSfs.s 			page 12


 481:../../../support/device/gd32f4xx/peripherals/src/gd32f4xx_fmc.c **** /*!
 482:../../../support/device/gd32f4xx/peripherals/src/gd32f4xx_fmc.c ****     \brief    erase option byte
 483:../../../support/device/gd32f4xx/peripherals/src/gd32f4xx_fmc.c ****     \param[in]  none
 484:../../../support/device/gd32f4xx/peripherals/src/gd32f4xx_fmc.c ****     \param[out] none
 485:../../../support/device/gd32f4xx/peripherals/src/gd32f4xx_fmc.c ****     \retval     none
 486:../../../support/device/gd32f4xx/peripherals/src/gd32f4xx_fmc.c **** */
 487:../../../support/device/gd32f4xx/peripherals/src/gd32f4xx_fmc.c **** void ob_erase(void)
 488:../../../support/device/gd32f4xx/peripherals/src/gd32f4xx_fmc.c **** {
 489:../../../support/device/gd32f4xx/peripherals/src/gd32f4xx_fmc.c ****     uint32_t reg, reg1;
 490:../../../support/device/gd32f4xx/peripherals/src/gd32f4xx_fmc.c ****     fmc_state_enum fmc_state = FMC_READY;
 491:../../../support/device/gd32f4xx/peripherals/src/gd32f4xx_fmc.c ****     /* wait for the FMC ready */
 492:../../../support/device/gd32f4xx/peripherals/src/gd32f4xx_fmc.c ****     fmc_state = fmc_ready_wait(FMC_TIMEOUT_COUNT);
 493:../../../support/device/gd32f4xx/peripherals/src/gd32f4xx_fmc.c ****     reg = FMC_OBCTL0;
 494:../../../support/device/gd32f4xx/peripherals/src/gd32f4xx_fmc.c ****     reg1 = FMC_OBCTL1;
 495:../../../support/device/gd32f4xx/peripherals/src/gd32f4xx_fmc.c **** 
 496:../../../support/device/gd32f4xx/peripherals/src/gd32f4xx_fmc.c ****     if(FMC_READY == fmc_state) {
 497:../../../support/device/gd32f4xx/peripherals/src/gd32f4xx_fmc.c **** 
 498:../../../support/device/gd32f4xx/peripherals/src/gd32f4xx_fmc.c ****         /* reset the OB_FWDGT, OB_DEEPSLEEP and OB_STDBY, set according to ob_fwdgt ,ob_deepsleep a
 499:../../../support/device/gd32f4xx/peripherals/src/gd32f4xx_fmc.c ****         reg |= (FMC_OBCTL0_NWDG_HW | FMC_OBCTL0_NRST_DPSLP | FMC_OBCTL0_NRST_STDBY);
 500:../../../support/device/gd32f4xx/peripherals/src/gd32f4xx_fmc.c ****         /* reset the BOR level */
 501:../../../support/device/gd32f4xx/peripherals/src/gd32f4xx_fmc.c ****         reg |= FMC_OBCTL0_BOR_TH;
 502:../../../support/device/gd32f4xx/peripherals/src/gd32f4xx_fmc.c ****         /* reset option byte boot bank value */
 503:../../../support/device/gd32f4xx/peripherals/src/gd32f4xx_fmc.c ****         reg &= ~FMC_OBCTL0_BB;
 504:../../../support/device/gd32f4xx/peripherals/src/gd32f4xx_fmc.c ****         /* reset option byte dbs value */
 505:../../../support/device/gd32f4xx/peripherals/src/gd32f4xx_fmc.c ****         reg &= ~FMC_OBCTL0_DBS;
 506:../../../support/device/gd32f4xx/peripherals/src/gd32f4xx_fmc.c **** 
 507:../../../support/device/gd32f4xx/peripherals/src/gd32f4xx_fmc.c ****         /* reset drp and wp value */
 508:../../../support/device/gd32f4xx/peripherals/src/gd32f4xx_fmc.c ****         reg |= FMC_OBCTL0_WP0;
 509:../../../support/device/gd32f4xx/peripherals/src/gd32f4xx_fmc.c ****         reg &= (~FMC_OBCTL0_DRP);
 510:../../../support/device/gd32f4xx/peripherals/src/gd32f4xx_fmc.c ****         FMC_OBCTL0 = reg;
 511:../../../support/device/gd32f4xx/peripherals/src/gd32f4xx_fmc.c **** 
 512:../../../support/device/gd32f4xx/peripherals/src/gd32f4xx_fmc.c ****         reg1 |= FMC_OBCTL1_WP1;
 513:../../../support/device/gd32f4xx/peripherals/src/gd32f4xx_fmc.c ****         FMC_OBCTL1 = reg1;
 514:../../../support/device/gd32f4xx/peripherals/src/gd32f4xx_fmc.c **** 
 515:../../../support/device/gd32f4xx/peripherals/src/gd32f4xx_fmc.c ****         FMC_OBCTL0 = reg;
 516:../../../support/device/gd32f4xx/peripherals/src/gd32f4xx_fmc.c ****     }
 517:../../../support/device/gd32f4xx/peripherals/src/gd32f4xx_fmc.c **** }
 518:../../../support/device/gd32f4xx/peripherals/src/gd32f4xx_fmc.c **** 
 519:../../../support/device/gd32f4xx/peripherals/src/gd32f4xx_fmc.c **** /*!
 520:../../../support/device/gd32f4xx/peripherals/src/gd32f4xx_fmc.c ****     \brief    enable write protection
 521:../../../support/device/gd32f4xx/peripherals/src/gd32f4xx_fmc.c ****     \param[in]  ob_wp: specify sector to be write protected
 522:../../../support/device/gd32f4xx/peripherals/src/gd32f4xx_fmc.c ****                 one or more parameters can be selected which are shown as below:
 523:../../../support/device/gd32f4xx/peripherals/src/gd32f4xx_fmc.c ****       \arg        OB_WP_x(x=0..22):sector x(x = 0,1,2...22)
 524:../../../support/device/gd32f4xx/peripherals/src/gd32f4xx_fmc.c ****       \arg        OB_WP_23_27: sector23~27
 525:../../../support/device/gd32f4xx/peripherals/src/gd32f4xx_fmc.c ****       \arg        OB_WP_ALL: all sector
 526:../../../support/device/gd32f4xx/peripherals/src/gd32f4xx_fmc.c ****     \param[out] none
 527:../../../support/device/gd32f4xx/peripherals/src/gd32f4xx_fmc.c ****     \retval     SUCCESS or ERROR
 528:../../../support/device/gd32f4xx/peripherals/src/gd32f4xx_fmc.c **** */
 529:../../../support/device/gd32f4xx/peripherals/src/gd32f4xx_fmc.c **** ErrStatus ob_write_protection_enable(uint32_t ob_wp)
 530:../../../support/device/gd32f4xx/peripherals/src/gd32f4xx_fmc.c **** {
 531:../../../support/device/gd32f4xx/peripherals/src/gd32f4xx_fmc.c ****     uint32_t reg0 = FMC_OBCTL0;
 532:../../../support/device/gd32f4xx/peripherals/src/gd32f4xx_fmc.c ****     uint32_t reg1 = FMC_OBCTL1;
 533:../../../support/device/gd32f4xx/peripherals/src/gd32f4xx_fmc.c ****     fmc_state_enum fmc_state = FMC_READY;
 534:../../../support/device/gd32f4xx/peripherals/src/gd32f4xx_fmc.c ****     if(RESET != (FMC_OBCTL0 & FMC_OBCTL0_DRP)) {
 535:../../../support/device/gd32f4xx/peripherals/src/gd32f4xx_fmc.c ****         return ERROR;
 536:../../../support/device/gd32f4xx/peripherals/src/gd32f4xx_fmc.c ****     }
 537:../../../support/device/gd32f4xx/peripherals/src/gd32f4xx_fmc.c ****     /* wait for the FMC ready */
ARM GAS  /var/folders/_f/88qcw_5n2jl40jjphvxyt7wh0000gn/T//ccTBtSfs.s 			page 13


 538:../../../support/device/gd32f4xx/peripherals/src/gd32f4xx_fmc.c ****     fmc_state = fmc_ready_wait(FMC_TIMEOUT_COUNT);
 539:../../../support/device/gd32f4xx/peripherals/src/gd32f4xx_fmc.c **** 
 540:../../../support/device/gd32f4xx/peripherals/src/gd32f4xx_fmc.c ****     if(FMC_READY == fmc_state) {
 541:../../../support/device/gd32f4xx/peripherals/src/gd32f4xx_fmc.c ****         reg0 &= (~((uint32_t)ob_wp << 16U));
 542:../../../support/device/gd32f4xx/peripherals/src/gd32f4xx_fmc.c ****         reg1 &= (~(ob_wp & 0xFFFF0000U));
 543:../../../support/device/gd32f4xx/peripherals/src/gd32f4xx_fmc.c ****         FMC_OBCTL0 = reg0;
 544:../../../support/device/gd32f4xx/peripherals/src/gd32f4xx_fmc.c ****         FMC_OBCTL1 = reg1;
 545:../../../support/device/gd32f4xx/peripherals/src/gd32f4xx_fmc.c **** 
 546:../../../support/device/gd32f4xx/peripherals/src/gd32f4xx_fmc.c ****         return SUCCESS;
 547:../../../support/device/gd32f4xx/peripherals/src/gd32f4xx_fmc.c ****     } else {
 548:../../../support/device/gd32f4xx/peripherals/src/gd32f4xx_fmc.c ****         return ERROR;
 549:../../../support/device/gd32f4xx/peripherals/src/gd32f4xx_fmc.c ****     }
 550:../../../support/device/gd32f4xx/peripherals/src/gd32f4xx_fmc.c **** }
 551:../../../support/device/gd32f4xx/peripherals/src/gd32f4xx_fmc.c **** 
 552:../../../support/device/gd32f4xx/peripherals/src/gd32f4xx_fmc.c **** /*!
 553:../../../support/device/gd32f4xx/peripherals/src/gd32f4xx_fmc.c ****     \brief    disable write protection
 554:../../../support/device/gd32f4xx/peripherals/src/gd32f4xx_fmc.c ****     \param[in]  ob_wp: specify sector to be write protected
 555:../../../support/device/gd32f4xx/peripherals/src/gd32f4xx_fmc.c ****                 one or more parameters can be selected which are shown as below:
 556:../../../support/device/gd32f4xx/peripherals/src/gd32f4xx_fmc.c ****       \arg        OB_WP_x(x=0..22):sector x(x = 0,1,2...22)
 557:../../../support/device/gd32f4xx/peripherals/src/gd32f4xx_fmc.c ****       \arg        OB_WP_23_27: sector23~27
 558:../../../support/device/gd32f4xx/peripherals/src/gd32f4xx_fmc.c ****       \arg        OB_WP_ALL: all sector
 559:../../../support/device/gd32f4xx/peripherals/src/gd32f4xx_fmc.c ****     \param[out] none
 560:../../../support/device/gd32f4xx/peripherals/src/gd32f4xx_fmc.c ****     \retval     SUCCESS or ERROR
 561:../../../support/device/gd32f4xx/peripherals/src/gd32f4xx_fmc.c **** */
 562:../../../support/device/gd32f4xx/peripherals/src/gd32f4xx_fmc.c **** ErrStatus ob_write_protection_disable(uint32_t ob_wp)
 563:../../../support/device/gd32f4xx/peripherals/src/gd32f4xx_fmc.c **** {
 564:../../../support/device/gd32f4xx/peripherals/src/gd32f4xx_fmc.c ****     uint32_t reg0 = FMC_OBCTL0;
 565:../../../support/device/gd32f4xx/peripherals/src/gd32f4xx_fmc.c ****     uint32_t reg1 = FMC_OBCTL1;
 566:../../../support/device/gd32f4xx/peripherals/src/gd32f4xx_fmc.c ****     fmc_state_enum fmc_state = FMC_READY;
 567:../../../support/device/gd32f4xx/peripherals/src/gd32f4xx_fmc.c ****     if(RESET != (FMC_OBCTL0 & FMC_OBCTL0_DRP)) {
 568:../../../support/device/gd32f4xx/peripherals/src/gd32f4xx_fmc.c ****         return ERROR;
 569:../../../support/device/gd32f4xx/peripherals/src/gd32f4xx_fmc.c ****     }
 570:../../../support/device/gd32f4xx/peripherals/src/gd32f4xx_fmc.c ****     /* wait for the FMC ready */
 571:../../../support/device/gd32f4xx/peripherals/src/gd32f4xx_fmc.c ****     fmc_state = fmc_ready_wait(FMC_TIMEOUT_COUNT);
 572:../../../support/device/gd32f4xx/peripherals/src/gd32f4xx_fmc.c **** 
 573:../../../support/device/gd32f4xx/peripherals/src/gd32f4xx_fmc.c ****     if(FMC_READY == fmc_state) {
 574:../../../support/device/gd32f4xx/peripherals/src/gd32f4xx_fmc.c ****         reg0 |= ((uint32_t)ob_wp << 16U);
 575:../../../support/device/gd32f4xx/peripherals/src/gd32f4xx_fmc.c ****         reg1 |= (ob_wp & 0xFFFF0000U);
 576:../../../support/device/gd32f4xx/peripherals/src/gd32f4xx_fmc.c ****         FMC_OBCTL0 = reg0;
 577:../../../support/device/gd32f4xx/peripherals/src/gd32f4xx_fmc.c ****         FMC_OBCTL1 = reg1;
 578:../../../support/device/gd32f4xx/peripherals/src/gd32f4xx_fmc.c **** 
 579:../../../support/device/gd32f4xx/peripherals/src/gd32f4xx_fmc.c ****         return SUCCESS;
 580:../../../support/device/gd32f4xx/peripherals/src/gd32f4xx_fmc.c ****     } else {
 581:../../../support/device/gd32f4xx/peripherals/src/gd32f4xx_fmc.c ****         return ERROR;
 582:../../../support/device/gd32f4xx/peripherals/src/gd32f4xx_fmc.c ****     }
 583:../../../support/device/gd32f4xx/peripherals/src/gd32f4xx_fmc.c **** }
 584:../../../support/device/gd32f4xx/peripherals/src/gd32f4xx_fmc.c **** 
 585:../../../support/device/gd32f4xx/peripherals/src/gd32f4xx_fmc.c **** /*!
 586:../../../support/device/gd32f4xx/peripherals/src/gd32f4xx_fmc.c ****     \brief    enable erase/program protection and D-bus read protection
 587:../../../support/device/gd32f4xx/peripherals/src/gd32f4xx_fmc.c ****     \param[in]  ob_drp: enable the WPx bits used as erase/program protection and D-bus read protect
 588:../../../support/device/gd32f4xx/peripherals/src/gd32f4xx_fmc.c ****                 one or more parameters can be selected which are shown as below:
 589:../../../support/device/gd32f4xx/peripherals/src/gd32f4xx_fmc.c ****       \arg        OB_DRP_x(x=0..22): sector x(x = 0,1,2...22)
 590:../../../support/device/gd32f4xx/peripherals/src/gd32f4xx_fmc.c ****       \arg        OB_DRP_23_27: sector23~27
 591:../../../support/device/gd32f4xx/peripherals/src/gd32f4xx_fmc.c ****       \arg        OB_DRP_ALL: all sector
 592:../../../support/device/gd32f4xx/peripherals/src/gd32f4xx_fmc.c ****     \param[out] none
 593:../../../support/device/gd32f4xx/peripherals/src/gd32f4xx_fmc.c ****     \retval     none
 594:../../../support/device/gd32f4xx/peripherals/src/gd32f4xx_fmc.c **** */
ARM GAS  /var/folders/_f/88qcw_5n2jl40jjphvxyt7wh0000gn/T//ccTBtSfs.s 			page 14


 595:../../../support/device/gd32f4xx/peripherals/src/gd32f4xx_fmc.c **** void ob_drp_enable(uint32_t ob_drp)
 596:../../../support/device/gd32f4xx/peripherals/src/gd32f4xx_fmc.c **** {
 597:../../../support/device/gd32f4xx/peripherals/src/gd32f4xx_fmc.c ****     uint32_t reg0 = FMC_OBCTL0;
 598:../../../support/device/gd32f4xx/peripherals/src/gd32f4xx_fmc.c ****     uint32_t reg1 = FMC_OBCTL1;
 599:../../../support/device/gd32f4xx/peripherals/src/gd32f4xx_fmc.c ****     fmc_state_enum fmc_state = FMC_READY;
 600:../../../support/device/gd32f4xx/peripherals/src/gd32f4xx_fmc.c ****     uint32_t drp_state = FMC_OBCTL0 & FMC_OBCTL0_DRP;
 601:../../../support/device/gd32f4xx/peripherals/src/gd32f4xx_fmc.c ****     uint32_t wp0_state = FMC_OBCTL0 & FMC_OBCTL0_WP0;
 602:../../../support/device/gd32f4xx/peripherals/src/gd32f4xx_fmc.c ****     uint32_t wp1_state = FMC_OBCTL1 & FMC_OBCTL1_WP1;
 603:../../../support/device/gd32f4xx/peripherals/src/gd32f4xx_fmc.c **** 
 604:../../../support/device/gd32f4xx/peripherals/src/gd32f4xx_fmc.c ****     /* wait for the FMC ready */
 605:../../../support/device/gd32f4xx/peripherals/src/gd32f4xx_fmc.c ****     fmc_state = fmc_ready_wait(FMC_TIMEOUT_COUNT);
 606:../../../support/device/gd32f4xx/peripherals/src/gd32f4xx_fmc.c **** 
 607:../../../support/device/gd32f4xx/peripherals/src/gd32f4xx_fmc.c ****     if(FMC_READY == fmc_state) {
 608:../../../support/device/gd32f4xx/peripherals/src/gd32f4xx_fmc.c ****         if(RESET == drp_state) {
 609:../../../support/device/gd32f4xx/peripherals/src/gd32f4xx_fmc.c ****             reg0 &= ~FMC_OBCTL0_WP0;
 610:../../../support/device/gd32f4xx/peripherals/src/gd32f4xx_fmc.c ****             reg1 &= ~FMC_OBCTL1_WP1;
 611:../../../support/device/gd32f4xx/peripherals/src/gd32f4xx_fmc.c ****         }
 612:../../../support/device/gd32f4xx/peripherals/src/gd32f4xx_fmc.c ****         reg0 |= ((uint32_t)ob_drp << 16U);
 613:../../../support/device/gd32f4xx/peripherals/src/gd32f4xx_fmc.c ****         reg0 |= FMC_OBCTL0_DRP;
 614:../../../support/device/gd32f4xx/peripherals/src/gd32f4xx_fmc.c ****         reg1 |= ((uint32_t)ob_drp & 0xFFFF0000U);
 615:../../../support/device/gd32f4xx/peripherals/src/gd32f4xx_fmc.c **** 
 616:../../../support/device/gd32f4xx/peripherals/src/gd32f4xx_fmc.c ****         FMC_OBCTL0 = reg0;
 617:../../../support/device/gd32f4xx/peripherals/src/gd32f4xx_fmc.c ****         FMC_OBCTL1 = reg1;
 618:../../../support/device/gd32f4xx/peripherals/src/gd32f4xx_fmc.c ****     }
 619:../../../support/device/gd32f4xx/peripherals/src/gd32f4xx_fmc.c **** }
 620:../../../support/device/gd32f4xx/peripherals/src/gd32f4xx_fmc.c **** 
 621:../../../support/device/gd32f4xx/peripherals/src/gd32f4xx_fmc.c **** /*!
 622:../../../support/device/gd32f4xx/peripherals/src/gd32f4xx_fmc.c ****     \brief    disable erase/program protection and D-bus read protection
 623:../../../support/device/gd32f4xx/peripherals/src/gd32f4xx_fmc.c ****     \param[in]  none
 624:../../../support/device/gd32f4xx/peripherals/src/gd32f4xx_fmc.c ****     \param[out] none
 625:../../../support/device/gd32f4xx/peripherals/src/gd32f4xx_fmc.c ****     \retval     none
 626:../../../support/device/gd32f4xx/peripherals/src/gd32f4xx_fmc.c **** */
 627:../../../support/device/gd32f4xx/peripherals/src/gd32f4xx_fmc.c **** void ob_drp_disable(void)
 628:../../../support/device/gd32f4xx/peripherals/src/gd32f4xx_fmc.c **** {
 629:../../../support/device/gd32f4xx/peripherals/src/gd32f4xx_fmc.c ****     uint32_t reg0 = FMC_OBCTL0;
 630:../../../support/device/gd32f4xx/peripherals/src/gd32f4xx_fmc.c ****     uint32_t reg1 = FMC_OBCTL1;
 631:../../../support/device/gd32f4xx/peripherals/src/gd32f4xx_fmc.c ****     fmc_state_enum fmc_state = FMC_READY;
 632:../../../support/device/gd32f4xx/peripherals/src/gd32f4xx_fmc.c ****     /* wait for the FMC ready */
 633:../../../support/device/gd32f4xx/peripherals/src/gd32f4xx_fmc.c ****     fmc_state = fmc_ready_wait(FMC_TIMEOUT_COUNT);
 634:../../../support/device/gd32f4xx/peripherals/src/gd32f4xx_fmc.c **** 
 635:../../../support/device/gd32f4xx/peripherals/src/gd32f4xx_fmc.c ****     if(FMC_READY == fmc_state) {
 636:../../../support/device/gd32f4xx/peripherals/src/gd32f4xx_fmc.c ****         if(((uint8_t)(reg0 >> 8U)) == (uint8_t)FMC_NSPC) {
 637:../../../support/device/gd32f4xx/peripherals/src/gd32f4xx_fmc.c ****             /* security protection should be set as low level protection before disable D-BUS read 
 638:../../../support/device/gd32f4xx/peripherals/src/gd32f4xx_fmc.c ****             reg0 &= ~FMC_OBCTL0_SPC;
 639:../../../support/device/gd32f4xx/peripherals/src/gd32f4xx_fmc.c ****             reg0 |= ((uint32_t)FMC_LSPC << 8U);
 640:../../../support/device/gd32f4xx/peripherals/src/gd32f4xx_fmc.c ****             FMC_OBCTL0 = reg0;
 641:../../../support/device/gd32f4xx/peripherals/src/gd32f4xx_fmc.c ****             /* set the OB_START bit in OBCTL0 register */
 642:../../../support/device/gd32f4xx/peripherals/src/gd32f4xx_fmc.c ****             FMC_OBCTL0 |= FMC_OBCTL0_OB_START;
 643:../../../support/device/gd32f4xx/peripherals/src/gd32f4xx_fmc.c ****         }
 644:../../../support/device/gd32f4xx/peripherals/src/gd32f4xx_fmc.c **** 
 645:../../../support/device/gd32f4xx/peripherals/src/gd32f4xx_fmc.c ****         /* it is necessary to disable the security protection at the same time when D-BUS read prot
 646:../../../support/device/gd32f4xx/peripherals/src/gd32f4xx_fmc.c ****         reg0 &= ~FMC_OBCTL0_SPC;
 647:../../../support/device/gd32f4xx/peripherals/src/gd32f4xx_fmc.c ****         reg0 |= ((uint32_t)FMC_NSPC << 8U);
 648:../../../support/device/gd32f4xx/peripherals/src/gd32f4xx_fmc.c ****         reg0 |= FMC_OBCTL0_WP0;
 649:../../../support/device/gd32f4xx/peripherals/src/gd32f4xx_fmc.c ****         reg0 &= (~FMC_OBCTL0_DRP);
 650:../../../support/device/gd32f4xx/peripherals/src/gd32f4xx_fmc.c ****         FMC_OBCTL0 = reg0;
 651:../../../support/device/gd32f4xx/peripherals/src/gd32f4xx_fmc.c **** 
ARM GAS  /var/folders/_f/88qcw_5n2jl40jjphvxyt7wh0000gn/T//ccTBtSfs.s 			page 15


 652:../../../support/device/gd32f4xx/peripherals/src/gd32f4xx_fmc.c ****         reg1 |= FMC_OBCTL1_WP1;
 653:../../../support/device/gd32f4xx/peripherals/src/gd32f4xx_fmc.c ****         FMC_OBCTL1 = reg1;
 654:../../../support/device/gd32f4xx/peripherals/src/gd32f4xx_fmc.c **** 
 655:../../../support/device/gd32f4xx/peripherals/src/gd32f4xx_fmc.c ****     }
 656:../../../support/device/gd32f4xx/peripherals/src/gd32f4xx_fmc.c **** }
 657:../../../support/device/gd32f4xx/peripherals/src/gd32f4xx_fmc.c **** 
 658:../../../support/device/gd32f4xx/peripherals/src/gd32f4xx_fmc.c **** /*!
 659:../../../support/device/gd32f4xx/peripherals/src/gd32f4xx_fmc.c ****     \brief    configure security protection level
 660:../../../support/device/gd32f4xx/peripherals/src/gd32f4xx_fmc.c ****     \param[in]  ob_spc: specify security protection level
 661:../../../support/device/gd32f4xx/peripherals/src/gd32f4xx_fmc.c ****                 only one parameter can be selected which is shown as below:
 662:../../../support/device/gd32f4xx/peripherals/src/gd32f4xx_fmc.c ****       \arg        FMC_NSPC: no security protection
 663:../../../support/device/gd32f4xx/peripherals/src/gd32f4xx_fmc.c ****       \arg        FMC_LSPC: low security protection
 664:../../../support/device/gd32f4xx/peripherals/src/gd32f4xx_fmc.c ****       \arg        FMC_HSPC: high security protection
 665:../../../support/device/gd32f4xx/peripherals/src/gd32f4xx_fmc.c ****     \param[out] none
 666:../../../support/device/gd32f4xx/peripherals/src/gd32f4xx_fmc.c ****     \retval     none
 667:../../../support/device/gd32f4xx/peripherals/src/gd32f4xx_fmc.c **** */
 668:../../../support/device/gd32f4xx/peripherals/src/gd32f4xx_fmc.c **** void ob_security_protection_config(uint8_t ob_spc)
 669:../../../support/device/gd32f4xx/peripherals/src/gd32f4xx_fmc.c **** {
 670:../../../support/device/gd32f4xx/peripherals/src/gd32f4xx_fmc.c ****     fmc_state_enum fmc_state = FMC_READY;
 671:../../../support/device/gd32f4xx/peripherals/src/gd32f4xx_fmc.c ****     /* wait for the FMC ready */
 672:../../../support/device/gd32f4xx/peripherals/src/gd32f4xx_fmc.c ****     fmc_state = fmc_ready_wait(FMC_TIMEOUT_COUNT);
 673:../../../support/device/gd32f4xx/peripherals/src/gd32f4xx_fmc.c **** 
 674:../../../support/device/gd32f4xx/peripherals/src/gd32f4xx_fmc.c ****     if(FMC_READY == fmc_state) {
 675:../../../support/device/gd32f4xx/peripherals/src/gd32f4xx_fmc.c ****         uint32_t reg;
 676:../../../support/device/gd32f4xx/peripherals/src/gd32f4xx_fmc.c **** 
 677:../../../support/device/gd32f4xx/peripherals/src/gd32f4xx_fmc.c ****         reg = FMC_OBCTL0;
 678:../../../support/device/gd32f4xx/peripherals/src/gd32f4xx_fmc.c ****         /* reset the OBCTL0_SPC, set according to ob_spc */
 679:../../../support/device/gd32f4xx/peripherals/src/gd32f4xx_fmc.c ****         reg &= ~FMC_OBCTL0_SPC;
 680:../../../support/device/gd32f4xx/peripherals/src/gd32f4xx_fmc.c ****         reg |= ((uint32_t)ob_spc << 8U);
 681:../../../support/device/gd32f4xx/peripherals/src/gd32f4xx_fmc.c ****         FMC_OBCTL0 = reg;
 682:../../../support/device/gd32f4xx/peripherals/src/gd32f4xx_fmc.c ****     }
 683:../../../support/device/gd32f4xx/peripherals/src/gd32f4xx_fmc.c **** }
 684:../../../support/device/gd32f4xx/peripherals/src/gd32f4xx_fmc.c **** 
 685:../../../support/device/gd32f4xx/peripherals/src/gd32f4xx_fmc.c **** /*!
 686:../../../support/device/gd32f4xx/peripherals/src/gd32f4xx_fmc.c ****     \brief    program the FMC user option byte
 687:../../../support/device/gd32f4xx/peripherals/src/gd32f4xx_fmc.c ****     \param[in]  ob_fwdgt: option byte watchdog value
 688:../../../support/device/gd32f4xx/peripherals/src/gd32f4xx_fmc.c ****                 only one parameter can be selected which is shown as below:
 689:../../../support/device/gd32f4xx/peripherals/src/gd32f4xx_fmc.c ****       \arg        OB_FWDGT_SW: software free watchdog
 690:../../../support/device/gd32f4xx/peripherals/src/gd32f4xx_fmc.c ****       \arg        OB_FWDGT_HW: hardware free watchdog
 691:../../../support/device/gd32f4xx/peripherals/src/gd32f4xx_fmc.c ****     \param[in]  ob_deepsleep: option byte deepsleep reset value
 692:../../../support/device/gd32f4xx/peripherals/src/gd32f4xx_fmc.c ****                 only one parameter can be selected which is shown as below:
 693:../../../support/device/gd32f4xx/peripherals/src/gd32f4xx_fmc.c ****       \arg        OB_DEEPSLEEP_NRST: no reset when entering deepsleep mode
 694:../../../support/device/gd32f4xx/peripherals/src/gd32f4xx_fmc.c ****       \arg        OB_DEEPSLEEP_RST: generate a reset instead of entering deepsleep mode
 695:../../../support/device/gd32f4xx/peripherals/src/gd32f4xx_fmc.c ****     \param[in]  ob_stdby:option byte standby reset value
 696:../../../support/device/gd32f4xx/peripherals/src/gd32f4xx_fmc.c ****                 only one parameter can be selected which is shown as below:
 697:../../../support/device/gd32f4xx/peripherals/src/gd32f4xx_fmc.c ****       \arg        OB_STDBY_NRST: no reset when entering standby mode
 698:../../../support/device/gd32f4xx/peripherals/src/gd32f4xx_fmc.c ****       \arg        OB_STDBY_RST: generate a reset instead of entering standby mode
 699:../../../support/device/gd32f4xx/peripherals/src/gd32f4xx_fmc.c ****     \param[out] none
 700:../../../support/device/gd32f4xx/peripherals/src/gd32f4xx_fmc.c ****     \retval     none
 701:../../../support/device/gd32f4xx/peripherals/src/gd32f4xx_fmc.c **** */
 702:../../../support/device/gd32f4xx/peripherals/src/gd32f4xx_fmc.c **** void ob_user_write(uint32_t ob_fwdgt, uint32_t ob_deepsleep, uint32_t ob_stdby)
 703:../../../support/device/gd32f4xx/peripherals/src/gd32f4xx_fmc.c **** {
 704:../../../support/device/gd32f4xx/peripherals/src/gd32f4xx_fmc.c ****     fmc_state_enum fmc_state = FMC_READY;
 705:../../../support/device/gd32f4xx/peripherals/src/gd32f4xx_fmc.c **** 
 706:../../../support/device/gd32f4xx/peripherals/src/gd32f4xx_fmc.c ****     /* wait for the FMC ready */
 707:../../../support/device/gd32f4xx/peripherals/src/gd32f4xx_fmc.c ****     fmc_state = fmc_ready_wait(FMC_TIMEOUT_COUNT);
 708:../../../support/device/gd32f4xx/peripherals/src/gd32f4xx_fmc.c **** 
ARM GAS  /var/folders/_f/88qcw_5n2jl40jjphvxyt7wh0000gn/T//ccTBtSfs.s 			page 16


 709:../../../support/device/gd32f4xx/peripherals/src/gd32f4xx_fmc.c ****     if(FMC_READY == fmc_state) {
 710:../../../support/device/gd32f4xx/peripherals/src/gd32f4xx_fmc.c ****         uint32_t reg;
 711:../../../support/device/gd32f4xx/peripherals/src/gd32f4xx_fmc.c **** 
 712:../../../support/device/gd32f4xx/peripherals/src/gd32f4xx_fmc.c ****         reg = FMC_OBCTL0;
 713:../../../support/device/gd32f4xx/peripherals/src/gd32f4xx_fmc.c ****         /* reset the OB_FWDGT, OB_DEEPSLEEP and OB_STDBY, set according to ob_fwdgt ,ob_deepsleep a
 714:../../../support/device/gd32f4xx/peripherals/src/gd32f4xx_fmc.c ****         reg &= ~(FMC_OBCTL0_NWDG_HW | FMC_OBCTL0_NRST_DPSLP | FMC_OBCTL0_NRST_STDBY);
 715:../../../support/device/gd32f4xx/peripherals/src/gd32f4xx_fmc.c ****         FMC_OBCTL0 = (reg | ob_fwdgt | ob_deepsleep | ob_stdby);
 716:../../../support/device/gd32f4xx/peripherals/src/gd32f4xx_fmc.c ****     }
 717:../../../support/device/gd32f4xx/peripherals/src/gd32f4xx_fmc.c **** }
 718:../../../support/device/gd32f4xx/peripherals/src/gd32f4xx_fmc.c **** 
 719:../../../support/device/gd32f4xx/peripherals/src/gd32f4xx_fmc.c **** /*!
 720:../../../support/device/gd32f4xx/peripherals/src/gd32f4xx_fmc.c ****     \brief    program the option byte BOR threshold value
 721:../../../support/device/gd32f4xx/peripherals/src/gd32f4xx_fmc.c ****     \param[in]  ob_bor_th: user option byte
 722:../../../support/device/gd32f4xx/peripherals/src/gd32f4xx_fmc.c ****                 only one parameter can be selected which is shown as below:
 723:../../../support/device/gd32f4xx/peripherals/src/gd32f4xx_fmc.c ****       \arg        OB_BOR_TH_VALUE3: BOR threshold value 3
 724:../../../support/device/gd32f4xx/peripherals/src/gd32f4xx_fmc.c ****       \arg        OB_BOR_TH_VALUE2: BOR threshold value 2
 725:../../../support/device/gd32f4xx/peripherals/src/gd32f4xx_fmc.c ****       \arg        OB_BOR_TH_VALUE1: BOR threshold value 1
 726:../../../support/device/gd32f4xx/peripherals/src/gd32f4xx_fmc.c ****       \arg        OB_BOR_TH_OFF: no BOR function
 727:../../../support/device/gd32f4xx/peripherals/src/gd32f4xx_fmc.c ****     \param[out] none
 728:../../../support/device/gd32f4xx/peripherals/src/gd32f4xx_fmc.c ****     \retval     none
 729:../../../support/device/gd32f4xx/peripherals/src/gd32f4xx_fmc.c **** */
 730:../../../support/device/gd32f4xx/peripherals/src/gd32f4xx_fmc.c **** void ob_user_bor_threshold(uint32_t ob_bor_th)
 731:../../../support/device/gd32f4xx/peripherals/src/gd32f4xx_fmc.c **** {
 732:../../../support/device/gd32f4xx/peripherals/src/gd32f4xx_fmc.c ****     uint32_t reg;
 733:../../../support/device/gd32f4xx/peripherals/src/gd32f4xx_fmc.c **** 
 734:../../../support/device/gd32f4xx/peripherals/src/gd32f4xx_fmc.c ****     reg = FMC_OBCTL0;
 735:../../../support/device/gd32f4xx/peripherals/src/gd32f4xx_fmc.c ****     /* set the BOR level */
 736:../../../support/device/gd32f4xx/peripherals/src/gd32f4xx_fmc.c ****     reg &= ~FMC_OBCTL0_BOR_TH;
 737:../../../support/device/gd32f4xx/peripherals/src/gd32f4xx_fmc.c ****     FMC_OBCTL0 = (reg | ob_bor_th);
 738:../../../support/device/gd32f4xx/peripherals/src/gd32f4xx_fmc.c **** }
 739:../../../support/device/gd32f4xx/peripherals/src/gd32f4xx_fmc.c **** 
 740:../../../support/device/gd32f4xx/peripherals/src/gd32f4xx_fmc.c **** /*!
 741:../../../support/device/gd32f4xx/peripherals/src/gd32f4xx_fmc.c ****     \brief    configure the option byte boot bank value
 742:../../../support/device/gd32f4xx/peripherals/src/gd32f4xx_fmc.c ****     \param[in]  boot_mode: specifies the option byte boot bank value
 743:../../../support/device/gd32f4xx/peripherals/src/gd32f4xx_fmc.c ****                 only one parameter can be selected which is shown as below:
 744:../../../support/device/gd32f4xx/peripherals/src/gd32f4xx_fmc.c ****       \arg        OB_BB_DISABLE: boot from bank0
 745:../../../support/device/gd32f4xx/peripherals/src/gd32f4xx_fmc.c ****       \arg        OB_BB_ENABLE: boot from bank1 or bank0 if bank1 is void
 746:../../../support/device/gd32f4xx/peripherals/src/gd32f4xx_fmc.c ****     \param[out] none
 747:../../../support/device/gd32f4xx/peripherals/src/gd32f4xx_fmc.c ****     \retval     none
 748:../../../support/device/gd32f4xx/peripherals/src/gd32f4xx_fmc.c **** */
 749:../../../support/device/gd32f4xx/peripherals/src/gd32f4xx_fmc.c **** void ob_boot_mode_config(uint32_t boot_mode)
 750:../../../support/device/gd32f4xx/peripherals/src/gd32f4xx_fmc.c **** {
 751:../../../support/device/gd32f4xx/peripherals/src/gd32f4xx_fmc.c ****     uint32_t reg;
 752:../../../support/device/gd32f4xx/peripherals/src/gd32f4xx_fmc.c **** 
 753:../../../support/device/gd32f4xx/peripherals/src/gd32f4xx_fmc.c ****     reg = FMC_OBCTL0;
 754:../../../support/device/gd32f4xx/peripherals/src/gd32f4xx_fmc.c ****     /* set option byte boot bank value */
 755:../../../support/device/gd32f4xx/peripherals/src/gd32f4xx_fmc.c ****     reg &= ~FMC_OBCTL0_BB;
 756:../../../support/device/gd32f4xx/peripherals/src/gd32f4xx_fmc.c ****     FMC_OBCTL0 = (reg | boot_mode);
 757:../../../support/device/gd32f4xx/peripherals/src/gd32f4xx_fmc.c **** }
 758:../../../support/device/gd32f4xx/peripherals/src/gd32f4xx_fmc.c **** 
 759:../../../support/device/gd32f4xx/peripherals/src/gd32f4xx_fmc.c **** /*!
 760:../../../support/device/gd32f4xx/peripherals/src/gd32f4xx_fmc.c ****     \brief    get the FMC user option byte
 761:../../../support/device/gd32f4xx/peripherals/src/gd32f4xx_fmc.c ****     \param[in]  none
 762:../../../support/device/gd32f4xx/peripherals/src/gd32f4xx_fmc.c ****     \param[out] none
 763:../../../support/device/gd32f4xx/peripherals/src/gd32f4xx_fmc.c ****     \retval     the FMC user option byte values: ob_fwdgt(Bit0), ob_deepsleep(Bit1), ob_stdby(Bit2)
 764:../../../support/device/gd32f4xx/peripherals/src/gd32f4xx_fmc.c **** */
 765:../../../support/device/gd32f4xx/peripherals/src/gd32f4xx_fmc.c **** uint8_t ob_user_get(void)
ARM GAS  /var/folders/_f/88qcw_5n2jl40jjphvxyt7wh0000gn/T//ccTBtSfs.s 			page 17


 766:../../../support/device/gd32f4xx/peripherals/src/gd32f4xx_fmc.c **** {
 767:../../../support/device/gd32f4xx/peripherals/src/gd32f4xx_fmc.c ****     return (uint8_t)((uint8_t)(FMC_OBCTL0 >> 5U) & 0x07U);
 768:../../../support/device/gd32f4xx/peripherals/src/gd32f4xx_fmc.c **** }
 769:../../../support/device/gd32f4xx/peripherals/src/gd32f4xx_fmc.c **** 
 770:../../../support/device/gd32f4xx/peripherals/src/gd32f4xx_fmc.c **** /*!
 771:../../../support/device/gd32f4xx/peripherals/src/gd32f4xx_fmc.c ****     \brief    get the FMC option byte write protection
 772:../../../support/device/gd32f4xx/peripherals/src/gd32f4xx_fmc.c ****     \param[in]  none
 773:../../../support/device/gd32f4xx/peripherals/src/gd32f4xx_fmc.c ****     \param[out] none
 774:../../../support/device/gd32f4xx/peripherals/src/gd32f4xx_fmc.c ****     \retval     the FMC write protection option byte value
 775:../../../support/device/gd32f4xx/peripherals/src/gd32f4xx_fmc.c **** */
 776:../../../support/device/gd32f4xx/peripherals/src/gd32f4xx_fmc.c **** uint16_t ob_write_protection0_get(void)
 777:../../../support/device/gd32f4xx/peripherals/src/gd32f4xx_fmc.c **** {
 778:../../../support/device/gd32f4xx/peripherals/src/gd32f4xx_fmc.c ****     /* return the FMC write protection option byte value */
 779:../../../support/device/gd32f4xx/peripherals/src/gd32f4xx_fmc.c ****     return (uint16_t)(((uint16_t)(FMC_OBCTL0 >> 16U)) & 0x0FFFU);
 780:../../../support/device/gd32f4xx/peripherals/src/gd32f4xx_fmc.c **** }
 781:../../../support/device/gd32f4xx/peripherals/src/gd32f4xx_fmc.c **** 
 782:../../../support/device/gd32f4xx/peripherals/src/gd32f4xx_fmc.c **** /*!
 783:../../../support/device/gd32f4xx/peripherals/src/gd32f4xx_fmc.c ****     \brief    get the FMC option byte write protection
 784:../../../support/device/gd32f4xx/peripherals/src/gd32f4xx_fmc.c ****     \param[in]  none
 785:../../../support/device/gd32f4xx/peripherals/src/gd32f4xx_fmc.c ****     \param[out] none
 786:../../../support/device/gd32f4xx/peripherals/src/gd32f4xx_fmc.c ****     \retval     the FMC write protection option byte value
 787:../../../support/device/gd32f4xx/peripherals/src/gd32f4xx_fmc.c **** */
 788:../../../support/device/gd32f4xx/peripherals/src/gd32f4xx_fmc.c **** uint16_t ob_write_protection1_get(void)
 789:../../../support/device/gd32f4xx/peripherals/src/gd32f4xx_fmc.c **** {
 790:../../../support/device/gd32f4xx/peripherals/src/gd32f4xx_fmc.c ****     /* return the the FMC write protection option byte value */
 791:../../../support/device/gd32f4xx/peripherals/src/gd32f4xx_fmc.c ****     return (uint16_t)(((uint16_t)(FMC_OBCTL1 >> 16U)) & 0x0FFFU);
 792:../../../support/device/gd32f4xx/peripherals/src/gd32f4xx_fmc.c **** }
 793:../../../support/device/gd32f4xx/peripherals/src/gd32f4xx_fmc.c **** 
 794:../../../support/device/gd32f4xx/peripherals/src/gd32f4xx_fmc.c **** /*!
 795:../../../support/device/gd32f4xx/peripherals/src/gd32f4xx_fmc.c ****     \brief    get the FMC erase/program protection and D-bus read protection option bytes value
 796:../../../support/device/gd32f4xx/peripherals/src/gd32f4xx_fmc.c ****     \param[in]  none
 797:../../../support/device/gd32f4xx/peripherals/src/gd32f4xx_fmc.c ****     \param[out] none
 798:../../../support/device/gd32f4xx/peripherals/src/gd32f4xx_fmc.c ****     \retval     the FMC erase/program protection and D-bus read protection option bytes value
 799:../../../support/device/gd32f4xx/peripherals/src/gd32f4xx_fmc.c **** */
 800:../../../support/device/gd32f4xx/peripherals/src/gd32f4xx_fmc.c **** uint16_t ob_drp0_get(void)
 801:../../../support/device/gd32f4xx/peripherals/src/gd32f4xx_fmc.c **** {
 802:../../../support/device/gd32f4xx/peripherals/src/gd32f4xx_fmc.c ****     /* return the FMC erase/program protection and D-bus read protection option bytes value */
 803:../../../support/device/gd32f4xx/peripherals/src/gd32f4xx_fmc.c ****     if(FMC_OBCTL0 & FMC_OBCTL0_DRP) {
 804:../../../support/device/gd32f4xx/peripherals/src/gd32f4xx_fmc.c ****         return (uint16_t)(((uint16_t)(FMC_OBCTL0 >> 16U)) & 0x0FFFU);
 805:../../../support/device/gd32f4xx/peripherals/src/gd32f4xx_fmc.c ****     } else {
 806:../../../support/device/gd32f4xx/peripherals/src/gd32f4xx_fmc.c ****         return 0xF000U;
 807:../../../support/device/gd32f4xx/peripherals/src/gd32f4xx_fmc.c ****     }
 808:../../../support/device/gd32f4xx/peripherals/src/gd32f4xx_fmc.c **** }
 809:../../../support/device/gd32f4xx/peripherals/src/gd32f4xx_fmc.c **** 
 810:../../../support/device/gd32f4xx/peripherals/src/gd32f4xx_fmc.c **** /*!
 811:../../../support/device/gd32f4xx/peripherals/src/gd32f4xx_fmc.c ****     \brief    get the FMC erase/program protection and D-bus read protection option bytes value
 812:../../../support/device/gd32f4xx/peripherals/src/gd32f4xx_fmc.c ****     \param[in]  none
 813:../../../support/device/gd32f4xx/peripherals/src/gd32f4xx_fmc.c ****     \param[out] none
 814:../../../support/device/gd32f4xx/peripherals/src/gd32f4xx_fmc.c ****     \retval     the FMC erase/program protection and D-bus read protection option bytes value
 815:../../../support/device/gd32f4xx/peripherals/src/gd32f4xx_fmc.c **** */
 816:../../../support/device/gd32f4xx/peripherals/src/gd32f4xx_fmc.c **** uint16_t ob_drp1_get(void)
 817:../../../support/device/gd32f4xx/peripherals/src/gd32f4xx_fmc.c **** {
 818:../../../support/device/gd32f4xx/peripherals/src/gd32f4xx_fmc.c ****     /* return the FMC erase/program protection and D-bus read protection option bytes value */
 819:../../../support/device/gd32f4xx/peripherals/src/gd32f4xx_fmc.c ****     if(FMC_OBCTL0 & FMC_OBCTL0_DRP) {
 820:../../../support/device/gd32f4xx/peripherals/src/gd32f4xx_fmc.c ****         return (uint16_t)(((uint16_t)(FMC_OBCTL1 >> 16U)) & 0x0FFFU);
 821:../../../support/device/gd32f4xx/peripherals/src/gd32f4xx_fmc.c ****     } else {
 822:../../../support/device/gd32f4xx/peripherals/src/gd32f4xx_fmc.c ****         return 0xF000U;
ARM GAS  /var/folders/_f/88qcw_5n2jl40jjphvxyt7wh0000gn/T//ccTBtSfs.s 			page 18


 823:../../../support/device/gd32f4xx/peripherals/src/gd32f4xx_fmc.c ****     }
 824:../../../support/device/gd32f4xx/peripherals/src/gd32f4xx_fmc.c **** }
 825:../../../support/device/gd32f4xx/peripherals/src/gd32f4xx_fmc.c **** 
 826:../../../support/device/gd32f4xx/peripherals/src/gd32f4xx_fmc.c **** /*!
 827:../../../support/device/gd32f4xx/peripherals/src/gd32f4xx_fmc.c ****     \brief    get option byte security protection code value
 828:../../../support/device/gd32f4xx/peripherals/src/gd32f4xx_fmc.c ****     \param[in]  none
 829:../../../support/device/gd32f4xx/peripherals/src/gd32f4xx_fmc.c ****     \param[out] none
 830:../../../support/device/gd32f4xx/peripherals/src/gd32f4xx_fmc.c ****     \retval     FlagStatus: SET or RESET
 831:../../../support/device/gd32f4xx/peripherals/src/gd32f4xx_fmc.c **** */
 832:../../../support/device/gd32f4xx/peripherals/src/gd32f4xx_fmc.c **** FlagStatus ob_spc_get(void)
 833:../../../support/device/gd32f4xx/peripherals/src/gd32f4xx_fmc.c **** {
 834:../../../support/device/gd32f4xx/peripherals/src/gd32f4xx_fmc.c ****     FlagStatus spc_state = RESET;
 835:../../../support/device/gd32f4xx/peripherals/src/gd32f4xx_fmc.c **** 
 836:../../../support/device/gd32f4xx/peripherals/src/gd32f4xx_fmc.c ****     if(((uint8_t)(FMC_OBCTL0 >> 8U)) != FMC_NSPC) {
 837:../../../support/device/gd32f4xx/peripherals/src/gd32f4xx_fmc.c ****         spc_state = SET;
 838:../../../support/device/gd32f4xx/peripherals/src/gd32f4xx_fmc.c ****     } else {
 839:../../../support/device/gd32f4xx/peripherals/src/gd32f4xx_fmc.c ****         spc_state = RESET;
 840:../../../support/device/gd32f4xx/peripherals/src/gd32f4xx_fmc.c ****     }
 841:../../../support/device/gd32f4xx/peripherals/src/gd32f4xx_fmc.c ****     return spc_state;
 842:../../../support/device/gd32f4xx/peripherals/src/gd32f4xx_fmc.c **** }
 843:../../../support/device/gd32f4xx/peripherals/src/gd32f4xx_fmc.c **** 
 844:../../../support/device/gd32f4xx/peripherals/src/gd32f4xx_fmc.c **** /*!
 845:../../../support/device/gd32f4xx/peripherals/src/gd32f4xx_fmc.c ****     \brief    get the FMC option byte BOR threshold value
 846:../../../support/device/gd32f4xx/peripherals/src/gd32f4xx_fmc.c ****     \param[in]  none
 847:../../../support/device/gd32f4xx/peripherals/src/gd32f4xx_fmc.c ****     \param[out] none
 848:../../../support/device/gd32f4xx/peripherals/src/gd32f4xx_fmc.c ****     \retval     the FMC BOR threshold value:OB_BOR_TH_OFF,OB_BOR_TH_VALUE1,OB_BOR_TH_VALUE2,OB_BOR_
 849:../../../support/device/gd32f4xx/peripherals/src/gd32f4xx_fmc.c **** */
 850:../../../support/device/gd32f4xx/peripherals/src/gd32f4xx_fmc.c **** uint8_t ob_user_bor_threshold_get(void)
 851:../../../support/device/gd32f4xx/peripherals/src/gd32f4xx_fmc.c **** {
 852:../../../support/device/gd32f4xx/peripherals/src/gd32f4xx_fmc.c ****     /* return the FMC BOR threshold value */
 853:../../../support/device/gd32f4xx/peripherals/src/gd32f4xx_fmc.c ****     return (uint8_t)((uint8_t)FMC_OBCTL0 & 0x0CU);
 854:../../../support/device/gd32f4xx/peripherals/src/gd32f4xx_fmc.c **** }
 855:../../../support/device/gd32f4xx/peripherals/src/gd32f4xx_fmc.c **** 
 856:../../../support/device/gd32f4xx/peripherals/src/gd32f4xx_fmc.c **** /*!
 857:../../../support/device/gd32f4xx/peripherals/src/gd32f4xx_fmc.c ****     \brief    get flag set or reset
 858:../../../support/device/gd32f4xx/peripherals/src/gd32f4xx_fmc.c ****     \param[in]  fmc_flag: check FMC flag
 859:../../../support/device/gd32f4xx/peripherals/src/gd32f4xx_fmc.c ****                 only one parameter can be selected which is shown as below:
 860:../../../support/device/gd32f4xx/peripherals/src/gd32f4xx_fmc.c ****       \arg        FMC_FLAG_BUSY: FMC busy flag bit
 861:../../../support/device/gd32f4xx/peripherals/src/gd32f4xx_fmc.c ****       \arg        FMC_FLAG_RDDERR: FMC read D-bus protection error flag bit
 862:../../../support/device/gd32f4xx/peripherals/src/gd32f4xx_fmc.c ****       \arg        FMC_FLAG_PGSERR: FMC program sequence error flag bit
 863:../../../support/device/gd32f4xx/peripherals/src/gd32f4xx_fmc.c ****       \arg        FMC_FLAG_PGMERR: FMC program size not match error flag bit
 864:../../../support/device/gd32f4xx/peripherals/src/gd32f4xx_fmc.c ****       \arg        FMC_FLAG_WPERR: FMC Erase/Program protection error flag bit
 865:../../../support/device/gd32f4xx/peripherals/src/gd32f4xx_fmc.c ****       \arg        FMC_FLAG_OPERR: FMC operation error flag bit
 866:../../../support/device/gd32f4xx/peripherals/src/gd32f4xx_fmc.c ****       \arg        FMC_FLAG_END: FMC end of operation flag bit
 867:../../../support/device/gd32f4xx/peripherals/src/gd32f4xx_fmc.c ****     \param[out] none
 868:../../../support/device/gd32f4xx/peripherals/src/gd32f4xx_fmc.c ****     \retval     FlagStatus: SET or RESET
 869:../../../support/device/gd32f4xx/peripherals/src/gd32f4xx_fmc.c **** */
 870:../../../support/device/gd32f4xx/peripherals/src/gd32f4xx_fmc.c **** FlagStatus fmc_flag_get(uint32_t fmc_flag)
 871:../../../support/device/gd32f4xx/peripherals/src/gd32f4xx_fmc.c **** {
 872:../../../support/device/gd32f4xx/peripherals/src/gd32f4xx_fmc.c ****     if(FMC_STAT & fmc_flag) {
 873:../../../support/device/gd32f4xx/peripherals/src/gd32f4xx_fmc.c ****         return SET;
 874:../../../support/device/gd32f4xx/peripherals/src/gd32f4xx_fmc.c ****     }
 875:../../../support/device/gd32f4xx/peripherals/src/gd32f4xx_fmc.c ****     /* return the state of corresponding FMC flag */
 876:../../../support/device/gd32f4xx/peripherals/src/gd32f4xx_fmc.c ****     return RESET;
 877:../../../support/device/gd32f4xx/peripherals/src/gd32f4xx_fmc.c **** }
 878:../../../support/device/gd32f4xx/peripherals/src/gd32f4xx_fmc.c **** 
 879:../../../support/device/gd32f4xx/peripherals/src/gd32f4xx_fmc.c **** /*!
ARM GAS  /var/folders/_f/88qcw_5n2jl40jjphvxyt7wh0000gn/T//ccTBtSfs.s 			page 19


 880:../../../support/device/gd32f4xx/peripherals/src/gd32f4xx_fmc.c ****     \brief    clear the FMC pending flag
 881:../../../support/device/gd32f4xx/peripherals/src/gd32f4xx_fmc.c ****     \param[in]  FMC_flag: clear FMC flag
 882:../../../support/device/gd32f4xx/peripherals/src/gd32f4xx_fmc.c ****                 only one parameter can be selected which is shown as below:
 883:../../../support/device/gd32f4xx/peripherals/src/gd32f4xx_fmc.c ****       \arg        FMC_FLAG_RDDERR: FMC read D-bus protection error flag bit
 884:../../../support/device/gd32f4xx/peripherals/src/gd32f4xx_fmc.c ****       \arg        FMC_FLAG_PGSERR: FMC program sequence error flag bit
 885:../../../support/device/gd32f4xx/peripherals/src/gd32f4xx_fmc.c ****       \arg        FMC_FLAG_PGMERR: FMC program size not match error flag bit
 886:../../../support/device/gd32f4xx/peripherals/src/gd32f4xx_fmc.c ****       \arg        FMC_FLAG_WPERR: FMC erase/program protection error flag bit
 887:../../../support/device/gd32f4xx/peripherals/src/gd32f4xx_fmc.c ****       \arg        FMC_FLAG_OPERR: FMC operation error flag bit
 888:../../../support/device/gd32f4xx/peripherals/src/gd32f4xx_fmc.c ****       \arg        FMC_FLAG_END: FMC end of operation flag bit
 889:../../../support/device/gd32f4xx/peripherals/src/gd32f4xx_fmc.c ****     \param[out] none
 890:../../../support/device/gd32f4xx/peripherals/src/gd32f4xx_fmc.c ****     \retval     none
 891:../../../support/device/gd32f4xx/peripherals/src/gd32f4xx_fmc.c **** */
 892:../../../support/device/gd32f4xx/peripherals/src/gd32f4xx_fmc.c **** void fmc_flag_clear(uint32_t fmc_flag)
 893:../../../support/device/gd32f4xx/peripherals/src/gd32f4xx_fmc.c **** {
 894:../../../support/device/gd32f4xx/peripherals/src/gd32f4xx_fmc.c ****     /* clear the flags */
 895:../../../support/device/gd32f4xx/peripherals/src/gd32f4xx_fmc.c ****     FMC_STAT = fmc_flag;
 896:../../../support/device/gd32f4xx/peripherals/src/gd32f4xx_fmc.c **** }
 897:../../../support/device/gd32f4xx/peripherals/src/gd32f4xx_fmc.c **** 
 898:../../../support/device/gd32f4xx/peripherals/src/gd32f4xx_fmc.c **** /*!
 899:../../../support/device/gd32f4xx/peripherals/src/gd32f4xx_fmc.c ****     \brief    enable FMC interrupt
 900:../../../support/device/gd32f4xx/peripherals/src/gd32f4xx_fmc.c ****     \param[in]  fmc_int: the FMC interrupt source
 901:../../../support/device/gd32f4xx/peripherals/src/gd32f4xx_fmc.c ****                 only one parameter can be selected which is shown as below:
 902:../../../support/device/gd32f4xx/peripherals/src/gd32f4xx_fmc.c ****       \arg        FMC_INT_END: enable FMC end of program interrupt
 903:../../../support/device/gd32f4xx/peripherals/src/gd32f4xx_fmc.c ****       \arg        FMC_INT_ERR: enable FMC error interrupt
 904:../../../support/device/gd32f4xx/peripherals/src/gd32f4xx_fmc.c ****     \param[out] none
 905:../../../support/device/gd32f4xx/peripherals/src/gd32f4xx_fmc.c ****     \retval     none
 906:../../../support/device/gd32f4xx/peripherals/src/gd32f4xx_fmc.c **** */
 907:../../../support/device/gd32f4xx/peripherals/src/gd32f4xx_fmc.c **** void fmc_interrupt_enable(uint32_t fmc_int)
 908:../../../support/device/gd32f4xx/peripherals/src/gd32f4xx_fmc.c **** {
 909:../../../support/device/gd32f4xx/peripherals/src/gd32f4xx_fmc.c ****     FMC_CTL |= fmc_int;
 910:../../../support/device/gd32f4xx/peripherals/src/gd32f4xx_fmc.c **** }
 911:../../../support/device/gd32f4xx/peripherals/src/gd32f4xx_fmc.c **** 
 912:../../../support/device/gd32f4xx/peripherals/src/gd32f4xx_fmc.c **** /*!
 913:../../../support/device/gd32f4xx/peripherals/src/gd32f4xx_fmc.c ****     \brief    disable FMC interrupt
 914:../../../support/device/gd32f4xx/peripherals/src/gd32f4xx_fmc.c ****     \param[in]  fmc_int: the FMC interrupt source
 915:../../../support/device/gd32f4xx/peripherals/src/gd32f4xx_fmc.c ****                 only one parameter can be selected which is shown as below:
 916:../../../support/device/gd32f4xx/peripherals/src/gd32f4xx_fmc.c ****       \arg        FMC_INT_END: disable FMC end of program interrupt
 917:../../../support/device/gd32f4xx/peripherals/src/gd32f4xx_fmc.c ****       \arg        FMC_INT_ERR: disable FMC error interrupt
 918:../../../support/device/gd32f4xx/peripherals/src/gd32f4xx_fmc.c ****     \param[out] none
 919:../../../support/device/gd32f4xx/peripherals/src/gd32f4xx_fmc.c ****     \retval     none
 920:../../../support/device/gd32f4xx/peripherals/src/gd32f4xx_fmc.c **** */
 921:../../../support/device/gd32f4xx/peripherals/src/gd32f4xx_fmc.c **** void fmc_interrupt_disable(uint32_t fmc_int)
 922:../../../support/device/gd32f4xx/peripherals/src/gd32f4xx_fmc.c **** {
 923:../../../support/device/gd32f4xx/peripherals/src/gd32f4xx_fmc.c ****     FMC_CTL &= ~(uint32_t)fmc_int;
 924:../../../support/device/gd32f4xx/peripherals/src/gd32f4xx_fmc.c **** }
 925:../../../support/device/gd32f4xx/peripherals/src/gd32f4xx_fmc.c **** 
 926:../../../support/device/gd32f4xx/peripherals/src/gd32f4xx_fmc.c **** /*!
 927:../../../support/device/gd32f4xx/peripherals/src/gd32f4xx_fmc.c ****     \brief    get FMC interrupt flag set or reset
 928:../../../support/device/gd32f4xx/peripherals/src/gd32f4xx_fmc.c ****     \param[in]  fmc_int_flag: FMC interrupt flag
 929:../../../support/device/gd32f4xx/peripherals/src/gd32f4xx_fmc.c ****                 only one parameter can be selected which is shown as below:
 930:../../../support/device/gd32f4xx/peripherals/src/gd32f4xx_fmc.c ****       \arg        FMC_INT_FLAG_RDDERR: FMC read D-bus protection error interrupt flag
 931:../../../support/device/gd32f4xx/peripherals/src/gd32f4xx_fmc.c ****       \arg        FMC_INT_FLAG_PGSERR: FMC program sequence error interrupt flag
 932:../../../support/device/gd32f4xx/peripherals/src/gd32f4xx_fmc.c ****       \arg        FMC_INT_FLAG_PGMERR: FMC program size not match error interrupt flag
 933:../../../support/device/gd32f4xx/peripherals/src/gd32f4xx_fmc.c ****       \arg        FMC_INT_FLAG_WPERR: FMC Erase/Program protection error interrupt flag
 934:../../../support/device/gd32f4xx/peripherals/src/gd32f4xx_fmc.c ****       \arg        FMC_INT_FLAG_OPERR: FMC operation error interrupt flag
 935:../../../support/device/gd32f4xx/peripherals/src/gd32f4xx_fmc.c ****       \arg        FMC_INT_FLAG_END: FMC end of operation interrupt flag
 936:../../../support/device/gd32f4xx/peripherals/src/gd32f4xx_fmc.c ****     \param[out] none
ARM GAS  /var/folders/_f/88qcw_5n2jl40jjphvxyt7wh0000gn/T//ccTBtSfs.s 			page 20


 937:../../../support/device/gd32f4xx/peripherals/src/gd32f4xx_fmc.c ****     \retval     FlagStatus: SET or RESET
 938:../../../support/device/gd32f4xx/peripherals/src/gd32f4xx_fmc.c **** */
 939:../../../support/device/gd32f4xx/peripherals/src/gd32f4xx_fmc.c **** FlagStatus fmc_interrupt_flag_get(uint32_t fmc_int_flag)
 940:../../../support/device/gd32f4xx/peripherals/src/gd32f4xx_fmc.c **** {
 941:../../../support/device/gd32f4xx/peripherals/src/gd32f4xx_fmc.c ****     if(FMC_FLAG_END == fmc_int_flag) {
 942:../../../support/device/gd32f4xx/peripherals/src/gd32f4xx_fmc.c ****         /* end of operation interrupt flag */
 943:../../../support/device/gd32f4xx/peripherals/src/gd32f4xx_fmc.c ****         if(FMC_CTL & FMC_CTL_ENDIE) {
 944:../../../support/device/gd32f4xx/peripherals/src/gd32f4xx_fmc.c ****             if(FMC_STAT & fmc_int_flag) {
 945:../../../support/device/gd32f4xx/peripherals/src/gd32f4xx_fmc.c ****                 return SET;
 946:../../../support/device/gd32f4xx/peripherals/src/gd32f4xx_fmc.c ****             }
 947:../../../support/device/gd32f4xx/peripherals/src/gd32f4xx_fmc.c ****         }
 948:../../../support/device/gd32f4xx/peripherals/src/gd32f4xx_fmc.c ****     } else {
 949:../../../support/device/gd32f4xx/peripherals/src/gd32f4xx_fmc.c ****         /* error interrupt flags */
 950:../../../support/device/gd32f4xx/peripherals/src/gd32f4xx_fmc.c ****         if(FMC_CTL & FMC_CTL_ERRIE) {
 951:../../../support/device/gd32f4xx/peripherals/src/gd32f4xx_fmc.c ****             if(FMC_STAT & fmc_int_flag) {
 952:../../../support/device/gd32f4xx/peripherals/src/gd32f4xx_fmc.c ****                 return SET;
 953:../../../support/device/gd32f4xx/peripherals/src/gd32f4xx_fmc.c ****             }
 954:../../../support/device/gd32f4xx/peripherals/src/gd32f4xx_fmc.c ****         }
 955:../../../support/device/gd32f4xx/peripherals/src/gd32f4xx_fmc.c ****     }
 956:../../../support/device/gd32f4xx/peripherals/src/gd32f4xx_fmc.c **** 
 957:../../../support/device/gd32f4xx/peripherals/src/gd32f4xx_fmc.c ****     return RESET;
 958:../../../support/device/gd32f4xx/peripherals/src/gd32f4xx_fmc.c **** }
 959:../../../support/device/gd32f4xx/peripherals/src/gd32f4xx_fmc.c **** 
 960:../../../support/device/gd32f4xx/peripherals/src/gd32f4xx_fmc.c **** /*!
 961:../../../support/device/gd32f4xx/peripherals/src/gd32f4xx_fmc.c ****     \brief    clear the FMC interrupt flag
 962:../../../support/device/gd32f4xx/peripherals/src/gd32f4xx_fmc.c ****     \param[in]  fmc_int_flag: FMC interrupt flag
 963:../../../support/device/gd32f4xx/peripherals/src/gd32f4xx_fmc.c ****                 only one parameter can be selected which is shown as below:
 964:../../../support/device/gd32f4xx/peripherals/src/gd32f4xx_fmc.c ****       \arg        FMC_INT_FLAG_RDDERR: FMC read D-bus protection error interrupt flag
 965:../../../support/device/gd32f4xx/peripherals/src/gd32f4xx_fmc.c ****       \arg        FMC_INT_FLAG_PGSERR: FMC program sequence error interrupt flag
 966:../../../support/device/gd32f4xx/peripherals/src/gd32f4xx_fmc.c ****       \arg        FMC_INT_FLAG_PGMERR: FMC program size not match error interrupt flag
 967:../../../support/device/gd32f4xx/peripherals/src/gd32f4xx_fmc.c ****       \arg        FMC_INT_FLAG_WPERR: FMC Erase/Program protection error interrupt flag
 968:../../../support/device/gd32f4xx/peripherals/src/gd32f4xx_fmc.c ****       \arg        FMC_INT_FLAG_OPERR: FMC operation error interrupt flag
 969:../../../support/device/gd32f4xx/peripherals/src/gd32f4xx_fmc.c ****       \arg        FMC_INT_FLAG_END: FMC end of operation interrupt flag
 970:../../../support/device/gd32f4xx/peripherals/src/gd32f4xx_fmc.c ****     \param[out] none
 971:../../../support/device/gd32f4xx/peripherals/src/gd32f4xx_fmc.c ****     \retval     none
 972:../../../support/device/gd32f4xx/peripherals/src/gd32f4xx_fmc.c **** */
 973:../../../support/device/gd32f4xx/peripherals/src/gd32f4xx_fmc.c **** void fmc_interrupt_flag_clear(uint32_t fmc_int_flag)
 974:../../../support/device/gd32f4xx/peripherals/src/gd32f4xx_fmc.c **** {
 975:../../../support/device/gd32f4xx/peripherals/src/gd32f4xx_fmc.c ****     /* clear the interrupt flag */
 976:../../../support/device/gd32f4xx/peripherals/src/gd32f4xx_fmc.c ****     FMC_STAT = fmc_int_flag;
 977:../../../support/device/gd32f4xx/peripherals/src/gd32f4xx_fmc.c **** }
 978:../../../support/device/gd32f4xx/peripherals/src/gd32f4xx_fmc.c **** 
 979:../../../support/device/gd32f4xx/peripherals/src/gd32f4xx_fmc.c **** /*!
 980:../../../support/device/gd32f4xx/peripherals/src/gd32f4xx_fmc.c ****     \brief    get the FMC state
 981:../../../support/device/gd32f4xx/peripherals/src/gd32f4xx_fmc.c ****     \param[in]  none
 982:../../../support/device/gd32f4xx/peripherals/src/gd32f4xx_fmc.c ****     \param[out] none
 983:../../../support/device/gd32f4xx/peripherals/src/gd32f4xx_fmc.c ****     \retval     state of FMC
 984:../../../support/device/gd32f4xx/peripherals/src/gd32f4xx_fmc.c ****       \arg        FMC_READY: the operation has been completed
 985:../../../support/device/gd32f4xx/peripherals/src/gd32f4xx_fmc.c ****       \arg        FMC_BUSY: the operation is in progress
 986:../../../support/device/gd32f4xx/peripherals/src/gd32f4xx_fmc.c ****       \arg        FMC_RDDERR: read D-bus protection error
 987:../../../support/device/gd32f4xx/peripherals/src/gd32f4xx_fmc.c ****       \arg        FMC_PGSERR: program sequence error
 988:../../../support/device/gd32f4xx/peripherals/src/gd32f4xx_fmc.c ****       \arg        FMC_PGMERR: program size not match error
 989:../../../support/device/gd32f4xx/peripherals/src/gd32f4xx_fmc.c ****       \arg        FMC_WPERR: erase/program protection error
 990:../../../support/device/gd32f4xx/peripherals/src/gd32f4xx_fmc.c ****       \arg        FMC_OPERR: operation error
 991:../../../support/device/gd32f4xx/peripherals/src/gd32f4xx_fmc.c **** */
 992:../../../support/device/gd32f4xx/peripherals/src/gd32f4xx_fmc.c **** fmc_state_enum fmc_state_get(void)
 993:../../../support/device/gd32f4xx/peripherals/src/gd32f4xx_fmc.c **** {
ARM GAS  /var/folders/_f/88qcw_5n2jl40jjphvxyt7wh0000gn/T//ccTBtSfs.s 			page 21


 994:../../../support/device/gd32f4xx/peripherals/src/gd32f4xx_fmc.c ****     fmc_state_enum fmc_state = FMC_READY;
 995:../../../support/device/gd32f4xx/peripherals/src/gd32f4xx_fmc.c ****     uint32_t temp_val = FMC_STAT;
 996:../../../support/device/gd32f4xx/peripherals/src/gd32f4xx_fmc.c **** 
 997:../../../support/device/gd32f4xx/peripherals/src/gd32f4xx_fmc.c ****     if(RESET != (temp_val & FMC_FLAG_BUSY)) {
 998:../../../support/device/gd32f4xx/peripherals/src/gd32f4xx_fmc.c ****         fmc_state = FMC_BUSY;
 999:../../../support/device/gd32f4xx/peripherals/src/gd32f4xx_fmc.c ****     } else if(RESET != (temp_val & FMC_FLAG_RDDERR)) {
1000:../../../support/device/gd32f4xx/peripherals/src/gd32f4xx_fmc.c ****         fmc_state = FMC_RDDERR;
1001:../../../support/device/gd32f4xx/peripherals/src/gd32f4xx_fmc.c ****     } else if(RESET != (temp_val & FMC_FLAG_PGSERR)) {
1002:../../../support/device/gd32f4xx/peripherals/src/gd32f4xx_fmc.c ****         fmc_state = FMC_PGSERR;
1003:../../../support/device/gd32f4xx/peripherals/src/gd32f4xx_fmc.c ****     } else if(RESET != (temp_val & FMC_FLAG_PGMERR)) {
1004:../../../support/device/gd32f4xx/peripherals/src/gd32f4xx_fmc.c ****         fmc_state = FMC_PGMERR;
1005:../../../support/device/gd32f4xx/peripherals/src/gd32f4xx_fmc.c ****     } else if(RESET != (temp_val & FMC_FLAG_WPERR)) {
1006:../../../support/device/gd32f4xx/peripherals/src/gd32f4xx_fmc.c ****         fmc_state = FMC_WPERR;
1007:../../../support/device/gd32f4xx/peripherals/src/gd32f4xx_fmc.c ****     } else if(RESET != (temp_val & FMC_FLAG_OPERR)) {
1008:../../../support/device/gd32f4xx/peripherals/src/gd32f4xx_fmc.c ****         fmc_state = FMC_OPERR;
1009:../../../support/device/gd32f4xx/peripherals/src/gd32f4xx_fmc.c ****     } else {
1010:../../../support/device/gd32f4xx/peripherals/src/gd32f4xx_fmc.c ****         fmc_state = FMC_READY;
1011:../../../support/device/gd32f4xx/peripherals/src/gd32f4xx_fmc.c ****     }
1012:../../../support/device/gd32f4xx/peripherals/src/gd32f4xx_fmc.c **** 
1013:../../../support/device/gd32f4xx/peripherals/src/gd32f4xx_fmc.c ****     /* return the FMC state */
1014:../../../support/device/gd32f4xx/peripherals/src/gd32f4xx_fmc.c ****     return fmc_state;
1015:../../../support/device/gd32f4xx/peripherals/src/gd32f4xx_fmc.c **** }
1016:../../../support/device/gd32f4xx/peripherals/src/gd32f4xx_fmc.c **** 
1017:../../../support/device/gd32f4xx/peripherals/src/gd32f4xx_fmc.c **** /*!
1018:../../../support/device/gd32f4xx/peripherals/src/gd32f4xx_fmc.c ****     \brief    check whether FMC is ready or not
1019:../../../support/device/gd32f4xx/peripherals/src/gd32f4xx_fmc.c ****     \param[in]  none
1020:../../../support/device/gd32f4xx/peripherals/src/gd32f4xx_fmc.c ****     \param[out] none
1021:../../../support/device/gd32f4xx/peripherals/src/gd32f4xx_fmc.c ****     \retval     state of FMC
1022:../../../support/device/gd32f4xx/peripherals/src/gd32f4xx_fmc.c ****       \arg        FMC_READY: the operation has been completed
1023:../../../support/device/gd32f4xx/peripherals/src/gd32f4xx_fmc.c ****       \arg        FMC_BUSY: the operation is in progress
1024:../../../support/device/gd32f4xx/peripherals/src/gd32f4xx_fmc.c ****       \arg        FMC_RDDERR: read D-bus protection error
1025:../../../support/device/gd32f4xx/peripherals/src/gd32f4xx_fmc.c ****       \arg        FMC_PGSERR: program sequence error
1026:../../../support/device/gd32f4xx/peripherals/src/gd32f4xx_fmc.c ****       \arg        FMC_PGMERR: program size not match error
1027:../../../support/device/gd32f4xx/peripherals/src/gd32f4xx_fmc.c ****       \arg        FMC_WPERR: erase/program protection error
1028:../../../support/device/gd32f4xx/peripherals/src/gd32f4xx_fmc.c ****       \arg        FMC_OPERR: operation error
1029:../../../support/device/gd32f4xx/peripherals/src/gd32f4xx_fmc.c ****       \arg        FMC_TOERR: timeout error
1030:../../../support/device/gd32f4xx/peripherals/src/gd32f4xx_fmc.c **** */
1031:../../../support/device/gd32f4xx/peripherals/src/gd32f4xx_fmc.c **** fmc_state_enum fmc_ready_wait(uint32_t timeout)
 153              		.loc 1 1031 16 view .LVU28
 154              	.LBB55:
1032:../../../support/device/gd32f4xx/peripherals/src/gd32f4xx_fmc.c **** {
1033:../../../support/device/gd32f4xx/peripherals/src/gd32f4xx_fmc.c ****     fmc_state_enum fmc_state = FMC_BUSY;
 155              		.loc 1 1033 5 view .LVU29
 156              	.LBB56:
 157              	.LBB57:
 995:../../../support/device/gd32f4xx/peripherals/src/gd32f4xx_fmc.c **** 
 158              		.loc 1 995 14 is_stmt 0 view .LVU30
 159 0000 3D49     		ldr	r1, .L43
 160              	.LBE57:
 161              	.LBE56:
 162              	.LBE55:
 163              	.LBE54:
 191:../../../support/device/gd32f4xx/peripherals/src/gd32f4xx_fmc.c ****     fmc_state_enum fmc_state = FMC_READY;
 164              		.loc 1 191 1 view .LVU31
 165 0002 6FF03043 		mvn	r3, #-1342177280
 166              	.LVL5:
 167              	.L14:
ARM GAS  /var/folders/_f/88qcw_5n2jl40jjphvxyt7wh0000gn/T//ccTBtSfs.s 			page 22


 168              	.LBB89:
 169              	.LBB82:
1034:../../../support/device/gd32f4xx/peripherals/src/gd32f4xx_fmc.c **** 
1035:../../../support/device/gd32f4xx/peripherals/src/gd32f4xx_fmc.c ****     /* wait for FMC ready */
1036:../../../support/device/gd32f4xx/peripherals/src/gd32f4xx_fmc.c ****     do {
 170              		.loc 1 1036 5 is_stmt 1 view .LVU32
1037:../../../support/device/gd32f4xx/peripherals/src/gd32f4xx_fmc.c ****         /* get FMC state */
1038:../../../support/device/gd32f4xx/peripherals/src/gd32f4xx_fmc.c ****         fmc_state = fmc_state_get();
 171              		.loc 1 1038 9 view .LVU33
 172              	.LBB70:
 173              	.LBI56:
 992:../../../support/device/gd32f4xx/peripherals/src/gd32f4xx_fmc.c **** {
 174              		.loc 1 992 16 view .LVU34
 175              	.LBB58:
 994:../../../support/device/gd32f4xx/peripherals/src/gd32f4xx_fmc.c ****     uint32_t temp_val = FMC_STAT;
 176              		.loc 1 994 5 view .LVU35
 995:../../../support/device/gd32f4xx/peripherals/src/gd32f4xx_fmc.c **** 
 177              		.loc 1 995 5 view .LVU36
1014:../../../support/device/gd32f4xx/peripherals/src/gd32f4xx_fmc.c **** }
 178              		.loc 1 1014 5 view .LVU37
1014:../../../support/device/gd32f4xx/peripherals/src/gd32f4xx_fmc.c **** }
 179              		.loc 1 1014 5 is_stmt 0 view .LVU38
 180              	.LBE58:
 181              	.LBE70:
1039:../../../support/device/gd32f4xx/peripherals/src/gd32f4xx_fmc.c ****         timeout--;
 182              		.loc 1 1039 9 is_stmt 1 view .LVU39
1040:../../../support/device/gd32f4xx/peripherals/src/gd32f4xx_fmc.c ****     } while((FMC_BUSY == fmc_state) && (0U != timeout));
 183              		.loc 1 1040 12 view .LVU40
 184              	.LBB71:
 185              	.LBB59:
 995:../../../support/device/gd32f4xx/peripherals/src/gd32f4xx_fmc.c **** 
 186              		.loc 1 995 14 is_stmt 0 view .LVU41
 187 0006 D1F80C2C 		ldr	r2, [r1, #3084]
 188              	.LVL6:
 997:../../../support/device/gd32f4xx/peripherals/src/gd32f4xx_fmc.c ****         fmc_state = FMC_BUSY;
 189              		.loc 1 997 5 is_stmt 1 view .LVU42
 997:../../../support/device/gd32f4xx/peripherals/src/gd32f4xx_fmc.c ****         fmc_state = FMC_BUSY;
 190              		.loc 1 997 7 is_stmt 0 view .LVU43
 191 000a 12F4803F 		tst	r2, #65536
 192 000e 4AD1     		bne	.L42
 999:../../../support/device/gd32f4xx/peripherals/src/gd32f4xx_fmc.c ****         fmc_state = FMC_RDDERR;
 193              		.loc 1 999 12 is_stmt 1 view .LVU44
 999:../../../support/device/gd32f4xx/peripherals/src/gd32f4xx_fmc.c ****         fmc_state = FMC_RDDERR;
 194              		.loc 1 999 14 is_stmt 0 view .LVU45
 195 0010 12F4807F 		tst	r2, #256
 196 0014 4FD1     		bne	.L16
1001:../../../support/device/gd32f4xx/peripherals/src/gd32f4xx_fmc.c ****         fmc_state = FMC_PGSERR;
 197              		.loc 1 1001 12 is_stmt 1 view .LVU46
1001:../../../support/device/gd32f4xx/peripherals/src/gd32f4xx_fmc.c ****         fmc_state = FMC_PGSERR;
 198              		.loc 1 1001 14 is_stmt 0 view .LVU47
 199 0016 12F0800F 		tst	r2, #128
 200 001a 52D1     		bne	.L17
1003:../../../support/device/gd32f4xx/peripherals/src/gd32f4xx_fmc.c ****         fmc_state = FMC_PGMERR;
 201              		.loc 1 1003 12 is_stmt 1 view .LVU48
1003:../../../support/device/gd32f4xx/peripherals/src/gd32f4xx_fmc.c ****         fmc_state = FMC_PGMERR;
 202              		.loc 1 1003 14 is_stmt 0 view .LVU49
 203 001c 12F0400F 		tst	r2, #64
ARM GAS  /var/folders/_f/88qcw_5n2jl40jjphvxyt7wh0000gn/T//ccTBtSfs.s 			page 23


 204 0020 56D1     		bne	.L18
1005:../../../support/device/gd32f4xx/peripherals/src/gd32f4xx_fmc.c ****         fmc_state = FMC_WPERR;
 205              		.loc 1 1005 12 is_stmt 1 view .LVU50
1005:../../../support/device/gd32f4xx/peripherals/src/gd32f4xx_fmc.c ****         fmc_state = FMC_WPERR;
 206              		.loc 1 1005 14 is_stmt 0 view .LVU51
 207 0022 12F0100F 		tst	r2, #16
 208 0026 5DD1     		bne	.L19
1007:../../../support/device/gd32f4xx/peripherals/src/gd32f4xx_fmc.c ****         fmc_state = FMC_OPERR;
 209              		.loc 1 1007 12 is_stmt 1 view .LVU52
1007:../../../support/device/gd32f4xx/peripherals/src/gd32f4xx_fmc.c ****         fmc_state = FMC_OPERR;
 210              		.loc 1 1007 14 is_stmt 0 view .LVU53
 211 0028 9207     		lsls	r2, r2, #30
 212              	.LVL7:
1007:../../../support/device/gd32f4xx/peripherals/src/gd32f4xx_fmc.c ****         fmc_state = FMC_OPERR;
 213              		.loc 1 1007 14 view .LVU54
 214 002a 60D4     		bmi	.L20
1010:../../../support/device/gd32f4xx/peripherals/src/gd32f4xx_fmc.c ****     }
 215              		.loc 1 1010 9 is_stmt 1 view .LVU55
 216              	.LVL8:
1014:../../../support/device/gd32f4xx/peripherals/src/gd32f4xx_fmc.c **** }
 217              		.loc 1 1014 5 view .LVU56
1014:../../../support/device/gd32f4xx/peripherals/src/gd32f4xx_fmc.c **** }
 218              		.loc 1 1014 5 is_stmt 0 view .LVU57
 219              	.LBE59:
 220              	.LBE71:
1039:../../../support/device/gd32f4xx/peripherals/src/gd32f4xx_fmc.c ****     } while((FMC_BUSY == fmc_state) && (0U != timeout));
 221              		.loc 1 1039 9 is_stmt 1 view .LVU58
 222              		.loc 1 1040 12 view .LVU59
1041:../../../support/device/gd32f4xx/peripherals/src/gd32f4xx_fmc.c **** 
1042:../../../support/device/gd32f4xx/peripherals/src/gd32f4xx_fmc.c ****     if(0U == timeout) {
 223              		.loc 1 1042 5 view .LVU60
 224              		.loc 1 1042 7 is_stmt 0 view .LVU61
 225 002c 012B     		cmp	r3, #1
 226 002e 3CD0     		beq	.L32
 227              	.LVL9:
 228              		.loc 1 1042 7 view .LVU62
 229              	.LBE82:
 230              	.LBE89:
 198:../../../support/device/gd32f4xx/peripherals/src/gd32f4xx_fmc.c ****         FMC_CTL |= (FMC_CTL_SER | fmc_sector);
 231              		.loc 1 198 9 is_stmt 1 view .LVU63
 198:../../../support/device/gd32f4xx/peripherals/src/gd32f4xx_fmc.c ****         FMC_CTL |= (FMC_CTL_SER | fmc_sector);
 232              		.loc 1 198 17 is_stmt 0 view .LVU64
 233 0030 D1F8103C 		ldr	r3, [r1, #3088]
 234 0034 23F0F803 		bic	r3, r3, #248
 191:../../../support/device/gd32f4xx/peripherals/src/gd32f4xx_fmc.c ****     fmc_state_enum fmc_state = FMC_READY;
 235              		.loc 1 191 1 view .LVU65
 236 0038 10B4     		push	{r4}
 237              	.LCFI0:
 238              		.cfi_def_cfa_offset 4
 239              		.cfi_offset 4, -4
 198:../../../support/device/gd32f4xx/peripherals/src/gd32f4xx_fmc.c ****         FMC_CTL |= (FMC_CTL_SER | fmc_sector);
 240              		.loc 1 198 17 view .LVU66
 241 003a C1F8103C 		str	r3, [r1, #3088]
 199:../../../support/device/gd32f4xx/peripherals/src/gd32f4xx_fmc.c ****         FMC_CTL |= FMC_CTL_START;
 242              		.loc 1 199 9 is_stmt 1 view .LVU67
 199:../../../support/device/gd32f4xx/peripherals/src/gd32f4xx_fmc.c ****         FMC_CTL |= FMC_CTL_START;
 243              		.loc 1 199 17 is_stmt 0 view .LVU68
ARM GAS  /var/folders/_f/88qcw_5n2jl40jjphvxyt7wh0000gn/T//ccTBtSfs.s 			page 24


 244 003e D1F8103C 		ldr	r3, [r1, #3088]
 245              	.LBB90:
 246              	.LBB91:
 247              	.LBB92:
 248              	.LBB93:
 995:../../../support/device/gd32f4xx/peripherals/src/gd32f4xx_fmc.c **** 
 249              		.loc 1 995 14 view .LVU69
 250 0042 2D4C     		ldr	r4, .L43
 251              	.LBE93:
 252              	.LBE92:
 253              	.LBE91:
 254              	.LBE90:
 199:../../../support/device/gd32f4xx/peripherals/src/gd32f4xx_fmc.c ****         FMC_CTL |= FMC_CTL_START;
 255              		.loc 1 199 17 view .LVU70
 256 0044 1843     		orrs	r0, r0, r3
 257              	.LVL10:
 199:../../../support/device/gd32f4xx/peripherals/src/gd32f4xx_fmc.c ****         FMC_CTL |= FMC_CTL_START;
 258              		.loc 1 199 17 view .LVU71
 259 0046 40F00200 		orr	r0, r0, #2
 260 004a C1F8100C 		str	r0, [r1, #3088]
 200:../../../support/device/gd32f4xx/peripherals/src/gd32f4xx_fmc.c **** 
 261              		.loc 1 200 9 is_stmt 1 view .LVU72
 200:../../../support/device/gd32f4xx/peripherals/src/gd32f4xx_fmc.c **** 
 262              		.loc 1 200 17 is_stmt 0 view .LVU73
 263 004e D1F8103C 		ldr	r3, [r1, #3088]
 264 0052 43F48033 		orr	r3, r3, #65536
 265 0056 6FF03042 		mvn	r2, #-1342177280
 266 005a C1F8103C 		str	r3, [r1, #3088]
 203:../../../support/device/gd32f4xx/peripherals/src/gd32f4xx_fmc.c **** 
 267              		.loc 1 203 9 is_stmt 1 view .LVU74
 268              	.LVL11:
 269              	.LBB125:
 270              	.LBI90:
1031:../../../support/device/gd32f4xx/peripherals/src/gd32f4xx_fmc.c **** {
 271              		.loc 1 1031 16 view .LVU75
 272              	.LBB120:
1033:../../../support/device/gd32f4xx/peripherals/src/gd32f4xx_fmc.c **** 
 273              		.loc 1 1033 5 view .LVU76
 274              	.L30:
1036:../../../support/device/gd32f4xx/peripherals/src/gd32f4xx_fmc.c ****         /* get FMC state */
 275              		.loc 1 1036 5 view .LVU77
1038:../../../support/device/gd32f4xx/peripherals/src/gd32f4xx_fmc.c ****         timeout--;
 276              		.loc 1 1038 9 view .LVU78
 277              	.LBB107:
 278              	.LBI92:
 992:../../../support/device/gd32f4xx/peripherals/src/gd32f4xx_fmc.c **** {
 279              		.loc 1 992 16 view .LVU79
 280              	.LBB94:
 994:../../../support/device/gd32f4xx/peripherals/src/gd32f4xx_fmc.c ****     uint32_t temp_val = FMC_STAT;
 281              		.loc 1 994 5 view .LVU80
 995:../../../support/device/gd32f4xx/peripherals/src/gd32f4xx_fmc.c **** 
 282              		.loc 1 995 5 view .LVU81
1014:../../../support/device/gd32f4xx/peripherals/src/gd32f4xx_fmc.c **** }
 283              		.loc 1 1014 5 view .LVU82
1014:../../../support/device/gd32f4xx/peripherals/src/gd32f4xx_fmc.c **** }
 284              		.loc 1 1014 5 is_stmt 0 view .LVU83
 285              	.LBE94:
ARM GAS  /var/folders/_f/88qcw_5n2jl40jjphvxyt7wh0000gn/T//ccTBtSfs.s 			page 25


 286              	.LBE107:
1039:../../../support/device/gd32f4xx/peripherals/src/gd32f4xx_fmc.c ****     } while((FMC_BUSY == fmc_state) && (0U != timeout));
 287              		.loc 1 1039 9 is_stmt 1 view .LVU84
1040:../../../support/device/gd32f4xx/peripherals/src/gd32f4xx_fmc.c **** 
 288              		.loc 1 1040 12 view .LVU85
 289              	.LBB108:
 290              	.LBB95:
 995:../../../support/device/gd32f4xx/peripherals/src/gd32f4xx_fmc.c **** 
 291              		.loc 1 995 14 is_stmt 0 view .LVU86
 292 005e D4F80C0C 		ldr	r0, [r4, #3084]
 293              	.LVL12:
 997:../../../support/device/gd32f4xx/peripherals/src/gd32f4xx_fmc.c ****         fmc_state = FMC_BUSY;
 294              		.loc 1 997 5 is_stmt 1 view .LVU87
 997:../../../support/device/gd32f4xx/peripherals/src/gd32f4xx_fmc.c ****         fmc_state = FMC_BUSY;
 295              		.loc 1 997 7 is_stmt 0 view .LVU88
 296 0062 C103     		lsls	r1, r0, #15
 297 0064 23D4     		bmi	.L23
 999:../../../support/device/gd32f4xx/peripherals/src/gd32f4xx_fmc.c ****         fmc_state = FMC_RDDERR;
 298              		.loc 1 999 12 is_stmt 1 view .LVU89
 999:../../../support/device/gd32f4xx/peripherals/src/gd32f4xx_fmc.c ****         fmc_state = FMC_RDDERR;
 299              		.loc 1 999 14 is_stmt 0 view .LVU90
 300 0066 C305     		lsls	r3, r0, #23
 301              	.LBE95:
 302              	.LBE108:
1039:../../../support/device/gd32f4xx/peripherals/src/gd32f4xx_fmc.c ****     } while((FMC_BUSY == fmc_state) && (0U != timeout));
 303              		.loc 1 1039 16 view .LVU91
 304 0068 02F1FF32 		add	r2, r2, #-1
 305              	.LVL13:
 306              	.LBB109:
 307              	.LBB96:
 999:../../../support/device/gd32f4xx/peripherals/src/gd32f4xx_fmc.c ****         fmc_state = FMC_RDDERR;
 308              		.loc 1 999 14 view .LVU92
 309 006c 33D4     		bmi	.L24
1001:../../../support/device/gd32f4xx/peripherals/src/gd32f4xx_fmc.c ****         fmc_state = FMC_PGSERR;
 310              		.loc 1 1001 12 is_stmt 1 view .LVU93
1001:../../../support/device/gd32f4xx/peripherals/src/gd32f4xx_fmc.c ****         fmc_state = FMC_PGSERR;
 311              		.loc 1 1001 14 is_stmt 0 view .LVU94
 312 006e 0406     		lsls	r4, r0, #24
 313 0070 3BD4     		bmi	.L25
1003:../../../support/device/gd32f4xx/peripherals/src/gd32f4xx_fmc.c ****         fmc_state = FMC_PGMERR;
 314              		.loc 1 1003 12 is_stmt 1 view .LVU95
1003:../../../support/device/gd32f4xx/peripherals/src/gd32f4xx_fmc.c ****         fmc_state = FMC_PGMERR;
 315              		.loc 1 1003 14 is_stmt 0 view .LVU96
 316 0072 4106     		lsls	r1, r0, #25
 317 0074 34D4     		bmi	.L26
1005:../../../support/device/gd32f4xx/peripherals/src/gd32f4xx_fmc.c ****         fmc_state = FMC_WPERR;
 318              		.loc 1 1005 12 is_stmt 1 view .LVU97
1005:../../../support/device/gd32f4xx/peripherals/src/gd32f4xx_fmc.c ****         fmc_state = FMC_WPERR;
 319              		.loc 1 1005 14 is_stmt 0 view .LVU98
 320 0076 C306     		lsls	r3, r0, #27
 321 0078 3CD4     		bmi	.L27
1007:../../../support/device/gd32f4xx/peripherals/src/gd32f4xx_fmc.c ****         fmc_state = FMC_OPERR;
 322              		.loc 1 1007 12 is_stmt 1 view .LVU99
1007:../../../support/device/gd32f4xx/peripherals/src/gd32f4xx_fmc.c ****         fmc_state = FMC_OPERR;
 323              		.loc 1 1007 14 is_stmt 0 view .LVU100
 324 007a 10F00200 		ands	r0, r0, #2
 325              	.LVL14:
ARM GAS  /var/folders/_f/88qcw_5n2jl40jjphvxyt7wh0000gn/T//ccTBtSfs.s 			page 26


1010:../../../support/device/gd32f4xx/peripherals/src/gd32f4xx_fmc.c ****     }
 326              		.loc 1 1010 9 is_stmt 1 view .LVU101
1014:../../../support/device/gd32f4xx/peripherals/src/gd32f4xx_fmc.c **** }
 327              		.loc 1 1014 5 view .LVU102
1014:../../../support/device/gd32f4xx/peripherals/src/gd32f4xx_fmc.c **** }
 328              		.loc 1 1014 5 is_stmt 0 view .LVU103
 329              	.LBE96:
 330              	.LBE109:
1039:../../../support/device/gd32f4xx/peripherals/src/gd32f4xx_fmc.c ****     } while((FMC_BUSY == fmc_state) && (0U != timeout));
 331              		.loc 1 1039 9 is_stmt 1 view .LVU104
1040:../../../support/device/gd32f4xx/peripherals/src/gd32f4xx_fmc.c **** 
 332              		.loc 1 1040 12 view .LVU105
 333              	.LBB110:
 334              	.LBB97:
1014:../../../support/device/gd32f4xx/peripherals/src/gd32f4xx_fmc.c **** }
 335              		.loc 1 1014 5 view .LVU106
1014:../../../support/device/gd32f4xx/peripherals/src/gd32f4xx_fmc.c **** }
 336              		.loc 1 1014 5 is_stmt 0 view .LVU107
 337              	.LBE97:
 338              	.LBE110:
1039:../../../support/device/gd32f4xx/peripherals/src/gd32f4xx_fmc.c ****     } while((FMC_BUSY == fmc_state) && (0U != timeout));
 339              		.loc 1 1039 9 is_stmt 1 view .LVU108
1040:../../../support/device/gd32f4xx/peripherals/src/gd32f4xx_fmc.c **** 
 340              		.loc 1 1040 12 view .LVU109
 341              	.LBB111:
 342              	.LBB98:
1008:../../../support/device/gd32f4xx/peripherals/src/gd32f4xx_fmc.c ****     } else {
 343              		.loc 1 1008 19 is_stmt 0 view .LVU110
 344 007e 18BF     		it	ne
 345 0080 0620     		movne	r0, #6
 346              	.LBE98:
 347              	.LBE111:
 348              		.loc 1 1042 5 is_stmt 1 view .LVU111
1043:../../../support/device/gd32f4xx/peripherals/src/gd32f4xx_fmc.c ****         fmc_state = FMC_TOERR;
 349              		.loc 1 1043 19 is_stmt 0 view .LVU112
 350 0082 002A     		cmp	r2, #0
 351 0084 08BF     		it	eq
 352 0086 0720     		moveq	r0, #7
 353              	.LVL15:
 354              	.L31:
1044:../../../support/device/gd32f4xx/peripherals/src/gd32f4xx_fmc.c ****     }
1045:../../../support/device/gd32f4xx/peripherals/src/gd32f4xx_fmc.c **** 
1046:../../../support/device/gd32f4xx/peripherals/src/gd32f4xx_fmc.c ****     /* return the FMC state */
1047:../../../support/device/gd32f4xx/peripherals/src/gd32f4xx_fmc.c ****     return fmc_state;
 355              		.loc 1 1047 5 is_stmt 1 view .LVU113
 356              		.loc 1 1047 5 is_stmt 0 view .LVU114
 357              	.LBE120:
 358              	.LBE125:
 206:../../../support/device/gd32f4xx/peripherals/src/gd32f4xx_fmc.c ****         FMC_CTL &= ~FMC_CTL_SN;
 359              		.loc 1 206 9 is_stmt 1 view .LVU115
 206:../../../support/device/gd32f4xx/peripherals/src/gd32f4xx_fmc.c ****         FMC_CTL &= ~FMC_CTL_SN;
 360              		.loc 1 206 17 is_stmt 0 view .LVU116
 361 0088 1B4B     		ldr	r3, .L43
 212:../../../support/device/gd32f4xx/peripherals/src/gd32f4xx_fmc.c **** 
 362              		.loc 1 212 1 view .LVU117
 363 008a 10BC     		pop	{r4}
 364              	.LCFI1:
ARM GAS  /var/folders/_f/88qcw_5n2jl40jjphvxyt7wh0000gn/T//ccTBtSfs.s 			page 27


 365              		.cfi_restore 4
 366              		.cfi_def_cfa_offset 0
 206:../../../support/device/gd32f4xx/peripherals/src/gd32f4xx_fmc.c ****         FMC_CTL &= ~FMC_CTL_SN;
 367              		.loc 1 206 17 view .LVU118
 368 008c D3F8102C 		ldr	r2, [r3, #3088]
 369 0090 22F00202 		bic	r2, r2, #2
 370 0094 C3F8102C 		str	r2, [r3, #3088]
 207:../../../support/device/gd32f4xx/peripherals/src/gd32f4xx_fmc.c ****     }
 371              		.loc 1 207 9 is_stmt 1 view .LVU119
 207:../../../support/device/gd32f4xx/peripherals/src/gd32f4xx_fmc.c ****     }
 372              		.loc 1 207 17 is_stmt 0 view .LVU120
 373 0098 D3F8102C 		ldr	r2, [r3, #3088]
 374 009c 22F0F802 		bic	r2, r2, #248
 375 00a0 C3F8102C 		str	r2, [r3, #3088]
 212:../../../support/device/gd32f4xx/peripherals/src/gd32f4xx_fmc.c **** 
 376              		.loc 1 212 1 view .LVU121
 377 00a4 7047     		bx	lr
 378              	.LVL16:
 379              	.L42:
 380              	.LBB126:
 381              	.LBB83:
1040:../../../support/device/gd32f4xx/peripherals/src/gd32f4xx_fmc.c **** 
 382              		.loc 1 1040 37 view .LVU122
 383 00a6 013B     		subs	r3, r3, #1
 384              	.LVL17:
1040:../../../support/device/gd32f4xx/peripherals/src/gd32f4xx_fmc.c **** 
 385              		.loc 1 1040 37 view .LVU123
 386 00a8 ADD1     		bne	.L14
 387              	.LVL18:
 388              	.L32:
1043:../../../support/device/gd32f4xx/peripherals/src/gd32f4xx_fmc.c ****     }
 389              		.loc 1 1043 19 view .LVU124
 390 00aa 0720     		movs	r0, #7
 391              	.LVL19:
1043:../../../support/device/gd32f4xx/peripherals/src/gd32f4xx_fmc.c ****     }
 392              		.loc 1 1043 19 view .LVU125
 393 00ac 7047     		bx	lr
 394              	.LVL20:
 395              	.L23:
 396              	.LCFI2:
 397              		.cfi_def_cfa_offset 4
 398              		.cfi_offset 4, -4
1043:../../../support/device/gd32f4xx/peripherals/src/gd32f4xx_fmc.c ****     }
 399              		.loc 1 1043 19 view .LVU126
 400              	.LBE83:
 401              	.LBE126:
 402              	.LBB127:
 403              	.LBB121:
1040:../../../support/device/gd32f4xx/peripherals/src/gd32f4xx_fmc.c **** 
 404              		.loc 1 1040 37 view .LVU127
 405 00ae 013A     		subs	r2, r2, #1
 406              	.LVL21:
1040:../../../support/device/gd32f4xx/peripherals/src/gd32f4xx_fmc.c **** 
 407              		.loc 1 1040 37 view .LVU128
 408 00b0 D5D1     		bne	.L30
1043:../../../support/device/gd32f4xx/peripherals/src/gd32f4xx_fmc.c ****     }
 409              		.loc 1 1043 19 view .LVU129
ARM GAS  /var/folders/_f/88qcw_5n2jl40jjphvxyt7wh0000gn/T//ccTBtSfs.s 			page 28


 410 00b2 0720     		movs	r0, #7
 411              	.LVL22:
1043:../../../support/device/gd32f4xx/peripherals/src/gd32f4xx_fmc.c ****     }
 412              		.loc 1 1043 19 view .LVU130
 413 00b4 E8E7     		b	.L31
 414              	.LVL23:
 415              	.L16:
 416              	.LCFI3:
 417              		.cfi_def_cfa_offset 0
 418              		.cfi_restore 4
1043:../../../support/device/gd32f4xx/peripherals/src/gd32f4xx_fmc.c ****     }
 419              		.loc 1 1043 19 view .LVU131
 420              	.LBE121:
 421              	.LBE127:
 422              	.LBB128:
 423              	.LBB84:
 424              	.LBB72:
 425              	.LBB60:
1014:../../../support/device/gd32f4xx/peripherals/src/gd32f4xx_fmc.c **** }
 426              		.loc 1 1014 5 is_stmt 1 view .LVU132
1014:../../../support/device/gd32f4xx/peripherals/src/gd32f4xx_fmc.c **** }
 427              		.loc 1 1014 5 is_stmt 0 view .LVU133
 428              	.LBE60:
 429              	.LBE72:
1039:../../../support/device/gd32f4xx/peripherals/src/gd32f4xx_fmc.c ****     } while((FMC_BUSY == fmc_state) && (0U != timeout));
 430              		.loc 1 1039 9 is_stmt 1 view .LVU134
1039:../../../support/device/gd32f4xx/peripherals/src/gd32f4xx_fmc.c ****     } while((FMC_BUSY == fmc_state) && (0U != timeout));
 431              		.loc 1 1039 16 is_stmt 0 view .LVU135
 432 00b6 013B     		subs	r3, r3, #1
 433              	.LVL24:
1040:../../../support/device/gd32f4xx/peripherals/src/gd32f4xx_fmc.c **** 
 434              		.loc 1 1040 12 is_stmt 1 view .LVU136
 435              	.LBB73:
 436              	.LBB61:
1000:../../../support/device/gd32f4xx/peripherals/src/gd32f4xx_fmc.c ****     } else if(RESET != (temp_val & FMC_FLAG_PGSERR)) {
 437              		.loc 1 1000 19 is_stmt 0 view .LVU137
 438 00b8 0220     		movs	r0, #2
 439              	.LVL25:
 440              	.L22:
1000:../../../support/device/gd32f4xx/peripherals/src/gd32f4xx_fmc.c ****     } else if(RESET != (temp_val & FMC_FLAG_PGSERR)) {
 441              		.loc 1 1000 19 view .LVU138
 442              	.LBE61:
 443              	.LBE73:
1042:../../../support/device/gd32f4xx/peripherals/src/gd32f4xx_fmc.c ****         fmc_state = FMC_TOERR;
 444              		.loc 1 1042 5 is_stmt 1 view .LVU139
1043:../../../support/device/gd32f4xx/peripherals/src/gd32f4xx_fmc.c ****     }
 445              		.loc 1 1043 19 is_stmt 0 view .LVU140
 446 00ba 002B     		cmp	r3, #0
 447 00bc 08BF     		it	eq
 448 00be 0720     		moveq	r0, #7
 449              	.LBE84:
 450              	.LBE128:
 212:../../../support/device/gd32f4xx/peripherals/src/gd32f4xx_fmc.c **** 
 451              		.loc 1 212 1 view .LVU141
 452 00c0 7047     		bx	lr
 453              	.LVL26:
 454              	.L17:
ARM GAS  /var/folders/_f/88qcw_5n2jl40jjphvxyt7wh0000gn/T//ccTBtSfs.s 			page 29


 455              	.LBB129:
 456              	.LBB85:
 457              	.LBB74:
 458              	.LBB62:
1014:../../../support/device/gd32f4xx/peripherals/src/gd32f4xx_fmc.c **** }
 459              		.loc 1 1014 5 is_stmt 1 view .LVU142
1014:../../../support/device/gd32f4xx/peripherals/src/gd32f4xx_fmc.c **** }
 460              		.loc 1 1014 5 is_stmt 0 view .LVU143
 461              	.LBE62:
 462              	.LBE74:
1039:../../../support/device/gd32f4xx/peripherals/src/gd32f4xx_fmc.c ****     } while((FMC_BUSY == fmc_state) && (0U != timeout));
 463              		.loc 1 1039 9 is_stmt 1 view .LVU144
1039:../../../support/device/gd32f4xx/peripherals/src/gd32f4xx_fmc.c ****     } while((FMC_BUSY == fmc_state) && (0U != timeout));
 464              		.loc 1 1039 16 is_stmt 0 view .LVU145
 465 00c2 013B     		subs	r3, r3, #1
 466              	.LVL27:
1040:../../../support/device/gd32f4xx/peripherals/src/gd32f4xx_fmc.c **** 
 467              		.loc 1 1040 12 is_stmt 1 view .LVU146
1043:../../../support/device/gd32f4xx/peripherals/src/gd32f4xx_fmc.c ****     }
 468              		.loc 1 1043 19 is_stmt 0 view .LVU147
 469 00c4 002B     		cmp	r3, #0
 470              	.LBB75:
 471              	.LBB63:
1002:../../../support/device/gd32f4xx/peripherals/src/gd32f4xx_fmc.c ****     } else if(RESET != (temp_val & FMC_FLAG_PGMERR)) {
 472              		.loc 1 1002 19 view .LVU148
 473 00c6 4FF00300 		mov	r0, #3
 474              	.LVL28:
1002:../../../support/device/gd32f4xx/peripherals/src/gd32f4xx_fmc.c ****     } else if(RESET != (temp_val & FMC_FLAG_PGMERR)) {
 475              		.loc 1 1002 19 view .LVU149
 476              	.LBE63:
 477              	.LBE75:
1042:../../../support/device/gd32f4xx/peripherals/src/gd32f4xx_fmc.c ****         fmc_state = FMC_TOERR;
 478              		.loc 1 1042 5 is_stmt 1 view .LVU150
1043:../../../support/device/gd32f4xx/peripherals/src/gd32f4xx_fmc.c ****     }
 479              		.loc 1 1043 19 is_stmt 0 view .LVU151
 480 00ca 08BF     		it	eq
 481 00cc 0720     		moveq	r0, #7
 482              	.LBE85:
 483              	.LBE129:
 212:../../../support/device/gd32f4xx/peripherals/src/gd32f4xx_fmc.c **** 
 484              		.loc 1 212 1 view .LVU152
 485 00ce 7047     		bx	lr
 486              	.LVL29:
 487              	.L18:
 488              	.LBB130:
 489              	.LBB86:
 490              	.LBB76:
 491              	.LBB64:
1014:../../../support/device/gd32f4xx/peripherals/src/gd32f4xx_fmc.c **** }
 492              		.loc 1 1014 5 is_stmt 1 view .LVU153
1014:../../../support/device/gd32f4xx/peripherals/src/gd32f4xx_fmc.c **** }
 493              		.loc 1 1014 5 is_stmt 0 view .LVU154
 494              	.LBE64:
 495              	.LBE76:
1039:../../../support/device/gd32f4xx/peripherals/src/gd32f4xx_fmc.c ****     } while((FMC_BUSY == fmc_state) && (0U != timeout));
 496              		.loc 1 1039 9 is_stmt 1 view .LVU155
1039:../../../support/device/gd32f4xx/peripherals/src/gd32f4xx_fmc.c ****     } while((FMC_BUSY == fmc_state) && (0U != timeout));
ARM GAS  /var/folders/_f/88qcw_5n2jl40jjphvxyt7wh0000gn/T//ccTBtSfs.s 			page 30


 497              		.loc 1 1039 16 is_stmt 0 view .LVU156
 498 00d0 013B     		subs	r3, r3, #1
 499              	.LVL30:
1040:../../../support/device/gd32f4xx/peripherals/src/gd32f4xx_fmc.c **** 
 500              		.loc 1 1040 12 is_stmt 1 view .LVU157
 501              	.LBB77:
 502              	.LBB65:
1004:../../../support/device/gd32f4xx/peripherals/src/gd32f4xx_fmc.c ****     } else if(RESET != (temp_val & FMC_FLAG_WPERR)) {
 503              		.loc 1 1004 19 is_stmt 0 view .LVU158
 504 00d2 0420     		movs	r0, #4
 505              	.LVL31:
1004:../../../support/device/gd32f4xx/peripherals/src/gd32f4xx_fmc.c ****     } else if(RESET != (temp_val & FMC_FLAG_WPERR)) {
 506              		.loc 1 1004 19 view .LVU159
 507 00d4 F1E7     		b	.L22
 508              	.LVL32:
 509              	.L24:
 510              	.LCFI4:
 511              		.cfi_def_cfa_offset 4
 512              		.cfi_offset 4, -4
1004:../../../support/device/gd32f4xx/peripherals/src/gd32f4xx_fmc.c ****     } else if(RESET != (temp_val & FMC_FLAG_WPERR)) {
 513              		.loc 1 1004 19 view .LVU160
 514              	.LBE65:
 515              	.LBE77:
 516              	.LBE86:
 517              	.LBE130:
 518              	.LBB131:
 519              	.LBB122:
 520              	.LBB112:
 521              	.LBB99:
1014:../../../support/device/gd32f4xx/peripherals/src/gd32f4xx_fmc.c **** }
 522              		.loc 1 1014 5 is_stmt 1 view .LVU161
1014:../../../support/device/gd32f4xx/peripherals/src/gd32f4xx_fmc.c **** }
 523              		.loc 1 1014 5 is_stmt 0 view .LVU162
 524              	.LBE99:
 525              	.LBE112:
1039:../../../support/device/gd32f4xx/peripherals/src/gd32f4xx_fmc.c ****     } while((FMC_BUSY == fmc_state) && (0U != timeout));
 526              		.loc 1 1039 9 is_stmt 1 view .LVU163
1040:../../../support/device/gd32f4xx/peripherals/src/gd32f4xx_fmc.c **** 
 527              		.loc 1 1040 12 view .LVU164
 528              	.LBB113:
 529              	.LBB100:
1000:../../../support/device/gd32f4xx/peripherals/src/gd32f4xx_fmc.c ****     } else if(RESET != (temp_val & FMC_FLAG_PGSERR)) {
 530              		.loc 1 1000 19 is_stmt 0 view .LVU165
 531 00d6 0220     		movs	r0, #2
 532              	.LVL33:
 533              	.L29:
1000:../../../support/device/gd32f4xx/peripherals/src/gd32f4xx_fmc.c ****     } else if(RESET != (temp_val & FMC_FLAG_PGSERR)) {
 534              		.loc 1 1000 19 view .LVU166
 535              	.LBE100:
 536              	.LBE113:
1042:../../../support/device/gd32f4xx/peripherals/src/gd32f4xx_fmc.c ****         fmc_state = FMC_TOERR;
 537              		.loc 1 1042 5 is_stmt 1 view .LVU167
1043:../../../support/device/gd32f4xx/peripherals/src/gd32f4xx_fmc.c ****     }
 538              		.loc 1 1043 19 is_stmt 0 view .LVU168
 539 00d8 002A     		cmp	r2, #0
 540 00da 08BF     		it	eq
 541 00dc 0720     		moveq	r0, #7
ARM GAS  /var/folders/_f/88qcw_5n2jl40jjphvxyt7wh0000gn/T//ccTBtSfs.s 			page 31


 542 00de D3E7     		b	.L31
 543              	.LVL34:
 544              	.L26:
 545              	.LBB114:
 546              	.LBB101:
1014:../../../support/device/gd32f4xx/peripherals/src/gd32f4xx_fmc.c **** }
 547              		.loc 1 1014 5 is_stmt 1 view .LVU169
1014:../../../support/device/gd32f4xx/peripherals/src/gd32f4xx_fmc.c **** }
 548              		.loc 1 1014 5 is_stmt 0 view .LVU170
 549              	.LBE101:
 550              	.LBE114:
1039:../../../support/device/gd32f4xx/peripherals/src/gd32f4xx_fmc.c ****     } while((FMC_BUSY == fmc_state) && (0U != timeout));
 551              		.loc 1 1039 9 is_stmt 1 view .LVU171
1040:../../../support/device/gd32f4xx/peripherals/src/gd32f4xx_fmc.c **** 
 552              		.loc 1 1040 12 view .LVU172
 553              	.LBB115:
 554              	.LBB102:
1004:../../../support/device/gd32f4xx/peripherals/src/gd32f4xx_fmc.c ****     } else if(RESET != (temp_val & FMC_FLAG_WPERR)) {
 555              		.loc 1 1004 19 is_stmt 0 view .LVU173
 556 00e0 0420     		movs	r0, #4
 557 00e2 F9E7     		b	.L29
 558              	.LVL35:
 559              	.L19:
 560              	.LCFI5:
 561              		.cfi_def_cfa_offset 0
 562              		.cfi_restore 4
1004:../../../support/device/gd32f4xx/peripherals/src/gd32f4xx_fmc.c ****     } else if(RESET != (temp_val & FMC_FLAG_WPERR)) {
 563              		.loc 1 1004 19 view .LVU174
 564              	.LBE102:
 565              	.LBE115:
 566              	.LBE122:
 567              	.LBE131:
 568              	.LBB132:
 569              	.LBB87:
 570              	.LBB78:
 571              	.LBB66:
1014:../../../support/device/gd32f4xx/peripherals/src/gd32f4xx_fmc.c **** }
 572              		.loc 1 1014 5 is_stmt 1 view .LVU175
1014:../../../support/device/gd32f4xx/peripherals/src/gd32f4xx_fmc.c **** }
 573              		.loc 1 1014 5 is_stmt 0 view .LVU176
 574              	.LBE66:
 575              	.LBE78:
1039:../../../support/device/gd32f4xx/peripherals/src/gd32f4xx_fmc.c ****     } while((FMC_BUSY == fmc_state) && (0U != timeout));
 576              		.loc 1 1039 9 is_stmt 1 view .LVU177
1039:../../../support/device/gd32f4xx/peripherals/src/gd32f4xx_fmc.c ****     } while((FMC_BUSY == fmc_state) && (0U != timeout));
 577              		.loc 1 1039 16 is_stmt 0 view .LVU178
 578 00e4 013B     		subs	r3, r3, #1
 579              	.LVL36:
1040:../../../support/device/gd32f4xx/peripherals/src/gd32f4xx_fmc.c **** 
 580              		.loc 1 1040 12 is_stmt 1 view .LVU179
 581              	.LBB79:
 582              	.LBB67:
1006:../../../support/device/gd32f4xx/peripherals/src/gd32f4xx_fmc.c ****     } else if(RESET != (temp_val & FMC_FLAG_OPERR)) {
 583              		.loc 1 1006 19 is_stmt 0 view .LVU180
 584 00e6 0520     		movs	r0, #5
 585              	.LVL37:
1006:../../../support/device/gd32f4xx/peripherals/src/gd32f4xx_fmc.c ****     } else if(RESET != (temp_val & FMC_FLAG_OPERR)) {
ARM GAS  /var/folders/_f/88qcw_5n2jl40jjphvxyt7wh0000gn/T//ccTBtSfs.s 			page 32


 586              		.loc 1 1006 19 view .LVU181
 587 00e8 E7E7     		b	.L22
 588              	.LVL38:
 589              	.L25:
 590              	.LCFI6:
 591              		.cfi_def_cfa_offset 4
 592              		.cfi_offset 4, -4
1006:../../../support/device/gd32f4xx/peripherals/src/gd32f4xx_fmc.c ****     } else if(RESET != (temp_val & FMC_FLAG_OPERR)) {
 593              		.loc 1 1006 19 view .LVU182
 594              	.LBE67:
 595              	.LBE79:
 596              	.LBE87:
 597              	.LBE132:
 598              	.LBB133:
 599              	.LBB123:
 600              	.LBB116:
 601              	.LBB103:
1014:../../../support/device/gd32f4xx/peripherals/src/gd32f4xx_fmc.c **** }
 602              		.loc 1 1014 5 is_stmt 1 view .LVU183
1014:../../../support/device/gd32f4xx/peripherals/src/gd32f4xx_fmc.c **** }
 603              		.loc 1 1014 5 is_stmt 0 view .LVU184
 604              	.LBE103:
 605              	.LBE116:
1039:../../../support/device/gd32f4xx/peripherals/src/gd32f4xx_fmc.c ****     } while((FMC_BUSY == fmc_state) && (0U != timeout));
 606              		.loc 1 1039 9 is_stmt 1 view .LVU185
1040:../../../support/device/gd32f4xx/peripherals/src/gd32f4xx_fmc.c **** 
 607              		.loc 1 1040 12 view .LVU186
 608              	.LBB117:
 609              	.LBB104:
1002:../../../support/device/gd32f4xx/peripherals/src/gd32f4xx_fmc.c ****     } else if(RESET != (temp_val & FMC_FLAG_PGMERR)) {
 610              		.loc 1 1002 19 is_stmt 0 view .LVU187
 611 00ea 0320     		movs	r0, #3
 612 00ec F4E7     		b	.L29
 613              	.LVL39:
 614              	.L20:
 615              	.LCFI7:
 616              		.cfi_def_cfa_offset 0
 617              		.cfi_restore 4
1002:../../../support/device/gd32f4xx/peripherals/src/gd32f4xx_fmc.c ****     } else if(RESET != (temp_val & FMC_FLAG_PGMERR)) {
 618              		.loc 1 1002 19 view .LVU188
 619              	.LBE104:
 620              	.LBE117:
 621              	.LBE123:
 622              	.LBE133:
 623              	.LBB134:
 624              	.LBB88:
 625              	.LBB80:
 626              	.LBB68:
1014:../../../support/device/gd32f4xx/peripherals/src/gd32f4xx_fmc.c **** }
 627              		.loc 1 1014 5 is_stmt 1 view .LVU189
1014:../../../support/device/gd32f4xx/peripherals/src/gd32f4xx_fmc.c **** }
 628              		.loc 1 1014 5 is_stmt 0 view .LVU190
 629              	.LBE68:
 630              	.LBE80:
1039:../../../support/device/gd32f4xx/peripherals/src/gd32f4xx_fmc.c ****     } while((FMC_BUSY == fmc_state) && (0U != timeout));
 631              		.loc 1 1039 9 is_stmt 1 view .LVU191
1039:../../../support/device/gd32f4xx/peripherals/src/gd32f4xx_fmc.c ****     } while((FMC_BUSY == fmc_state) && (0U != timeout));
ARM GAS  /var/folders/_f/88qcw_5n2jl40jjphvxyt7wh0000gn/T//ccTBtSfs.s 			page 33


 632              		.loc 1 1039 16 is_stmt 0 view .LVU192
 633 00ee 013B     		subs	r3, r3, #1
 634              	.LVL40:
1040:../../../support/device/gd32f4xx/peripherals/src/gd32f4xx_fmc.c **** 
 635              		.loc 1 1040 12 is_stmt 1 view .LVU193
 636              	.LBB81:
 637              	.LBB69:
1008:../../../support/device/gd32f4xx/peripherals/src/gd32f4xx_fmc.c ****     } else {
 638              		.loc 1 1008 19 is_stmt 0 view .LVU194
 639 00f0 0620     		movs	r0, #6
 640              	.LVL41:
1008:../../../support/device/gd32f4xx/peripherals/src/gd32f4xx_fmc.c ****     } else {
 641              		.loc 1 1008 19 view .LVU195
 642 00f2 E2E7     		b	.L22
 643              	.LVL42:
 644              	.L27:
 645              	.LCFI8:
 646              		.cfi_def_cfa_offset 4
 647              		.cfi_offset 4, -4
1008:../../../support/device/gd32f4xx/peripherals/src/gd32f4xx_fmc.c ****     } else {
 648              		.loc 1 1008 19 view .LVU196
 649              	.LBE69:
 650              	.LBE81:
 651              	.LBE88:
 652              	.LBE134:
 653              	.LBB135:
 654              	.LBB124:
 655              	.LBB118:
 656              	.LBB105:
1014:../../../support/device/gd32f4xx/peripherals/src/gd32f4xx_fmc.c **** }
 657              		.loc 1 1014 5 is_stmt 1 view .LVU197
1014:../../../support/device/gd32f4xx/peripherals/src/gd32f4xx_fmc.c **** }
 658              		.loc 1 1014 5 is_stmt 0 view .LVU198
 659              	.LBE105:
 660              	.LBE118:
1039:../../../support/device/gd32f4xx/peripherals/src/gd32f4xx_fmc.c ****     } while((FMC_BUSY == fmc_state) && (0U != timeout));
 661              		.loc 1 1039 9 is_stmt 1 view .LVU199
1040:../../../support/device/gd32f4xx/peripherals/src/gd32f4xx_fmc.c **** 
 662              		.loc 1 1040 12 view .LVU200
 663              	.LBB119:
 664              	.LBB106:
1006:../../../support/device/gd32f4xx/peripherals/src/gd32f4xx_fmc.c ****     } else if(RESET != (temp_val & FMC_FLAG_OPERR)) {
 665              		.loc 1 1006 19 is_stmt 0 view .LVU201
 666 00f4 0520     		movs	r0, #5
 667 00f6 EFE7     		b	.L29
 668              	.L44:
 669              		.align	2
 670              	.L43:
 671 00f8 00300240 		.word	1073885184
 672              	.LBE106:
 673              	.LBE119:
 674              	.LBE124:
 675              	.LBE135:
 676              		.cfi_endproc
 677              	.LFE119:
 679              		.section	.text.fmc_mass_erase,"ax",%progbits
 680              		.align	1
ARM GAS  /var/folders/_f/88qcw_5n2jl40jjphvxyt7wh0000gn/T//ccTBtSfs.s 			page 34


 681              		.p2align 2,,3
 682              		.global	fmc_mass_erase
 683              		.syntax unified
 684              		.thumb
 685              		.thumb_func
 687              	fmc_mass_erase:
 688              	.LFB120:
 229:../../../support/device/gd32f4xx/peripherals/src/gd32f4xx_fmc.c ****     fmc_state_enum fmc_state = FMC_READY;
 689              		.loc 1 229 1 is_stmt 1 view -0
 690              		.cfi_startproc
 691              		@ args = 0, pretend = 0, frame = 0
 692              		@ frame_needed = 0, uses_anonymous_args = 0
 693              		@ link register save eliminated.
 230:../../../support/device/gd32f4xx/peripherals/src/gd32f4xx_fmc.c ****     /* wait for the FMC ready */
 694              		.loc 1 230 5 view .LVU203
 695              	.LVL43:
 232:../../../support/device/gd32f4xx/peripherals/src/gd32f4xx_fmc.c **** 
 696              		.loc 1 232 5 view .LVU204
 697              	.LBB144:
 698              	.LBI144:
1031:../../../support/device/gd32f4xx/peripherals/src/gd32f4xx_fmc.c **** {
 699              		.loc 1 1031 16 view .LVU205
 700              	.LBB145:
1033:../../../support/device/gd32f4xx/peripherals/src/gd32f4xx_fmc.c **** 
 701              		.loc 1 1033 5 view .LVU206
 702              	.LBB146:
 703              	.LBB147:
 995:../../../support/device/gd32f4xx/peripherals/src/gd32f4xx_fmc.c **** 
 704              		.loc 1 995 14 is_stmt 0 view .LVU207
 705 0000 3549     		ldr	r1, .L73
 706              	.LBE147:
 707              	.LBE146:
 708              	.LBE145:
 709              	.LBE144:
 229:../../../support/device/gd32f4xx/peripherals/src/gd32f4xx_fmc.c ****     fmc_state_enum fmc_state = FMC_READY;
 710              		.loc 1 229 1 view .LVU208
 711 0002 6FF03043 		mvn	r3, #-1342177280
 712              	.LVL44:
 713              	.L47:
 714              	.LBB179:
 715              	.LBB172:
1036:../../../support/device/gd32f4xx/peripherals/src/gd32f4xx_fmc.c ****         /* get FMC state */
 716              		.loc 1 1036 5 is_stmt 1 view .LVU209
1038:../../../support/device/gd32f4xx/peripherals/src/gd32f4xx_fmc.c ****         timeout--;
 717              		.loc 1 1038 9 view .LVU210
 718              	.LBB160:
 719              	.LBI146:
 992:../../../support/device/gd32f4xx/peripherals/src/gd32f4xx_fmc.c **** {
 720              		.loc 1 992 16 view .LVU211
 721              	.LBB148:
 994:../../../support/device/gd32f4xx/peripherals/src/gd32f4xx_fmc.c ****     uint32_t temp_val = FMC_STAT;
 722              		.loc 1 994 5 view .LVU212
 995:../../../support/device/gd32f4xx/peripherals/src/gd32f4xx_fmc.c **** 
 723              		.loc 1 995 5 view .LVU213
1014:../../../support/device/gd32f4xx/peripherals/src/gd32f4xx_fmc.c **** }
 724              		.loc 1 1014 5 view .LVU214
1014:../../../support/device/gd32f4xx/peripherals/src/gd32f4xx_fmc.c **** }
ARM GAS  /var/folders/_f/88qcw_5n2jl40jjphvxyt7wh0000gn/T//ccTBtSfs.s 			page 35


 725              		.loc 1 1014 5 is_stmt 0 view .LVU215
 726              	.LBE148:
 727              	.LBE160:
1039:../../../support/device/gd32f4xx/peripherals/src/gd32f4xx_fmc.c ****     } while((FMC_BUSY == fmc_state) && (0U != timeout));
 728              		.loc 1 1039 9 is_stmt 1 view .LVU216
1040:../../../support/device/gd32f4xx/peripherals/src/gd32f4xx_fmc.c **** 
 729              		.loc 1 1040 12 view .LVU217
 730              	.LBB161:
 731              	.LBB149:
 995:../../../support/device/gd32f4xx/peripherals/src/gd32f4xx_fmc.c **** 
 732              		.loc 1 995 14 is_stmt 0 view .LVU218
 733 0006 D1F80C2C 		ldr	r2, [r1, #3084]
 734              	.LVL45:
 997:../../../support/device/gd32f4xx/peripherals/src/gd32f4xx_fmc.c ****         fmc_state = FMC_BUSY;
 735              		.loc 1 997 5 is_stmt 1 view .LVU219
 997:../../../support/device/gd32f4xx/peripherals/src/gd32f4xx_fmc.c ****         fmc_state = FMC_BUSY;
 736              		.loc 1 997 7 is_stmt 0 view .LVU220
 737 000a D003     		lsls	r0, r2, #15
 738 000c 3BD4     		bmi	.L72
 999:../../../support/device/gd32f4xx/peripherals/src/gd32f4xx_fmc.c ****         fmc_state = FMC_RDDERR;
 739              		.loc 1 999 12 is_stmt 1 view .LVU221
 999:../../../support/device/gd32f4xx/peripherals/src/gd32f4xx_fmc.c ****         fmc_state = FMC_RDDERR;
 740              		.loc 1 999 14 is_stmt 0 view .LVU222
 741 000e D005     		lsls	r0, r2, #23
 742 0010 41D4     		bmi	.L49
1001:../../../support/device/gd32f4xx/peripherals/src/gd32f4xx_fmc.c ****         fmc_state = FMC_PGSERR;
 743              		.loc 1 1001 12 is_stmt 1 view .LVU223
1001:../../../support/device/gd32f4xx/peripherals/src/gd32f4xx_fmc.c ****         fmc_state = FMC_PGSERR;
 744              		.loc 1 1001 14 is_stmt 0 view .LVU224
 745 0012 1006     		lsls	r0, r2, #24
 746 0014 45D4     		bmi	.L50
1003:../../../support/device/gd32f4xx/peripherals/src/gd32f4xx_fmc.c ****         fmc_state = FMC_PGMERR;
 747              		.loc 1 1003 12 is_stmt 1 view .LVU225
1003:../../../support/device/gd32f4xx/peripherals/src/gd32f4xx_fmc.c ****         fmc_state = FMC_PGMERR;
 748              		.loc 1 1003 14 is_stmt 0 view .LVU226
 749 0016 5006     		lsls	r0, r2, #25
 750 0018 4AD4     		bmi	.L51
1005:../../../support/device/gd32f4xx/peripherals/src/gd32f4xx_fmc.c ****         fmc_state = FMC_WPERR;
 751              		.loc 1 1005 12 is_stmt 1 view .LVU227
1005:../../../support/device/gd32f4xx/peripherals/src/gd32f4xx_fmc.c ****         fmc_state = FMC_WPERR;
 752              		.loc 1 1005 14 is_stmt 0 view .LVU228
 753 001a D006     		lsls	r0, r2, #27
 754 001c 52D4     		bmi	.L52
1007:../../../support/device/gd32f4xx/peripherals/src/gd32f4xx_fmc.c ****         fmc_state = FMC_OPERR;
 755              		.loc 1 1007 12 is_stmt 1 view .LVU229
1007:../../../support/device/gd32f4xx/peripherals/src/gd32f4xx_fmc.c ****         fmc_state = FMC_OPERR;
 756              		.loc 1 1007 14 is_stmt 0 view .LVU230
 757 001e 9007     		lsls	r0, r2, #30
 758 0020 55D4     		bmi	.L53
1010:../../../support/device/gd32f4xx/peripherals/src/gd32f4xx_fmc.c ****     }
 759              		.loc 1 1010 9 is_stmt 1 view .LVU231
 760              	.LVL46:
1014:../../../support/device/gd32f4xx/peripherals/src/gd32f4xx_fmc.c **** }
 761              		.loc 1 1014 5 view .LVU232
1014:../../../support/device/gd32f4xx/peripherals/src/gd32f4xx_fmc.c **** }
 762              		.loc 1 1014 5 is_stmt 0 view .LVU233
 763              	.LBE149:
ARM GAS  /var/folders/_f/88qcw_5n2jl40jjphvxyt7wh0000gn/T//ccTBtSfs.s 			page 36


 764              	.LBE161:
1039:../../../support/device/gd32f4xx/peripherals/src/gd32f4xx_fmc.c ****     } while((FMC_BUSY == fmc_state) && (0U != timeout));
 765              		.loc 1 1039 9 is_stmt 1 view .LVU234
1040:../../../support/device/gd32f4xx/peripherals/src/gd32f4xx_fmc.c **** 
 766              		.loc 1 1040 12 view .LVU235
1042:../../../support/device/gd32f4xx/peripherals/src/gd32f4xx_fmc.c ****         fmc_state = FMC_TOERR;
 767              		.loc 1 1042 5 view .LVU236
1042:../../../support/device/gd32f4xx/peripherals/src/gd32f4xx_fmc.c ****         fmc_state = FMC_TOERR;
 768              		.loc 1 1042 7 is_stmt 0 view .LVU237
 769 0022 012B     		cmp	r3, #1
 770 0024 31D0     		beq	.L65
 771              	.LVL47:
1042:../../../support/device/gd32f4xx/peripherals/src/gd32f4xx_fmc.c ****         fmc_state = FMC_TOERR;
 772              		.loc 1 1042 7 view .LVU238
 773              	.LBE172:
 774              	.LBE179:
 236:../../../support/device/gd32f4xx/peripherals/src/gd32f4xx_fmc.c ****         FMC_CTL |= FMC_CTL_START;
 775              		.loc 1 236 9 is_stmt 1 view .LVU239
 236:../../../support/device/gd32f4xx/peripherals/src/gd32f4xx_fmc.c ****         FMC_CTL |= FMC_CTL_START;
 776              		.loc 1 236 17 is_stmt 0 view .LVU240
 777 0026 D1F8103C 		ldr	r3, [r1, #3088]
 778              	.LBB180:
 779              	.LBB181:
 780              	.LBB182:
 781              	.LBB183:
 995:../../../support/device/gd32f4xx/peripherals/src/gd32f4xx_fmc.c **** 
 782              		.loc 1 995 14 view .LVU241
 783 002a 2B48     		ldr	r0, .L73
 784              	.LBE183:
 785              	.LBE182:
 786              	.LBE181:
 787              	.LBE180:
 236:../../../support/device/gd32f4xx/peripherals/src/gd32f4xx_fmc.c ****         FMC_CTL |= FMC_CTL_START;
 788              		.loc 1 236 17 view .LVU242
 789 002c 43F40043 		orr	r3, r3, #32768
 790 0030 43F00403 		orr	r3, r3, #4
 791 0034 C1F8103C 		str	r3, [r1, #3088]
 237:../../../support/device/gd32f4xx/peripherals/src/gd32f4xx_fmc.c **** 
 792              		.loc 1 237 9 is_stmt 1 view .LVU243
 237:../../../support/device/gd32f4xx/peripherals/src/gd32f4xx_fmc.c **** 
 793              		.loc 1 237 17 is_stmt 0 view .LVU244
 794 0038 D1F8103C 		ldr	r3, [r1, #3088]
 795 003c 43F48033 		orr	r3, r3, #65536
 796 0040 6FF03042 		mvn	r2, #-1342177280
 797 0044 C1F8103C 		str	r3, [r1, #3088]
 240:../../../support/device/gd32f4xx/peripherals/src/gd32f4xx_fmc.c **** 
 798              		.loc 1 240 9 is_stmt 1 view .LVU245
 799              	.LVL48:
 800              	.LBB215:
 801              	.LBI180:
1031:../../../support/device/gd32f4xx/peripherals/src/gd32f4xx_fmc.c **** {
 802              		.loc 1 1031 16 view .LVU246
 803              	.LBB210:
1033:../../../support/device/gd32f4xx/peripherals/src/gd32f4xx_fmc.c **** 
 804              		.loc 1 1033 5 view .LVU247
 805              	.L63:
1036:../../../support/device/gd32f4xx/peripherals/src/gd32f4xx_fmc.c ****         /* get FMC state */
ARM GAS  /var/folders/_f/88qcw_5n2jl40jjphvxyt7wh0000gn/T//ccTBtSfs.s 			page 37


 806              		.loc 1 1036 5 view .LVU248
1038:../../../support/device/gd32f4xx/peripherals/src/gd32f4xx_fmc.c ****         timeout--;
 807              		.loc 1 1038 9 view .LVU249
 808              	.LBB197:
 809              	.LBI182:
 992:../../../support/device/gd32f4xx/peripherals/src/gd32f4xx_fmc.c **** {
 810              		.loc 1 992 16 view .LVU250
 811              	.LBB184:
 994:../../../support/device/gd32f4xx/peripherals/src/gd32f4xx_fmc.c ****     uint32_t temp_val = FMC_STAT;
 812              		.loc 1 994 5 view .LVU251
 995:../../../support/device/gd32f4xx/peripherals/src/gd32f4xx_fmc.c **** 
 813              		.loc 1 995 5 view .LVU252
1014:../../../support/device/gd32f4xx/peripherals/src/gd32f4xx_fmc.c **** }
 814              		.loc 1 1014 5 view .LVU253
1014:../../../support/device/gd32f4xx/peripherals/src/gd32f4xx_fmc.c **** }
 815              		.loc 1 1014 5 is_stmt 0 view .LVU254
 816              	.LBE184:
 817              	.LBE197:
1039:../../../support/device/gd32f4xx/peripherals/src/gd32f4xx_fmc.c ****     } while((FMC_BUSY == fmc_state) && (0U != timeout));
 818              		.loc 1 1039 9 is_stmt 1 view .LVU255
1040:../../../support/device/gd32f4xx/peripherals/src/gd32f4xx_fmc.c **** 
 819              		.loc 1 1040 12 view .LVU256
 820              	.LBB198:
 821              	.LBB185:
 995:../../../support/device/gd32f4xx/peripherals/src/gd32f4xx_fmc.c **** 
 822              		.loc 1 995 14 is_stmt 0 view .LVU257
 823 0048 D0F80C3C 		ldr	r3, [r0, #3084]
 824              	.LVL49:
 997:../../../support/device/gd32f4xx/peripherals/src/gd32f4xx_fmc.c ****         fmc_state = FMC_BUSY;
 825              		.loc 1 997 5 is_stmt 1 view .LVU258
 997:../../../support/device/gd32f4xx/peripherals/src/gd32f4xx_fmc.c ****         fmc_state = FMC_BUSY;
 826              		.loc 1 997 7 is_stmt 0 view .LVU259
 827 004c D903     		lsls	r1, r3, #15
 828 004e 1ED4     		bmi	.L56
 999:../../../support/device/gd32f4xx/peripherals/src/gd32f4xx_fmc.c ****         fmc_state = FMC_RDDERR;
 829              		.loc 1 999 12 is_stmt 1 view .LVU260
 999:../../../support/device/gd32f4xx/peripherals/src/gd32f4xx_fmc.c ****         fmc_state = FMC_RDDERR;
 830              		.loc 1 999 14 is_stmt 0 view .LVU261
 831 0050 D805     		lsls	r0, r3, #23
 832              	.LBE185:
 833              	.LBE198:
1039:../../../support/device/gd32f4xx/peripherals/src/gd32f4xx_fmc.c ****     } while((FMC_BUSY == fmc_state) && (0U != timeout));
 834              		.loc 1 1039 16 view .LVU262
 835 0052 02F1FF32 		add	r2, r2, #-1
 836              	.LVL50:
 837              	.LBB199:
 838              	.LBB186:
 999:../../../support/device/gd32f4xx/peripherals/src/gd32f4xx_fmc.c ****         fmc_state = FMC_RDDERR;
 839              		.loc 1 999 14 view .LVU263
 840 0056 2ED4     		bmi	.L57
1001:../../../support/device/gd32f4xx/peripherals/src/gd32f4xx_fmc.c ****         fmc_state = FMC_PGSERR;
 841              		.loc 1 1001 12 is_stmt 1 view .LVU264
1001:../../../support/device/gd32f4xx/peripherals/src/gd32f4xx_fmc.c ****         fmc_state = FMC_PGSERR;
 842              		.loc 1 1001 14 is_stmt 0 view .LVU265
 843 0058 1906     		lsls	r1, r3, #24
 844 005a 36D4     		bmi	.L58
1003:../../../support/device/gd32f4xx/peripherals/src/gd32f4xx_fmc.c ****         fmc_state = FMC_PGMERR;
ARM GAS  /var/folders/_f/88qcw_5n2jl40jjphvxyt7wh0000gn/T//ccTBtSfs.s 			page 38


 845              		.loc 1 1003 12 is_stmt 1 view .LVU266
1003:../../../support/device/gd32f4xx/peripherals/src/gd32f4xx_fmc.c ****         fmc_state = FMC_PGMERR;
 846              		.loc 1 1003 14 is_stmt 0 view .LVU267
 847 005c 5806     		lsls	r0, r3, #25
 848 005e 2FD4     		bmi	.L59
1005:../../../support/device/gd32f4xx/peripherals/src/gd32f4xx_fmc.c ****         fmc_state = FMC_WPERR;
 849              		.loc 1 1005 12 is_stmt 1 view .LVU268
1005:../../../support/device/gd32f4xx/peripherals/src/gd32f4xx_fmc.c ****         fmc_state = FMC_WPERR;
 850              		.loc 1 1005 14 is_stmt 0 view .LVU269
 851 0060 D906     		lsls	r1, r3, #27
 852 0062 37D4     		bmi	.L60
1007:../../../support/device/gd32f4xx/peripherals/src/gd32f4xx_fmc.c ****         fmc_state = FMC_OPERR;
 853              		.loc 1 1007 12 is_stmt 1 view .LVU270
1007:../../../support/device/gd32f4xx/peripherals/src/gd32f4xx_fmc.c ****         fmc_state = FMC_OPERR;
 854              		.loc 1 1007 14 is_stmt 0 view .LVU271
 855 0064 13F00200 		ands	r0, r3, #2
1010:../../../support/device/gd32f4xx/peripherals/src/gd32f4xx_fmc.c ****     }
 856              		.loc 1 1010 9 is_stmt 1 view .LVU272
 857              	.LVL51:
1014:../../../support/device/gd32f4xx/peripherals/src/gd32f4xx_fmc.c **** }
 858              		.loc 1 1014 5 view .LVU273
1014:../../../support/device/gd32f4xx/peripherals/src/gd32f4xx_fmc.c **** }
 859              		.loc 1 1014 5 is_stmt 0 view .LVU274
 860              	.LBE186:
 861              	.LBE199:
1039:../../../support/device/gd32f4xx/peripherals/src/gd32f4xx_fmc.c ****     } while((FMC_BUSY == fmc_state) && (0U != timeout));
 862              		.loc 1 1039 9 is_stmt 1 view .LVU275
1040:../../../support/device/gd32f4xx/peripherals/src/gd32f4xx_fmc.c **** 
 863              		.loc 1 1040 12 view .LVU276
 864              	.LBB200:
 865              	.LBB187:
1014:../../../support/device/gd32f4xx/peripherals/src/gd32f4xx_fmc.c **** }
 866              		.loc 1 1014 5 view .LVU277
1014:../../../support/device/gd32f4xx/peripherals/src/gd32f4xx_fmc.c **** }
 867              		.loc 1 1014 5 is_stmt 0 view .LVU278
 868              	.LBE187:
 869              	.LBE200:
1039:../../../support/device/gd32f4xx/peripherals/src/gd32f4xx_fmc.c ****     } while((FMC_BUSY == fmc_state) && (0U != timeout));
 870              		.loc 1 1039 9 is_stmt 1 view .LVU279
1040:../../../support/device/gd32f4xx/peripherals/src/gd32f4xx_fmc.c **** 
 871              		.loc 1 1040 12 view .LVU280
 872              	.LBB201:
 873              	.LBB188:
1008:../../../support/device/gd32f4xx/peripherals/src/gd32f4xx_fmc.c ****     } else {
 874              		.loc 1 1008 19 is_stmt 0 view .LVU281
 875 0068 18BF     		it	ne
 876 006a 0620     		movne	r0, #6
 877              	.LBE188:
 878              	.LBE201:
1042:../../../support/device/gd32f4xx/peripherals/src/gd32f4xx_fmc.c ****         fmc_state = FMC_TOERR;
 879              		.loc 1 1042 5 is_stmt 1 view .LVU282
1043:../../../support/device/gd32f4xx/peripherals/src/gd32f4xx_fmc.c ****     }
 880              		.loc 1 1043 19 is_stmt 0 view .LVU283
 881 006c 002A     		cmp	r2, #0
 882 006e 08BF     		it	eq
 883 0070 0720     		moveq	r0, #7
 884              	.LVL52:
ARM GAS  /var/folders/_f/88qcw_5n2jl40jjphvxyt7wh0000gn/T//ccTBtSfs.s 			page 39


 885              	.L64:
 886              		.loc 1 1047 5 is_stmt 1 view .LVU284
 887              		.loc 1 1047 5 is_stmt 0 view .LVU285
 888              	.LBE210:
 889              	.LBE215:
 243:../../../support/device/gd32f4xx/peripherals/src/gd32f4xx_fmc.c ****     }
 890              		.loc 1 243 9 is_stmt 1 view .LVU286
 243:../../../support/device/gd32f4xx/peripherals/src/gd32f4xx_fmc.c ****     }
 891              		.loc 1 243 17 is_stmt 0 view .LVU287
 892 0072 194A     		ldr	r2, .L73
 893 0074 D2F8103C 		ldr	r3, [r2, #3088]
 894 0078 23F40043 		bic	r3, r3, #32768
 895 007c 23F00403 		bic	r3, r3, #4
 896 0080 C2F8103C 		str	r3, [r2, #3088]
 897 0084 7047     		bx	lr
 898              	.LVL53:
 899              	.L72:
 900              	.LBB216:
 901              	.LBB173:
1040:../../../support/device/gd32f4xx/peripherals/src/gd32f4xx_fmc.c **** 
 902              		.loc 1 1040 37 view .LVU288
 903 0086 013B     		subs	r3, r3, #1
 904              	.LVL54:
1040:../../../support/device/gd32f4xx/peripherals/src/gd32f4xx_fmc.c **** 
 905              		.loc 1 1040 37 view .LVU289
 906 0088 BDD1     		bne	.L47
 907              	.LVL55:
 908              	.L65:
1043:../../../support/device/gd32f4xx/peripherals/src/gd32f4xx_fmc.c ****     }
 909              		.loc 1 1043 19 view .LVU290
 910 008a 0720     		movs	r0, #7
 911 008c 7047     		bx	lr
 912              	.LVL56:
 913              	.L56:
1043:../../../support/device/gd32f4xx/peripherals/src/gd32f4xx_fmc.c ****     }
 914              		.loc 1 1043 19 view .LVU291
 915              	.LBE173:
 916              	.LBE216:
 917              	.LBB217:
 918              	.LBB211:
1040:../../../support/device/gd32f4xx/peripherals/src/gd32f4xx_fmc.c **** 
 919              		.loc 1 1040 37 view .LVU292
 920 008e 013A     		subs	r2, r2, #1
 921              	.LVL57:
1040:../../../support/device/gd32f4xx/peripherals/src/gd32f4xx_fmc.c **** 
 922              		.loc 1 1040 37 view .LVU293
 923 0090 DAD1     		bne	.L63
1043:../../../support/device/gd32f4xx/peripherals/src/gd32f4xx_fmc.c ****     }
 924              		.loc 1 1043 19 view .LVU294
 925 0092 0720     		movs	r0, #7
 926 0094 EDE7     		b	.L64
 927              	.LVL58:
 928              	.L49:
1043:../../../support/device/gd32f4xx/peripherals/src/gd32f4xx_fmc.c ****     }
 929              		.loc 1 1043 19 view .LVU295
 930              	.LBE211:
 931              	.LBE217:
ARM GAS  /var/folders/_f/88qcw_5n2jl40jjphvxyt7wh0000gn/T//ccTBtSfs.s 			page 40


 932              	.LBB218:
 933              	.LBB174:
 934              	.LBB162:
 935              	.LBB150:
1014:../../../support/device/gd32f4xx/peripherals/src/gd32f4xx_fmc.c **** }
 936              		.loc 1 1014 5 is_stmt 1 view .LVU296
1014:../../../support/device/gd32f4xx/peripherals/src/gd32f4xx_fmc.c **** }
 937              		.loc 1 1014 5 is_stmt 0 view .LVU297
 938              	.LBE150:
 939              	.LBE162:
1039:../../../support/device/gd32f4xx/peripherals/src/gd32f4xx_fmc.c ****     } while((FMC_BUSY == fmc_state) && (0U != timeout));
 940              		.loc 1 1039 9 is_stmt 1 view .LVU298
1039:../../../support/device/gd32f4xx/peripherals/src/gd32f4xx_fmc.c ****     } while((FMC_BUSY == fmc_state) && (0U != timeout));
 941              		.loc 1 1039 16 is_stmt 0 view .LVU299
 942 0096 013B     		subs	r3, r3, #1
 943              	.LVL59:
1040:../../../support/device/gd32f4xx/peripherals/src/gd32f4xx_fmc.c **** 
 944              		.loc 1 1040 12 is_stmt 1 view .LVU300
 945              	.LBB163:
 946              	.LBB151:
1000:../../../support/device/gd32f4xx/peripherals/src/gd32f4xx_fmc.c ****     } else if(RESET != (temp_val & FMC_FLAG_PGSERR)) {
 947              		.loc 1 1000 19 is_stmt 0 view .LVU301
 948 0098 0220     		movs	r0, #2
 949              	.LVL60:
 950              	.L55:
1000:../../../support/device/gd32f4xx/peripherals/src/gd32f4xx_fmc.c ****     } else if(RESET != (temp_val & FMC_FLAG_PGSERR)) {
 951              		.loc 1 1000 19 view .LVU302
 952              	.LBE151:
 953              	.LBE163:
1042:../../../support/device/gd32f4xx/peripherals/src/gd32f4xx_fmc.c ****         fmc_state = FMC_TOERR;
 954              		.loc 1 1042 5 is_stmt 1 view .LVU303
1043:../../../support/device/gd32f4xx/peripherals/src/gd32f4xx_fmc.c ****     }
 955              		.loc 1 1043 19 is_stmt 0 view .LVU304
 956 009a 002B     		cmp	r3, #0
 957 009c 08BF     		it	eq
 958 009e 0720     		moveq	r0, #7
 959              	.LBE174:
 960              	.LBE218:
 248:../../../support/device/gd32f4xx/peripherals/src/gd32f4xx_fmc.c **** 
 961              		.loc 1 248 1 view .LVU305
 962 00a0 7047     		bx	lr
 963              	.LVL61:
 964              	.L50:
 965              	.LBB219:
 966              	.LBB175:
 967              	.LBB164:
 968              	.LBB152:
1014:../../../support/device/gd32f4xx/peripherals/src/gd32f4xx_fmc.c **** }
 969              		.loc 1 1014 5 is_stmt 1 view .LVU306
1014:../../../support/device/gd32f4xx/peripherals/src/gd32f4xx_fmc.c **** }
 970              		.loc 1 1014 5 is_stmt 0 view .LVU307
 971              	.LBE152:
 972              	.LBE164:
1039:../../../support/device/gd32f4xx/peripherals/src/gd32f4xx_fmc.c ****     } while((FMC_BUSY == fmc_state) && (0U != timeout));
 973              		.loc 1 1039 9 is_stmt 1 view .LVU308
1039:../../../support/device/gd32f4xx/peripherals/src/gd32f4xx_fmc.c ****     } while((FMC_BUSY == fmc_state) && (0U != timeout));
 974              		.loc 1 1039 16 is_stmt 0 view .LVU309
ARM GAS  /var/folders/_f/88qcw_5n2jl40jjphvxyt7wh0000gn/T//ccTBtSfs.s 			page 41


 975 00a2 013B     		subs	r3, r3, #1
 976              	.LVL62:
1040:../../../support/device/gd32f4xx/peripherals/src/gd32f4xx_fmc.c **** 
 977              		.loc 1 1040 12 is_stmt 1 view .LVU310
1043:../../../support/device/gd32f4xx/peripherals/src/gd32f4xx_fmc.c ****     }
 978              		.loc 1 1043 19 is_stmt 0 view .LVU311
 979 00a4 002B     		cmp	r3, #0
 980              	.LBB165:
 981              	.LBB153:
1002:../../../support/device/gd32f4xx/peripherals/src/gd32f4xx_fmc.c ****     } else if(RESET != (temp_val & FMC_FLAG_PGMERR)) {
 982              		.loc 1 1002 19 view .LVU312
 983 00a6 4FF00300 		mov	r0, #3
 984              	.LBE153:
 985              	.LBE165:
1042:../../../support/device/gd32f4xx/peripherals/src/gd32f4xx_fmc.c ****         fmc_state = FMC_TOERR;
 986              		.loc 1 1042 5 is_stmt 1 view .LVU313
1043:../../../support/device/gd32f4xx/peripherals/src/gd32f4xx_fmc.c ****     }
 987              		.loc 1 1043 19 is_stmt 0 view .LVU314
 988 00aa 08BF     		it	eq
 989 00ac 0720     		moveq	r0, #7
 990              	.LBE175:
 991              	.LBE219:
 248:../../../support/device/gd32f4xx/peripherals/src/gd32f4xx_fmc.c **** 
 992              		.loc 1 248 1 view .LVU315
 993 00ae 7047     		bx	lr
 994              	.LVL63:
 995              	.L51:
 996              	.LBB220:
 997              	.LBB176:
 998              	.LBB166:
 999              	.LBB154:
1014:../../../support/device/gd32f4xx/peripherals/src/gd32f4xx_fmc.c **** }
 1000              		.loc 1 1014 5 is_stmt 1 view .LVU316
1014:../../../support/device/gd32f4xx/peripherals/src/gd32f4xx_fmc.c **** }
 1001              		.loc 1 1014 5 is_stmt 0 view .LVU317
 1002              	.LBE154:
 1003              	.LBE166:
1039:../../../support/device/gd32f4xx/peripherals/src/gd32f4xx_fmc.c ****     } while((FMC_BUSY == fmc_state) && (0U != timeout));
 1004              		.loc 1 1039 9 is_stmt 1 view .LVU318
1039:../../../support/device/gd32f4xx/peripherals/src/gd32f4xx_fmc.c ****     } while((FMC_BUSY == fmc_state) && (0U != timeout));
 1005              		.loc 1 1039 16 is_stmt 0 view .LVU319
 1006 00b0 013B     		subs	r3, r3, #1
 1007              	.LVL64:
1040:../../../support/device/gd32f4xx/peripherals/src/gd32f4xx_fmc.c **** 
 1008              		.loc 1 1040 12 is_stmt 1 view .LVU320
 1009              	.LBB167:
 1010              	.LBB155:
1004:../../../support/device/gd32f4xx/peripherals/src/gd32f4xx_fmc.c ****     } else if(RESET != (temp_val & FMC_FLAG_WPERR)) {
 1011              		.loc 1 1004 19 is_stmt 0 view .LVU321
 1012 00b2 0420     		movs	r0, #4
 1013 00b4 F1E7     		b	.L55
 1014              	.LVL65:
 1015              	.L57:
1004:../../../support/device/gd32f4xx/peripherals/src/gd32f4xx_fmc.c ****     } else if(RESET != (temp_val & FMC_FLAG_WPERR)) {
 1016              		.loc 1 1004 19 view .LVU322
 1017              	.LBE155:
 1018              	.LBE167:
ARM GAS  /var/folders/_f/88qcw_5n2jl40jjphvxyt7wh0000gn/T//ccTBtSfs.s 			page 42


 1019              	.LBE176:
 1020              	.LBE220:
 1021              	.LBB221:
 1022              	.LBB212:
 1023              	.LBB202:
 1024              	.LBB189:
1014:../../../support/device/gd32f4xx/peripherals/src/gd32f4xx_fmc.c **** }
 1025              		.loc 1 1014 5 is_stmt 1 view .LVU323
1014:../../../support/device/gd32f4xx/peripherals/src/gd32f4xx_fmc.c **** }
 1026              		.loc 1 1014 5 is_stmt 0 view .LVU324
 1027              	.LBE189:
 1028              	.LBE202:
1039:../../../support/device/gd32f4xx/peripherals/src/gd32f4xx_fmc.c ****     } while((FMC_BUSY == fmc_state) && (0U != timeout));
 1029              		.loc 1 1039 9 is_stmt 1 view .LVU325
1040:../../../support/device/gd32f4xx/peripherals/src/gd32f4xx_fmc.c **** 
 1030              		.loc 1 1040 12 view .LVU326
 1031              	.LBB203:
 1032              	.LBB190:
1000:../../../support/device/gd32f4xx/peripherals/src/gd32f4xx_fmc.c ****     } else if(RESET != (temp_val & FMC_FLAG_PGSERR)) {
 1033              		.loc 1 1000 19 is_stmt 0 view .LVU327
 1034 00b6 0220     		movs	r0, #2
 1035              	.LVL66:
 1036              	.L62:
1000:../../../support/device/gd32f4xx/peripherals/src/gd32f4xx_fmc.c ****     } else if(RESET != (temp_val & FMC_FLAG_PGSERR)) {
 1037              		.loc 1 1000 19 view .LVU328
 1038              	.LBE190:
 1039              	.LBE203:
1042:../../../support/device/gd32f4xx/peripherals/src/gd32f4xx_fmc.c ****         fmc_state = FMC_TOERR;
 1040              		.loc 1 1042 5 is_stmt 1 view .LVU329
1043:../../../support/device/gd32f4xx/peripherals/src/gd32f4xx_fmc.c ****     }
 1041              		.loc 1 1043 19 is_stmt 0 view .LVU330
 1042 00b8 002A     		cmp	r2, #0
 1043 00ba 08BF     		it	eq
 1044 00bc 0720     		moveq	r0, #7
 1045 00be D8E7     		b	.L64
 1046              	.LVL67:
 1047              	.L59:
 1048              	.LBB204:
 1049              	.LBB191:
1014:../../../support/device/gd32f4xx/peripherals/src/gd32f4xx_fmc.c **** }
 1050              		.loc 1 1014 5 is_stmt 1 view .LVU331
1014:../../../support/device/gd32f4xx/peripherals/src/gd32f4xx_fmc.c **** }
 1051              		.loc 1 1014 5 is_stmt 0 view .LVU332
 1052              	.LBE191:
 1053              	.LBE204:
1039:../../../support/device/gd32f4xx/peripherals/src/gd32f4xx_fmc.c ****     } while((FMC_BUSY == fmc_state) && (0U != timeout));
 1054              		.loc 1 1039 9 is_stmt 1 view .LVU333
1040:../../../support/device/gd32f4xx/peripherals/src/gd32f4xx_fmc.c **** 
 1055              		.loc 1 1040 12 view .LVU334
 1056              	.LBB205:
 1057              	.LBB192:
1004:../../../support/device/gd32f4xx/peripherals/src/gd32f4xx_fmc.c ****     } else if(RESET != (temp_val & FMC_FLAG_WPERR)) {
 1058              		.loc 1 1004 19 is_stmt 0 view .LVU335
 1059 00c0 0420     		movs	r0, #4
 1060 00c2 F9E7     		b	.L62
 1061              	.LVL68:
 1062              	.L52:
ARM GAS  /var/folders/_f/88qcw_5n2jl40jjphvxyt7wh0000gn/T//ccTBtSfs.s 			page 43


1004:../../../support/device/gd32f4xx/peripherals/src/gd32f4xx_fmc.c ****     } else if(RESET != (temp_val & FMC_FLAG_WPERR)) {
 1063              		.loc 1 1004 19 view .LVU336
 1064              	.LBE192:
 1065              	.LBE205:
 1066              	.LBE212:
 1067              	.LBE221:
 1068              	.LBB222:
 1069              	.LBB177:
 1070              	.LBB168:
 1071              	.LBB156:
1014:../../../support/device/gd32f4xx/peripherals/src/gd32f4xx_fmc.c **** }
 1072              		.loc 1 1014 5 is_stmt 1 view .LVU337
1014:../../../support/device/gd32f4xx/peripherals/src/gd32f4xx_fmc.c **** }
 1073              		.loc 1 1014 5 is_stmt 0 view .LVU338
 1074              	.LBE156:
 1075              	.LBE168:
1039:../../../support/device/gd32f4xx/peripherals/src/gd32f4xx_fmc.c ****     } while((FMC_BUSY == fmc_state) && (0U != timeout));
 1076              		.loc 1 1039 9 is_stmt 1 view .LVU339
1039:../../../support/device/gd32f4xx/peripherals/src/gd32f4xx_fmc.c ****     } while((FMC_BUSY == fmc_state) && (0U != timeout));
 1077              		.loc 1 1039 16 is_stmt 0 view .LVU340
 1078 00c4 013B     		subs	r3, r3, #1
 1079              	.LVL69:
1040:../../../support/device/gd32f4xx/peripherals/src/gd32f4xx_fmc.c **** 
 1080              		.loc 1 1040 12 is_stmt 1 view .LVU341
 1081              	.LBB169:
 1082              	.LBB157:
1006:../../../support/device/gd32f4xx/peripherals/src/gd32f4xx_fmc.c ****     } else if(RESET != (temp_val & FMC_FLAG_OPERR)) {
 1083              		.loc 1 1006 19 is_stmt 0 view .LVU342
 1084 00c6 0520     		movs	r0, #5
 1085 00c8 E7E7     		b	.L55
 1086              	.LVL70:
 1087              	.L58:
1006:../../../support/device/gd32f4xx/peripherals/src/gd32f4xx_fmc.c ****     } else if(RESET != (temp_val & FMC_FLAG_OPERR)) {
 1088              		.loc 1 1006 19 view .LVU343
 1089              	.LBE157:
 1090              	.LBE169:
 1091              	.LBE177:
 1092              	.LBE222:
 1093              	.LBB223:
 1094              	.LBB213:
 1095              	.LBB206:
 1096              	.LBB193:
1014:../../../support/device/gd32f4xx/peripherals/src/gd32f4xx_fmc.c **** }
 1097              		.loc 1 1014 5 is_stmt 1 view .LVU344
1014:../../../support/device/gd32f4xx/peripherals/src/gd32f4xx_fmc.c **** }
 1098              		.loc 1 1014 5 is_stmt 0 view .LVU345
 1099              	.LBE193:
 1100              	.LBE206:
1039:../../../support/device/gd32f4xx/peripherals/src/gd32f4xx_fmc.c ****     } while((FMC_BUSY == fmc_state) && (0U != timeout));
 1101              		.loc 1 1039 9 is_stmt 1 view .LVU346
1040:../../../support/device/gd32f4xx/peripherals/src/gd32f4xx_fmc.c **** 
 1102              		.loc 1 1040 12 view .LVU347
 1103              	.LBB207:
 1104              	.LBB194:
1002:../../../support/device/gd32f4xx/peripherals/src/gd32f4xx_fmc.c ****     } else if(RESET != (temp_val & FMC_FLAG_PGMERR)) {
 1105              		.loc 1 1002 19 is_stmt 0 view .LVU348
 1106 00ca 0320     		movs	r0, #3
ARM GAS  /var/folders/_f/88qcw_5n2jl40jjphvxyt7wh0000gn/T//ccTBtSfs.s 			page 44


 1107 00cc F4E7     		b	.L62
 1108              	.LVL71:
 1109              	.L53:
1002:../../../support/device/gd32f4xx/peripherals/src/gd32f4xx_fmc.c ****     } else if(RESET != (temp_val & FMC_FLAG_PGMERR)) {
 1110              		.loc 1 1002 19 view .LVU349
 1111              	.LBE194:
 1112              	.LBE207:
 1113              	.LBE213:
 1114              	.LBE223:
 1115              	.LBB224:
 1116              	.LBB178:
 1117              	.LBB170:
 1118              	.LBB158:
1014:../../../support/device/gd32f4xx/peripherals/src/gd32f4xx_fmc.c **** }
 1119              		.loc 1 1014 5 is_stmt 1 view .LVU350
1014:../../../support/device/gd32f4xx/peripherals/src/gd32f4xx_fmc.c **** }
 1120              		.loc 1 1014 5 is_stmt 0 view .LVU351
 1121              	.LBE158:
 1122              	.LBE170:
1039:../../../support/device/gd32f4xx/peripherals/src/gd32f4xx_fmc.c ****     } while((FMC_BUSY == fmc_state) && (0U != timeout));
 1123              		.loc 1 1039 9 is_stmt 1 view .LVU352
1039:../../../support/device/gd32f4xx/peripherals/src/gd32f4xx_fmc.c ****     } while((FMC_BUSY == fmc_state) && (0U != timeout));
 1124              		.loc 1 1039 16 is_stmt 0 view .LVU353
 1125 00ce 013B     		subs	r3, r3, #1
 1126              	.LVL72:
1040:../../../support/device/gd32f4xx/peripherals/src/gd32f4xx_fmc.c **** 
 1127              		.loc 1 1040 12 is_stmt 1 view .LVU354
 1128              	.LBB171:
 1129              	.LBB159:
1008:../../../support/device/gd32f4xx/peripherals/src/gd32f4xx_fmc.c ****     } else {
 1130              		.loc 1 1008 19 is_stmt 0 view .LVU355
 1131 00d0 0620     		movs	r0, #6
 1132 00d2 E2E7     		b	.L55
 1133              	.LVL73:
 1134              	.L60:
1008:../../../support/device/gd32f4xx/peripherals/src/gd32f4xx_fmc.c ****     } else {
 1135              		.loc 1 1008 19 view .LVU356
 1136              	.LBE159:
 1137              	.LBE171:
 1138              	.LBE178:
 1139              	.LBE224:
 1140              	.LBB225:
 1141              	.LBB214:
 1142              	.LBB208:
 1143              	.LBB195:
1014:../../../support/device/gd32f4xx/peripherals/src/gd32f4xx_fmc.c **** }
 1144              		.loc 1 1014 5 is_stmt 1 view .LVU357
1014:../../../support/device/gd32f4xx/peripherals/src/gd32f4xx_fmc.c **** }
 1145              		.loc 1 1014 5 is_stmt 0 view .LVU358
 1146              	.LBE195:
 1147              	.LBE208:
1039:../../../support/device/gd32f4xx/peripherals/src/gd32f4xx_fmc.c ****     } while((FMC_BUSY == fmc_state) && (0U != timeout));
 1148              		.loc 1 1039 9 is_stmt 1 view .LVU359
1040:../../../support/device/gd32f4xx/peripherals/src/gd32f4xx_fmc.c **** 
 1149              		.loc 1 1040 12 view .LVU360
 1150              	.LBB209:
 1151              	.LBB196:
ARM GAS  /var/folders/_f/88qcw_5n2jl40jjphvxyt7wh0000gn/T//ccTBtSfs.s 			page 45


1006:../../../support/device/gd32f4xx/peripherals/src/gd32f4xx_fmc.c ****     } else if(RESET != (temp_val & FMC_FLAG_OPERR)) {
 1152              		.loc 1 1006 19 is_stmt 0 view .LVU361
 1153 00d4 0520     		movs	r0, #5
 1154 00d6 EFE7     		b	.L62
 1155              	.L74:
 1156              		.align	2
 1157              	.L73:
 1158 00d8 00300240 		.word	1073885184
 1159              	.LBE196:
 1160              	.LBE209:
 1161              	.LBE214:
 1162              	.LBE225:
 1163              		.cfi_endproc
 1164              	.LFE120:
 1166              		.section	.text.fmc_bank0_erase,"ax",%progbits
 1167              		.align	1
 1168              		.p2align 2,,3
 1169              		.global	fmc_bank0_erase
 1170              		.syntax unified
 1171              		.thumb
 1172              		.thumb_func
 1174              	fmc_bank0_erase:
 1175              	.LFB121:
 265:../../../support/device/gd32f4xx/peripherals/src/gd32f4xx_fmc.c ****     fmc_state_enum fmc_state = FMC_READY;
 1176              		.loc 1 265 1 is_stmt 1 view -0
 1177              		.cfi_startproc
 1178              		@ args = 0, pretend = 0, frame = 0
 1179              		@ frame_needed = 0, uses_anonymous_args = 0
 1180              		@ link register save eliminated.
 266:../../../support/device/gd32f4xx/peripherals/src/gd32f4xx_fmc.c ****     /* wait for the FMC ready */
 1181              		.loc 1 266 5 view .LVU363
 1182              	.LVL74:
 268:../../../support/device/gd32f4xx/peripherals/src/gd32f4xx_fmc.c **** 
 1183              		.loc 1 268 5 view .LVU364
 1184              	.LBB234:
 1185              	.LBI234:
1031:../../../support/device/gd32f4xx/peripherals/src/gd32f4xx_fmc.c **** {
 1186              		.loc 1 1031 16 view .LVU365
 1187              	.LBB235:
1033:../../../support/device/gd32f4xx/peripherals/src/gd32f4xx_fmc.c **** 
 1188              		.loc 1 1033 5 view .LVU366
 1189              	.LBB236:
 1190              	.LBB237:
 995:../../../support/device/gd32f4xx/peripherals/src/gd32f4xx_fmc.c **** 
 1191              		.loc 1 995 14 is_stmt 0 view .LVU367
 1192 0000 3349     		ldr	r1, .L103
 1193              	.LBE237:
 1194              	.LBE236:
 1195              	.LBE235:
 1196              	.LBE234:
 265:../../../support/device/gd32f4xx/peripherals/src/gd32f4xx_fmc.c ****     fmc_state_enum fmc_state = FMC_READY;
 1197              		.loc 1 265 1 view .LVU368
 1198 0002 6FF03043 		mvn	r3, #-1342177280
 1199              	.LVL75:
 1200              	.L77:
 1201              	.LBB269:
 1202              	.LBB262:
ARM GAS  /var/folders/_f/88qcw_5n2jl40jjphvxyt7wh0000gn/T//ccTBtSfs.s 			page 46


1036:../../../support/device/gd32f4xx/peripherals/src/gd32f4xx_fmc.c ****         /* get FMC state */
 1203              		.loc 1 1036 5 is_stmt 1 view .LVU369
1038:../../../support/device/gd32f4xx/peripherals/src/gd32f4xx_fmc.c ****         timeout--;
 1204              		.loc 1 1038 9 view .LVU370
 1205              	.LBB250:
 1206              	.LBI236:
 992:../../../support/device/gd32f4xx/peripherals/src/gd32f4xx_fmc.c **** {
 1207              		.loc 1 992 16 view .LVU371
 1208              	.LBB238:
 994:../../../support/device/gd32f4xx/peripherals/src/gd32f4xx_fmc.c ****     uint32_t temp_val = FMC_STAT;
 1209              		.loc 1 994 5 view .LVU372
 995:../../../support/device/gd32f4xx/peripherals/src/gd32f4xx_fmc.c **** 
 1210              		.loc 1 995 5 view .LVU373
1014:../../../support/device/gd32f4xx/peripherals/src/gd32f4xx_fmc.c **** }
 1211              		.loc 1 1014 5 view .LVU374
1014:../../../support/device/gd32f4xx/peripherals/src/gd32f4xx_fmc.c **** }
 1212              		.loc 1 1014 5 is_stmt 0 view .LVU375
 1213              	.LBE238:
 1214              	.LBE250:
1039:../../../support/device/gd32f4xx/peripherals/src/gd32f4xx_fmc.c ****     } while((FMC_BUSY == fmc_state) && (0U != timeout));
 1215              		.loc 1 1039 9 is_stmt 1 view .LVU376
1040:../../../support/device/gd32f4xx/peripherals/src/gd32f4xx_fmc.c **** 
 1216              		.loc 1 1040 12 view .LVU377
 1217              	.LBB251:
 1218              	.LBB239:
 995:../../../support/device/gd32f4xx/peripherals/src/gd32f4xx_fmc.c **** 
 1219              		.loc 1 995 14 is_stmt 0 view .LVU378
 1220 0006 D1F80C2C 		ldr	r2, [r1, #3084]
 1221              	.LVL76:
 997:../../../support/device/gd32f4xx/peripherals/src/gd32f4xx_fmc.c ****         fmc_state = FMC_BUSY;
 1222              		.loc 1 997 5 is_stmt 1 view .LVU379
 997:../../../support/device/gd32f4xx/peripherals/src/gd32f4xx_fmc.c ****         fmc_state = FMC_BUSY;
 1223              		.loc 1 997 7 is_stmt 0 view .LVU380
 1224 000a D003     		lsls	r0, r2, #15
 1225 000c 37D4     		bmi	.L102
 999:../../../support/device/gd32f4xx/peripherals/src/gd32f4xx_fmc.c ****         fmc_state = FMC_RDDERR;
 1226              		.loc 1 999 12 is_stmt 1 view .LVU381
 999:../../../support/device/gd32f4xx/peripherals/src/gd32f4xx_fmc.c ****         fmc_state = FMC_RDDERR;
 1227              		.loc 1 999 14 is_stmt 0 view .LVU382
 1228 000e D005     		lsls	r0, r2, #23
 1229 0010 3DD4     		bmi	.L79
1001:../../../support/device/gd32f4xx/peripherals/src/gd32f4xx_fmc.c ****         fmc_state = FMC_PGSERR;
 1230              		.loc 1 1001 12 is_stmt 1 view .LVU383
1001:../../../support/device/gd32f4xx/peripherals/src/gd32f4xx_fmc.c ****         fmc_state = FMC_PGSERR;
 1231              		.loc 1 1001 14 is_stmt 0 view .LVU384
 1232 0012 1006     		lsls	r0, r2, #24
 1233 0014 41D4     		bmi	.L80
1003:../../../support/device/gd32f4xx/peripherals/src/gd32f4xx_fmc.c ****         fmc_state = FMC_PGMERR;
 1234              		.loc 1 1003 12 is_stmt 1 view .LVU385
1003:../../../support/device/gd32f4xx/peripherals/src/gd32f4xx_fmc.c ****         fmc_state = FMC_PGMERR;
 1235              		.loc 1 1003 14 is_stmt 0 view .LVU386
 1236 0016 5006     		lsls	r0, r2, #25
 1237 0018 46D4     		bmi	.L81
1005:../../../support/device/gd32f4xx/peripherals/src/gd32f4xx_fmc.c ****         fmc_state = FMC_WPERR;
 1238              		.loc 1 1005 12 is_stmt 1 view .LVU387
1005:../../../support/device/gd32f4xx/peripherals/src/gd32f4xx_fmc.c ****         fmc_state = FMC_WPERR;
 1239              		.loc 1 1005 14 is_stmt 0 view .LVU388
ARM GAS  /var/folders/_f/88qcw_5n2jl40jjphvxyt7wh0000gn/T//ccTBtSfs.s 			page 47


 1240 001a D006     		lsls	r0, r2, #27
 1241 001c 4ED4     		bmi	.L82
1007:../../../support/device/gd32f4xx/peripherals/src/gd32f4xx_fmc.c ****         fmc_state = FMC_OPERR;
 1242              		.loc 1 1007 12 is_stmt 1 view .LVU389
1007:../../../support/device/gd32f4xx/peripherals/src/gd32f4xx_fmc.c ****         fmc_state = FMC_OPERR;
 1243              		.loc 1 1007 14 is_stmt 0 view .LVU390
 1244 001e 9007     		lsls	r0, r2, #30
 1245 0020 51D4     		bmi	.L83
1010:../../../support/device/gd32f4xx/peripherals/src/gd32f4xx_fmc.c ****     }
 1246              		.loc 1 1010 9 is_stmt 1 view .LVU391
 1247              	.LVL77:
1014:../../../support/device/gd32f4xx/peripherals/src/gd32f4xx_fmc.c **** }
 1248              		.loc 1 1014 5 view .LVU392
1014:../../../support/device/gd32f4xx/peripherals/src/gd32f4xx_fmc.c **** }
 1249              		.loc 1 1014 5 is_stmt 0 view .LVU393
 1250              	.LBE239:
 1251              	.LBE251:
1039:../../../support/device/gd32f4xx/peripherals/src/gd32f4xx_fmc.c ****     } while((FMC_BUSY == fmc_state) && (0U != timeout));
 1252              		.loc 1 1039 9 is_stmt 1 view .LVU394
1040:../../../support/device/gd32f4xx/peripherals/src/gd32f4xx_fmc.c **** 
 1253              		.loc 1 1040 12 view .LVU395
1042:../../../support/device/gd32f4xx/peripherals/src/gd32f4xx_fmc.c ****         fmc_state = FMC_TOERR;
 1254              		.loc 1 1042 5 view .LVU396
1042:../../../support/device/gd32f4xx/peripherals/src/gd32f4xx_fmc.c ****         fmc_state = FMC_TOERR;
 1255              		.loc 1 1042 7 is_stmt 0 view .LVU397
 1256 0022 012B     		cmp	r3, #1
 1257 0024 2DD0     		beq	.L95
 1258              	.LVL78:
1042:../../../support/device/gd32f4xx/peripherals/src/gd32f4xx_fmc.c ****         fmc_state = FMC_TOERR;
 1259              		.loc 1 1042 7 view .LVU398
 1260              	.LBE262:
 1261              	.LBE269:
 272:../../../support/device/gd32f4xx/peripherals/src/gd32f4xx_fmc.c ****         FMC_CTL |= FMC_CTL_START;
 1262              		.loc 1 272 9 is_stmt 1 view .LVU399
 272:../../../support/device/gd32f4xx/peripherals/src/gd32f4xx_fmc.c ****         FMC_CTL |= FMC_CTL_START;
 1263              		.loc 1 272 17 is_stmt 0 view .LVU400
 1264 0026 D1F8103C 		ldr	r3, [r1, #3088]
 1265              	.LBB270:
 1266              	.LBB271:
 1267              	.LBB272:
 1268              	.LBB273:
 995:../../../support/device/gd32f4xx/peripherals/src/gd32f4xx_fmc.c **** 
 1269              		.loc 1 995 14 view .LVU401
 1270 002a 2948     		ldr	r0, .L103
 1271              	.LBE273:
 1272              	.LBE272:
 1273              	.LBE271:
 1274              	.LBE270:
 272:../../../support/device/gd32f4xx/peripherals/src/gd32f4xx_fmc.c ****         FMC_CTL |= FMC_CTL_START;
 1275              		.loc 1 272 17 view .LVU402
 1276 002c 43F00403 		orr	r3, r3, #4
 1277 0030 C1F8103C 		str	r3, [r1, #3088]
 273:../../../support/device/gd32f4xx/peripherals/src/gd32f4xx_fmc.c **** 
 1278              		.loc 1 273 9 is_stmt 1 view .LVU403
 273:../../../support/device/gd32f4xx/peripherals/src/gd32f4xx_fmc.c **** 
 1279              		.loc 1 273 17 is_stmt 0 view .LVU404
 1280 0034 D1F8103C 		ldr	r3, [r1, #3088]
ARM GAS  /var/folders/_f/88qcw_5n2jl40jjphvxyt7wh0000gn/T//ccTBtSfs.s 			page 48


 1281 0038 43F48033 		orr	r3, r3, #65536
 1282 003c 6FF03042 		mvn	r2, #-1342177280
 1283 0040 C1F8103C 		str	r3, [r1, #3088]
 276:../../../support/device/gd32f4xx/peripherals/src/gd32f4xx_fmc.c **** 
 1284              		.loc 1 276 9 is_stmt 1 view .LVU405
 1285              	.LVL79:
 1286              	.LBB305:
 1287              	.LBI270:
1031:../../../support/device/gd32f4xx/peripherals/src/gd32f4xx_fmc.c **** {
 1288              		.loc 1 1031 16 view .LVU406
 1289              	.LBB300:
1033:../../../support/device/gd32f4xx/peripherals/src/gd32f4xx_fmc.c **** 
 1290              		.loc 1 1033 5 view .LVU407
 1291              	.L93:
1036:../../../support/device/gd32f4xx/peripherals/src/gd32f4xx_fmc.c ****         /* get FMC state */
 1292              		.loc 1 1036 5 view .LVU408
1038:../../../support/device/gd32f4xx/peripherals/src/gd32f4xx_fmc.c ****         timeout--;
 1293              		.loc 1 1038 9 view .LVU409
 1294              	.LBB287:
 1295              	.LBI272:
 992:../../../support/device/gd32f4xx/peripherals/src/gd32f4xx_fmc.c **** {
 1296              		.loc 1 992 16 view .LVU410
 1297              	.LBB274:
 994:../../../support/device/gd32f4xx/peripherals/src/gd32f4xx_fmc.c ****     uint32_t temp_val = FMC_STAT;
 1298              		.loc 1 994 5 view .LVU411
 995:../../../support/device/gd32f4xx/peripherals/src/gd32f4xx_fmc.c **** 
 1299              		.loc 1 995 5 view .LVU412
1014:../../../support/device/gd32f4xx/peripherals/src/gd32f4xx_fmc.c **** }
 1300              		.loc 1 1014 5 view .LVU413
1014:../../../support/device/gd32f4xx/peripherals/src/gd32f4xx_fmc.c **** }
 1301              		.loc 1 1014 5 is_stmt 0 view .LVU414
 1302              	.LBE274:
 1303              	.LBE287:
1039:../../../support/device/gd32f4xx/peripherals/src/gd32f4xx_fmc.c ****     } while((FMC_BUSY == fmc_state) && (0U != timeout));
 1304              		.loc 1 1039 9 is_stmt 1 view .LVU415
1040:../../../support/device/gd32f4xx/peripherals/src/gd32f4xx_fmc.c **** 
 1305              		.loc 1 1040 12 view .LVU416
 1306              	.LBB288:
 1307              	.LBB275:
 995:../../../support/device/gd32f4xx/peripherals/src/gd32f4xx_fmc.c **** 
 1308              		.loc 1 995 14 is_stmt 0 view .LVU417
 1309 0044 D0F80C3C 		ldr	r3, [r0, #3084]
 1310              	.LVL80:
 997:../../../support/device/gd32f4xx/peripherals/src/gd32f4xx_fmc.c ****         fmc_state = FMC_BUSY;
 1311              		.loc 1 997 5 is_stmt 1 view .LVU418
 997:../../../support/device/gd32f4xx/peripherals/src/gd32f4xx_fmc.c ****         fmc_state = FMC_BUSY;
 1312              		.loc 1 997 7 is_stmt 0 view .LVU419
 1313 0048 D903     		lsls	r1, r3, #15
 1314 004a 1CD4     		bmi	.L86
 999:../../../support/device/gd32f4xx/peripherals/src/gd32f4xx_fmc.c ****         fmc_state = FMC_RDDERR;
 1315              		.loc 1 999 12 is_stmt 1 view .LVU420
 999:../../../support/device/gd32f4xx/peripherals/src/gd32f4xx_fmc.c ****         fmc_state = FMC_RDDERR;
 1316              		.loc 1 999 14 is_stmt 0 view .LVU421
 1317 004c D805     		lsls	r0, r3, #23
 1318              	.LBE275:
 1319              	.LBE288:
1039:../../../support/device/gd32f4xx/peripherals/src/gd32f4xx_fmc.c ****     } while((FMC_BUSY == fmc_state) && (0U != timeout));
ARM GAS  /var/folders/_f/88qcw_5n2jl40jjphvxyt7wh0000gn/T//ccTBtSfs.s 			page 49


 1320              		.loc 1 1039 16 view .LVU422
 1321 004e 02F1FF32 		add	r2, r2, #-1
 1322              	.LVL81:
 1323              	.LBB289:
 1324              	.LBB276:
 999:../../../support/device/gd32f4xx/peripherals/src/gd32f4xx_fmc.c ****         fmc_state = FMC_RDDERR;
 1325              		.loc 1 999 14 view .LVU423
 1326 0052 2CD4     		bmi	.L87
1001:../../../support/device/gd32f4xx/peripherals/src/gd32f4xx_fmc.c ****         fmc_state = FMC_PGSERR;
 1327              		.loc 1 1001 12 is_stmt 1 view .LVU424
1001:../../../support/device/gd32f4xx/peripherals/src/gd32f4xx_fmc.c ****         fmc_state = FMC_PGSERR;
 1328              		.loc 1 1001 14 is_stmt 0 view .LVU425
 1329 0054 1906     		lsls	r1, r3, #24
 1330 0056 34D4     		bmi	.L88
1003:../../../support/device/gd32f4xx/peripherals/src/gd32f4xx_fmc.c ****         fmc_state = FMC_PGMERR;
 1331              		.loc 1 1003 12 is_stmt 1 view .LVU426
1003:../../../support/device/gd32f4xx/peripherals/src/gd32f4xx_fmc.c ****         fmc_state = FMC_PGMERR;
 1332              		.loc 1 1003 14 is_stmt 0 view .LVU427
 1333 0058 5806     		lsls	r0, r3, #25
 1334 005a 2DD4     		bmi	.L89
1005:../../../support/device/gd32f4xx/peripherals/src/gd32f4xx_fmc.c ****         fmc_state = FMC_WPERR;
 1335              		.loc 1 1005 12 is_stmt 1 view .LVU428
1005:../../../support/device/gd32f4xx/peripherals/src/gd32f4xx_fmc.c ****         fmc_state = FMC_WPERR;
 1336              		.loc 1 1005 14 is_stmt 0 view .LVU429
 1337 005c D906     		lsls	r1, r3, #27
 1338 005e 35D4     		bmi	.L90
1007:../../../support/device/gd32f4xx/peripherals/src/gd32f4xx_fmc.c ****         fmc_state = FMC_OPERR;
 1339              		.loc 1 1007 12 is_stmt 1 view .LVU430
1007:../../../support/device/gd32f4xx/peripherals/src/gd32f4xx_fmc.c ****         fmc_state = FMC_OPERR;
 1340              		.loc 1 1007 14 is_stmt 0 view .LVU431
 1341 0060 13F00200 		ands	r0, r3, #2
1010:../../../support/device/gd32f4xx/peripherals/src/gd32f4xx_fmc.c ****     }
 1342              		.loc 1 1010 9 is_stmt 1 view .LVU432
 1343              	.LVL82:
1014:../../../support/device/gd32f4xx/peripherals/src/gd32f4xx_fmc.c **** }
 1344              		.loc 1 1014 5 view .LVU433
1014:../../../support/device/gd32f4xx/peripherals/src/gd32f4xx_fmc.c **** }
 1345              		.loc 1 1014 5 is_stmt 0 view .LVU434
 1346              	.LBE276:
 1347              	.LBE289:
1039:../../../support/device/gd32f4xx/peripherals/src/gd32f4xx_fmc.c ****     } while((FMC_BUSY == fmc_state) && (0U != timeout));
 1348              		.loc 1 1039 9 is_stmt 1 view .LVU435
1040:../../../support/device/gd32f4xx/peripherals/src/gd32f4xx_fmc.c **** 
 1349              		.loc 1 1040 12 view .LVU436
 1350              	.LBB290:
 1351              	.LBB277:
1014:../../../support/device/gd32f4xx/peripherals/src/gd32f4xx_fmc.c **** }
 1352              		.loc 1 1014 5 view .LVU437
1014:../../../support/device/gd32f4xx/peripherals/src/gd32f4xx_fmc.c **** }
 1353              		.loc 1 1014 5 is_stmt 0 view .LVU438
 1354              	.LBE277:
 1355              	.LBE290:
1039:../../../support/device/gd32f4xx/peripherals/src/gd32f4xx_fmc.c ****     } while((FMC_BUSY == fmc_state) && (0U != timeout));
 1356              		.loc 1 1039 9 is_stmt 1 view .LVU439
1040:../../../support/device/gd32f4xx/peripherals/src/gd32f4xx_fmc.c **** 
 1357              		.loc 1 1040 12 view .LVU440
 1358              	.LBB291:
ARM GAS  /var/folders/_f/88qcw_5n2jl40jjphvxyt7wh0000gn/T//ccTBtSfs.s 			page 50


 1359              	.LBB278:
1008:../../../support/device/gd32f4xx/peripherals/src/gd32f4xx_fmc.c ****     } else {
 1360              		.loc 1 1008 19 is_stmt 0 view .LVU441
 1361 0064 18BF     		it	ne
 1362 0066 0620     		movne	r0, #6
 1363              	.LBE278:
 1364              	.LBE291:
1042:../../../support/device/gd32f4xx/peripherals/src/gd32f4xx_fmc.c ****         fmc_state = FMC_TOERR;
 1365              		.loc 1 1042 5 is_stmt 1 view .LVU442
1043:../../../support/device/gd32f4xx/peripherals/src/gd32f4xx_fmc.c ****     }
 1366              		.loc 1 1043 19 is_stmt 0 view .LVU443
 1367 0068 002A     		cmp	r2, #0
 1368 006a 08BF     		it	eq
 1369 006c 0720     		moveq	r0, #7
 1370              	.LVL83:
 1371              	.L94:
 1372              		.loc 1 1047 5 is_stmt 1 view .LVU444
 1373              		.loc 1 1047 5 is_stmt 0 view .LVU445
 1374              	.LBE300:
 1375              	.LBE305:
 279:../../../support/device/gd32f4xx/peripherals/src/gd32f4xx_fmc.c ****     }
 1376              		.loc 1 279 9 is_stmt 1 view .LVU446
 279:../../../support/device/gd32f4xx/peripherals/src/gd32f4xx_fmc.c ****     }
 1377              		.loc 1 279 17 is_stmt 0 view .LVU447
 1378 006e 184A     		ldr	r2, .L103
 1379 0070 D2F8103C 		ldr	r3, [r2, #3088]
 1380 0074 23F00403 		bic	r3, r3, #4
 1381 0078 C2F8103C 		str	r3, [r2, #3088]
 1382 007c 7047     		bx	lr
 1383              	.LVL84:
 1384              	.L102:
 1385              	.LBB306:
 1386              	.LBB263:
1040:../../../support/device/gd32f4xx/peripherals/src/gd32f4xx_fmc.c **** 
 1387              		.loc 1 1040 37 view .LVU448
 1388 007e 013B     		subs	r3, r3, #1
 1389              	.LVL85:
1040:../../../support/device/gd32f4xx/peripherals/src/gd32f4xx_fmc.c **** 
 1390              		.loc 1 1040 37 view .LVU449
 1391 0080 C1D1     		bne	.L77
 1392              	.LVL86:
 1393              	.L95:
1043:../../../support/device/gd32f4xx/peripherals/src/gd32f4xx_fmc.c ****     }
 1394              		.loc 1 1043 19 view .LVU450
 1395 0082 0720     		movs	r0, #7
 1396 0084 7047     		bx	lr
 1397              	.LVL87:
 1398              	.L86:
1043:../../../support/device/gd32f4xx/peripherals/src/gd32f4xx_fmc.c ****     }
 1399              		.loc 1 1043 19 view .LVU451
 1400              	.LBE263:
 1401              	.LBE306:
 1402              	.LBB307:
 1403              	.LBB301:
1040:../../../support/device/gd32f4xx/peripherals/src/gd32f4xx_fmc.c **** 
 1404              		.loc 1 1040 37 view .LVU452
 1405 0086 013A     		subs	r2, r2, #1
ARM GAS  /var/folders/_f/88qcw_5n2jl40jjphvxyt7wh0000gn/T//ccTBtSfs.s 			page 51


 1406              	.LVL88:
1040:../../../support/device/gd32f4xx/peripherals/src/gd32f4xx_fmc.c **** 
 1407              		.loc 1 1040 37 view .LVU453
 1408 0088 DCD1     		bne	.L93
1043:../../../support/device/gd32f4xx/peripherals/src/gd32f4xx_fmc.c ****     }
 1409              		.loc 1 1043 19 view .LVU454
 1410 008a 0720     		movs	r0, #7
 1411 008c EFE7     		b	.L94
 1412              	.LVL89:
 1413              	.L79:
1043:../../../support/device/gd32f4xx/peripherals/src/gd32f4xx_fmc.c ****     }
 1414              		.loc 1 1043 19 view .LVU455
 1415              	.LBE301:
 1416              	.LBE307:
 1417              	.LBB308:
 1418              	.LBB264:
 1419              	.LBB252:
 1420              	.LBB240:
1014:../../../support/device/gd32f4xx/peripherals/src/gd32f4xx_fmc.c **** }
 1421              		.loc 1 1014 5 is_stmt 1 view .LVU456
1014:../../../support/device/gd32f4xx/peripherals/src/gd32f4xx_fmc.c **** }
 1422              		.loc 1 1014 5 is_stmt 0 view .LVU457
 1423              	.LBE240:
 1424              	.LBE252:
1039:../../../support/device/gd32f4xx/peripherals/src/gd32f4xx_fmc.c ****     } while((FMC_BUSY == fmc_state) && (0U != timeout));
 1425              		.loc 1 1039 9 is_stmt 1 view .LVU458
1039:../../../support/device/gd32f4xx/peripherals/src/gd32f4xx_fmc.c ****     } while((FMC_BUSY == fmc_state) && (0U != timeout));
 1426              		.loc 1 1039 16 is_stmt 0 view .LVU459
 1427 008e 013B     		subs	r3, r3, #1
 1428              	.LVL90:
1040:../../../support/device/gd32f4xx/peripherals/src/gd32f4xx_fmc.c **** 
 1429              		.loc 1 1040 12 is_stmt 1 view .LVU460
 1430              	.LBB253:
 1431              	.LBB241:
1000:../../../support/device/gd32f4xx/peripherals/src/gd32f4xx_fmc.c ****     } else if(RESET != (temp_val & FMC_FLAG_PGSERR)) {
 1432              		.loc 1 1000 19 is_stmt 0 view .LVU461
 1433 0090 0220     		movs	r0, #2
 1434              	.LVL91:
 1435              	.L85:
1000:../../../support/device/gd32f4xx/peripherals/src/gd32f4xx_fmc.c ****     } else if(RESET != (temp_val & FMC_FLAG_PGSERR)) {
 1436              		.loc 1 1000 19 view .LVU462
 1437              	.LBE241:
 1438              	.LBE253:
1042:../../../support/device/gd32f4xx/peripherals/src/gd32f4xx_fmc.c ****         fmc_state = FMC_TOERR;
 1439              		.loc 1 1042 5 is_stmt 1 view .LVU463
1043:../../../support/device/gd32f4xx/peripherals/src/gd32f4xx_fmc.c ****     }
 1440              		.loc 1 1043 19 is_stmt 0 view .LVU464
 1441 0092 002B     		cmp	r3, #0
 1442 0094 08BF     		it	eq
 1443 0096 0720     		moveq	r0, #7
 1444              	.LBE264:
 1445              	.LBE308:
 284:../../../support/device/gd32f4xx/peripherals/src/gd32f4xx_fmc.c **** 
 1446              		.loc 1 284 1 view .LVU465
 1447 0098 7047     		bx	lr
 1448              	.LVL92:
 1449              	.L80:
ARM GAS  /var/folders/_f/88qcw_5n2jl40jjphvxyt7wh0000gn/T//ccTBtSfs.s 			page 52


 1450              	.LBB309:
 1451              	.LBB265:
 1452              	.LBB254:
 1453              	.LBB242:
1014:../../../support/device/gd32f4xx/peripherals/src/gd32f4xx_fmc.c **** }
 1454              		.loc 1 1014 5 is_stmt 1 view .LVU466
1014:../../../support/device/gd32f4xx/peripherals/src/gd32f4xx_fmc.c **** }
 1455              		.loc 1 1014 5 is_stmt 0 view .LVU467
 1456              	.LBE242:
 1457              	.LBE254:
1039:../../../support/device/gd32f4xx/peripherals/src/gd32f4xx_fmc.c ****     } while((FMC_BUSY == fmc_state) && (0U != timeout));
 1458              		.loc 1 1039 9 is_stmt 1 view .LVU468
1039:../../../support/device/gd32f4xx/peripherals/src/gd32f4xx_fmc.c ****     } while((FMC_BUSY == fmc_state) && (0U != timeout));
 1459              		.loc 1 1039 16 is_stmt 0 view .LVU469
 1460 009a 013B     		subs	r3, r3, #1
 1461              	.LVL93:
1040:../../../support/device/gd32f4xx/peripherals/src/gd32f4xx_fmc.c **** 
 1462              		.loc 1 1040 12 is_stmt 1 view .LVU470
1043:../../../support/device/gd32f4xx/peripherals/src/gd32f4xx_fmc.c ****     }
 1463              		.loc 1 1043 19 is_stmt 0 view .LVU471
 1464 009c 002B     		cmp	r3, #0
 1465              	.LBB255:
 1466              	.LBB243:
1002:../../../support/device/gd32f4xx/peripherals/src/gd32f4xx_fmc.c ****     } else if(RESET != (temp_val & FMC_FLAG_PGMERR)) {
 1467              		.loc 1 1002 19 view .LVU472
 1468 009e 4FF00300 		mov	r0, #3
 1469              	.LBE243:
 1470              	.LBE255:
1042:../../../support/device/gd32f4xx/peripherals/src/gd32f4xx_fmc.c ****         fmc_state = FMC_TOERR;
 1471              		.loc 1 1042 5 is_stmt 1 view .LVU473
1043:../../../support/device/gd32f4xx/peripherals/src/gd32f4xx_fmc.c ****     }
 1472              		.loc 1 1043 19 is_stmt 0 view .LVU474
 1473 00a2 08BF     		it	eq
 1474 00a4 0720     		moveq	r0, #7
 1475              	.LBE265:
 1476              	.LBE309:
 284:../../../support/device/gd32f4xx/peripherals/src/gd32f4xx_fmc.c **** 
 1477              		.loc 1 284 1 view .LVU475
 1478 00a6 7047     		bx	lr
 1479              	.LVL94:
 1480              	.L81:
 1481              	.LBB310:
 1482              	.LBB266:
 1483              	.LBB256:
 1484              	.LBB244:
1014:../../../support/device/gd32f4xx/peripherals/src/gd32f4xx_fmc.c **** }
 1485              		.loc 1 1014 5 is_stmt 1 view .LVU476
1014:../../../support/device/gd32f4xx/peripherals/src/gd32f4xx_fmc.c **** }
 1486              		.loc 1 1014 5 is_stmt 0 view .LVU477
 1487              	.LBE244:
 1488              	.LBE256:
1039:../../../support/device/gd32f4xx/peripherals/src/gd32f4xx_fmc.c ****     } while((FMC_BUSY == fmc_state) && (0U != timeout));
 1489              		.loc 1 1039 9 is_stmt 1 view .LVU478
1039:../../../support/device/gd32f4xx/peripherals/src/gd32f4xx_fmc.c ****     } while((FMC_BUSY == fmc_state) && (0U != timeout));
 1490              		.loc 1 1039 16 is_stmt 0 view .LVU479
 1491 00a8 013B     		subs	r3, r3, #1
 1492              	.LVL95:
ARM GAS  /var/folders/_f/88qcw_5n2jl40jjphvxyt7wh0000gn/T//ccTBtSfs.s 			page 53


1040:../../../support/device/gd32f4xx/peripherals/src/gd32f4xx_fmc.c **** 
 1493              		.loc 1 1040 12 is_stmt 1 view .LVU480
 1494              	.LBB257:
 1495              	.LBB245:
1004:../../../support/device/gd32f4xx/peripherals/src/gd32f4xx_fmc.c ****     } else if(RESET != (temp_val & FMC_FLAG_WPERR)) {
 1496              		.loc 1 1004 19 is_stmt 0 view .LVU481
 1497 00aa 0420     		movs	r0, #4
 1498 00ac F1E7     		b	.L85
 1499              	.LVL96:
 1500              	.L87:
1004:../../../support/device/gd32f4xx/peripherals/src/gd32f4xx_fmc.c ****     } else if(RESET != (temp_val & FMC_FLAG_WPERR)) {
 1501              		.loc 1 1004 19 view .LVU482
 1502              	.LBE245:
 1503              	.LBE257:
 1504              	.LBE266:
 1505              	.LBE310:
 1506              	.LBB311:
 1507              	.LBB302:
 1508              	.LBB292:
 1509              	.LBB279:
1014:../../../support/device/gd32f4xx/peripherals/src/gd32f4xx_fmc.c **** }
 1510              		.loc 1 1014 5 is_stmt 1 view .LVU483
1014:../../../support/device/gd32f4xx/peripherals/src/gd32f4xx_fmc.c **** }
 1511              		.loc 1 1014 5 is_stmt 0 view .LVU484
 1512              	.LBE279:
 1513              	.LBE292:
1039:../../../support/device/gd32f4xx/peripherals/src/gd32f4xx_fmc.c ****     } while((FMC_BUSY == fmc_state) && (0U != timeout));
 1514              		.loc 1 1039 9 is_stmt 1 view .LVU485
1040:../../../support/device/gd32f4xx/peripherals/src/gd32f4xx_fmc.c **** 
 1515              		.loc 1 1040 12 view .LVU486
 1516              	.LBB293:
 1517              	.LBB280:
1000:../../../support/device/gd32f4xx/peripherals/src/gd32f4xx_fmc.c ****     } else if(RESET != (temp_val & FMC_FLAG_PGSERR)) {
 1518              		.loc 1 1000 19 is_stmt 0 view .LVU487
 1519 00ae 0220     		movs	r0, #2
 1520              	.LVL97:
 1521              	.L92:
1000:../../../support/device/gd32f4xx/peripherals/src/gd32f4xx_fmc.c ****     } else if(RESET != (temp_val & FMC_FLAG_PGSERR)) {
 1522              		.loc 1 1000 19 view .LVU488
 1523              	.LBE280:
 1524              	.LBE293:
1042:../../../support/device/gd32f4xx/peripherals/src/gd32f4xx_fmc.c ****         fmc_state = FMC_TOERR;
 1525              		.loc 1 1042 5 is_stmt 1 view .LVU489
1043:../../../support/device/gd32f4xx/peripherals/src/gd32f4xx_fmc.c ****     }
 1526              		.loc 1 1043 19 is_stmt 0 view .LVU490
 1527 00b0 002A     		cmp	r2, #0
 1528 00b2 08BF     		it	eq
 1529 00b4 0720     		moveq	r0, #7
 1530 00b6 DAE7     		b	.L94
 1531              	.LVL98:
 1532              	.L89:
 1533              	.LBB294:
 1534              	.LBB281:
1014:../../../support/device/gd32f4xx/peripherals/src/gd32f4xx_fmc.c **** }
 1535              		.loc 1 1014 5 is_stmt 1 view .LVU491
1014:../../../support/device/gd32f4xx/peripherals/src/gd32f4xx_fmc.c **** }
 1536              		.loc 1 1014 5 is_stmt 0 view .LVU492
ARM GAS  /var/folders/_f/88qcw_5n2jl40jjphvxyt7wh0000gn/T//ccTBtSfs.s 			page 54


 1537              	.LBE281:
 1538              	.LBE294:
1039:../../../support/device/gd32f4xx/peripherals/src/gd32f4xx_fmc.c ****     } while((FMC_BUSY == fmc_state) && (0U != timeout));
 1539              		.loc 1 1039 9 is_stmt 1 view .LVU493
1040:../../../support/device/gd32f4xx/peripherals/src/gd32f4xx_fmc.c **** 
 1540              		.loc 1 1040 12 view .LVU494
 1541              	.LBB295:
 1542              	.LBB282:
1004:../../../support/device/gd32f4xx/peripherals/src/gd32f4xx_fmc.c ****     } else if(RESET != (temp_val & FMC_FLAG_WPERR)) {
 1543              		.loc 1 1004 19 is_stmt 0 view .LVU495
 1544 00b8 0420     		movs	r0, #4
 1545 00ba F9E7     		b	.L92
 1546              	.LVL99:
 1547              	.L82:
1004:../../../support/device/gd32f4xx/peripherals/src/gd32f4xx_fmc.c ****     } else if(RESET != (temp_val & FMC_FLAG_WPERR)) {
 1548              		.loc 1 1004 19 view .LVU496
 1549              	.LBE282:
 1550              	.LBE295:
 1551              	.LBE302:
 1552              	.LBE311:
 1553              	.LBB312:
 1554              	.LBB267:
 1555              	.LBB258:
 1556              	.LBB246:
1014:../../../support/device/gd32f4xx/peripherals/src/gd32f4xx_fmc.c **** }
 1557              		.loc 1 1014 5 is_stmt 1 view .LVU497
1014:../../../support/device/gd32f4xx/peripherals/src/gd32f4xx_fmc.c **** }
 1558              		.loc 1 1014 5 is_stmt 0 view .LVU498
 1559              	.LBE246:
 1560              	.LBE258:
1039:../../../support/device/gd32f4xx/peripherals/src/gd32f4xx_fmc.c ****     } while((FMC_BUSY == fmc_state) && (0U != timeout));
 1561              		.loc 1 1039 9 is_stmt 1 view .LVU499
1039:../../../support/device/gd32f4xx/peripherals/src/gd32f4xx_fmc.c ****     } while((FMC_BUSY == fmc_state) && (0U != timeout));
 1562              		.loc 1 1039 16 is_stmt 0 view .LVU500
 1563 00bc 013B     		subs	r3, r3, #1
 1564              	.LVL100:
1040:../../../support/device/gd32f4xx/peripherals/src/gd32f4xx_fmc.c **** 
 1565              		.loc 1 1040 12 is_stmt 1 view .LVU501
 1566              	.LBB259:
 1567              	.LBB247:
1006:../../../support/device/gd32f4xx/peripherals/src/gd32f4xx_fmc.c ****     } else if(RESET != (temp_val & FMC_FLAG_OPERR)) {
 1568              		.loc 1 1006 19 is_stmt 0 view .LVU502
 1569 00be 0520     		movs	r0, #5
 1570 00c0 E7E7     		b	.L85
 1571              	.LVL101:
 1572              	.L88:
1006:../../../support/device/gd32f4xx/peripherals/src/gd32f4xx_fmc.c ****     } else if(RESET != (temp_val & FMC_FLAG_OPERR)) {
 1573              		.loc 1 1006 19 view .LVU503
 1574              	.LBE247:
 1575              	.LBE259:
 1576              	.LBE267:
 1577              	.LBE312:
 1578              	.LBB313:
 1579              	.LBB303:
 1580              	.LBB296:
 1581              	.LBB283:
1014:../../../support/device/gd32f4xx/peripherals/src/gd32f4xx_fmc.c **** }
ARM GAS  /var/folders/_f/88qcw_5n2jl40jjphvxyt7wh0000gn/T//ccTBtSfs.s 			page 55


 1582              		.loc 1 1014 5 is_stmt 1 view .LVU504
1014:../../../support/device/gd32f4xx/peripherals/src/gd32f4xx_fmc.c **** }
 1583              		.loc 1 1014 5 is_stmt 0 view .LVU505
 1584              	.LBE283:
 1585              	.LBE296:
1039:../../../support/device/gd32f4xx/peripherals/src/gd32f4xx_fmc.c ****     } while((FMC_BUSY == fmc_state) && (0U != timeout));
 1586              		.loc 1 1039 9 is_stmt 1 view .LVU506
1040:../../../support/device/gd32f4xx/peripherals/src/gd32f4xx_fmc.c **** 
 1587              		.loc 1 1040 12 view .LVU507
 1588              	.LBB297:
 1589              	.LBB284:
1002:../../../support/device/gd32f4xx/peripherals/src/gd32f4xx_fmc.c ****     } else if(RESET != (temp_val & FMC_FLAG_PGMERR)) {
 1590              		.loc 1 1002 19 is_stmt 0 view .LVU508
 1591 00c2 0320     		movs	r0, #3
 1592 00c4 F4E7     		b	.L92
 1593              	.LVL102:
 1594              	.L83:
1002:../../../support/device/gd32f4xx/peripherals/src/gd32f4xx_fmc.c ****     } else if(RESET != (temp_val & FMC_FLAG_PGMERR)) {
 1595              		.loc 1 1002 19 view .LVU509
 1596              	.LBE284:
 1597              	.LBE297:
 1598              	.LBE303:
 1599              	.LBE313:
 1600              	.LBB314:
 1601              	.LBB268:
 1602              	.LBB260:
 1603              	.LBB248:
1014:../../../support/device/gd32f4xx/peripherals/src/gd32f4xx_fmc.c **** }
 1604              		.loc 1 1014 5 is_stmt 1 view .LVU510
1014:../../../support/device/gd32f4xx/peripherals/src/gd32f4xx_fmc.c **** }
 1605              		.loc 1 1014 5 is_stmt 0 view .LVU511
 1606              	.LBE248:
 1607              	.LBE260:
1039:../../../support/device/gd32f4xx/peripherals/src/gd32f4xx_fmc.c ****     } while((FMC_BUSY == fmc_state) && (0U != timeout));
 1608              		.loc 1 1039 9 is_stmt 1 view .LVU512
1039:../../../support/device/gd32f4xx/peripherals/src/gd32f4xx_fmc.c ****     } while((FMC_BUSY == fmc_state) && (0U != timeout));
 1609              		.loc 1 1039 16 is_stmt 0 view .LVU513
 1610 00c6 013B     		subs	r3, r3, #1
 1611              	.LVL103:
1040:../../../support/device/gd32f4xx/peripherals/src/gd32f4xx_fmc.c **** 
 1612              		.loc 1 1040 12 is_stmt 1 view .LVU514
 1613              	.LBB261:
 1614              	.LBB249:
1008:../../../support/device/gd32f4xx/peripherals/src/gd32f4xx_fmc.c ****     } else {
 1615              		.loc 1 1008 19 is_stmt 0 view .LVU515
 1616 00c8 0620     		movs	r0, #6
 1617 00ca E2E7     		b	.L85
 1618              	.LVL104:
 1619              	.L90:
1008:../../../support/device/gd32f4xx/peripherals/src/gd32f4xx_fmc.c ****     } else {
 1620              		.loc 1 1008 19 view .LVU516
 1621              	.LBE249:
 1622              	.LBE261:
 1623              	.LBE268:
 1624              	.LBE314:
 1625              	.LBB315:
 1626              	.LBB304:
ARM GAS  /var/folders/_f/88qcw_5n2jl40jjphvxyt7wh0000gn/T//ccTBtSfs.s 			page 56


 1627              	.LBB298:
 1628              	.LBB285:
1014:../../../support/device/gd32f4xx/peripherals/src/gd32f4xx_fmc.c **** }
 1629              		.loc 1 1014 5 is_stmt 1 view .LVU517
1014:../../../support/device/gd32f4xx/peripherals/src/gd32f4xx_fmc.c **** }
 1630              		.loc 1 1014 5 is_stmt 0 view .LVU518
 1631              	.LBE285:
 1632              	.LBE298:
1039:../../../support/device/gd32f4xx/peripherals/src/gd32f4xx_fmc.c ****     } while((FMC_BUSY == fmc_state) && (0U != timeout));
 1633              		.loc 1 1039 9 is_stmt 1 view .LVU519
1040:../../../support/device/gd32f4xx/peripherals/src/gd32f4xx_fmc.c **** 
 1634              		.loc 1 1040 12 view .LVU520
 1635              	.LBB299:
 1636              	.LBB286:
1006:../../../support/device/gd32f4xx/peripherals/src/gd32f4xx_fmc.c ****     } else if(RESET != (temp_val & FMC_FLAG_OPERR)) {
 1637              		.loc 1 1006 19 is_stmt 0 view .LVU521
 1638 00cc 0520     		movs	r0, #5
 1639 00ce EFE7     		b	.L92
 1640              	.L104:
 1641              		.align	2
 1642              	.L103:
 1643 00d0 00300240 		.word	1073885184
 1644              	.LBE286:
 1645              	.LBE299:
 1646              	.LBE304:
 1647              	.LBE315:
 1648              		.cfi_endproc
 1649              	.LFE121:
 1651              		.section	.text.fmc_bank1_erase,"ax",%progbits
 1652              		.align	1
 1653              		.p2align 2,,3
 1654              		.global	fmc_bank1_erase
 1655              		.syntax unified
 1656              		.thumb
 1657              		.thumb_func
 1659              	fmc_bank1_erase:
 1660              	.LFB122:
 301:../../../support/device/gd32f4xx/peripherals/src/gd32f4xx_fmc.c ****     fmc_state_enum fmc_state = FMC_READY;
 1661              		.loc 1 301 1 is_stmt 1 view -0
 1662              		.cfi_startproc
 1663              		@ args = 0, pretend = 0, frame = 0
 1664              		@ frame_needed = 0, uses_anonymous_args = 0
 1665              		@ link register save eliminated.
 302:../../../support/device/gd32f4xx/peripherals/src/gd32f4xx_fmc.c ****     /* wait for the FMC ready */
 1666              		.loc 1 302 5 view .LVU523
 1667              	.LVL105:
 304:../../../support/device/gd32f4xx/peripherals/src/gd32f4xx_fmc.c **** 
 1668              		.loc 1 304 5 view .LVU524
 1669              	.LBB324:
 1670              	.LBI324:
1031:../../../support/device/gd32f4xx/peripherals/src/gd32f4xx_fmc.c **** {
 1671              		.loc 1 1031 16 view .LVU525
 1672              	.LBB325:
1033:../../../support/device/gd32f4xx/peripherals/src/gd32f4xx_fmc.c **** 
 1673              		.loc 1 1033 5 view .LVU526
 1674              	.LBB326:
 1675              	.LBB327:
ARM GAS  /var/folders/_f/88qcw_5n2jl40jjphvxyt7wh0000gn/T//ccTBtSfs.s 			page 57


 995:../../../support/device/gd32f4xx/peripherals/src/gd32f4xx_fmc.c **** 
 1676              		.loc 1 995 14 is_stmt 0 view .LVU527
 1677 0000 3349     		ldr	r1, .L133
 1678              	.LBE327:
 1679              	.LBE326:
 1680              	.LBE325:
 1681              	.LBE324:
 301:../../../support/device/gd32f4xx/peripherals/src/gd32f4xx_fmc.c ****     fmc_state_enum fmc_state = FMC_READY;
 1682              		.loc 1 301 1 view .LVU528
 1683 0002 6FF03043 		mvn	r3, #-1342177280
 1684              	.LVL106:
 1685              	.L107:
 1686              	.LBB359:
 1687              	.LBB352:
1036:../../../support/device/gd32f4xx/peripherals/src/gd32f4xx_fmc.c ****         /* get FMC state */
 1688              		.loc 1 1036 5 is_stmt 1 view .LVU529
1038:../../../support/device/gd32f4xx/peripherals/src/gd32f4xx_fmc.c ****         timeout--;
 1689              		.loc 1 1038 9 view .LVU530
 1690              	.LBB340:
 1691              	.LBI326:
 992:../../../support/device/gd32f4xx/peripherals/src/gd32f4xx_fmc.c **** {
 1692              		.loc 1 992 16 view .LVU531
 1693              	.LBB328:
 994:../../../support/device/gd32f4xx/peripherals/src/gd32f4xx_fmc.c ****     uint32_t temp_val = FMC_STAT;
 1694              		.loc 1 994 5 view .LVU532
 995:../../../support/device/gd32f4xx/peripherals/src/gd32f4xx_fmc.c **** 
 1695              		.loc 1 995 5 view .LVU533
1014:../../../support/device/gd32f4xx/peripherals/src/gd32f4xx_fmc.c **** }
 1696              		.loc 1 1014 5 view .LVU534
1014:../../../support/device/gd32f4xx/peripherals/src/gd32f4xx_fmc.c **** }
 1697              		.loc 1 1014 5 is_stmt 0 view .LVU535
 1698              	.LBE328:
 1699              	.LBE340:
1039:../../../support/device/gd32f4xx/peripherals/src/gd32f4xx_fmc.c ****     } while((FMC_BUSY == fmc_state) && (0U != timeout));
 1700              		.loc 1 1039 9 is_stmt 1 view .LVU536
1040:../../../support/device/gd32f4xx/peripherals/src/gd32f4xx_fmc.c **** 
 1701              		.loc 1 1040 12 view .LVU537
 1702              	.LBB341:
 1703              	.LBB329:
 995:../../../support/device/gd32f4xx/peripherals/src/gd32f4xx_fmc.c **** 
 1704              		.loc 1 995 14 is_stmt 0 view .LVU538
 1705 0006 D1F80C2C 		ldr	r2, [r1, #3084]
 1706              	.LVL107:
 997:../../../support/device/gd32f4xx/peripherals/src/gd32f4xx_fmc.c ****         fmc_state = FMC_BUSY;
 1707              		.loc 1 997 5 is_stmt 1 view .LVU539
 997:../../../support/device/gd32f4xx/peripherals/src/gd32f4xx_fmc.c ****         fmc_state = FMC_BUSY;
 1708              		.loc 1 997 7 is_stmt 0 view .LVU540
 1709 000a D003     		lsls	r0, r2, #15
 1710 000c 37D4     		bmi	.L132
 999:../../../support/device/gd32f4xx/peripherals/src/gd32f4xx_fmc.c ****         fmc_state = FMC_RDDERR;
 1711              		.loc 1 999 12 is_stmt 1 view .LVU541
 999:../../../support/device/gd32f4xx/peripherals/src/gd32f4xx_fmc.c ****         fmc_state = FMC_RDDERR;
 1712              		.loc 1 999 14 is_stmt 0 view .LVU542
 1713 000e D005     		lsls	r0, r2, #23
 1714 0010 3DD4     		bmi	.L109
1001:../../../support/device/gd32f4xx/peripherals/src/gd32f4xx_fmc.c ****         fmc_state = FMC_PGSERR;
 1715              		.loc 1 1001 12 is_stmt 1 view .LVU543
ARM GAS  /var/folders/_f/88qcw_5n2jl40jjphvxyt7wh0000gn/T//ccTBtSfs.s 			page 58


1001:../../../support/device/gd32f4xx/peripherals/src/gd32f4xx_fmc.c ****         fmc_state = FMC_PGSERR;
 1716              		.loc 1 1001 14 is_stmt 0 view .LVU544
 1717 0012 1006     		lsls	r0, r2, #24
 1718 0014 41D4     		bmi	.L110
1003:../../../support/device/gd32f4xx/peripherals/src/gd32f4xx_fmc.c ****         fmc_state = FMC_PGMERR;
 1719              		.loc 1 1003 12 is_stmt 1 view .LVU545
1003:../../../support/device/gd32f4xx/peripherals/src/gd32f4xx_fmc.c ****         fmc_state = FMC_PGMERR;
 1720              		.loc 1 1003 14 is_stmt 0 view .LVU546
 1721 0016 5006     		lsls	r0, r2, #25
 1722 0018 46D4     		bmi	.L111
1005:../../../support/device/gd32f4xx/peripherals/src/gd32f4xx_fmc.c ****         fmc_state = FMC_WPERR;
 1723              		.loc 1 1005 12 is_stmt 1 view .LVU547
1005:../../../support/device/gd32f4xx/peripherals/src/gd32f4xx_fmc.c ****         fmc_state = FMC_WPERR;
 1724              		.loc 1 1005 14 is_stmt 0 view .LVU548
 1725 001a D006     		lsls	r0, r2, #27
 1726 001c 4ED4     		bmi	.L112
1007:../../../support/device/gd32f4xx/peripherals/src/gd32f4xx_fmc.c ****         fmc_state = FMC_OPERR;
 1727              		.loc 1 1007 12 is_stmt 1 view .LVU549
1007:../../../support/device/gd32f4xx/peripherals/src/gd32f4xx_fmc.c ****         fmc_state = FMC_OPERR;
 1728              		.loc 1 1007 14 is_stmt 0 view .LVU550
 1729 001e 9007     		lsls	r0, r2, #30
 1730 0020 51D4     		bmi	.L113
1010:../../../support/device/gd32f4xx/peripherals/src/gd32f4xx_fmc.c ****     }
 1731              		.loc 1 1010 9 is_stmt 1 view .LVU551
 1732              	.LVL108:
1014:../../../support/device/gd32f4xx/peripherals/src/gd32f4xx_fmc.c **** }
 1733              		.loc 1 1014 5 view .LVU552
1014:../../../support/device/gd32f4xx/peripherals/src/gd32f4xx_fmc.c **** }
 1734              		.loc 1 1014 5 is_stmt 0 view .LVU553
 1735              	.LBE329:
 1736              	.LBE341:
1039:../../../support/device/gd32f4xx/peripherals/src/gd32f4xx_fmc.c ****     } while((FMC_BUSY == fmc_state) && (0U != timeout));
 1737              		.loc 1 1039 9 is_stmt 1 view .LVU554
1040:../../../support/device/gd32f4xx/peripherals/src/gd32f4xx_fmc.c **** 
 1738              		.loc 1 1040 12 view .LVU555
1042:../../../support/device/gd32f4xx/peripherals/src/gd32f4xx_fmc.c ****         fmc_state = FMC_TOERR;
 1739              		.loc 1 1042 5 view .LVU556
1042:../../../support/device/gd32f4xx/peripherals/src/gd32f4xx_fmc.c ****         fmc_state = FMC_TOERR;
 1740              		.loc 1 1042 7 is_stmt 0 view .LVU557
 1741 0022 012B     		cmp	r3, #1
 1742 0024 2DD0     		beq	.L125
 1743              	.LVL109:
1042:../../../support/device/gd32f4xx/peripherals/src/gd32f4xx_fmc.c ****         fmc_state = FMC_TOERR;
 1744              		.loc 1 1042 7 view .LVU558
 1745              	.LBE352:
 1746              	.LBE359:
 308:../../../support/device/gd32f4xx/peripherals/src/gd32f4xx_fmc.c ****         FMC_CTL |= FMC_CTL_START;
 1747              		.loc 1 308 9 is_stmt 1 view .LVU559
 308:../../../support/device/gd32f4xx/peripherals/src/gd32f4xx_fmc.c ****         FMC_CTL |= FMC_CTL_START;
 1748              		.loc 1 308 17 is_stmt 0 view .LVU560
 1749 0026 D1F8103C 		ldr	r3, [r1, #3088]
 1750              	.LBB360:
 1751              	.LBB361:
 1752              	.LBB362:
 1753              	.LBB363:
 995:../../../support/device/gd32f4xx/peripherals/src/gd32f4xx_fmc.c **** 
 1754              		.loc 1 995 14 view .LVU561
ARM GAS  /var/folders/_f/88qcw_5n2jl40jjphvxyt7wh0000gn/T//ccTBtSfs.s 			page 59


 1755 002a 2948     		ldr	r0, .L133
 1756              	.LBE363:
 1757              	.LBE362:
 1758              	.LBE361:
 1759              	.LBE360:
 308:../../../support/device/gd32f4xx/peripherals/src/gd32f4xx_fmc.c ****         FMC_CTL |= FMC_CTL_START;
 1760              		.loc 1 308 17 view .LVU562
 1761 002c 43F40043 		orr	r3, r3, #32768
 1762 0030 C1F8103C 		str	r3, [r1, #3088]
 309:../../../support/device/gd32f4xx/peripherals/src/gd32f4xx_fmc.c **** 
 1763              		.loc 1 309 9 is_stmt 1 view .LVU563
 309:../../../support/device/gd32f4xx/peripherals/src/gd32f4xx_fmc.c **** 
 1764              		.loc 1 309 17 is_stmt 0 view .LVU564
 1765 0034 D1F8103C 		ldr	r3, [r1, #3088]
 1766 0038 43F48033 		orr	r3, r3, #65536
 1767 003c 6FF03042 		mvn	r2, #-1342177280
 1768 0040 C1F8103C 		str	r3, [r1, #3088]
 312:../../../support/device/gd32f4xx/peripherals/src/gd32f4xx_fmc.c **** 
 1769              		.loc 1 312 9 is_stmt 1 view .LVU565
 1770              	.LVL110:
 1771              	.LBB395:
 1772              	.LBI360:
1031:../../../support/device/gd32f4xx/peripherals/src/gd32f4xx_fmc.c **** {
 1773              		.loc 1 1031 16 view .LVU566
 1774              	.LBB390:
1033:../../../support/device/gd32f4xx/peripherals/src/gd32f4xx_fmc.c **** 
 1775              		.loc 1 1033 5 view .LVU567
 1776              	.L123:
1036:../../../support/device/gd32f4xx/peripherals/src/gd32f4xx_fmc.c ****         /* get FMC state */
 1777              		.loc 1 1036 5 view .LVU568
1038:../../../support/device/gd32f4xx/peripherals/src/gd32f4xx_fmc.c ****         timeout--;
 1778              		.loc 1 1038 9 view .LVU569
 1779              	.LBB377:
 1780              	.LBI362:
 992:../../../support/device/gd32f4xx/peripherals/src/gd32f4xx_fmc.c **** {
 1781              		.loc 1 992 16 view .LVU570
 1782              	.LBB364:
 994:../../../support/device/gd32f4xx/peripherals/src/gd32f4xx_fmc.c ****     uint32_t temp_val = FMC_STAT;
 1783              		.loc 1 994 5 view .LVU571
 995:../../../support/device/gd32f4xx/peripherals/src/gd32f4xx_fmc.c **** 
 1784              		.loc 1 995 5 view .LVU572
1014:../../../support/device/gd32f4xx/peripherals/src/gd32f4xx_fmc.c **** }
 1785              		.loc 1 1014 5 view .LVU573
1014:../../../support/device/gd32f4xx/peripherals/src/gd32f4xx_fmc.c **** }
 1786              		.loc 1 1014 5 is_stmt 0 view .LVU574
 1787              	.LBE364:
 1788              	.LBE377:
1039:../../../support/device/gd32f4xx/peripherals/src/gd32f4xx_fmc.c ****     } while((FMC_BUSY == fmc_state) && (0U != timeout));
 1789              		.loc 1 1039 9 is_stmt 1 view .LVU575
1040:../../../support/device/gd32f4xx/peripherals/src/gd32f4xx_fmc.c **** 
 1790              		.loc 1 1040 12 view .LVU576
 1791              	.LBB378:
 1792              	.LBB365:
 995:../../../support/device/gd32f4xx/peripherals/src/gd32f4xx_fmc.c **** 
 1793              		.loc 1 995 14 is_stmt 0 view .LVU577
 1794 0044 D0F80C3C 		ldr	r3, [r0, #3084]
 1795              	.LVL111:
ARM GAS  /var/folders/_f/88qcw_5n2jl40jjphvxyt7wh0000gn/T//ccTBtSfs.s 			page 60


 997:../../../support/device/gd32f4xx/peripherals/src/gd32f4xx_fmc.c ****         fmc_state = FMC_BUSY;
 1796              		.loc 1 997 5 is_stmt 1 view .LVU578
 997:../../../support/device/gd32f4xx/peripherals/src/gd32f4xx_fmc.c ****         fmc_state = FMC_BUSY;
 1797              		.loc 1 997 7 is_stmt 0 view .LVU579
 1798 0048 D903     		lsls	r1, r3, #15
 1799 004a 1CD4     		bmi	.L116
 999:../../../support/device/gd32f4xx/peripherals/src/gd32f4xx_fmc.c ****         fmc_state = FMC_RDDERR;
 1800              		.loc 1 999 12 is_stmt 1 view .LVU580
 999:../../../support/device/gd32f4xx/peripherals/src/gd32f4xx_fmc.c ****         fmc_state = FMC_RDDERR;
 1801              		.loc 1 999 14 is_stmt 0 view .LVU581
 1802 004c D805     		lsls	r0, r3, #23
 1803              	.LBE365:
 1804              	.LBE378:
1039:../../../support/device/gd32f4xx/peripherals/src/gd32f4xx_fmc.c ****     } while((FMC_BUSY == fmc_state) && (0U != timeout));
 1805              		.loc 1 1039 16 view .LVU582
 1806 004e 02F1FF32 		add	r2, r2, #-1
 1807              	.LVL112:
 1808              	.LBB379:
 1809              	.LBB366:
 999:../../../support/device/gd32f4xx/peripherals/src/gd32f4xx_fmc.c ****         fmc_state = FMC_RDDERR;
 1810              		.loc 1 999 14 view .LVU583
 1811 0052 2CD4     		bmi	.L117
1001:../../../support/device/gd32f4xx/peripherals/src/gd32f4xx_fmc.c ****         fmc_state = FMC_PGSERR;
 1812              		.loc 1 1001 12 is_stmt 1 view .LVU584
1001:../../../support/device/gd32f4xx/peripherals/src/gd32f4xx_fmc.c ****         fmc_state = FMC_PGSERR;
 1813              		.loc 1 1001 14 is_stmt 0 view .LVU585
 1814 0054 1906     		lsls	r1, r3, #24
 1815 0056 34D4     		bmi	.L118
1003:../../../support/device/gd32f4xx/peripherals/src/gd32f4xx_fmc.c ****         fmc_state = FMC_PGMERR;
 1816              		.loc 1 1003 12 is_stmt 1 view .LVU586
1003:../../../support/device/gd32f4xx/peripherals/src/gd32f4xx_fmc.c ****         fmc_state = FMC_PGMERR;
 1817              		.loc 1 1003 14 is_stmt 0 view .LVU587
 1818 0058 5806     		lsls	r0, r3, #25
 1819 005a 2DD4     		bmi	.L119
1005:../../../support/device/gd32f4xx/peripherals/src/gd32f4xx_fmc.c ****         fmc_state = FMC_WPERR;
 1820              		.loc 1 1005 12 is_stmt 1 view .LVU588
1005:../../../support/device/gd32f4xx/peripherals/src/gd32f4xx_fmc.c ****         fmc_state = FMC_WPERR;
 1821              		.loc 1 1005 14 is_stmt 0 view .LVU589
 1822 005c D906     		lsls	r1, r3, #27
 1823 005e 35D4     		bmi	.L120
1007:../../../support/device/gd32f4xx/peripherals/src/gd32f4xx_fmc.c ****         fmc_state = FMC_OPERR;
 1824              		.loc 1 1007 12 is_stmt 1 view .LVU590
1007:../../../support/device/gd32f4xx/peripherals/src/gd32f4xx_fmc.c ****         fmc_state = FMC_OPERR;
 1825              		.loc 1 1007 14 is_stmt 0 view .LVU591
 1826 0060 13F00200 		ands	r0, r3, #2
1010:../../../support/device/gd32f4xx/peripherals/src/gd32f4xx_fmc.c ****     }
 1827              		.loc 1 1010 9 is_stmt 1 view .LVU592
 1828              	.LVL113:
1014:../../../support/device/gd32f4xx/peripherals/src/gd32f4xx_fmc.c **** }
 1829              		.loc 1 1014 5 view .LVU593
1014:../../../support/device/gd32f4xx/peripherals/src/gd32f4xx_fmc.c **** }
 1830              		.loc 1 1014 5 is_stmt 0 view .LVU594
 1831              	.LBE366:
 1832              	.LBE379:
1039:../../../support/device/gd32f4xx/peripherals/src/gd32f4xx_fmc.c ****     } while((FMC_BUSY == fmc_state) && (0U != timeout));
 1833              		.loc 1 1039 9 is_stmt 1 view .LVU595
1040:../../../support/device/gd32f4xx/peripherals/src/gd32f4xx_fmc.c **** 
ARM GAS  /var/folders/_f/88qcw_5n2jl40jjphvxyt7wh0000gn/T//ccTBtSfs.s 			page 61


 1834              		.loc 1 1040 12 view .LVU596
 1835              	.LBB380:
 1836              	.LBB367:
1014:../../../support/device/gd32f4xx/peripherals/src/gd32f4xx_fmc.c **** }
 1837              		.loc 1 1014 5 view .LVU597
1014:../../../support/device/gd32f4xx/peripherals/src/gd32f4xx_fmc.c **** }
 1838              		.loc 1 1014 5 is_stmt 0 view .LVU598
 1839              	.LBE367:
 1840              	.LBE380:
1039:../../../support/device/gd32f4xx/peripherals/src/gd32f4xx_fmc.c ****     } while((FMC_BUSY == fmc_state) && (0U != timeout));
 1841              		.loc 1 1039 9 is_stmt 1 view .LVU599
1040:../../../support/device/gd32f4xx/peripherals/src/gd32f4xx_fmc.c **** 
 1842              		.loc 1 1040 12 view .LVU600
 1843              	.LBB381:
 1844              	.LBB368:
1008:../../../support/device/gd32f4xx/peripherals/src/gd32f4xx_fmc.c ****     } else {
 1845              		.loc 1 1008 19 is_stmt 0 view .LVU601
 1846 0064 18BF     		it	ne
 1847 0066 0620     		movne	r0, #6
 1848              	.LBE368:
 1849              	.LBE381:
1042:../../../support/device/gd32f4xx/peripherals/src/gd32f4xx_fmc.c ****         fmc_state = FMC_TOERR;
 1850              		.loc 1 1042 5 is_stmt 1 view .LVU602
1043:../../../support/device/gd32f4xx/peripherals/src/gd32f4xx_fmc.c ****     }
 1851              		.loc 1 1043 19 is_stmt 0 view .LVU603
 1852 0068 002A     		cmp	r2, #0
 1853 006a 08BF     		it	eq
 1854 006c 0720     		moveq	r0, #7
 1855              	.LVL114:
 1856              	.L124:
 1857              		.loc 1 1047 5 is_stmt 1 view .LVU604
 1858              		.loc 1 1047 5 is_stmt 0 view .LVU605
 1859              	.LBE390:
 1860              	.LBE395:
 315:../../../support/device/gd32f4xx/peripherals/src/gd32f4xx_fmc.c ****     }
 1861              		.loc 1 315 9 is_stmt 1 view .LVU606
 315:../../../support/device/gd32f4xx/peripherals/src/gd32f4xx_fmc.c ****     }
 1862              		.loc 1 315 17 is_stmt 0 view .LVU607
 1863 006e 184A     		ldr	r2, .L133
 1864 0070 D2F8103C 		ldr	r3, [r2, #3088]
 1865 0074 23F40043 		bic	r3, r3, #32768
 1866 0078 C2F8103C 		str	r3, [r2, #3088]
 1867 007c 7047     		bx	lr
 1868              	.LVL115:
 1869              	.L132:
 1870              	.LBB396:
 1871              	.LBB353:
1040:../../../support/device/gd32f4xx/peripherals/src/gd32f4xx_fmc.c **** 
 1872              		.loc 1 1040 37 view .LVU608
 1873 007e 013B     		subs	r3, r3, #1
 1874              	.LVL116:
1040:../../../support/device/gd32f4xx/peripherals/src/gd32f4xx_fmc.c **** 
 1875              		.loc 1 1040 37 view .LVU609
 1876 0080 C1D1     		bne	.L107
 1877              	.LVL117:
 1878              	.L125:
1043:../../../support/device/gd32f4xx/peripherals/src/gd32f4xx_fmc.c ****     }
ARM GAS  /var/folders/_f/88qcw_5n2jl40jjphvxyt7wh0000gn/T//ccTBtSfs.s 			page 62


 1879              		.loc 1 1043 19 view .LVU610
 1880 0082 0720     		movs	r0, #7
 1881 0084 7047     		bx	lr
 1882              	.LVL118:
 1883              	.L116:
1043:../../../support/device/gd32f4xx/peripherals/src/gd32f4xx_fmc.c ****     }
 1884              		.loc 1 1043 19 view .LVU611
 1885              	.LBE353:
 1886              	.LBE396:
 1887              	.LBB397:
 1888              	.LBB391:
1040:../../../support/device/gd32f4xx/peripherals/src/gd32f4xx_fmc.c **** 
 1889              		.loc 1 1040 37 view .LVU612
 1890 0086 013A     		subs	r2, r2, #1
 1891              	.LVL119:
1040:../../../support/device/gd32f4xx/peripherals/src/gd32f4xx_fmc.c **** 
 1892              		.loc 1 1040 37 view .LVU613
 1893 0088 DCD1     		bne	.L123
1043:../../../support/device/gd32f4xx/peripherals/src/gd32f4xx_fmc.c ****     }
 1894              		.loc 1 1043 19 view .LVU614
 1895 008a 0720     		movs	r0, #7
 1896 008c EFE7     		b	.L124
 1897              	.LVL120:
 1898              	.L109:
1043:../../../support/device/gd32f4xx/peripherals/src/gd32f4xx_fmc.c ****     }
 1899              		.loc 1 1043 19 view .LVU615
 1900              	.LBE391:
 1901              	.LBE397:
 1902              	.LBB398:
 1903              	.LBB354:
 1904              	.LBB342:
 1905              	.LBB330:
1014:../../../support/device/gd32f4xx/peripherals/src/gd32f4xx_fmc.c **** }
 1906              		.loc 1 1014 5 is_stmt 1 view .LVU616
1014:../../../support/device/gd32f4xx/peripherals/src/gd32f4xx_fmc.c **** }
 1907              		.loc 1 1014 5 is_stmt 0 view .LVU617
 1908              	.LBE330:
 1909              	.LBE342:
1039:../../../support/device/gd32f4xx/peripherals/src/gd32f4xx_fmc.c ****     } while((FMC_BUSY == fmc_state) && (0U != timeout));
 1910              		.loc 1 1039 9 is_stmt 1 view .LVU618
1039:../../../support/device/gd32f4xx/peripherals/src/gd32f4xx_fmc.c ****     } while((FMC_BUSY == fmc_state) && (0U != timeout));
 1911              		.loc 1 1039 16 is_stmt 0 view .LVU619
 1912 008e 013B     		subs	r3, r3, #1
 1913              	.LVL121:
1040:../../../support/device/gd32f4xx/peripherals/src/gd32f4xx_fmc.c **** 
 1914              		.loc 1 1040 12 is_stmt 1 view .LVU620
 1915              	.LBB343:
 1916              	.LBB331:
1000:../../../support/device/gd32f4xx/peripherals/src/gd32f4xx_fmc.c ****     } else if(RESET != (temp_val & FMC_FLAG_PGSERR)) {
 1917              		.loc 1 1000 19 is_stmt 0 view .LVU621
 1918 0090 0220     		movs	r0, #2
 1919              	.LVL122:
 1920              	.L115:
1000:../../../support/device/gd32f4xx/peripherals/src/gd32f4xx_fmc.c ****     } else if(RESET != (temp_val & FMC_FLAG_PGSERR)) {
 1921              		.loc 1 1000 19 view .LVU622
 1922              	.LBE331:
 1923              	.LBE343:
ARM GAS  /var/folders/_f/88qcw_5n2jl40jjphvxyt7wh0000gn/T//ccTBtSfs.s 			page 63


1042:../../../support/device/gd32f4xx/peripherals/src/gd32f4xx_fmc.c ****         fmc_state = FMC_TOERR;
 1924              		.loc 1 1042 5 is_stmt 1 view .LVU623
1043:../../../support/device/gd32f4xx/peripherals/src/gd32f4xx_fmc.c ****     }
 1925              		.loc 1 1043 19 is_stmt 0 view .LVU624
 1926 0092 002B     		cmp	r3, #0
 1927 0094 08BF     		it	eq
 1928 0096 0720     		moveq	r0, #7
 1929              	.LBE354:
 1930              	.LBE398:
 320:../../../support/device/gd32f4xx/peripherals/src/gd32f4xx_fmc.c **** 
 1931              		.loc 1 320 1 view .LVU625
 1932 0098 7047     		bx	lr
 1933              	.LVL123:
 1934              	.L110:
 1935              	.LBB399:
 1936              	.LBB355:
 1937              	.LBB344:
 1938              	.LBB332:
1014:../../../support/device/gd32f4xx/peripherals/src/gd32f4xx_fmc.c **** }
 1939              		.loc 1 1014 5 is_stmt 1 view .LVU626
1014:../../../support/device/gd32f4xx/peripherals/src/gd32f4xx_fmc.c **** }
 1940              		.loc 1 1014 5 is_stmt 0 view .LVU627
 1941              	.LBE332:
 1942              	.LBE344:
1039:../../../support/device/gd32f4xx/peripherals/src/gd32f4xx_fmc.c ****     } while((FMC_BUSY == fmc_state) && (0U != timeout));
 1943              		.loc 1 1039 9 is_stmt 1 view .LVU628
1039:../../../support/device/gd32f4xx/peripherals/src/gd32f4xx_fmc.c ****     } while((FMC_BUSY == fmc_state) && (0U != timeout));
 1944              		.loc 1 1039 16 is_stmt 0 view .LVU629
 1945 009a 013B     		subs	r3, r3, #1
 1946              	.LVL124:
1040:../../../support/device/gd32f4xx/peripherals/src/gd32f4xx_fmc.c **** 
 1947              		.loc 1 1040 12 is_stmt 1 view .LVU630
1043:../../../support/device/gd32f4xx/peripherals/src/gd32f4xx_fmc.c ****     }
 1948              		.loc 1 1043 19 is_stmt 0 view .LVU631
 1949 009c 002B     		cmp	r3, #0
 1950              	.LBB345:
 1951              	.LBB333:
1002:../../../support/device/gd32f4xx/peripherals/src/gd32f4xx_fmc.c ****     } else if(RESET != (temp_val & FMC_FLAG_PGMERR)) {
 1952              		.loc 1 1002 19 view .LVU632
 1953 009e 4FF00300 		mov	r0, #3
 1954              	.LBE333:
 1955              	.LBE345:
1042:../../../support/device/gd32f4xx/peripherals/src/gd32f4xx_fmc.c ****         fmc_state = FMC_TOERR;
 1956              		.loc 1 1042 5 is_stmt 1 view .LVU633
1043:../../../support/device/gd32f4xx/peripherals/src/gd32f4xx_fmc.c ****     }
 1957              		.loc 1 1043 19 is_stmt 0 view .LVU634
 1958 00a2 08BF     		it	eq
 1959 00a4 0720     		moveq	r0, #7
 1960              	.LBE355:
 1961              	.LBE399:
 320:../../../support/device/gd32f4xx/peripherals/src/gd32f4xx_fmc.c **** 
 1962              		.loc 1 320 1 view .LVU635
 1963 00a6 7047     		bx	lr
 1964              	.LVL125:
 1965              	.L111:
 1966              	.LBB400:
 1967              	.LBB356:
ARM GAS  /var/folders/_f/88qcw_5n2jl40jjphvxyt7wh0000gn/T//ccTBtSfs.s 			page 64


 1968              	.LBB346:
 1969              	.LBB334:
1014:../../../support/device/gd32f4xx/peripherals/src/gd32f4xx_fmc.c **** }
 1970              		.loc 1 1014 5 is_stmt 1 view .LVU636
1014:../../../support/device/gd32f4xx/peripherals/src/gd32f4xx_fmc.c **** }
 1971              		.loc 1 1014 5 is_stmt 0 view .LVU637
 1972              	.LBE334:
 1973              	.LBE346:
1039:../../../support/device/gd32f4xx/peripherals/src/gd32f4xx_fmc.c ****     } while((FMC_BUSY == fmc_state) && (0U != timeout));
 1974              		.loc 1 1039 9 is_stmt 1 view .LVU638
1039:../../../support/device/gd32f4xx/peripherals/src/gd32f4xx_fmc.c ****     } while((FMC_BUSY == fmc_state) && (0U != timeout));
 1975              		.loc 1 1039 16 is_stmt 0 view .LVU639
 1976 00a8 013B     		subs	r3, r3, #1
 1977              	.LVL126:
1040:../../../support/device/gd32f4xx/peripherals/src/gd32f4xx_fmc.c **** 
 1978              		.loc 1 1040 12 is_stmt 1 view .LVU640
 1979              	.LBB347:
 1980              	.LBB335:
1004:../../../support/device/gd32f4xx/peripherals/src/gd32f4xx_fmc.c ****     } else if(RESET != (temp_val & FMC_FLAG_WPERR)) {
 1981              		.loc 1 1004 19 is_stmt 0 view .LVU641
 1982 00aa 0420     		movs	r0, #4
 1983 00ac F1E7     		b	.L115
 1984              	.LVL127:
 1985              	.L117:
1004:../../../support/device/gd32f4xx/peripherals/src/gd32f4xx_fmc.c ****     } else if(RESET != (temp_val & FMC_FLAG_WPERR)) {
 1986              		.loc 1 1004 19 view .LVU642
 1987              	.LBE335:
 1988              	.LBE347:
 1989              	.LBE356:
 1990              	.LBE400:
 1991              	.LBB401:
 1992              	.LBB392:
 1993              	.LBB382:
 1994              	.LBB369:
1014:../../../support/device/gd32f4xx/peripherals/src/gd32f4xx_fmc.c **** }
 1995              		.loc 1 1014 5 is_stmt 1 view .LVU643
