ARM GAS  /var/folders/_f/88qcw_5n2jl40jjphvxyt7wh0000gn/T//ccbbV1HM.s 			page 1


   1              		.cpu cortex-m4
   2              		.arch armv7e-m
   3              		.fpu softvfp
   4              		.eabi_attribute 20, 1
   5              		.eabi_attribute 21, 1
   6              		.eabi_attribute 23, 3
   7              		.eabi_attribute 24, 1
   8              		.eabi_attribute 25, 1
   9              		.eabi_attribute 26, 1
  10              		.eabi_attribute 30, 2
  11              		.eabi_attribute 34, 1
  12              		.eabi_attribute 18, 4
  13              		.file	"gd32f4xx_exti.c"
  14              		.text
  15              	.Ltext0:
  16              		.cfi_sections	.debug_frame
  17              		.section	.text.exti_deinit,"ax",%progbits
  18              		.align	1
  19              		.p2align 2,,3
  20              		.global	exti_deinit
  21              		.syntax unified
  22              		.thumb
  23              		.thumb_func
  25              	exti_deinit:
  26              	.LFB116:
  27              		.file 1 "../../../support/device/gd32f4xx/peripherals/src/gd32f4xx_exti.c"
   1:../../../support/device/gd32f4xx/peripherals/src/gd32f4xx_exti.c **** /*!
   2:../../../support/device/gd32f4xx/peripherals/src/gd32f4xx_exti.c ****     \file    gd32f4xx_exti.c
   3:../../../support/device/gd32f4xx/peripherals/src/gd32f4xx_exti.c ****     \brief   EXTI driver
   4:../../../support/device/gd32f4xx/peripherals/src/gd32f4xx_exti.c ****     \version 2016-08-15, V1.0.0, firmware for GD32F4xx
   5:../../../support/device/gd32f4xx/peripherals/src/gd32f4xx_exti.c ****     \version 2018-12-12, V2.0.0, firmware for GD32F4xx
   6:../../../support/device/gd32f4xx/peripherals/src/gd32f4xx_exti.c ****     \version 2020-09-30, V2.1.0, firmware for GD32F4xx
   7:../../../support/device/gd32f4xx/peripherals/src/gd32f4xx_exti.c ****     \version 2022-03-09, V3.0.0, firmware for GD32F4xx
   8:../../../support/device/gd32f4xx/peripherals/src/gd32f4xx_exti.c **** */
   9:../../../support/device/gd32f4xx/peripherals/src/gd32f4xx_exti.c **** 
  10:../../../support/device/gd32f4xx/peripherals/src/gd32f4xx_exti.c **** /*
  11:../../../support/device/gd32f4xx/peripherals/src/gd32f4xx_exti.c ****     Copyright (c) 2022, GigaDevice Semiconductor Inc.
  12:../../../support/device/gd32f4xx/peripherals/src/gd32f4xx_exti.c **** 
  13:../../../support/device/gd32f4xx/peripherals/src/gd32f4xx_exti.c ****     Redistribution and use in source and binary forms, with or without modification,
  14:../../../support/device/gd32f4xx/peripherals/src/gd32f4xx_exti.c **** are permitted provided that the following conditions are met:
  15:../../../support/device/gd32f4xx/peripherals/src/gd32f4xx_exti.c **** 
  16:../../../support/device/gd32f4xx/peripherals/src/gd32f4xx_exti.c ****     1. Redistributions of source code must retain the above copyright notice, this
  17:../../../support/device/gd32f4xx/peripherals/src/gd32f4xx_exti.c ****        list of conditions and the following disclaimer.
  18:../../../support/device/gd32f4xx/peripherals/src/gd32f4xx_exti.c ****     2. Redistributions in binary form must reproduce the above copyright notice,
  19:../../../support/device/gd32f4xx/peripherals/src/gd32f4xx_exti.c ****        this list of conditions and the following disclaimer in the documentation
  20:../../../support/device/gd32f4xx/peripherals/src/gd32f4xx_exti.c ****        and/or other materials provided with the distribution.
  21:../../../support/device/gd32f4xx/peripherals/src/gd32f4xx_exti.c ****     3. Neither the name of the copyright holder nor the names of its contributors
  22:../../../support/device/gd32f4xx/peripherals/src/gd32f4xx_exti.c ****        may be used to endorse or promote products derived from this software without
  23:../../../support/device/gd32f4xx/peripherals/src/gd32f4xx_exti.c ****        specific prior written permission.
  24:../../../support/device/gd32f4xx/peripherals/src/gd32f4xx_exti.c **** 
  25:../../../support/device/gd32f4xx/peripherals/src/gd32f4xx_exti.c ****     THIS SOFTWARE IS PROVIDED BY THE COPYRIGHT HOLDERS AND CONTRIBUTORS "AS IS"
  26:../../../support/device/gd32f4xx/peripherals/src/gd32f4xx_exti.c **** AND ANY EXPRESS OR IMPLIED WARRANTIES, INCLUDING, BUT NOT LIMITED TO, THE IMPLIED
  27:../../../support/device/gd32f4xx/peripherals/src/gd32f4xx_exti.c **** WARRANTIES OF MERCHANTABILITY AND FITNESS FOR A PARTICULAR PURPOSE ARE DISCLAIMED.
  28:../../../support/device/gd32f4xx/peripherals/src/gd32f4xx_exti.c **** IN NO EVENT SHALL THE COPYRIGHT HOLDER OR CONTRIBUTORS BE LIABLE FOR ANY DIRECT,
  29:../../../support/device/gd32f4xx/peripherals/src/gd32f4xx_exti.c **** INDIRECT, INCIDENTAL, SPECIAL, EXEMPLARY, OR CONSEQUENTIAL DAMAGES (INCLUDING, BUT
  30:../../../support/device/gd32f4xx/peripherals/src/gd32f4xx_exti.c **** NOT LIMITED TO, PROCUREMENT OF SUBSTITUTE GOODS OR SERVICES; LOSS OF USE, DATA, OR
  31:../../../support/device/gd32f4xx/peripherals/src/gd32f4xx_exti.c **** PROFITS; OR BUSINESS INTERRUPTION) HOWEVER CAUSED AND ON ANY THEORY OF LIABILITY,
ARM GAS  /var/folders/_f/88qcw_5n2jl40jjphvxyt7wh0000gn/T//ccbbV1HM.s 			page 2


  32:../../../support/device/gd32f4xx/peripherals/src/gd32f4xx_exti.c **** WHETHER IN CONTRACT, STRICT LIABILITY, OR TORT (INCLUDING NEGLIGENCE OR OTHERWISE)
  33:../../../support/device/gd32f4xx/peripherals/src/gd32f4xx_exti.c **** ARISING IN ANY WAY OUT OF THE USE OF THIS SOFTWARE, EVEN IF ADVISED OF THE POSSIBILITY
  34:../../../support/device/gd32f4xx/peripherals/src/gd32f4xx_exti.c **** OF SUCH DAMAGE.
  35:../../../support/device/gd32f4xx/peripherals/src/gd32f4xx_exti.c **** */
  36:../../../support/device/gd32f4xx/peripherals/src/gd32f4xx_exti.c **** 
  37:../../../support/device/gd32f4xx/peripherals/src/gd32f4xx_exti.c **** #include "gd32f4xx_exti.h"
  38:../../../support/device/gd32f4xx/peripherals/src/gd32f4xx_exti.c **** 
  39:../../../support/device/gd32f4xx/peripherals/src/gd32f4xx_exti.c **** /*!
  40:../../../support/device/gd32f4xx/peripherals/src/gd32f4xx_exti.c ****     \brief    deinitialize the EXTI
  41:../../../support/device/gd32f4xx/peripherals/src/gd32f4xx_exti.c ****     \param[in]  none
  42:../../../support/device/gd32f4xx/peripherals/src/gd32f4xx_exti.c ****     \param[out] none
  43:../../../support/device/gd32f4xx/peripherals/src/gd32f4xx_exti.c ****     \retval     none
  44:../../../support/device/gd32f4xx/peripherals/src/gd32f4xx_exti.c **** */
  45:../../../support/device/gd32f4xx/peripherals/src/gd32f4xx_exti.c **** void exti_deinit(void)
  46:../../../support/device/gd32f4xx/peripherals/src/gd32f4xx_exti.c **** {
  28              		.loc 1 46 1 view -0
  29              		.cfi_startproc
  30              		@ args = 0, pretend = 0, frame = 0
  31              		@ frame_needed = 0, uses_anonymous_args = 0
  32              		@ link register save eliminated.
  47:../../../support/device/gd32f4xx/peripherals/src/gd32f4xx_exti.c ****     /* reset the value of all the EXTI registers */
  48:../../../support/device/gd32f4xx/peripherals/src/gd32f4xx_exti.c ****     EXTI_INTEN = (uint32_t)0x00000000U;
  33              		.loc 1 48 5 view .LVU1
  34              		.loc 1 48 16 is_stmt 0 view .LVU2
  35 0000 064B     		ldr	r3, .L3
  36 0002 0022     		movs	r2, #0
  37 0004 C3F8002C 		str	r2, [r3, #3072]
  49:../../../support/device/gd32f4xx/peripherals/src/gd32f4xx_exti.c ****     EXTI_EVEN  = (uint32_t)0x00000000U;
  38              		.loc 1 49 5 is_stmt 1 view .LVU3
  39              		.loc 1 49 16 is_stmt 0 view .LVU4
  40 0008 C3F8042C 		str	r2, [r3, #3076]
  50:../../../support/device/gd32f4xx/peripherals/src/gd32f4xx_exti.c ****     EXTI_RTEN  = (uint32_t)0x00000000U;
  41              		.loc 1 50 5 is_stmt 1 view .LVU5
  42              		.loc 1 50 16 is_stmt 0 view .LVU6
  43 000c C3F8082C 		str	r2, [r3, #3080]
  51:../../../support/device/gd32f4xx/peripherals/src/gd32f4xx_exti.c ****     EXTI_FTEN  = (uint32_t)0x00000000U;
  44              		.loc 1 51 5 is_stmt 1 view .LVU7
  45              		.loc 1 51 16 is_stmt 0 view .LVU8
  46 0010 C3F80C2C 		str	r2, [r3, #3084]
  52:../../../support/device/gd32f4xx/peripherals/src/gd32f4xx_exti.c ****     EXTI_SWIEV = (uint32_t)0x00000000U;
  47              		.loc 1 52 5 is_stmt 1 view .LVU9
  48              		.loc 1 52 16 is_stmt 0 view .LVU10
  49 0014 C3F8102C 		str	r2, [r3, #3088]
  53:../../../support/device/gd32f4xx/peripherals/src/gd32f4xx_exti.c **** }
  50              		.loc 1 53 1 view .LVU11
  51 0018 7047     		bx	lr
  52              	.L4:
  53 001a 00BF     		.align	2
  54              	.L3:
  55 001c 00300140 		.word	1073819648
  56              		.cfi_endproc
  57              	.LFE116:
  59              		.section	.text.exti_init,"ax",%progbits
  60              		.align	1
  61              		.p2align 2,,3
  62              		.global	exti_init
  63              		.syntax unified
ARM GAS  /var/folders/_f/88qcw_5n2jl40jjphvxyt7wh0000gn/T//ccbbV1HM.s 			page 3


  64              		.thumb
  65              		.thumb_func
  67              	exti_init:
  68              	.LVL0:
  69              	.LFB117:
  54:../../../support/device/gd32f4xx/peripherals/src/gd32f4xx_exti.c **** 
  55:../../../support/device/gd32f4xx/peripherals/src/gd32f4xx_exti.c **** /*!
  56:../../../support/device/gd32f4xx/peripherals/src/gd32f4xx_exti.c ****     \brief    initialize the EXTI
  57:../../../support/device/gd32f4xx/peripherals/src/gd32f4xx_exti.c ****     \param[in]  linex: EXTI line number, refer to exti_line_enum
  58:../../../support/device/gd32f4xx/peripherals/src/gd32f4xx_exti.c ****                 only one parameter can be selected which is shown as below:
  59:../../../support/device/gd32f4xx/peripherals/src/gd32f4xx_exti.c ****       \arg        EXTI_x (x=0..22): EXTI line x
  60:../../../support/device/gd32f4xx/peripherals/src/gd32f4xx_exti.c ****     \param[in]  mode: interrupt or event mode, refer to exti_mode_enum
  61:../../../support/device/gd32f4xx/peripherals/src/gd32f4xx_exti.c ****                 only one parameter can be selected which is shown as below:
  62:../../../support/device/gd32f4xx/peripherals/src/gd32f4xx_exti.c ****       \arg        EXTI_INTERRUPT: interrupt mode
  63:../../../support/device/gd32f4xx/peripherals/src/gd32f4xx_exti.c ****       \arg        EXTI_EVENT: event mode
  64:../../../support/device/gd32f4xx/peripherals/src/gd32f4xx_exti.c ****     \param[in]  trig_type: interrupt trigger type, refer to exti_trig_type_enum
  65:../../../support/device/gd32f4xx/peripherals/src/gd32f4xx_exti.c ****                 only one parameter can be selected which is shown as below:
  66:../../../support/device/gd32f4xx/peripherals/src/gd32f4xx_exti.c ****       \arg        EXTI_TRIG_RISING: rising edge trigger
  67:../../../support/device/gd32f4xx/peripherals/src/gd32f4xx_exti.c ****       \arg        EXTI_TRIG_FALLING: falling trigger
  68:../../../support/device/gd32f4xx/peripherals/src/gd32f4xx_exti.c ****       \arg        EXTI_TRIG_BOTH: rising and falling trigger
  69:../../../support/device/gd32f4xx/peripherals/src/gd32f4xx_exti.c ****       \arg        EXTI_TRIG_NONE: without rising edge or falling edge trigger
  70:../../../support/device/gd32f4xx/peripherals/src/gd32f4xx_exti.c ****     \param[out] none
  71:../../../support/device/gd32f4xx/peripherals/src/gd32f4xx_exti.c ****     \retval     none
  72:../../../support/device/gd32f4xx/peripherals/src/gd32f4xx_exti.c **** */
  73:../../../support/device/gd32f4xx/peripherals/src/gd32f4xx_exti.c **** void exti_init(exti_line_enum linex, \
  74:../../../support/device/gd32f4xx/peripherals/src/gd32f4xx_exti.c ****                exti_mode_enum mode, \
  75:../../../support/device/gd32f4xx/peripherals/src/gd32f4xx_exti.c ****                exti_trig_type_enum trig_type)
  76:../../../support/device/gd32f4xx/peripherals/src/gd32f4xx_exti.c **** {
  70              		.loc 1 76 1 is_stmt 1 view -0
  71              		.cfi_startproc
  72              		@ args = 0, pretend = 0, frame = 0
  73              		@ frame_needed = 0, uses_anonymous_args = 0
  74              		@ link register save eliminated.
  77:../../../support/device/gd32f4xx/peripherals/src/gd32f4xx_exti.c ****     /* reset the EXTI line x */
  78:../../../support/device/gd32f4xx/peripherals/src/gd32f4xx_exti.c ****     EXTI_INTEN &= ~(uint32_t)linex;
  75              		.loc 1 78 5 view .LVU13
  76              		.loc 1 78 16 is_stmt 0 view .LVU14
  77 0000 2C4B     		ldr	r3, .L15
  76:../../../support/device/gd32f4xx/peripherals/src/gd32f4xx_exti.c ****     /* reset the EXTI line x */
  78              		.loc 1 76 1 view .LVU15
  79 0002 10B4     		push	{r4}
  80              	.LCFI0:
  81              		.cfi_def_cfa_offset 4
  82              		.cfi_offset 4, -4
  83              		.loc 1 78 16 view .LVU16
  84 0004 D3F8004C 		ldr	r4, [r3, #3072]
  85 0008 24EA0004 		bic	r4, r4, r0
  86 000c C3F8004C 		str	r4, [r3, #3072]
  79:../../../support/device/gd32f4xx/peripherals/src/gd32f4xx_exti.c ****     EXTI_EVEN &= ~(uint32_t)linex;
  87              		.loc 1 79 5 is_stmt 1 view .LVU17
  88              		.loc 1 79 15 is_stmt 0 view .LVU18
  89 0010 D3F8044C 		ldr	r4, [r3, #3076]
  90 0014 24EA0004 		bic	r4, r4, r0
  91 0018 C3F8044C 		str	r4, [r3, #3076]
  80:../../../support/device/gd32f4xx/peripherals/src/gd32f4xx_exti.c ****     EXTI_RTEN &= ~(uint32_t)linex;
  92              		.loc 1 80 5 is_stmt 1 view .LVU19
  93              		.loc 1 80 15 is_stmt 0 view .LVU20
ARM GAS  /var/folders/_f/88qcw_5n2jl40jjphvxyt7wh0000gn/T//ccbbV1HM.s 			page 4


  94 001c D3F8084C 		ldr	r4, [r3, #3080]
  95 0020 24EA0004 		bic	r4, r4, r0
  96 0024 C3F8084C 		str	r4, [r3, #3080]
  81:../../../support/device/gd32f4xx/peripherals/src/gd32f4xx_exti.c ****     EXTI_FTEN &= ~(uint32_t)linex;
  97              		.loc 1 81 5 is_stmt 1 view .LVU21
  98              		.loc 1 81 15 is_stmt 0 view .LVU22
  99 0028 D3F80C4C 		ldr	r4, [r3, #3084]
 100 002c 24EA0004 		bic	r4, r4, r0
 101 0030 C3F80C4C 		str	r4, [r3, #3084]
  82:../../../support/device/gd32f4xx/peripherals/src/gd32f4xx_exti.c **** 
  83:../../../support/device/gd32f4xx/peripherals/src/gd32f4xx_exti.c ****     /* set the EXTI mode and enable the interrupts or events from EXTI line x */
  84:../../../support/device/gd32f4xx/peripherals/src/gd32f4xx_exti.c ****     switch(mode) {
 102              		.loc 1 84 5 is_stmt 1 view .LVU23
  78:../../../support/device/gd32f4xx/peripherals/src/gd32f4xx_exti.c ****     EXTI_EVEN &= ~(uint32_t)linex;
 103              		.loc 1 78 19 is_stmt 0 view .LVU24
 104 0034 C443     		mvns	r4, r0
 105              		.loc 1 84 5 view .LVU25
 106 0036 69B1     		cbz	r1, .L6
 107 0038 0129     		cmp	r1, #1
 108 003a 04D1     		bne	.L8
  85:../../../support/device/gd32f4xx/peripherals/src/gd32f4xx_exti.c ****     case EXTI_INTERRUPT:
  86:../../../support/device/gd32f4xx/peripherals/src/gd32f4xx_exti.c ****         EXTI_INTEN |= (uint32_t)linex;
  87:../../../support/device/gd32f4xx/peripherals/src/gd32f4xx_exti.c ****         break;
  88:../../../support/device/gd32f4xx/peripherals/src/gd32f4xx_exti.c ****     case EXTI_EVENT:
  89:../../../support/device/gd32f4xx/peripherals/src/gd32f4xx_exti.c ****         EXTI_EVEN |= (uint32_t)linex;
 109              		.loc 1 89 9 is_stmt 1 view .LVU26
 110              		.loc 1 89 19 is_stmt 0 view .LVU27
 111 003c D3F8041C 		ldr	r1, [r3, #3076]
 112              	.LVL1:
 113              		.loc 1 89 19 view .LVU28
 114 0040 0143     		orrs	r1, r1, r0
 115 0042 C3F8041C 		str	r1, [r3, #3076]
  90:../../../support/device/gd32f4xx/peripherals/src/gd32f4xx_exti.c ****         break;
 116              		.loc 1 90 9 is_stmt 1 view .LVU29
 117              	.L8:
  91:../../../support/device/gd32f4xx/peripherals/src/gd32f4xx_exti.c ****     default:
  92:../../../support/device/gd32f4xx/peripherals/src/gd32f4xx_exti.c ****         break;
  93:../../../support/device/gd32f4xx/peripherals/src/gd32f4xx_exti.c ****     }
  94:../../../support/device/gd32f4xx/peripherals/src/gd32f4xx_exti.c **** 
  95:../../../support/device/gd32f4xx/peripherals/src/gd32f4xx_exti.c ****     /* set the EXTI trigger type */
  96:../../../support/device/gd32f4xx/peripherals/src/gd32f4xx_exti.c ****     switch(trig_type) {
 118              		.loc 1 96 5 view .LVU30
 119 0046 012A     		cmp	r2, #1
 120 0048 0CD0     		beq	.L9
 121              	.L14:
 122 004a 022A     		cmp	r2, #2
 123 004c 24D0     		beq	.L10
 124 004e B2B1     		cbz	r2, .L13
  97:../../../support/device/gd32f4xx/peripherals/src/gd32f4xx_exti.c ****     case EXTI_TRIG_RISING:
  98:../../../support/device/gd32f4xx/peripherals/src/gd32f4xx_exti.c ****         EXTI_RTEN |= (uint32_t)linex;
  99:../../../support/device/gd32f4xx/peripherals/src/gd32f4xx_exti.c ****         EXTI_FTEN &= ~(uint32_t)linex;
 100:../../../support/device/gd32f4xx/peripherals/src/gd32f4xx_exti.c ****         break;
 101:../../../support/device/gd32f4xx/peripherals/src/gd32f4xx_exti.c ****     case EXTI_TRIG_FALLING:
 102:../../../support/device/gd32f4xx/peripherals/src/gd32f4xx_exti.c ****         EXTI_RTEN &= ~(uint32_t)linex;
 103:../../../support/device/gd32f4xx/peripherals/src/gd32f4xx_exti.c ****         EXTI_FTEN |= (uint32_t)linex;
 104:../../../support/device/gd32f4xx/peripherals/src/gd32f4xx_exti.c ****         break;
 105:../../../support/device/gd32f4xx/peripherals/src/gd32f4xx_exti.c ****     case EXTI_TRIG_BOTH:
ARM GAS  /var/folders/_f/88qcw_5n2jl40jjphvxyt7wh0000gn/T//ccbbV1HM.s 			page 5


 106:../../../support/device/gd32f4xx/peripherals/src/gd32f4xx_exti.c ****         EXTI_RTEN |= (uint32_t)linex;
 107:../../../support/device/gd32f4xx/peripherals/src/gd32f4xx_exti.c ****         EXTI_FTEN |= (uint32_t)linex;
 108:../../../support/device/gd32f4xx/peripherals/src/gd32f4xx_exti.c ****         break;
 109:../../../support/device/gd32f4xx/peripherals/src/gd32f4xx_exti.c ****     case EXTI_TRIG_NONE:
 110:../../../support/device/gd32f4xx/peripherals/src/gd32f4xx_exti.c ****     default:
 111:../../../support/device/gd32f4xx/peripherals/src/gd32f4xx_exti.c ****         break;
 112:../../../support/device/gd32f4xx/peripherals/src/gd32f4xx_exti.c ****     }
 113:../../../support/device/gd32f4xx/peripherals/src/gd32f4xx_exti.c **** }
 125              		.loc 1 113 1 is_stmt 0 view .LVU31
 126 0050 10BC     		pop	{r4}
 127              	.LCFI1:
 128              		.cfi_remember_state
 129              		.cfi_restore 4
 130              		.cfi_def_cfa_offset 0
 131 0052 7047     		bx	lr
 132              	.LVL2:
 133              	.L6:
 134              	.LCFI2:
 135              		.cfi_restore_state
  86:../../../support/device/gd32f4xx/peripherals/src/gd32f4xx_exti.c ****         break;
 136              		.loc 1 86 9 is_stmt 1 view .LVU32
  86:../../../support/device/gd32f4xx/peripherals/src/gd32f4xx_exti.c ****         break;
 137              		.loc 1 86 20 is_stmt 0 view .LVU33
 138 0054 D3F8001C 		ldr	r1, [r3, #3072]
 139              	.LVL3:
  96:../../../support/device/gd32f4xx/peripherals/src/gd32f4xx_exti.c ****     case EXTI_TRIG_RISING:
 140              		.loc 1 96 5 view .LVU34
 141 0058 012A     		cmp	r2, #1
  86:../../../support/device/gd32f4xx/peripherals/src/gd32f4xx_exti.c ****         break;
 142              		.loc 1 86 20 view .LVU35
 143 005a 41EA0001 		orr	r1, r1, r0
 144 005e C3F8001C 		str	r1, [r3, #3072]
  87:../../../support/device/gd32f4xx/peripherals/src/gd32f4xx_exti.c ****     case EXTI_EVENT:
 145              		.loc 1 87 9 is_stmt 1 view .LVU36
  96:../../../support/device/gd32f4xx/peripherals/src/gd32f4xx_exti.c ****     case EXTI_TRIG_RISING:
 146              		.loc 1 96 5 view .LVU37
 147 0062 F2D1     		bne	.L14
 148              	.L9:
 102:../../../support/device/gd32f4xx/peripherals/src/gd32f4xx_exti.c ****         EXTI_FTEN |= (uint32_t)linex;
 149              		.loc 1 102 9 view .LVU38
 102:../../../support/device/gd32f4xx/peripherals/src/gd32f4xx_exti.c ****         EXTI_FTEN |= (uint32_t)linex;
 150              		.loc 1 102 19 is_stmt 0 view .LVU39
 151 0064 134B     		ldr	r3, .L15
 152 0066 D3F8082C 		ldr	r2, [r3, #3080]
 153              	.LVL4:
 102:../../../support/device/gd32f4xx/peripherals/src/gd32f4xx_exti.c ****         EXTI_FTEN |= (uint32_t)linex;
 154              		.loc 1 102 19 view .LVU40
 155 006a 1440     		ands	r4, r4, r2
 156 006c C3F8084C 		str	r4, [r3, #3080]
 103:../../../support/device/gd32f4xx/peripherals/src/gd32f4xx_exti.c ****         break;
 157              		.loc 1 103 9 is_stmt 1 view .LVU41
 103:../../../support/device/gd32f4xx/peripherals/src/gd32f4xx_exti.c ****         break;
 158              		.loc 1 103 19 is_stmt 0 view .LVU42
 159 0070 D3F80C2C 		ldr	r2, [r3, #3084]
 160              		.loc 1 113 1 view .LVU43
 161 0074 10BC     		pop	{r4}
 162              	.LCFI3:
ARM GAS  /var/folders/_f/88qcw_5n2jl40jjphvxyt7wh0000gn/T//ccbbV1HM.s 			page 6


 163              		.cfi_remember_state
 164              		.cfi_restore 4
 165              		.cfi_def_cfa_offset 0
 103:../../../support/device/gd32f4xx/peripherals/src/gd32f4xx_exti.c ****         break;
 166              		.loc 1 103 19 view .LVU44
 167 0076 1043     		orrs	r0, r0, r2
 168              	.LVL5:
 103:../../../support/device/gd32f4xx/peripherals/src/gd32f4xx_exti.c ****         break;
 169              		.loc 1 103 19 view .LVU45
 170 0078 C3F80C0C 		str	r0, [r3, #3084]
 104:../../../support/device/gd32f4xx/peripherals/src/gd32f4xx_exti.c ****     case EXTI_TRIG_BOTH:
 171              		.loc 1 104 9 is_stmt 1 view .LVU46
 172              		.loc 1 113 1 is_stmt 0 view .LVU47
 173 007c 7047     		bx	lr
 174              	.LVL6:
 175              	.L13:
 176              	.LCFI4:
 177              		.cfi_restore_state
  98:../../../support/device/gd32f4xx/peripherals/src/gd32f4xx_exti.c ****         EXTI_FTEN &= ~(uint32_t)linex;
 178              		.loc 1 98 9 is_stmt 1 view .LVU48
  98:../../../support/device/gd32f4xx/peripherals/src/gd32f4xx_exti.c ****         EXTI_FTEN &= ~(uint32_t)linex;
 179              		.loc 1 98 19 is_stmt 0 view .LVU49
 180 007e 0D4B     		ldr	r3, .L15
 181 0080 D3F8082C 		ldr	r2, [r3, #3080]
 182              	.LVL7:
  98:../../../support/device/gd32f4xx/peripherals/src/gd32f4xx_exti.c ****         EXTI_FTEN &= ~(uint32_t)linex;
 183              		.loc 1 98 19 view .LVU50
 184 0084 1043     		orrs	r0, r0, r2
 185              	.LVL8:
  98:../../../support/device/gd32f4xx/peripherals/src/gd32f4xx_exti.c ****         EXTI_FTEN &= ~(uint32_t)linex;
 186              		.loc 1 98 19 view .LVU51
 187 0086 C3F8080C 		str	r0, [r3, #3080]
  99:../../../support/device/gd32f4xx/peripherals/src/gd32f4xx_exti.c ****         break;
 188              		.loc 1 99 9 is_stmt 1 view .LVU52
  99:../../../support/device/gd32f4xx/peripherals/src/gd32f4xx_exti.c ****         break;
 189              		.loc 1 99 19 is_stmt 0 view .LVU53
 190 008a D3F80C2C 		ldr	r2, [r3, #3084]
 191 008e 1440     		ands	r4, r4, r2
 192              	.LVL9:
  99:../../../support/device/gd32f4xx/peripherals/src/gd32f4xx_exti.c ****         break;
 193              		.loc 1 99 19 view .LVU54
 194 0090 C3F80C4C 		str	r4, [r3, #3084]
 100:../../../support/device/gd32f4xx/peripherals/src/gd32f4xx_exti.c ****     case EXTI_TRIG_FALLING:
 195              		.loc 1 100 9 is_stmt 1 view .LVU55
 196              		.loc 1 113 1 is_stmt 0 view .LVU56
 197 0094 10BC     		pop	{r4}
 198              	.LCFI5:
 199              		.cfi_remember_state
 200              		.cfi_restore 4
 201              		.cfi_def_cfa_offset 0
 202 0096 7047     		bx	lr
 203              	.LVL10:
 204              	.L10:
 205              	.LCFI6:
 206              		.cfi_restore_state
 106:../../../support/device/gd32f4xx/peripherals/src/gd32f4xx_exti.c ****         EXTI_FTEN |= (uint32_t)linex;
 207              		.loc 1 106 9 is_stmt 1 view .LVU57
ARM GAS  /var/folders/_f/88qcw_5n2jl40jjphvxyt7wh0000gn/T//ccbbV1HM.s 			page 7


 106:../../../support/device/gd32f4xx/peripherals/src/gd32f4xx_exti.c ****         EXTI_FTEN |= (uint32_t)linex;
 208              		.loc 1 106 19 is_stmt 0 view .LVU58
 209 0098 064B     		ldr	r3, .L15
 210              		.loc 1 113 1 view .LVU59
 211 009a 10BC     		pop	{r4}
 212              	.LCFI7:
 213              		.cfi_restore 4
 214              		.cfi_def_cfa_offset 0
 106:../../../support/device/gd32f4xx/peripherals/src/gd32f4xx_exti.c ****         EXTI_FTEN |= (uint32_t)linex;
 215              		.loc 1 106 19 view .LVU60
 216 009c D3F8082C 		ldr	r2, [r3, #3080]
 217              	.LVL11:
 106:../../../support/device/gd32f4xx/peripherals/src/gd32f4xx_exti.c ****         EXTI_FTEN |= (uint32_t)linex;
 218              		.loc 1 106 19 view .LVU61
 219 00a0 0243     		orrs	r2, r2, r0
 220 00a2 C3F8082C 		str	r2, [r3, #3080]
 107:../../../support/device/gd32f4xx/peripherals/src/gd32f4xx_exti.c ****         break;
 221              		.loc 1 107 9 is_stmt 1 view .LVU62
 107:../../../support/device/gd32f4xx/peripherals/src/gd32f4xx_exti.c ****         break;
 222              		.loc 1 107 19 is_stmt 0 view .LVU63
 223 00a6 D3F80C2C 		ldr	r2, [r3, #3084]
 224 00aa 1043     		orrs	r0, r0, r2
 225              	.LVL12:
 107:../../../support/device/gd32f4xx/peripherals/src/gd32f4xx_exti.c ****         break;
 226              		.loc 1 107 19 view .LVU64
 227 00ac C3F80C0C 		str	r0, [r3, #3084]
 108:../../../support/device/gd32f4xx/peripherals/src/gd32f4xx_exti.c ****     case EXTI_TRIG_NONE:
 228              		.loc 1 108 9 is_stmt 1 view .LVU65
 229              		.loc 1 113 1 is_stmt 0 view .LVU66
 230 00b0 7047     		bx	lr
 231              	.L16:
 232 00b2 00BF     		.align	2
 233              	.L15:
 234 00b4 00300140 		.word	1073819648
 235              		.cfi_endproc
 236              	.LFE117:
 238              		.section	.text.exti_interrupt_enable,"ax",%progbits
 239              		.align	1
 240              		.p2align 2,,3
 241              		.global	exti_interrupt_enable
 242              		.syntax unified
 243              		.thumb
 244              		.thumb_func
 246              	exti_interrupt_enable:
 247              	.LVL13:
 248              	.LFB118:
 114:../../../support/device/gd32f4xx/peripherals/src/gd32f4xx_exti.c **** 
 115:../../../support/device/gd32f4xx/peripherals/src/gd32f4xx_exti.c **** /*!
 116:../../../support/device/gd32f4xx/peripherals/src/gd32f4xx_exti.c ****     \brief    enable the interrupts from EXTI line x
 117:../../../support/device/gd32f4xx/peripherals/src/gd32f4xx_exti.c ****     \param[in]  linex: EXTI line number, refer to exti_line_enum
 118:../../../support/device/gd32f4xx/peripherals/src/gd32f4xx_exti.c ****                 only one parameter can be selected which is shown as below:
 119:../../../support/device/gd32f4xx/peripherals/src/gd32f4xx_exti.c ****       \arg        EXTI_x (x=0..22): EXTI line x
 120:../../../support/device/gd32f4xx/peripherals/src/gd32f4xx_exti.c ****     \param[out] none
 121:../../../support/device/gd32f4xx/peripherals/src/gd32f4xx_exti.c ****     \retval     none
 122:../../../support/device/gd32f4xx/peripherals/src/gd32f4xx_exti.c **** */
 123:../../../support/device/gd32f4xx/peripherals/src/gd32f4xx_exti.c **** void exti_interrupt_enable(exti_line_enum linex)
 124:../../../support/device/gd32f4xx/peripherals/src/gd32f4xx_exti.c **** {
ARM GAS  /var/folders/_f/88qcw_5n2jl40jjphvxyt7wh0000gn/T//ccbbV1HM.s 			page 8


 249              		.loc 1 124 1 is_stmt 1 view -0
 250              		.cfi_startproc
 251              		@ args = 0, pretend = 0, frame = 0
 252              		@ frame_needed = 0, uses_anonymous_args = 0
 253              		@ link register save eliminated.
 125:../../../support/device/gd32f4xx/peripherals/src/gd32f4xx_exti.c ****     EXTI_INTEN |= (uint32_t)linex;
 254              		.loc 1 125 5 view .LVU68
 255              		.loc 1 125 16 is_stmt 0 view .LVU69
 256 0000 034A     		ldr	r2, .L18
 257 0002 D2F8003C 		ldr	r3, [r2, #3072]
 258 0006 0343     		orrs	r3, r3, r0
 259 0008 C2F8003C 		str	r3, [r2, #3072]
 126:../../../support/device/gd32f4xx/peripherals/src/gd32f4xx_exti.c **** }
 260              		.loc 1 126 1 view .LVU70
 261 000c 7047     		bx	lr
 262              	.L19:
 263 000e 00BF     		.align	2
 264              	.L18:
 265 0010 00300140 		.word	1073819648
 266              		.cfi_endproc
 267              	.LFE118:
 269              		.section	.text.exti_interrupt_disable,"ax",%progbits
 270              		.align	1
 271              		.p2align 2,,3
 272              		.global	exti_interrupt_disable
 273              		.syntax unified
 274              		.thumb
 275              		.thumb_func
 277              	exti_interrupt_disable:
 278              	.LVL14:
 279              	.LFB119:
 127:../../../support/device/gd32f4xx/peripherals/src/gd32f4xx_exti.c **** 
 128:../../../support/device/gd32f4xx/peripherals/src/gd32f4xx_exti.c **** /*!
 129:../../../support/device/gd32f4xx/peripherals/src/gd32f4xx_exti.c ****     \brief    disable the interrupt from EXTI line x
 130:../../../support/device/gd32f4xx/peripherals/src/gd32f4xx_exti.c ****     \param[in]  linex: EXTI line number, refer to exti_line_enum
 131:../../../support/device/gd32f4xx/peripherals/src/gd32f4xx_exti.c ****                 only one parameter can be selected which is shown as below:
 132:../../../support/device/gd32f4xx/peripherals/src/gd32f4xx_exti.c ****       \arg        EXTI_x (x=0..22): EXTI line x
 133:../../../support/device/gd32f4xx/peripherals/src/gd32f4xx_exti.c ****     \param[out] none
 134:../../../support/device/gd32f4xx/peripherals/src/gd32f4xx_exti.c ****     \retval     none
 135:../../../support/device/gd32f4xx/peripherals/src/gd32f4xx_exti.c **** */
 136:../../../support/device/gd32f4xx/peripherals/src/gd32f4xx_exti.c **** void exti_interrupt_disable(exti_line_enum linex)
 137:../../../support/device/gd32f4xx/peripherals/src/gd32f4xx_exti.c **** {
 280              		.loc 1 137 1 is_stmt 1 view -0
 281              		.cfi_startproc
 282              		@ args = 0, pretend = 0, frame = 0
 283              		@ frame_needed = 0, uses_anonymous_args = 0
 284              		@ link register save eliminated.
 138:../../../support/device/gd32f4xx/peripherals/src/gd32f4xx_exti.c ****     EXTI_INTEN &= ~(uint32_t)linex;
 285              		.loc 1 138 5 view .LVU72
 286              		.loc 1 138 16 is_stmt 0 view .LVU73
 287 0000 034A     		ldr	r2, .L21
 288 0002 D2F8003C 		ldr	r3, [r2, #3072]
 289 0006 23EA0003 		bic	r3, r3, r0
 290 000a C2F8003C 		str	r3, [r2, #3072]
 139:../../../support/device/gd32f4xx/peripherals/src/gd32f4xx_exti.c **** }
 291              		.loc 1 139 1 view .LVU74
 292 000e 7047     		bx	lr
ARM GAS  /var/folders/_f/88qcw_5n2jl40jjphvxyt7wh0000gn/T//ccbbV1HM.s 			page 9


 293              	.L22:
 294              		.align	2
 295              	.L21:
 296 0010 00300140 		.word	1073819648
 297              		.cfi_endproc
 298              	.LFE119:
 300              		.section	.text.exti_event_enable,"ax",%progbits
 301              		.align	1
 302              		.p2align 2,,3
 303              		.global	exti_event_enable
 304              		.syntax unified
 305              		.thumb
 306              		.thumb_func
 308              	exti_event_enable:
 309              	.LVL15:
 310              	.LFB120:
 140:../../../support/device/gd32f4xx/peripherals/src/gd32f4xx_exti.c **** 
 141:../../../support/device/gd32f4xx/peripherals/src/gd32f4xx_exti.c **** /*!
 142:../../../support/device/gd32f4xx/peripherals/src/gd32f4xx_exti.c ****     \brief    enable the events from EXTI line x
 143:../../../support/device/gd32f4xx/peripherals/src/gd32f4xx_exti.c ****     \param[in]  linex: EXTI line number, refer to exti_line_enum
 144:../../../support/device/gd32f4xx/peripherals/src/gd32f4xx_exti.c ****                 only one parameter can be selected which is shown as below:
 145:../../../support/device/gd32f4xx/peripherals/src/gd32f4xx_exti.c ****       \arg        EXTI_x (x=0..22): EXTI line x
 146:../../../support/device/gd32f4xx/peripherals/src/gd32f4xx_exti.c ****     \param[out] none
 147:../../../support/device/gd32f4xx/peripherals/src/gd32f4xx_exti.c ****     \retval     none
 148:../../../support/device/gd32f4xx/peripherals/src/gd32f4xx_exti.c **** */
 149:../../../support/device/gd32f4xx/peripherals/src/gd32f4xx_exti.c **** void exti_event_enable(exti_line_enum linex)
 150:../../../support/device/gd32f4xx/peripherals/src/gd32f4xx_exti.c **** {
 311              		.loc 1 150 1 is_stmt 1 view -0
 312              		.cfi_startproc
 313              		@ args = 0, pretend = 0, frame = 0
 314              		@ frame_needed = 0, uses_anonymous_args = 0
 315              		@ link register save eliminated.
 151:../../../support/device/gd32f4xx/peripherals/src/gd32f4xx_exti.c ****     EXTI_EVEN |= (uint32_t)linex;
 316              		.loc 1 151 5 view .LVU76
 317              		.loc 1 151 15 is_stmt 0 view .LVU77
 318 0000 034A     		ldr	r2, .L24
 319 0002 D2F8043C 		ldr	r3, [r2, #3076]
 320 0006 0343     		orrs	r3, r3, r0
 321 0008 C2F8043C 		str	r3, [r2, #3076]
 152:../../../support/device/gd32f4xx/peripherals/src/gd32f4xx_exti.c **** }
 322              		.loc 1 152 1 view .LVU78
 323 000c 7047     		bx	lr
 324              	.L25:
 325 000e 00BF     		.align	2
 326              	.L24:
 327 0010 00300140 		.word	1073819648
 328              		.cfi_endproc
 329              	.LFE120:
 331              		.section	.text.exti_event_disable,"ax",%progbits
 332              		.align	1
 333              		.p2align 2,,3
 334              		.global	exti_event_disable
 335              		.syntax unified
 336              		.thumb
 337              		.thumb_func
 339              	exti_event_disable:
 340              	.LVL16:
ARM GAS  /var/folders/_f/88qcw_5n2jl40jjphvxyt7wh0000gn/T//ccbbV1HM.s 			page 10


 341              	.LFB121:
 153:../../../support/device/gd32f4xx/peripherals/src/gd32f4xx_exti.c **** 
 154:../../../support/device/gd32f4xx/peripherals/src/gd32f4xx_exti.c **** /*!
 155:../../../support/device/gd32f4xx/peripherals/src/gd32f4xx_exti.c ****     \brief    disable the events from EXTI line x
 156:../../../support/device/gd32f4xx/peripherals/src/gd32f4xx_exti.c ****     \param[in]  linex: EXTI line number, refer to exti_line_enum
 157:../../../support/device/gd32f4xx/peripherals/src/gd32f4xx_exti.c ****                 only one parameter can be selected which is shown as below:
 158:../../../support/device/gd32f4xx/peripherals/src/gd32f4xx_exti.c ****       \arg        EXTI_x (x=0..22): EXTI line x
 159:../../../support/device/gd32f4xx/peripherals/src/gd32f4xx_exti.c ****     \param[out] none
 160:../../../support/device/gd32f4xx/peripherals/src/gd32f4xx_exti.c ****     \retval     none
 161:../../../support/device/gd32f4xx/peripherals/src/gd32f4xx_exti.c **** */
 162:../../../support/device/gd32f4xx/peripherals/src/gd32f4xx_exti.c **** void exti_event_disable(exti_line_enum linex)
 163:../../../support/device/gd32f4xx/peripherals/src/gd32f4xx_exti.c **** {
 342              		.loc 1 163 1 is_stmt 1 view -0
 343              		.cfi_startproc
 344              		@ args = 0, pretend = 0, frame = 0
 345              		@ frame_needed = 0, uses_anonymous_args = 0
 346              		@ link register save eliminated.
 164:../../../support/device/gd32f4xx/peripherals/src/gd32f4xx_exti.c ****     EXTI_EVEN &= ~(uint32_t)linex;
 347              		.loc 1 164 5 view .LVU80
 348              		.loc 1 164 15 is_stmt 0 view .LVU81
 349 0000 034A     		ldr	r2, .L27
 350 0002 D2F8043C 		ldr	r3, [r2, #3076]
 351 0006 23EA0003 		bic	r3, r3, r0
 352 000a C2F8043C 		str	r3, [r2, #3076]
 165:../../../support/device/gd32f4xx/peripherals/src/gd32f4xx_exti.c **** }
 353              		.loc 1 165 1 view .LVU82
 354 000e 7047     		bx	lr
 355              	.L28:
 356              		.align	2
 357              	.L27:
 358 0010 00300140 		.word	1073819648
 359              		.cfi_endproc
 360              	.LFE121:
 362              		.section	.text.exti_software_interrupt_enable,"ax",%progbits
 363              		.align	1
 364              		.p2align 2,,3
 365              		.global	exti_software_interrupt_enable
 366              		.syntax unified
 367              		.thumb
 368              		.thumb_func
 370              	exti_software_interrupt_enable:
 371              	.LVL17:
 372              	.LFB122:
 166:../../../support/device/gd32f4xx/peripherals/src/gd32f4xx_exti.c **** 
 167:../../../support/device/gd32f4xx/peripherals/src/gd32f4xx_exti.c **** /*!
 168:../../../support/device/gd32f4xx/peripherals/src/gd32f4xx_exti.c ****     \brief    enable EXTI software interrupt event
 169:../../../support/device/gd32f4xx/peripherals/src/gd32f4xx_exti.c ****     \param[in]  linex: EXTI line number, refer to exti_line_enum
 170:../../../support/device/gd32f4xx/peripherals/src/gd32f4xx_exti.c ****                 only one parameter can be selected which is shown as below:
 171:../../../support/device/gd32f4xx/peripherals/src/gd32f4xx_exti.c ****       \arg        EXTI_x (x=0..22): EXTI line x
 172:../../../support/device/gd32f4xx/peripherals/src/gd32f4xx_exti.c ****     \param[out] none
 173:../../../support/device/gd32f4xx/peripherals/src/gd32f4xx_exti.c ****     \retval     none
 174:../../../support/device/gd32f4xx/peripherals/src/gd32f4xx_exti.c **** */
 175:../../../support/device/gd32f4xx/peripherals/src/gd32f4xx_exti.c **** void exti_software_interrupt_enable(exti_line_enum linex)
 176:../../../support/device/gd32f4xx/peripherals/src/gd32f4xx_exti.c **** {
 373              		.loc 1 176 1 is_stmt 1 view -0
 374              		.cfi_startproc
 375              		@ args = 0, pretend = 0, frame = 0
ARM GAS  /var/folders/_f/88qcw_5n2jl40jjphvxyt7wh0000gn/T//ccbbV1HM.s 			page 11


 376              		@ frame_needed = 0, uses_anonymous_args = 0
 377              		@ link register save eliminated.
 177:../../../support/device/gd32f4xx/peripherals/src/gd32f4xx_exti.c ****     EXTI_SWIEV |= (uint32_t)linex;
 378              		.loc 1 177 5 view .LVU84
 379              		.loc 1 177 16 is_stmt 0 view .LVU85
 380 0000 034A     		ldr	r2, .L30
 381 0002 D2F8103C 		ldr	r3, [r2, #3088]
 382 0006 0343     		orrs	r3, r3, r0
 383 0008 C2F8103C 		str	r3, [r2, #3088]
 178:../../../support/device/gd32f4xx/peripherals/src/gd32f4xx_exti.c **** }
 384              		.loc 1 178 1 view .LVU86
 385 000c 7047     		bx	lr
 386              	.L31:
 387 000e 00BF     		.align	2
 388              	.L30:
 389 0010 00300140 		.word	1073819648
 390              		.cfi_endproc
 391              	.LFE122:
 393              		.section	.text.exti_software_interrupt_disable,"ax",%progbits
 394              		.align	1
 395              		.p2align 2,,3
 396              		.global	exti_software_interrupt_disable
 397              		.syntax unified
 398              		.thumb
 399              		.thumb_func
 401              	exti_software_interrupt_disable:
 402              	.LVL18:
 403              	.LFB123:
 179:../../../support/device/gd32f4xx/peripherals/src/gd32f4xx_exti.c **** 
 180:../../../support/device/gd32f4xx/peripherals/src/gd32f4xx_exti.c **** /*!
 181:../../../support/device/gd32f4xx/peripherals/src/gd32f4xx_exti.c ****     \brief    disable EXTI software interrupt event
 182:../../../support/device/gd32f4xx/peripherals/src/gd32f4xx_exti.c ****     \param[in]  linex: EXTI line number, refer to exti_line_enum
 183:../../../support/device/gd32f4xx/peripherals/src/gd32f4xx_exti.c ****                 only one parameter can be selected which is shown as below:
 184:../../../support/device/gd32f4xx/peripherals/src/gd32f4xx_exti.c ****       \arg        EXTI_x (x=0..22): EXTI line x
 185:../../../support/device/gd32f4xx/peripherals/src/gd32f4xx_exti.c ****     \param[out] none
 186:../../../support/device/gd32f4xx/peripherals/src/gd32f4xx_exti.c ****     \retval     none
 187:../../../support/device/gd32f4xx/peripherals/src/gd32f4xx_exti.c **** */
 188:../../../support/device/gd32f4xx/peripherals/src/gd32f4xx_exti.c **** void exti_software_interrupt_disable(exti_line_enum linex)
 189:../../../support/device/gd32f4xx/peripherals/src/gd32f4xx_exti.c **** {
 404              		.loc 1 189 1 is_stmt 1 view -0
 405              		.cfi_startproc
 406              		@ args = 0, pretend = 0, frame = 0
 407              		@ frame_needed = 0, uses_anonymous_args = 0
 408              		@ link register save eliminated.
 190:../../../support/device/gd32f4xx/peripherals/src/gd32f4xx_exti.c ****     EXTI_SWIEV &= ~(uint32_t)linex;
 409              		.loc 1 190 5 view .LVU88
 410              		.loc 1 190 16 is_stmt 0 view .LVU89
 411 0000 034A     		ldr	r2, .L33
 412 0002 D2F8103C 		ldr	r3, [r2, #3088]
 413 0006 23EA0003 		bic	r3, r3, r0
 414 000a C2F8103C 		str	r3, [r2, #3088]
 191:../../../support/device/gd32f4xx/peripherals/src/gd32f4xx_exti.c **** }
 415              		.loc 1 191 1 view .LVU90
 416 000e 7047     		bx	lr
 417              	.L34:
 418              		.align	2
 419              	.L33:
ARM GAS  /var/folders/_f/88qcw_5n2jl40jjphvxyt7wh0000gn/T//ccbbV1HM.s 			page 12


 420 0010 00300140 		.word	1073819648
 421              		.cfi_endproc
 422              	.LFE123:
 424              		.section	.text.exti_flag_get,"ax",%progbits
 425              		.align	1
 426              		.p2align 2,,3
 427              		.global	exti_flag_get
 428              		.syntax unified
 429              		.thumb
 430              		.thumb_func
 432              	exti_flag_get:
 433              	.LVL19:
 434              	.LFB124:
 192:../../../support/device/gd32f4xx/peripherals/src/gd32f4xx_exti.c **** 
 193:../../../support/device/gd32f4xx/peripherals/src/gd32f4xx_exti.c **** /*!
 194:../../../support/device/gd32f4xx/peripherals/src/gd32f4xx_exti.c ****     \brief    get EXTI lines flag
 195:../../../support/device/gd32f4xx/peripherals/src/gd32f4xx_exti.c ****     \param[in]  linex: EXTI line number, refer to exti_line_enum
 196:../../../support/device/gd32f4xx/peripherals/src/gd32f4xx_exti.c ****                 only one parameter can be selected which is shown as below:
 197:../../../support/device/gd32f4xx/peripherals/src/gd32f4xx_exti.c ****       \arg        EXTI_x (x=0..22): EXTI line x
 198:../../../support/device/gd32f4xx/peripherals/src/gd32f4xx_exti.c ****     \param[out] none
 199:../../../support/device/gd32f4xx/peripherals/src/gd32f4xx_exti.c ****     \retval     FlagStatus: status of flag (RESET or SET)
 200:../../../support/device/gd32f4xx/peripherals/src/gd32f4xx_exti.c **** */
 201:../../../support/device/gd32f4xx/peripherals/src/gd32f4xx_exti.c **** FlagStatus exti_flag_get(exti_line_enum linex)
 202:../../../support/device/gd32f4xx/peripherals/src/gd32f4xx_exti.c **** {
 435              		.loc 1 202 1 is_stmt 1 view -0
 436              		.cfi_startproc
 437              		@ args = 0, pretend = 0, frame = 0
 438              		@ frame_needed = 0, uses_anonymous_args = 0
 439              		@ link register save eliminated.
 203:../../../support/device/gd32f4xx/peripherals/src/gd32f4xx_exti.c ****     if(RESET != (EXTI_PD & (uint32_t)linex)) {
 440              		.loc 1 203 5 view .LVU92
 441              		.loc 1 203 18 is_stmt 0 view .LVU93
 442 0000 034B     		ldr	r3, .L36
 443 0002 D3F8143C 		ldr	r3, [r3, #3092]
 444              		.loc 1 203 7 view .LVU94
 445 0006 0342     		tst	r3, r0
 204:../../../support/device/gd32f4xx/peripherals/src/gd32f4xx_exti.c ****         return SET;
 205:../../../support/device/gd32f4xx/peripherals/src/gd32f4xx_exti.c ****     } else {
 206:../../../support/device/gd32f4xx/peripherals/src/gd32f4xx_exti.c ****         return RESET;
 207:../../../support/device/gd32f4xx/peripherals/src/gd32f4xx_exti.c ****     }
 208:../../../support/device/gd32f4xx/peripherals/src/gd32f4xx_exti.c **** }
 446              		.loc 1 208 1 view .LVU95
 447 0008 14BF     		ite	ne
 448 000a 0120     		movne	r0, #1
 449              	.LVL20:
 450              		.loc 1 208 1 view .LVU96
 451 000c 0020     		moveq	r0, #0
 452 000e 7047     		bx	lr
 453              	.L37:
 454              		.align	2
 455              	.L36:
 456 0010 00300140 		.word	1073819648
 457              		.cfi_endproc
 458              	.LFE124:
 460              		.section	.text.exti_flag_clear,"ax",%progbits
 461              		.align	1
 462              		.p2align 2,,3
ARM GAS  /var/folders/_f/88qcw_5n2jl40jjphvxyt7wh0000gn/T//ccbbV1HM.s 			page 13


 463              		.global	exti_flag_clear
 464              		.syntax unified
 465              		.thumb
 466              		.thumb_func
 468              	exti_flag_clear:
 469              	.LVL21:
 470              	.LFB125:
 209:../../../support/device/gd32f4xx/peripherals/src/gd32f4xx_exti.c **** 
 210:../../../support/device/gd32f4xx/peripherals/src/gd32f4xx_exti.c **** /*!
 211:../../../support/device/gd32f4xx/peripherals/src/gd32f4xx_exti.c ****     \brief    clear EXTI lines pending flag
 212:../../../support/device/gd32f4xx/peripherals/src/gd32f4xx_exti.c ****     \param[in]  linex: EXTI line number, refer to exti_line_enum
 213:../../../support/device/gd32f4xx/peripherals/src/gd32f4xx_exti.c ****                 only one parameter can be selected which is shown as below:
 214:../../../support/device/gd32f4xx/peripherals/src/gd32f4xx_exti.c ****       \arg        EXTI_x (x=0..22): EXTI line x
 215:../../../support/device/gd32f4xx/peripherals/src/gd32f4xx_exti.c ****     \param[out] none
 216:../../../support/device/gd32f4xx/peripherals/src/gd32f4xx_exti.c ****     \retval     none
 217:../../../support/device/gd32f4xx/peripherals/src/gd32f4xx_exti.c **** */
 218:../../../support/device/gd32f4xx/peripherals/src/gd32f4xx_exti.c **** void exti_flag_clear(exti_line_enum linex)
 219:../../../support/device/gd32f4xx/peripherals/src/gd32f4xx_exti.c **** {
 471              		.loc 1 219 1 is_stmt 1 view -0
 472              		.cfi_startproc
 473              		@ args = 0, pretend = 0, frame = 0
 474              		@ frame_needed = 0, uses_anonymous_args = 0
 475              		@ link register save eliminated.
 220:../../../support/device/gd32f4xx/peripherals/src/gd32f4xx_exti.c ****     EXTI_PD = (uint32_t)linex;
 476              		.loc 1 220 5 view .LVU98
 477              		.loc 1 220 13 is_stmt 0 view .LVU99
 478 0000 014B     		ldr	r3, .L39
 479 0002 C3F8140C 		str	r0, [r3, #3092]
 221:../../../support/device/gd32f4xx/peripherals/src/gd32f4xx_exti.c **** }
 480              		.loc 1 221 1 view .LVU100
 481 0006 7047     		bx	lr
 482              	.L40:
 483              		.align	2
 484              	.L39:
 485 0008 00300140 		.word	1073819648
 486              		.cfi_endproc
 487              	.LFE125:
 489              		.section	.text.exti_interrupt_flag_get,"ax",%progbits
 490              		.align	1
 491              		.p2align 2,,3
 492              		.global	exti_interrupt_flag_get
 493              		.syntax unified
 494              		.thumb
 495              		.thumb_func
 497              	exti_interrupt_flag_get:
 498              	.LVL22:
 499              	.LFB126:
 222:../../../support/device/gd32f4xx/peripherals/src/gd32f4xx_exti.c **** 
 223:../../../support/device/gd32f4xx/peripherals/src/gd32f4xx_exti.c **** /*!
 224:../../../support/device/gd32f4xx/peripherals/src/gd32f4xx_exti.c ****     \brief    get EXTI lines flag when the interrupt flag is set
 225:../../../support/device/gd32f4xx/peripherals/src/gd32f4xx_exti.c ****     \param[in]  linex: EXTI line number, refer to exti_line_enum
 226:../../../support/device/gd32f4xx/peripherals/src/gd32f4xx_exti.c ****                 only one parameter can be selected which is shown as below:
 227:../../../support/device/gd32f4xx/peripherals/src/gd32f4xx_exti.c ****       \arg        EXTI_x (x=0..22): EXTI line x
 228:../../../support/device/gd32f4xx/peripherals/src/gd32f4xx_exti.c ****     \param[out] none
 229:../../../support/device/gd32f4xx/peripherals/src/gd32f4xx_exti.c ****     \retval     FlagStatus: status of flag (RESET or SET)
 230:../../../support/device/gd32f4xx/peripherals/src/gd32f4xx_exti.c **** */
 231:../../../support/device/gd32f4xx/peripherals/src/gd32f4xx_exti.c **** FlagStatus exti_interrupt_flag_get(exti_line_enum linex)
ARM GAS  /var/folders/_f/88qcw_5n2jl40jjphvxyt7wh0000gn/T//ccbbV1HM.s 			page 14


 232:../../../support/device/gd32f4xx/peripherals/src/gd32f4xx_exti.c **** {
 500              		.loc 1 232 1 is_stmt 1 view -0
 501              		.cfi_startproc
 502              		@ args = 0, pretend = 0, frame = 0
 503              		@ frame_needed = 0, uses_anonymous_args = 0
 504              		@ link register save eliminated.
 233:../../../support/device/gd32f4xx/peripherals/src/gd32f4xx_exti.c ****     uint32_t flag_left, flag_right;
 505              		.loc 1 233 5 view .LVU102
 234:../../../support/device/gd32f4xx/peripherals/src/gd32f4xx_exti.c **** 
 235:../../../support/device/gd32f4xx/peripherals/src/gd32f4xx_exti.c ****     flag_left = EXTI_PD & (uint32_t)linex;
 506              		.loc 1 235 5 view .LVU103
 507              		.loc 1 235 17 is_stmt 0 view .LVU104
 508 0000 064A     		ldr	r2, .L44
 509 0002 D2F8143C 		ldr	r3, [r2, #3092]
 510              	.LVL23:
 236:../../../support/device/gd32f4xx/peripherals/src/gd32f4xx_exti.c ****     flag_right = EXTI_INTEN & (uint32_t)linex;
 511              		.loc 1 236 5 is_stmt 1 view .LVU105
 512              		.loc 1 236 18 is_stmt 0 view .LVU106
 513 0006 D2F8002C 		ldr	r2, [r2, #3072]
 514              	.LVL24:
 237:../../../support/device/gd32f4xx/peripherals/src/gd32f4xx_exti.c **** 
 238:../../../support/device/gd32f4xx/peripherals/src/gd32f4xx_exti.c ****     if((RESET != flag_left) && (RESET != flag_right)) {
 515              		.loc 1 238 5 is_stmt 1 view .LVU107
 516              		.loc 1 238 7 is_stmt 0 view .LVU108
 517 000a 0340     		ands	r3, r3, r0
 518              	.LVL25:
 519              		.loc 1 238 7 view .LVU109
 520 000c 04D0     		beq	.L43
 521              		.loc 1 238 29 discriminator 1 view .LVU110
 522 000e 0242     		tst	r2, r0
 239:../../../support/device/gd32f4xx/peripherals/src/gd32f4xx_exti.c ****         return SET;
 240:../../../support/device/gd32f4xx/peripherals/src/gd32f4xx_exti.c ****     } else {
 241:../../../support/device/gd32f4xx/peripherals/src/gd32f4xx_exti.c ****         return RESET;
 523              		.loc 1 241 16 discriminator 1 view .LVU111
 524 0010 14BF     		ite	ne
 525 0012 0120     		movne	r0, #1
 526              	.LVL26:
 527              		.loc 1 241 16 discriminator 1 view .LVU112
 528 0014 0020     		moveq	r0, #0
 529 0016 7047     		bx	lr
 530              	.LVL27:
 531              	.L43:
 532              		.loc 1 241 16 view .LVU113
 533 0018 1846     		mov	r0, r3
 534              	.LVL28:
 242:../../../support/device/gd32f4xx/peripherals/src/gd32f4xx_exti.c ****     }
 243:../../../support/device/gd32f4xx/peripherals/src/gd32f4xx_exti.c **** }
 535              		.loc 1 243 1 view .LVU114
 536 001a 7047     		bx	lr
 537              	.L45:
 538              		.align	2
 539              	.L44:
 540 001c 00300140 		.word	1073819648
 541              		.cfi_endproc
 542              	.LFE126:
 544              		.section	.text.exti_interrupt_flag_clear,"ax",%progbits
 545              		.align	1
ARM GAS  /var/folders/_f/88qcw_5n2jl40jjphvxyt7wh0000gn/T//ccbbV1HM.s 			page 15


 546              		.p2align 2,,3
 547              		.global	exti_interrupt_flag_clear
 548              		.syntax unified
 549              		.thumb
 550              		.thumb_func
 552              	exti_interrupt_flag_clear:
 553              	.LFB129:
 554              		.cfi_startproc
 555              		@ args = 0, pretend = 0, frame = 0
 556              		@ frame_needed = 0, uses_anonymous_args = 0
 557              		@ link register save eliminated.
 558 0000 014B     		ldr	r3, .L47
 559 0002 C3F8140C 		str	r0, [r3, #3092]
 560 0006 7047     		bx	lr
 561              	.L48:
 562              		.align	2
 563              	.L47:
 564 0008 00300140 		.word	1073819648
 565              		.cfi_endproc
 566              	.LFE129:
 568              		.text
 569              	.Letext0:
 570              		.file 2 "/Applications/ARM/arm-none-eabi/include/machine/_default_types.h"
 571              		.file 3 "/Applications/ARM/arm-none-eabi/include/sys/_stdint.h"
 572              		.file 4 "../../../support/device/gd32f4xx/inc/gd32f4xx.h"
 573              		.file 5 "../../../support/device/gd32f4xx/peripherals/inc/gd32f4xx_exti.h"
ARM GAS  /var/folders/_f/88qcw_5n2jl40jjphvxyt7wh0000gn/T//ccbbV1HM.s 			page 16

