ARM GAS  /var/folders/_f/88qcw_5n2jl40jjphvxyt7wh0000gn/T//cc2pJbeY.s 			page 1


   1              		.cpu cortex-m4
   2              		.arch armv7e-m
   3              		.fpu softvfp
   4              		.eabi_attribute 20, 1
   5              		.eabi_attribute 21, 1
   6              		.eabi_attribute 23, 3
   7              		.eabi_attribute 24, 1
   8              		.eabi_attribute 25, 1
   9              		.eabi_attribute 26, 1
  10              		.eabi_attribute 30, 2
  11              		.eabi_attribute 34, 1
  12              		.eabi_attribute 18, 4
  13              		.file	"gd32f4xx_adc.c"
  14              		.text
  15              	.Ltext0:
  16              		.cfi_sections	.debug_frame
  17              		.section	.text.adc_deinit,"ax",%progbits
  18              		.align	1
  19              		.p2align 2,,3
  20              		.global	adc_deinit
  21              		.syntax unified
  22              		.thumb
  23              		.thumb_func
  25              	adc_deinit:
  26              	.LFB116:
  27              		.file 1 "../../../support/device/gd32f4xx/peripherals/src/gd32f4xx_adc.c"
   1:../../../support/device/gd32f4xx/peripherals/src/gd32f4xx_adc.c **** /*!
   2:../../../support/device/gd32f4xx/peripherals/src/gd32f4xx_adc.c ****     \file    gd32f4xx_adc.c
   3:../../../support/device/gd32f4xx/peripherals/src/gd32f4xx_adc.c ****     \brief   ADC driver
   4:../../../support/device/gd32f4xx/peripherals/src/gd32f4xx_adc.c **** 
   5:../../../support/device/gd32f4xx/peripherals/src/gd32f4xx_adc.c ****     \version 2016-08-15, V1.0.0, firmware for GD32F4xx
   6:../../../support/device/gd32f4xx/peripherals/src/gd32f4xx_adc.c ****     \version 2018-12-12, V2.0.0, firmware for GD32F4xx
   7:../../../support/device/gd32f4xx/peripherals/src/gd32f4xx_adc.c ****     \version 2020-09-30, V2.1.0, firmware for GD32F4xx
   8:../../../support/device/gd32f4xx/peripherals/src/gd32f4xx_adc.c ****     \version 2022-03-09, V3.0.0, firmware for GD32F4xx
   9:../../../support/device/gd32f4xx/peripherals/src/gd32f4xx_adc.c **** */
  10:../../../support/device/gd32f4xx/peripherals/src/gd32f4xx_adc.c **** 
  11:../../../support/device/gd32f4xx/peripherals/src/gd32f4xx_adc.c **** /*
  12:../../../support/device/gd32f4xx/peripherals/src/gd32f4xx_adc.c ****     Copyright (c) 2022, GigaDevice Semiconductor Inc.
  13:../../../support/device/gd32f4xx/peripherals/src/gd32f4xx_adc.c **** 
  14:../../../support/device/gd32f4xx/peripherals/src/gd32f4xx_adc.c ****     Redistribution and use in source and binary forms, with or without modification,
  15:../../../support/device/gd32f4xx/peripherals/src/gd32f4xx_adc.c **** are permitted provided that the following conditions are met:
  16:../../../support/device/gd32f4xx/peripherals/src/gd32f4xx_adc.c **** 
  17:../../../support/device/gd32f4xx/peripherals/src/gd32f4xx_adc.c ****     1. Redistributions of source code must retain the above copyright notice, this
  18:../../../support/device/gd32f4xx/peripherals/src/gd32f4xx_adc.c ****        list of conditions and the following disclaimer.
  19:../../../support/device/gd32f4xx/peripherals/src/gd32f4xx_adc.c ****     2. Redistributions in binary form must reproduce the above copyright notice,
  20:../../../support/device/gd32f4xx/peripherals/src/gd32f4xx_adc.c ****        this list of conditions and the following disclaimer in the documentation
  21:../../../support/device/gd32f4xx/peripherals/src/gd32f4xx_adc.c ****        and/or other materials provided with the distribution.
  22:../../../support/device/gd32f4xx/peripherals/src/gd32f4xx_adc.c ****     3. Neither the name of the copyright holder nor the names of its contributors
  23:../../../support/device/gd32f4xx/peripherals/src/gd32f4xx_adc.c ****        may be used to endorse or promote products derived from this software without
  24:../../../support/device/gd32f4xx/peripherals/src/gd32f4xx_adc.c ****        specific prior written permission.
  25:../../../support/device/gd32f4xx/peripherals/src/gd32f4xx_adc.c **** 
  26:../../../support/device/gd32f4xx/peripherals/src/gd32f4xx_adc.c ****     THIS SOFTWARE IS PROVIDED BY THE COPYRIGHT HOLDERS AND CONTRIBUTORS "AS IS"
  27:../../../support/device/gd32f4xx/peripherals/src/gd32f4xx_adc.c **** AND ANY EXPRESS OR IMPLIED WARRANTIES, INCLUDING, BUT NOT LIMITED TO, THE IMPLIED
  28:../../../support/device/gd32f4xx/peripherals/src/gd32f4xx_adc.c **** WARRANTIES OF MERCHANTABILITY AND FITNESS FOR A PARTICULAR PURPOSE ARE DISCLAIMED.
  29:../../../support/device/gd32f4xx/peripherals/src/gd32f4xx_adc.c **** IN NO EVENT SHALL THE COPYRIGHT HOLDER OR CONTRIBUTORS BE LIABLE FOR ANY DIRECT,
  30:../../../support/device/gd32f4xx/peripherals/src/gd32f4xx_adc.c **** INDIRECT, INCIDENTAL, SPECIAL, EXEMPLARY, OR CONSEQUENTIAL DAMAGES (INCLUDING, BUT
  31:../../../support/device/gd32f4xx/peripherals/src/gd32f4xx_adc.c **** NOT LIMITED TO, PROCUREMENT OF SUBSTITUTE GOODS OR SERVICES; LOSS OF USE, DATA, OR
ARM GAS  /var/folders/_f/88qcw_5n2jl40jjphvxyt7wh0000gn/T//cc2pJbeY.s 			page 2


  32:../../../support/device/gd32f4xx/peripherals/src/gd32f4xx_adc.c **** PROFITS; OR BUSINESS INTERRUPTION) HOWEVER CAUSED AND ON ANY THEORY OF LIABILITY,
  33:../../../support/device/gd32f4xx/peripherals/src/gd32f4xx_adc.c **** WHETHER IN CONTRACT, STRICT LIABILITY, OR TORT (INCLUDING NEGLIGENCE OR OTHERWISE)
  34:../../../support/device/gd32f4xx/peripherals/src/gd32f4xx_adc.c **** ARISING IN ANY WAY OUT OF THE USE OF THIS SOFTWARE, EVEN IF ADVISED OF THE POSSIBILITY
  35:../../../support/device/gd32f4xx/peripherals/src/gd32f4xx_adc.c **** OF SUCH DAMAGE.
  36:../../../support/device/gd32f4xx/peripherals/src/gd32f4xx_adc.c **** */
  37:../../../support/device/gd32f4xx/peripherals/src/gd32f4xx_adc.c **** 
  38:../../../support/device/gd32f4xx/peripherals/src/gd32f4xx_adc.c **** #include "gd32f4xx_adc.h"
  39:../../../support/device/gd32f4xx/peripherals/src/gd32f4xx_adc.c **** 
  40:../../../support/device/gd32f4xx/peripherals/src/gd32f4xx_adc.c **** #define ROUTINE_TRIGGER_MODE                        ((uint32_t)28U)
  41:../../../support/device/gd32f4xx/peripherals/src/gd32f4xx_adc.c **** #define INSERTED_TRIGGER_MODE                       ((uint32_t)20U)
  42:../../../support/device/gd32f4xx/peripherals/src/gd32f4xx_adc.c **** /* discontinuous mode macro*/
  43:../../../support/device/gd32f4xx/peripherals/src/gd32f4xx_adc.c **** #define ADC_CHANNEL_LENGTH_SUBTRACT_ONE             ((uint8_t)1U)
  44:../../../support/device/gd32f4xx/peripherals/src/gd32f4xx_adc.c **** 
  45:../../../support/device/gd32f4xx/peripherals/src/gd32f4xx_adc.c **** /* ADC routine channel macro */
  46:../../../support/device/gd32f4xx/peripherals/src/gd32f4xx_adc.c **** #define ADC_ROUTINE_CHANNEL_RANK_SIX                ((uint8_t)6U)
  47:../../../support/device/gd32f4xx/peripherals/src/gd32f4xx_adc.c **** #define ADC_ROUTINE_CHANNEL_RANK_TWELVE             ((uint8_t)12U)
  48:../../../support/device/gd32f4xx/peripherals/src/gd32f4xx_adc.c **** #define ADC_ROUTINE_CHANNEL_RANK_SIXTEEN            ((uint8_t)16U)
  49:../../../support/device/gd32f4xx/peripherals/src/gd32f4xx_adc.c **** #define ADC_ROUTINE_CHANNEL_RANK_LENGTH             ((uint8_t)5U)
  50:../../../support/device/gd32f4xx/peripherals/src/gd32f4xx_adc.c **** 
  51:../../../support/device/gd32f4xx/peripherals/src/gd32f4xx_adc.c **** /* ADC sampling time macro */
  52:../../../support/device/gd32f4xx/peripherals/src/gd32f4xx_adc.c **** #define ADC_CHANNEL_SAMPLE_TEN                      ((uint8_t)10U)
  53:../../../support/device/gd32f4xx/peripherals/src/gd32f4xx_adc.c **** #define ADC_CHANNEL_SAMPLE_EIGHTEEN                 ((uint8_t)18U)
  54:../../../support/device/gd32f4xx/peripherals/src/gd32f4xx_adc.c **** #define ADC_CHANNEL_SAMPLE_LENGTH                   ((uint8_t)3U)
  55:../../../support/device/gd32f4xx/peripherals/src/gd32f4xx_adc.c **** 
  56:../../../support/device/gd32f4xx/peripherals/src/gd32f4xx_adc.c **** /* ADC inserted channel macro */
  57:../../../support/device/gd32f4xx/peripherals/src/gd32f4xx_adc.c **** #define ADC_INSERTED_CHANNEL_RANK_LENGTH            ((uint8_t)5U)
  58:../../../support/device/gd32f4xx/peripherals/src/gd32f4xx_adc.c **** #define ADC_INSERTED_CHANNEL_SHIFT_LENGTH           ((uint8_t)15U)
  59:../../../support/device/gd32f4xx/peripherals/src/gd32f4xx_adc.c **** 
  60:../../../support/device/gd32f4xx/peripherals/src/gd32f4xx_adc.c **** /* ADC inserted channel offset macro */
  61:../../../support/device/gd32f4xx/peripherals/src/gd32f4xx_adc.c **** #define ADC_OFFSET_LENGTH                           ((uint8_t)3U)
  62:../../../support/device/gd32f4xx/peripherals/src/gd32f4xx_adc.c **** #define ADC_OFFSET_SHIFT_LENGTH                     ((uint8_t)4U)
  63:../../../support/device/gd32f4xx/peripherals/src/gd32f4xx_adc.c **** 
  64:../../../support/device/gd32f4xx/peripherals/src/gd32f4xx_adc.c **** /*!
  65:../../../support/device/gd32f4xx/peripherals/src/gd32f4xx_adc.c ****     \brief    reset ADC
  66:../../../support/device/gd32f4xx/peripherals/src/gd32f4xx_adc.c ****     \param[in]  none
  67:../../../support/device/gd32f4xx/peripherals/src/gd32f4xx_adc.c ****     \param[out] none
  68:../../../support/device/gd32f4xx/peripherals/src/gd32f4xx_adc.c ****     \retval     none
  69:../../../support/device/gd32f4xx/peripherals/src/gd32f4xx_adc.c **** */
  70:../../../support/device/gd32f4xx/peripherals/src/gd32f4xx_adc.c **** void adc_deinit(void)
  71:../../../support/device/gd32f4xx/peripherals/src/gd32f4xx_adc.c **** {
  28              		.loc 1 71 1 view -0
  29              		.cfi_startproc
  30              		@ args = 0, pretend = 0, frame = 0
  31              		@ frame_needed = 0, uses_anonymous_args = 0
  72:../../../support/device/gd32f4xx/peripherals/src/gd32f4xx_adc.c ****     rcu_periph_reset_enable(RCU_ADCRST);
  32              		.loc 1 72 5 view .LVU1
  71:../../../support/device/gd32f4xx/peripherals/src/gd32f4xx_adc.c ****     rcu_periph_reset_enable(RCU_ADCRST);
  33              		.loc 1 71 1 is_stmt 0 view .LVU2
  34 0000 08B5     		push	{r3, lr}
  35              	.LCFI0:
  36              		.cfi_def_cfa_offset 8
  37              		.cfi_offset 3, -8
  38              		.cfi_offset 14, -4
  39              		.loc 1 72 5 view .LVU3
  40 0002 40F60810 		movw	r0, #2312
  41 0006 FFF7FEFF 		bl	rcu_periph_reset_enable
  42              	.LVL0:
ARM GAS  /var/folders/_f/88qcw_5n2jl40jjphvxyt7wh0000gn/T//cc2pJbeY.s 			page 3


  73:../../../support/device/gd32f4xx/peripherals/src/gd32f4xx_adc.c ****     rcu_periph_reset_disable(RCU_ADCRST);
  43              		.loc 1 73 5 is_stmt 1 view .LVU4
  74:../../../support/device/gd32f4xx/peripherals/src/gd32f4xx_adc.c **** }
  44              		.loc 1 74 1 is_stmt 0 view .LVU5
  45 000a BDE80840 		pop	{r3, lr}
  46              	.LCFI1:
  47              		.cfi_restore 14
  48              		.cfi_restore 3
  49              		.cfi_def_cfa_offset 0
  73:../../../support/device/gd32f4xx/peripherals/src/gd32f4xx_adc.c ****     rcu_periph_reset_disable(RCU_ADCRST);
  50              		.loc 1 73 5 view .LVU6
  51 000e 40F60810 		movw	r0, #2312
  52 0012 FFF7FEBF 		b	rcu_periph_reset_disable
  53              	.LVL1:
  54              		.cfi_endproc
  55              	.LFE116:
  57 0016 00BF     		.section	.text.adc_clock_config,"ax",%progbits
  58              		.align	1
  59              		.p2align 2,,3
  60              		.global	adc_clock_config
  61              		.syntax unified
  62              		.thumb
  63              		.thumb_func
  65              	adc_clock_config:
  66              	.LVL2:
  67              	.LFB117:
  75:../../../support/device/gd32f4xx/peripherals/src/gd32f4xx_adc.c **** 
  76:../../../support/device/gd32f4xx/peripherals/src/gd32f4xx_adc.c **** /*!
  77:../../../support/device/gd32f4xx/peripherals/src/gd32f4xx_adc.c ****     \brief        configure the ADC clock for all the ADCs
  78:../../../support/device/gd32f4xx/peripherals/src/gd32f4xx_adc.c ****     \param[in]    prescaler: configure ADCs prescaler ratio
  79:../../../support/device/gd32f4xx/peripherals/src/gd32f4xx_adc.c ****                   only one parameter can be selected which is shown as below:
  80:../../../support/device/gd32f4xx/peripherals/src/gd32f4xx_adc.c ****       \arg        ADC_ADCCK_PCLK2_DIV2: PCLK2 div2
  81:../../../support/device/gd32f4xx/peripherals/src/gd32f4xx_adc.c ****       \arg        ADC_ADCCK_PCLK2_DIV4: PCLK2 div4
  82:../../../support/device/gd32f4xx/peripherals/src/gd32f4xx_adc.c ****       \arg        ADC_ADCCK_PCLK2_DIV6: PCLK2 div6
  83:../../../support/device/gd32f4xx/peripherals/src/gd32f4xx_adc.c ****       \arg        ADC_ADCCK_PCLK2_DIV8: PCLK2 div8
  84:../../../support/device/gd32f4xx/peripherals/src/gd32f4xx_adc.c ****       \arg        ADC_ADCCK_HCLK_DIV5: HCLK div5
  85:../../../support/device/gd32f4xx/peripherals/src/gd32f4xx_adc.c ****       \arg        ADC_ADCCK_HCLK_DIV6: HCLK div6
  86:../../../support/device/gd32f4xx/peripherals/src/gd32f4xx_adc.c ****       \arg        ADC_ADCCK_HCLK_DIV10: HCLK div10
  87:../../../support/device/gd32f4xx/peripherals/src/gd32f4xx_adc.c ****       \arg        ADC_ADCCK_HCLK_DIV20: HCLK div20
  88:../../../support/device/gd32f4xx/peripherals/src/gd32f4xx_adc.c ****     \param[out]   none
  89:../../../support/device/gd32f4xx/peripherals/src/gd32f4xx_adc.c ****     \retval       none
  90:../../../support/device/gd32f4xx/peripherals/src/gd32f4xx_adc.c **** */
  91:../../../support/device/gd32f4xx/peripherals/src/gd32f4xx_adc.c **** void adc_clock_config(uint32_t prescaler)
  92:../../../support/device/gd32f4xx/peripherals/src/gd32f4xx_adc.c **** {
  68              		.loc 1 92 1 is_stmt 1 view -0
  69              		.cfi_startproc
  70              		@ args = 0, pretend = 0, frame = 0
  71              		@ frame_needed = 0, uses_anonymous_args = 0
  72              		@ link register save eliminated.
  93:../../../support/device/gd32f4xx/peripherals/src/gd32f4xx_adc.c ****     ADC_SYNCCTL &= ~((uint32_t)ADC_SYNCCTL_ADCCK);
  73              		.loc 1 93 5 view .LVU8
  74              		.loc 1 93 17 is_stmt 0 view .LVU9
  75 0000 064B     		ldr	r3, .L5
  76 0002 D3F80413 		ldr	r1, [r3, #772]
  77 0006 21F4E021 		bic	r1, r1, #458752
  78 000a C3F80413 		str	r1, [r3, #772]
  94:../../../support/device/gd32f4xx/peripherals/src/gd32f4xx_adc.c ****     ADC_SYNCCTL |= (uint32_t) prescaler;
ARM GAS  /var/folders/_f/88qcw_5n2jl40jjphvxyt7wh0000gn/T//cc2pJbeY.s 			page 4


  79              		.loc 1 94 5 is_stmt 1 view .LVU10
  80              		.loc 1 94 17 is_stmt 0 view .LVU11
  81 000e D3F80423 		ldr	r2, [r3, #772]
  82 0012 0243     		orrs	r2, r2, r0
  83 0014 C3F80423 		str	r2, [r3, #772]
  95:../../../support/device/gd32f4xx/peripherals/src/gd32f4xx_adc.c **** }
  84              		.loc 1 95 1 view .LVU12
  85 0018 7047     		bx	lr
  86              	.L6:
  87 001a 00BF     		.align	2
  88              	.L5:
  89 001c 00200140 		.word	1073815552
  90              		.cfi_endproc
  91              	.LFE117:
  93              		.section	.text.adc_special_function_config,"ax",%progbits
  94              		.align	1
  95              		.p2align 2,,3
  96              		.global	adc_special_function_config
  97              		.syntax unified
  98              		.thumb
  99              		.thumb_func
 101              	adc_special_function_config:
 102              	.LVL3:
 103              	.LFB118:
  96:../../../support/device/gd32f4xx/peripherals/src/gd32f4xx_adc.c **** 
  97:../../../support/device/gd32f4xx/peripherals/src/gd32f4xx_adc.c **** /*!
  98:../../../support/device/gd32f4xx/peripherals/src/gd32f4xx_adc.c ****     \brief        enable or disable ADC special function
  99:../../../support/device/gd32f4xx/peripherals/src/gd32f4xx_adc.c ****     \param[in]    adc_periph: ADCx,x=0,1,2
 100:../../../support/device/gd32f4xx/peripherals/src/gd32f4xx_adc.c ****     \param[in]    function: the function to config
 101:../../../support/device/gd32f4xx/peripherals/src/gd32f4xx_adc.c ****                   only one parameter can be selected which is shown as below:
 102:../../../support/device/gd32f4xx/peripherals/src/gd32f4xx_adc.c ****     \arg          ADC_SCAN_MODE: scan mode select
 103:../../../support/device/gd32f4xx/peripherals/src/gd32f4xx_adc.c ****     \arg          ADC_INSERTED_CHANNEL_AUTO: inserted sequence convert automatically
 104:../../../support/device/gd32f4xx/peripherals/src/gd32f4xx_adc.c ****     \arg          ADC_CONTINUOUS_MODE: continuous mode select
 105:../../../support/device/gd32f4xx/peripherals/src/gd32f4xx_adc.c ****     \param[in]    newvalue: ENABLE or DISABLE
 106:../../../support/device/gd32f4xx/peripherals/src/gd32f4xx_adc.c ****     \param[out]   none
 107:../../../support/device/gd32f4xx/peripherals/src/gd32f4xx_adc.c ****     \retval       none
 108:../../../support/device/gd32f4xx/peripherals/src/gd32f4xx_adc.c **** */
 109:../../../support/device/gd32f4xx/peripherals/src/gd32f4xx_adc.c **** void adc_special_function_config(uint32_t adc_periph, uint32_t function, ControlStatus newvalue)
 110:../../../support/device/gd32f4xx/peripherals/src/gd32f4xx_adc.c **** {
 104              		.loc 1 110 1 is_stmt 1 view -0
 105              		.cfi_startproc
 106              		@ args = 0, pretend = 0, frame = 0
 107              		@ frame_needed = 0, uses_anonymous_args = 0
 108              		@ link register save eliminated.
 111:../../../support/device/gd32f4xx/peripherals/src/gd32f4xx_adc.c ****     if(newvalue) {
 109              		.loc 1 111 5 view .LVU14
 110              		.loc 1 111 7 is_stmt 0 view .LVU15
 111 0000 92B1     		cbz	r2, .L8
 112:../../../support/device/gd32f4xx/peripherals/src/gd32f4xx_adc.c ****         if(0U != (function & ADC_SCAN_MODE)) {
 112              		.loc 1 112 9 is_stmt 1 view .LVU16
 113              		.loc 1 112 11 is_stmt 0 view .LVU17
 114 0002 CA05     		lsls	r2, r1, #23
 115              	.LVL4:
 116              		.loc 1 112 11 view .LVU18
 117 0004 03D5     		bpl	.L9
 113:../../../support/device/gd32f4xx/peripherals/src/gd32f4xx_adc.c ****             /* enable scan mode */
 114:../../../support/device/gd32f4xx/peripherals/src/gd32f4xx_adc.c ****             ADC_CTL0(adc_periph) |= ADC_SCAN_MODE;
ARM GAS  /var/folders/_f/88qcw_5n2jl40jjphvxyt7wh0000gn/T//cc2pJbeY.s 			page 5


 118              		.loc 1 114 13 is_stmt 1 view .LVU19
 119              		.loc 1 114 34 is_stmt 0 view .LVU20
 120 0006 4368     		ldr	r3, [r0, #4]
 121 0008 43F48073 		orr	r3, r3, #256
 122 000c 4360     		str	r3, [r0, #4]
 123              	.L9:
 115:../../../support/device/gd32f4xx/peripherals/src/gd32f4xx_adc.c ****         }
 116:../../../support/device/gd32f4xx/peripherals/src/gd32f4xx_adc.c ****         if(0U != (function & ADC_INSERTED_CHANNEL_AUTO)) {
 124              		.loc 1 116 9 is_stmt 1 view .LVU21
 125              		.loc 1 116 11 is_stmt 0 view .LVU22
 126 000e 4B05     		lsls	r3, r1, #21
 127 0010 03D5     		bpl	.L10
 117:../../../support/device/gd32f4xx/peripherals/src/gd32f4xx_adc.c ****             /* enable inserted sequence convert automatically */
 118:../../../support/device/gd32f4xx/peripherals/src/gd32f4xx_adc.c ****             ADC_CTL0(adc_periph) |= ADC_INSERTED_CHANNEL_AUTO;
 128              		.loc 1 118 13 is_stmt 1 view .LVU23
 129              		.loc 1 118 34 is_stmt 0 view .LVU24
 130 0012 4368     		ldr	r3, [r0, #4]
 131 0014 43F48063 		orr	r3, r3, #1024
 132 0018 4360     		str	r3, [r0, #4]
 133              	.L10:
 119:../../../support/device/gd32f4xx/peripherals/src/gd32f4xx_adc.c ****         }
 120:../../../support/device/gd32f4xx/peripherals/src/gd32f4xx_adc.c ****         if(0U != (function & ADC_CONTINUOUS_MODE)) {
 134              		.loc 1 120 9 is_stmt 1 view .LVU25
 135              		.loc 1 120 11 is_stmt 0 view .LVU26
 136 001a 8A07     		lsls	r2, r1, #30
 137 001c 0AD5     		bpl	.L7
 121:../../../support/device/gd32f4xx/peripherals/src/gd32f4xx_adc.c ****             /* enable continuous mode */
 122:../../../support/device/gd32f4xx/peripherals/src/gd32f4xx_adc.c ****             ADC_CTL1(adc_periph) |= ADC_CONTINUOUS_MODE;
 138              		.loc 1 122 13 is_stmt 1 view .LVU27
 139              		.loc 1 122 34 is_stmt 0 view .LVU28
 140 001e 8368     		ldr	r3, [r0, #8]
 141 0020 43F00203 		orr	r3, r3, #2
 142 0024 8360     		str	r3, [r0, #8]
 143 0026 7047     		bx	lr
 144              	.LVL5:
 145              	.L8:
 123:../../../support/device/gd32f4xx/peripherals/src/gd32f4xx_adc.c ****         }
 124:../../../support/device/gd32f4xx/peripherals/src/gd32f4xx_adc.c ****     } else {
 125:../../../support/device/gd32f4xx/peripherals/src/gd32f4xx_adc.c ****         if(0U != (function & ADC_SCAN_MODE)) {
 146              		.loc 1 125 9 is_stmt 1 view .LVU29
 147              		.loc 1 125 11 is_stmt 0 view .LVU30
 148 0028 CB05     		lsls	r3, r1, #23
 149 002a 10D4     		bmi	.L31
 126:../../../support/device/gd32f4xx/peripherals/src/gd32f4xx_adc.c ****             /* disable scan mode */
 127:../../../support/device/gd32f4xx/peripherals/src/gd32f4xx_adc.c ****             ADC_CTL0(adc_periph) &= ~ADC_SCAN_MODE;
 128:../../../support/device/gd32f4xx/peripherals/src/gd32f4xx_adc.c ****         }
 129:../../../support/device/gd32f4xx/peripherals/src/gd32f4xx_adc.c ****         if(0U != (function & ADC_INSERTED_CHANNEL_AUTO)) {
 150              		.loc 1 129 9 is_stmt 1 view .LVU31
 151              		.loc 1 129 11 is_stmt 0 view .LVU32
 152 002c 4A05     		lsls	r2, r1, #21
 153              	.LVL6:
 154              		.loc 1 129 11 view .LVU33
 155 002e 07D4     		bmi	.L32
 156              	.L14:
 130:../../../support/device/gd32f4xx/peripherals/src/gd32f4xx_adc.c ****             /* disable inserted sequence convert automatically */
 131:../../../support/device/gd32f4xx/peripherals/src/gd32f4xx_adc.c ****             ADC_CTL0(adc_periph) &= ~ADC_INSERTED_CHANNEL_AUTO;
 132:../../../support/device/gd32f4xx/peripherals/src/gd32f4xx_adc.c ****         }
ARM GAS  /var/folders/_f/88qcw_5n2jl40jjphvxyt7wh0000gn/T//cc2pJbeY.s 			page 6


 133:../../../support/device/gd32f4xx/peripherals/src/gd32f4xx_adc.c ****         if(0U != (function & ADC_CONTINUOUS_MODE)) {
 157              		.loc 1 133 9 is_stmt 1 view .LVU34
 158              		.loc 1 133 11 is_stmt 0 view .LVU35
 159 0030 8B07     		lsls	r3, r1, #30
 160 0032 00D4     		bmi	.L33
 161              	.L7:
 134:../../../support/device/gd32f4xx/peripherals/src/gd32f4xx_adc.c ****             /* disable continuous mode */
 135:../../../support/device/gd32f4xx/peripherals/src/gd32f4xx_adc.c ****             ADC_CTL1(adc_periph) &= ~ADC_CONTINUOUS_MODE;
 136:../../../support/device/gd32f4xx/peripherals/src/gd32f4xx_adc.c ****         }
 137:../../../support/device/gd32f4xx/peripherals/src/gd32f4xx_adc.c ****     }
 138:../../../support/device/gd32f4xx/peripherals/src/gd32f4xx_adc.c **** }
 162              		.loc 1 138 1 view .LVU36
 163 0034 7047     		bx	lr
 164              	.L33:
 135:../../../support/device/gd32f4xx/peripherals/src/gd32f4xx_adc.c ****         }
 165              		.loc 1 135 13 is_stmt 1 view .LVU37
 135:../../../support/device/gd32f4xx/peripherals/src/gd32f4xx_adc.c ****         }
 166              		.loc 1 135 34 is_stmt 0 view .LVU38
 167 0036 8368     		ldr	r3, [r0, #8]
 168 0038 23F00203 		bic	r3, r3, #2
 169 003c 8360     		str	r3, [r0, #8]
 170              		.loc 1 138 1 view .LVU39
 171 003e 7047     		bx	lr
 172              	.L32:
 131:../../../support/device/gd32f4xx/peripherals/src/gd32f4xx_adc.c ****         }
 173              		.loc 1 131 13 is_stmt 1 view .LVU40
 131:../../../support/device/gd32f4xx/peripherals/src/gd32f4xx_adc.c ****         }
 174              		.loc 1 131 34 is_stmt 0 view .LVU41
 175 0040 4368     		ldr	r3, [r0, #4]
 176 0042 23F48063 		bic	r3, r3, #1024
 177 0046 4360     		str	r3, [r0, #4]
 133:../../../support/device/gd32f4xx/peripherals/src/gd32f4xx_adc.c ****             /* disable continuous mode */
 178              		.loc 1 133 9 is_stmt 1 view .LVU42
 133:../../../support/device/gd32f4xx/peripherals/src/gd32f4xx_adc.c ****             /* disable continuous mode */
 179              		.loc 1 133 11 is_stmt 0 view .LVU43
 180 0048 8B07     		lsls	r3, r1, #30
 181 004a F3D5     		bpl	.L7
 182 004c F3E7     		b	.L33
 183              	.LVL7:
 184              	.L31:
 127:../../../support/device/gd32f4xx/peripherals/src/gd32f4xx_adc.c ****         }
 185              		.loc 1 127 13 is_stmt 1 view .LVU44
 127:../../../support/device/gd32f4xx/peripherals/src/gd32f4xx_adc.c ****         }
 186              		.loc 1 127 34 is_stmt 0 view .LVU45
 187 004e 4368     		ldr	r3, [r0, #4]
 129:../../../support/device/gd32f4xx/peripherals/src/gd32f4xx_adc.c ****             /* disable inserted sequence convert automatically */
 188              		.loc 1 129 11 view .LVU46
 189 0050 4A05     		lsls	r2, r1, #21
 190              	.LVL8:
 127:../../../support/device/gd32f4xx/peripherals/src/gd32f4xx_adc.c ****         }
 191              		.loc 1 127 34 view .LVU47
 192 0052 23F48073 		bic	r3, r3, #256
 193 0056 4360     		str	r3, [r0, #4]
 129:../../../support/device/gd32f4xx/peripherals/src/gd32f4xx_adc.c ****             /* disable inserted sequence convert automatically */
 194              		.loc 1 129 9 is_stmt 1 view .LVU48
 129:../../../support/device/gd32f4xx/peripherals/src/gd32f4xx_adc.c ****             /* disable inserted sequence convert automatically */
 195              		.loc 1 129 11 is_stmt 0 view .LVU49
ARM GAS  /var/folders/_f/88qcw_5n2jl40jjphvxyt7wh0000gn/T//cc2pJbeY.s 			page 7


 196 0058 EAD5     		bpl	.L14
 197 005a F1E7     		b	.L32
 198              		.cfi_endproc
 199              	.LFE118:
 201              		.section	.text.adc_data_alignment_config,"ax",%progbits
 202              		.align	1
 203              		.p2align 2,,3
 204              		.global	adc_data_alignment_config
 205              		.syntax unified
 206              		.thumb
 207              		.thumb_func
 209              	adc_data_alignment_config:
 210              	.LVL9:
 211              	.LFB119:
 139:../../../support/device/gd32f4xx/peripherals/src/gd32f4xx_adc.c **** 
 140:../../../support/device/gd32f4xx/peripherals/src/gd32f4xx_adc.c **** /*!
 141:../../../support/device/gd32f4xx/peripherals/src/gd32f4xx_adc.c ****     \brief        configure ADC data alignment
 142:../../../support/device/gd32f4xx/peripherals/src/gd32f4xx_adc.c ****     \param[in]    adc_periph: ADCx,x=0,1,2
 143:../../../support/device/gd32f4xx/peripherals/src/gd32f4xx_adc.c ****     \param[in]    data_alignment: data alignment select
 144:../../../support/device/gd32f4xx/peripherals/src/gd32f4xx_adc.c ****                   only one parameter can be selected which is shown as below:
 145:../../../support/device/gd32f4xx/peripherals/src/gd32f4xx_adc.c ****     \arg          ADC_DATAALIGN_RIGHT: LSB alignment
 146:../../../support/device/gd32f4xx/peripherals/src/gd32f4xx_adc.c ****     \arg          ADC_DATAALIGN_LEFT: MSB alignment
 147:../../../support/device/gd32f4xx/peripherals/src/gd32f4xx_adc.c ****     \param[out]   none
 148:../../../support/device/gd32f4xx/peripherals/src/gd32f4xx_adc.c ****     \retval       none
 149:../../../support/device/gd32f4xx/peripherals/src/gd32f4xx_adc.c **** */
 150:../../../support/device/gd32f4xx/peripherals/src/gd32f4xx_adc.c **** void adc_data_alignment_config(uint32_t adc_periph, uint32_t data_alignment)
 151:../../../support/device/gd32f4xx/peripherals/src/gd32f4xx_adc.c **** {
 212              		.loc 1 151 1 is_stmt 1 view -0
 213              		.cfi_startproc
 214              		@ args = 0, pretend = 0, frame = 0
 215              		@ frame_needed = 0, uses_anonymous_args = 0
 216              		@ link register save eliminated.
 152:../../../support/device/gd32f4xx/peripherals/src/gd32f4xx_adc.c ****     if(ADC_DATAALIGN_RIGHT != data_alignment) {
 217              		.loc 1 152 5 view .LVU51
 153:../../../support/device/gd32f4xx/peripherals/src/gd32f4xx_adc.c ****         /* MSB alignment */
 154:../../../support/device/gd32f4xx/peripherals/src/gd32f4xx_adc.c ****         ADC_CTL1(adc_periph) |= ADC_CTL1_DAL;
 218              		.loc 1 154 30 is_stmt 0 view .LVU52
 219 0000 8368     		ldr	r3, [r0, #8]
 152:../../../support/device/gd32f4xx/peripherals/src/gd32f4xx_adc.c ****     if(ADC_DATAALIGN_RIGHT != data_alignment) {
 220              		.loc 1 152 7 view .LVU53
 221 0002 19B1     		cbz	r1, .L35
 222              		.loc 1 154 9 is_stmt 1 view .LVU54
 223              		.loc 1 154 30 is_stmt 0 view .LVU55
 224 0004 43F40063 		orr	r3, r3, #2048
 225 0008 8360     		str	r3, [r0, #8]
 226 000a 7047     		bx	lr
 227              	.L35:
 155:../../../support/device/gd32f4xx/peripherals/src/gd32f4xx_adc.c ****     } else {
 156:../../../support/device/gd32f4xx/peripherals/src/gd32f4xx_adc.c ****         /* LSB alignment */
 157:../../../support/device/gd32f4xx/peripherals/src/gd32f4xx_adc.c ****         ADC_CTL1(adc_periph) &= ~((uint32_t)ADC_CTL1_DAL);
 228              		.loc 1 157 9 is_stmt 1 view .LVU56
 229              		.loc 1 157 30 is_stmt 0 view .LVU57
 230 000c 23F40063 		bic	r3, r3, #2048
 231 0010 8360     		str	r3, [r0, #8]
 158:../../../support/device/gd32f4xx/peripherals/src/gd32f4xx_adc.c ****     }
 159:../../../support/device/gd32f4xx/peripherals/src/gd32f4xx_adc.c **** }
 232              		.loc 1 159 1 view .LVU58
ARM GAS  /var/folders/_f/88qcw_5n2jl40jjphvxyt7wh0000gn/T//cc2pJbeY.s 			page 8


 233 0012 7047     		bx	lr
 234              		.cfi_endproc
 235              	.LFE119:
 237              		.section	.text.adc_enable,"ax",%progbits
 238              		.align	1
 239              		.p2align 2,,3
 240              		.global	adc_enable
 241              		.syntax unified
 242              		.thumb
 243              		.thumb_func
 245              	adc_enable:
 246              	.LVL10:
 247              	.LFB120:
 160:../../../support/device/gd32f4xx/peripherals/src/gd32f4xx_adc.c **** 
 161:../../../support/device/gd32f4xx/peripherals/src/gd32f4xx_adc.c **** /*!
 162:../../../support/device/gd32f4xx/peripherals/src/gd32f4xx_adc.c ****     \brief        enable ADC interface
 163:../../../support/device/gd32f4xx/peripherals/src/gd32f4xx_adc.c ****     \param[in]    adc_periph: ADCx,x=0,1,2
 164:../../../support/device/gd32f4xx/peripherals/src/gd32f4xx_adc.c ****     \param[out]   none
 165:../../../support/device/gd32f4xx/peripherals/src/gd32f4xx_adc.c ****     \retval       none
 166:../../../support/device/gd32f4xx/peripherals/src/gd32f4xx_adc.c **** */
 167:../../../support/device/gd32f4xx/peripherals/src/gd32f4xx_adc.c **** void adc_enable(uint32_t adc_periph)
 168:../../../support/device/gd32f4xx/peripherals/src/gd32f4xx_adc.c **** {
 248              		.loc 1 168 1 is_stmt 1 view -0
 249              		.cfi_startproc
 250              		@ args = 0, pretend = 0, frame = 0
 251              		@ frame_needed = 0, uses_anonymous_args = 0
 252              		@ link register save eliminated.
 169:../../../support/device/gd32f4xx/peripherals/src/gd32f4xx_adc.c ****     if(RESET == (ADC_CTL1(adc_periph) & ADC_CTL1_ADCON)) {
 253              		.loc 1 169 5 view .LVU60
 254              		.loc 1 169 18 is_stmt 0 view .LVU61
 255 0000 8368     		ldr	r3, [r0, #8]
 256              		.loc 1 169 7 view .LVU62
 257 0002 DB07     		lsls	r3, r3, #31
 258 0004 03D4     		bmi	.L37
 170:../../../support/device/gd32f4xx/peripherals/src/gd32f4xx_adc.c ****         /* enable ADC */
 171:../../../support/device/gd32f4xx/peripherals/src/gd32f4xx_adc.c ****         ADC_CTL1(adc_periph) |= (uint32_t)ADC_CTL1_ADCON;
 259              		.loc 1 171 9 is_stmt 1 view .LVU63
 260              		.loc 1 171 30 is_stmt 0 view .LVU64
 261 0006 8368     		ldr	r3, [r0, #8]
 262 0008 43F00103 		orr	r3, r3, #1
 263 000c 8360     		str	r3, [r0, #8]
 264              	.L37:
 172:../../../support/device/gd32f4xx/peripherals/src/gd32f4xx_adc.c ****     }
 173:../../../support/device/gd32f4xx/peripherals/src/gd32f4xx_adc.c **** }
 265              		.loc 1 173 1 view .LVU65
 266 000e 7047     		bx	lr
 267              		.cfi_endproc
 268              	.LFE120:
 270              		.section	.text.adc_disable,"ax",%progbits
 271              		.align	1
 272              		.p2align 2,,3
 273              		.global	adc_disable
 274              		.syntax unified
 275              		.thumb
 276              		.thumb_func
 278              	adc_disable:
 279              	.LVL11:
ARM GAS  /var/folders/_f/88qcw_5n2jl40jjphvxyt7wh0000gn/T//cc2pJbeY.s 			page 9


 280              	.LFB121:
 174:../../../support/device/gd32f4xx/peripherals/src/gd32f4xx_adc.c **** 
 175:../../../support/device/gd32f4xx/peripherals/src/gd32f4xx_adc.c **** /*!
 176:../../../support/device/gd32f4xx/peripherals/src/gd32f4xx_adc.c ****     \brief        disable ADC interface
 177:../../../support/device/gd32f4xx/peripherals/src/gd32f4xx_adc.c ****     \param[in]    adc_periph: ADCx,x=0,1,2
 178:../../../support/device/gd32f4xx/peripherals/src/gd32f4xx_adc.c ****     \param[out]   none
 179:../../../support/device/gd32f4xx/peripherals/src/gd32f4xx_adc.c ****     \retval       none
 180:../../../support/device/gd32f4xx/peripherals/src/gd32f4xx_adc.c **** */
 181:../../../support/device/gd32f4xx/peripherals/src/gd32f4xx_adc.c **** void adc_disable(uint32_t adc_periph)
 182:../../../support/device/gd32f4xx/peripherals/src/gd32f4xx_adc.c **** {
 281              		.loc 1 182 1 is_stmt 1 view -0
 282              		.cfi_startproc
 283              		@ args = 0, pretend = 0, frame = 0
 284              		@ frame_needed = 0, uses_anonymous_args = 0
 285              		@ link register save eliminated.
 183:../../../support/device/gd32f4xx/peripherals/src/gd32f4xx_adc.c ****     /* disable ADC */
 184:../../../support/device/gd32f4xx/peripherals/src/gd32f4xx_adc.c ****     ADC_CTL1(adc_periph) &= ~((uint32_t)ADC_CTL1_ADCON);
 286              		.loc 1 184 5 view .LVU67
 287              		.loc 1 184 26 is_stmt 0 view .LVU68
 288 0000 8368     		ldr	r3, [r0, #8]
 289 0002 23F00103 		bic	r3, r3, #1
 290 0006 8360     		str	r3, [r0, #8]
 185:../../../support/device/gd32f4xx/peripherals/src/gd32f4xx_adc.c **** }
 291              		.loc 1 185 1 view .LVU69
 292 0008 7047     		bx	lr
 293              		.cfi_endproc
 294              	.LFE121:
 296 000a 00BF     		.section	.text.adc_calibration_enable,"ax",%progbits
 297              		.align	1
 298              		.p2align 2,,3
 299              		.global	adc_calibration_enable
 300              		.syntax unified
 301              		.thumb
 302              		.thumb_func
 304              	adc_calibration_enable:
 305              	.LVL12:
 306              	.LFB122:
 186:../../../support/device/gd32f4xx/peripherals/src/gd32f4xx_adc.c **** 
 187:../../../support/device/gd32f4xx/peripherals/src/gd32f4xx_adc.c **** /*!
 188:../../../support/device/gd32f4xx/peripherals/src/gd32f4xx_adc.c ****     \brief        ADC calibration and reset calibration
 189:../../../support/device/gd32f4xx/peripherals/src/gd32f4xx_adc.c ****     \param[in]    adc_periph: ADCx,x=0,1,2
 190:../../../support/device/gd32f4xx/peripherals/src/gd32f4xx_adc.c ****     \param[out]   none
 191:../../../support/device/gd32f4xx/peripherals/src/gd32f4xx_adc.c ****     \retval       none
 192:../../../support/device/gd32f4xx/peripherals/src/gd32f4xx_adc.c **** */
 193:../../../support/device/gd32f4xx/peripherals/src/gd32f4xx_adc.c **** void adc_calibration_enable(uint32_t adc_periph)
 194:../../../support/device/gd32f4xx/peripherals/src/gd32f4xx_adc.c **** {
 307              		.loc 1 194 1 is_stmt 1 view -0
 308              		.cfi_startproc
 309              		@ args = 0, pretend = 0, frame = 0
 310              		@ frame_needed = 0, uses_anonymous_args = 0
 311              		@ link register save eliminated.
 195:../../../support/device/gd32f4xx/peripherals/src/gd32f4xx_adc.c ****     /* reset the selected ADC calibration registers */
 196:../../../support/device/gd32f4xx/peripherals/src/gd32f4xx_adc.c ****     ADC_CTL1(adc_periph) |= (uint32_t) ADC_CTL1_RSTCLB;
 312              		.loc 1 196 5 view .LVU71
 313              		.loc 1 196 26 is_stmt 0 view .LVU72
 314 0000 8268     		ldr	r2, [r0, #8]
 315 0002 42F00802 		orr	r2, r2, #8
ARM GAS  /var/folders/_f/88qcw_5n2jl40jjphvxyt7wh0000gn/T//cc2pJbeY.s 			page 10


 316 0006 00F10803 		add	r3, r0, #8
 317 000a 8260     		str	r2, [r0, #8]
 197:../../../support/device/gd32f4xx/peripherals/src/gd32f4xx_adc.c ****     /* check the RSTCLB bit state */
 198:../../../support/device/gd32f4xx/peripherals/src/gd32f4xx_adc.c ****     while(RESET != (ADC_CTL1(adc_periph) & ADC_CTL1_RSTCLB)) {
 318              		.loc 1 198 5 is_stmt 1 view .LVU73
 319              	.L41:
 199:../../../support/device/gd32f4xx/peripherals/src/gd32f4xx_adc.c ****     }
 320              		.loc 1 199 5 discriminator 1 view .LVU74
 198:../../../support/device/gd32f4xx/peripherals/src/gd32f4xx_adc.c ****     }
 321              		.loc 1 198 10 discriminator 1 view .LVU75
 198:../../../support/device/gd32f4xx/peripherals/src/gd32f4xx_adc.c ****     }
 322              		.loc 1 198 21 is_stmt 0 discriminator 1 view .LVU76
 323 000c 1A68     		ldr	r2, [r3]
 198:../../../support/device/gd32f4xx/peripherals/src/gd32f4xx_adc.c ****     }
 324              		.loc 1 198 10 discriminator 1 view .LVU77
 325 000e 1107     		lsls	r1, r2, #28
 326 0010 FCD4     		bmi	.L41
 200:../../../support/device/gd32f4xx/peripherals/src/gd32f4xx_adc.c ****     /* enable ADC calibration process */
 201:../../../support/device/gd32f4xx/peripherals/src/gd32f4xx_adc.c ****     ADC_CTL1(adc_periph) |= ADC_CTL1_CLB;
 327              		.loc 1 201 5 is_stmt 1 view .LVU78
 328              		.loc 1 201 26 is_stmt 0 view .LVU79
 329 0012 8268     		ldr	r2, [r0, #8]
 330 0014 42F00402 		orr	r2, r2, #4
 331 0018 8260     		str	r2, [r0, #8]
 202:../../../support/device/gd32f4xx/peripherals/src/gd32f4xx_adc.c ****     /* check the CLB bit state */
 203:../../../support/device/gd32f4xx/peripherals/src/gd32f4xx_adc.c ****     while(RESET != (ADC_CTL1(adc_periph) & ADC_CTL1_CLB)) {
 332              		.loc 1 203 5 is_stmt 1 view .LVU80
 333              	.L42:
 204:../../../support/device/gd32f4xx/peripherals/src/gd32f4xx_adc.c ****     }
 334              		.loc 1 204 5 discriminator 1 view .LVU81
 203:../../../support/device/gd32f4xx/peripherals/src/gd32f4xx_adc.c ****     }
 335              		.loc 1 203 10 discriminator 1 view .LVU82
 203:../../../support/device/gd32f4xx/peripherals/src/gd32f4xx_adc.c ****     }
 336              		.loc 1 203 21 is_stmt 0 discriminator 1 view .LVU83
 337 001a 1A68     		ldr	r2, [r3]
 203:../../../support/device/gd32f4xx/peripherals/src/gd32f4xx_adc.c ****     }
 338              		.loc 1 203 10 discriminator 1 view .LVU84
 339 001c 5207     		lsls	r2, r2, #29
 340 001e FCD4     		bmi	.L42
 205:../../../support/device/gd32f4xx/peripherals/src/gd32f4xx_adc.c **** }
 341              		.loc 1 205 1 view .LVU85
 342 0020 7047     		bx	lr
 343              		.cfi_endproc
 344              	.LFE122:
 346 0022 00BF     		.section	.text.adc_channel_16_to_18,"ax",%progbits
 347              		.align	1
 348              		.p2align 2,,3
 349              		.global	adc_channel_16_to_18
 350              		.syntax unified
 351              		.thumb
 352              		.thumb_func
 354              	adc_channel_16_to_18:
 355              	.LVL13:
 356              	.LFB123:
 206:../../../support/device/gd32f4xx/peripherals/src/gd32f4xx_adc.c **** 
 207:../../../support/device/gd32f4xx/peripherals/src/gd32f4xx_adc.c **** /*!
 208:../../../support/device/gd32f4xx/peripherals/src/gd32f4xx_adc.c ****     \brief        configure temperature sensor and internal reference voltage channel or VBAT chann
ARM GAS  /var/folders/_f/88qcw_5n2jl40jjphvxyt7wh0000gn/T//cc2pJbeY.s 			page 11


 209:../../../support/device/gd32f4xx/peripherals/src/gd32f4xx_adc.c ****     \param[in]    function: temperature sensor and internal reference voltage channel or VBAT chann
 210:../../../support/device/gd32f4xx/peripherals/src/gd32f4xx_adc.c ****                   only one parameter can be selected which is shown as below:
 211:../../../support/device/gd32f4xx/peripherals/src/gd32f4xx_adc.c ****     \arg          ADC_VBAT_CHANNEL_SWITCH: channel 18 (1/4 voltate of external battery) switch of A
 212:../../../support/device/gd32f4xx/peripherals/src/gd32f4xx_adc.c ****     \arg          ADC_TEMP_VREF_CHANNEL_SWITCH: channel 16 (temperature sensor) and 17 (internal re
 213:../../../support/device/gd32f4xx/peripherals/src/gd32f4xx_adc.c ****     \param[in]    newvalue: ENABLE or DISABLE
 214:../../../support/device/gd32f4xx/peripherals/src/gd32f4xx_adc.c ****     \param[out]   none
 215:../../../support/device/gd32f4xx/peripherals/src/gd32f4xx_adc.c ****     \retval       none
 216:../../../support/device/gd32f4xx/peripherals/src/gd32f4xx_adc.c **** */
 217:../../../support/device/gd32f4xx/peripherals/src/gd32f4xx_adc.c **** void adc_channel_16_to_18(uint32_t function, ControlStatus newvalue)
 218:../../../support/device/gd32f4xx/peripherals/src/gd32f4xx_adc.c **** {
 357              		.loc 1 218 1 is_stmt 1 view -0
 358              		.cfi_startproc
 359              		@ args = 0, pretend = 0, frame = 0
 360              		@ frame_needed = 0, uses_anonymous_args = 0
 361              		@ link register save eliminated.
 219:../../../support/device/gd32f4xx/peripherals/src/gd32f4xx_adc.c ****     if(newvalue) {
 362              		.loc 1 219 5 view .LVU87
 363              		.loc 1 219 7 is_stmt 0 view .LVU88
 364 0000 91B1     		cbz	r1, .L46
 220:../../../support/device/gd32f4xx/peripherals/src/gd32f4xx_adc.c ****         if(RESET != (function & ADC_VBAT_CHANNEL_SWITCH)) {
 365              		.loc 1 220 9 is_stmt 1 view .LVU89
 366              		.loc 1 220 11 is_stmt 0 view .LVU90
 367 0002 4302     		lsls	r3, r0, #9
 368 0004 06D5     		bpl	.L47
 221:../../../support/device/gd32f4xx/peripherals/src/gd32f4xx_adc.c ****             /* enable ADC0 Vbat channel */
 222:../../../support/device/gd32f4xx/peripherals/src/gd32f4xx_adc.c ****             ADC_SYNCCTL |= ADC_VBAT_CHANNEL_SWITCH;
 369              		.loc 1 222 13 is_stmt 1 view .LVU91
 370              		.loc 1 222 25 is_stmt 0 view .LVU92
 371 0006 144A     		ldr	r2, .L63
 372 0008 D2F80433 		ldr	r3, [r2, #772]
 373 000c 43F48003 		orr	r3, r3, #4194304
 374 0010 C2F80433 		str	r3, [r2, #772]
 375              	.L47:
 223:../../../support/device/gd32f4xx/peripherals/src/gd32f4xx_adc.c ****         }
 224:../../../support/device/gd32f4xx/peripherals/src/gd32f4xx_adc.c ****         if(RESET != (function & ADC_TEMP_VREF_CHANNEL_SWITCH)) {
 376              		.loc 1 224 9 is_stmt 1 view .LVU93
 377              		.loc 1 224 11 is_stmt 0 view .LVU94
 378 0014 0102     		lsls	r1, r0, #8
 379              	.LVL14:
 380              		.loc 1 224 11 view .LVU95
 381 0016 0BD5     		bpl	.L45
 225:../../../support/device/gd32f4xx/peripherals/src/gd32f4xx_adc.c ****             /* enable ADC0 Vref and Temperature channel */
 226:../../../support/device/gd32f4xx/peripherals/src/gd32f4xx_adc.c ****             ADC_SYNCCTL |= ADC_TEMP_VREF_CHANNEL_SWITCH;
 382              		.loc 1 226 13 is_stmt 1 view .LVU96
 383              		.loc 1 226 25 is_stmt 0 view .LVU97
 384 0018 0F4A     		ldr	r2, .L63
 385 001a D2F80433 		ldr	r3, [r2, #772]
 386 001e 43F40003 		orr	r3, r3, #8388608
 387 0022 C2F80433 		str	r3, [r2, #772]
 388 0026 7047     		bx	lr
 389              	.LVL15:
 390              	.L46:
 227:../../../support/device/gd32f4xx/peripherals/src/gd32f4xx_adc.c ****         }
 228:../../../support/device/gd32f4xx/peripherals/src/gd32f4xx_adc.c ****     } else {
 229:../../../support/device/gd32f4xx/peripherals/src/gd32f4xx_adc.c ****         if(RESET != (function & ADC_VBAT_CHANNEL_SWITCH)) {
 391              		.loc 1 229 9 is_stmt 1 view .LVU98
 392              		.loc 1 229 11 is_stmt 0 view .LVU99
ARM GAS  /var/folders/_f/88qcw_5n2jl40jjphvxyt7wh0000gn/T//cc2pJbeY.s 			page 12


 393 0028 4202     		lsls	r2, r0, #9
 394 002a 0AD4     		bmi	.L61
 230:../../../support/device/gd32f4xx/peripherals/src/gd32f4xx_adc.c ****             /* disable ADC0 Vbat channel  */
 231:../../../support/device/gd32f4xx/peripherals/src/gd32f4xx_adc.c ****             ADC_SYNCCTL &= ~ADC_VBAT_CHANNEL_SWITCH;
 232:../../../support/device/gd32f4xx/peripherals/src/gd32f4xx_adc.c ****         }
 233:../../../support/device/gd32f4xx/peripherals/src/gd32f4xx_adc.c ****         if(RESET != (function & ADC_TEMP_VREF_CHANNEL_SWITCH)) {
 395              		.loc 1 233 9 is_stmt 1 view .LVU100
 396              		.loc 1 233 11 is_stmt 0 view .LVU101
 397 002c 0302     		lsls	r3, r0, #8
 398 002e 00D4     		bmi	.L62
 399              	.LVL16:
 400              	.L45:
 234:../../../support/device/gd32f4xx/peripherals/src/gd32f4xx_adc.c ****             /* disable ADC0 Vref and Temperature channel */
 235:../../../support/device/gd32f4xx/peripherals/src/gd32f4xx_adc.c ****             ADC_SYNCCTL &= ~ADC_TEMP_VREF_CHANNEL_SWITCH;
 236:../../../support/device/gd32f4xx/peripherals/src/gd32f4xx_adc.c ****         }
 237:../../../support/device/gd32f4xx/peripherals/src/gd32f4xx_adc.c ****     }
 238:../../../support/device/gd32f4xx/peripherals/src/gd32f4xx_adc.c **** }
 401              		.loc 1 238 1 view .LVU102
 402 0030 7047     		bx	lr
 403              	.LVL17:
 404              	.L62:
 235:../../../support/device/gd32f4xx/peripherals/src/gd32f4xx_adc.c ****         }
 405              		.loc 1 235 13 is_stmt 1 view .LVU103
 235:../../../support/device/gd32f4xx/peripherals/src/gd32f4xx_adc.c ****         }
 406              		.loc 1 235 25 is_stmt 0 view .LVU104
 407 0032 094A     		ldr	r2, .L63
 408 0034 D2F80433 		ldr	r3, [r2, #772]
 409 0038 23F40003 		bic	r3, r3, #8388608
 410 003c C2F80433 		str	r3, [r2, #772]
 411              		.loc 1 238 1 view .LVU105
 412 0040 7047     		bx	lr
 413              	.L61:
 231:../../../support/device/gd32f4xx/peripherals/src/gd32f4xx_adc.c ****         }
 414              		.loc 1 231 13 is_stmt 1 view .LVU106
 231:../../../support/device/gd32f4xx/peripherals/src/gd32f4xx_adc.c ****         }
 415              		.loc 1 231 25 is_stmt 0 view .LVU107
 416 0042 054A     		ldr	r2, .L63
 417 0044 D2F80433 		ldr	r3, [r2, #772]
 418 0048 23F48003 		bic	r3, r3, #4194304
 419 004c C2F80433 		str	r3, [r2, #772]
 233:../../../support/device/gd32f4xx/peripherals/src/gd32f4xx_adc.c ****             /* disable ADC0 Vref and Temperature channel */
 420              		.loc 1 233 9 is_stmt 1 view .LVU108
 233:../../../support/device/gd32f4xx/peripherals/src/gd32f4xx_adc.c ****             /* disable ADC0 Vref and Temperature channel */
 421              		.loc 1 233 11 is_stmt 0 view .LVU109
 422 0050 0302     		lsls	r3, r0, #8
 423 0052 EDD5     		bpl	.L45
 424 0054 EDE7     		b	.L62
 425              	.L64:
 426 0056 00BF     		.align	2
 427              	.L63:
 428 0058 00200140 		.word	1073815552
 429              		.cfi_endproc
 430              	.LFE123:
 432              		.section	.text.adc_resolution_config,"ax",%progbits
 433              		.align	1
 434              		.p2align 2,,3
 435              		.global	adc_resolution_config
ARM GAS  /var/folders/_f/88qcw_5n2jl40jjphvxyt7wh0000gn/T//cc2pJbeY.s 			page 13


 436              		.syntax unified
 437              		.thumb
 438              		.thumb_func
 440              	adc_resolution_config:
 441              	.LVL18:
 442              	.LFB124:
 239:../../../support/device/gd32f4xx/peripherals/src/gd32f4xx_adc.c **** 
 240:../../../support/device/gd32f4xx/peripherals/src/gd32f4xx_adc.c **** /*!
 241:../../../support/device/gd32f4xx/peripherals/src/gd32f4xx_adc.c ****     \brief        configure ADC resolution
 242:../../../support/device/gd32f4xx/peripherals/src/gd32f4xx_adc.c ****     \param[in]    adc_periph: ADCx,x=0,1,2
 243:../../../support/device/gd32f4xx/peripherals/src/gd32f4xx_adc.c ****     \param[in]    resolution: ADC resolution
 244:../../../support/device/gd32f4xx/peripherals/src/gd32f4xx_adc.c ****                   only one parameter can be selected which is shown as below:
 245:../../../support/device/gd32f4xx/peripherals/src/gd32f4xx_adc.c ****     \arg          ADC_RESOLUTION_12B: 12-bit ADC resolution
 246:../../../support/device/gd32f4xx/peripherals/src/gd32f4xx_adc.c ****     \arg          ADC_RESOLUTION_10B: 10-bit ADC resolution
 247:../../../support/device/gd32f4xx/peripherals/src/gd32f4xx_adc.c ****     \arg          ADC_RESOLUTION_8B: 8-bit ADC resolution
 248:../../../support/device/gd32f4xx/peripherals/src/gd32f4xx_adc.c ****     \arg          ADC_RESOLUTION_6B: 6-bit ADC resolution
 249:../../../support/device/gd32f4xx/peripherals/src/gd32f4xx_adc.c ****     \param[out]   none
 250:../../../support/device/gd32f4xx/peripherals/src/gd32f4xx_adc.c ****     \retval       none
 251:../../../support/device/gd32f4xx/peripherals/src/gd32f4xx_adc.c **** */
 252:../../../support/device/gd32f4xx/peripherals/src/gd32f4xx_adc.c **** void adc_resolution_config(uint32_t adc_periph, uint32_t resolution)
 253:../../../support/device/gd32f4xx/peripherals/src/gd32f4xx_adc.c **** {
 443              		.loc 1 253 1 is_stmt 1 view -0
 444              		.cfi_startproc
 445              		@ args = 0, pretend = 0, frame = 0
 446              		@ frame_needed = 0, uses_anonymous_args = 0
 447              		@ link register save eliminated.
 254:../../../support/device/gd32f4xx/peripherals/src/gd32f4xx_adc.c ****     ADC_CTL0(adc_periph) &= ~((uint32_t)ADC_CTL0_DRES);
 448              		.loc 1 254 5 view .LVU111
 449              		.loc 1 254 26 is_stmt 0 view .LVU112
 450 0000 4268     		ldr	r2, [r0, #4]
 451 0002 22F04072 		bic	r2, r2, #50331648
 452 0006 4260     		str	r2, [r0, #4]
 255:../../../support/device/gd32f4xx/peripherals/src/gd32f4xx_adc.c ****     ADC_CTL0(adc_periph) |= (uint32_t)resolution;
 453              		.loc 1 255 5 is_stmt 1 view .LVU113
 454              		.loc 1 255 26 is_stmt 0 view .LVU114
 455 0008 4368     		ldr	r3, [r0, #4]
 456 000a 0B43     		orrs	r3, r3, r1
 457 000c 4360     		str	r3, [r0, #4]
 256:../../../support/device/gd32f4xx/peripherals/src/gd32f4xx_adc.c **** }
 458              		.loc 1 256 1 view .LVU115
 459 000e 7047     		bx	lr
 460              		.cfi_endproc
 461              	.LFE124:
 463              		.section	.text.adc_oversample_mode_config,"ax",%progbits
 464              		.align	1
 465              		.p2align 2,,3
 466              		.global	adc_oversample_mode_config
 467              		.syntax unified
 468              		.thumb
 469              		.thumb_func
 471              	adc_oversample_mode_config:
 472              	.LVL19:
 473              	.LFB125:
 257:../../../support/device/gd32f4xx/peripherals/src/gd32f4xx_adc.c **** 
 258:../../../support/device/gd32f4xx/peripherals/src/gd32f4xx_adc.c **** /*!
 259:../../../support/device/gd32f4xx/peripherals/src/gd32f4xx_adc.c ****     \brief        configure ADC oversample mode
 260:../../../support/device/gd32f4xx/peripherals/src/gd32f4xx_adc.c ****     \param[in]    adc_periph: ADCx,x=0,1,2
ARM GAS  /var/folders/_f/88qcw_5n2jl40jjphvxyt7wh0000gn/T//cc2pJbeY.s 			page 14


 261:../../../support/device/gd32f4xx/peripherals/src/gd32f4xx_adc.c ****     \param[in]    mode: ADC oversampling mode
 262:../../../support/device/gd32f4xx/peripherals/src/gd32f4xx_adc.c ****                   only one parameter can be selected which is shown as below:
 263:../../../support/device/gd32f4xx/peripherals/src/gd32f4xx_adc.c ****     \arg          ADC_OVERSAMPLING_ALL_CONVERT: all oversampled conversions for a channel are done 
 264:../../../support/device/gd32f4xx/peripherals/src/gd32f4xx_adc.c ****     \arg          ADC_OVERSAMPLING_ONE_CONVERT: each oversampled conversion for a channel needs a t
 265:../../../support/device/gd32f4xx/peripherals/src/gd32f4xx_adc.c ****     \param[in]    shift: ADC oversampling shift
 266:../../../support/device/gd32f4xx/peripherals/src/gd32f4xx_adc.c ****                   only one parameter can be selected which is shown as below:
 267:../../../support/device/gd32f4xx/peripherals/src/gd32f4xx_adc.c ****     \arg          ADC_OVERSAMPLING_SHIFT_NONE: no oversampling shift
 268:../../../support/device/gd32f4xx/peripherals/src/gd32f4xx_adc.c ****     \arg          ADC_OVERSAMPLING_SHIFT_1B: 1-bit oversampling shift
 269:../../../support/device/gd32f4xx/peripherals/src/gd32f4xx_adc.c ****     \arg          ADC_OVERSAMPLING_SHIFT_2B: 2-bit oversampling shift
 270:../../../support/device/gd32f4xx/peripherals/src/gd32f4xx_adc.c ****     \arg          ADC_OVERSAMPLING_SHIFT_3B: 3-bit oversampling shift
 271:../../../support/device/gd32f4xx/peripherals/src/gd32f4xx_adc.c ****     \arg          ADC_OVERSAMPLING_SHIFT_4B: 3-bit oversampling shift
 272:../../../support/device/gd32f4xx/peripherals/src/gd32f4xx_adc.c ****     \arg          ADC_OVERSAMPLING_SHIFT_5B: 5-bit oversampling shift
 273:../../../support/device/gd32f4xx/peripherals/src/gd32f4xx_adc.c ****     \arg          ADC_OVERSAMPLING_SHIFT_6B: 6-bit oversampling shift
 274:../../../support/device/gd32f4xx/peripherals/src/gd32f4xx_adc.c ****     \arg          ADC_OVERSAMPLING_SHIFT_7B: 7-bit oversampling shift
 275:../../../support/device/gd32f4xx/peripherals/src/gd32f4xx_adc.c ****     \arg          ADC_OVERSAMPLING_SHIFT_8B: 8-bit oversampling shift
 276:../../../support/device/gd32f4xx/peripherals/src/gd32f4xx_adc.c ****     \param[in]    ratio: ADC oversampling ratio
 277:../../../support/device/gd32f4xx/peripherals/src/gd32f4xx_adc.c ****                   only one parameter can be selected which is shown as below:
 278:../../../support/device/gd32f4xx/peripherals/src/gd32f4xx_adc.c ****     \arg          ADC_OVERSAMPLING_RATIO_MUL2: oversampling ratio multiple 2
 279:../../../support/device/gd32f4xx/peripherals/src/gd32f4xx_adc.c ****     \arg          ADC_OVERSAMPLING_RATIO_MUL4: oversampling ratio multiple 4
 280:../../../support/device/gd32f4xx/peripherals/src/gd32f4xx_adc.c ****     \arg          ADC_OVERSAMPLING_RATIO_MUL8: oversampling ratio multiple 8
 281:../../../support/device/gd32f4xx/peripherals/src/gd32f4xx_adc.c ****     \arg          ADC_OVERSAMPLING_RATIO_MUL16: oversampling ratio multiple 16
 282:../../../support/device/gd32f4xx/peripherals/src/gd32f4xx_adc.c ****     \arg          ADC_OVERSAMPLING_RATIO_MUL32: oversampling ratio multiple 32
 283:../../../support/device/gd32f4xx/peripherals/src/gd32f4xx_adc.c ****     \arg          ADC_OVERSAMPLING_RATIO_MUL64: oversampling ratio multiple 64
 284:../../../support/device/gd32f4xx/peripherals/src/gd32f4xx_adc.c ****     \arg          ADC_OVERSAMPLING_RATIO_MUL128: oversampling ratio multiple 128
 285:../../../support/device/gd32f4xx/peripherals/src/gd32f4xx_adc.c ****     \arg          ADC_OVERSAMPLING_RATIO_MUL256: oversampling ratio multiple 256
 286:../../../support/device/gd32f4xx/peripherals/src/gd32f4xx_adc.c ****     \param[out]   none
 287:../../../support/device/gd32f4xx/peripherals/src/gd32f4xx_adc.c ****     \retval       none
 288:../../../support/device/gd32f4xx/peripherals/src/gd32f4xx_adc.c **** */
 289:../../../support/device/gd32f4xx/peripherals/src/gd32f4xx_adc.c **** void adc_oversample_mode_config(uint32_t adc_periph, uint32_t mode, uint16_t shift, uint8_t ratio)
 290:../../../support/device/gd32f4xx/peripherals/src/gd32f4xx_adc.c **** {
 474              		.loc 1 290 1 is_stmt 1 view -0
 475              		.cfi_startproc
 476              		@ args = 0, pretend = 0, frame = 0
 477              		@ frame_needed = 0, uses_anonymous_args = 0
 478              		@ link register save eliminated.
 291:../../../support/device/gd32f4xx/peripherals/src/gd32f4xx_adc.c ****     if(ADC_OVERSAMPLING_ONE_CONVERT == mode) {
 479              		.loc 1 291 5 view .LVU117
 290:../../../support/device/gd32f4xx/peripherals/src/gd32f4xx_adc.c ****     if(ADC_OVERSAMPLING_ONE_CONVERT == mode) {
 480              		.loc 1 290 1 is_stmt 0 view .LVU118
 481 0000 10B4     		push	{r4}
 482              	.LCFI2:
 483              		.cfi_def_cfa_offset 4
 484              		.cfi_offset 4, -4
 292:../../../support/device/gd32f4xx/peripherals/src/gd32f4xx_adc.c ****         ADC_OVSAMPCTL(adc_periph) |= (uint32_t)ADC_OVSAMPCTL_TOVS;
 485              		.loc 1 292 35 view .LVU119
 486 0002 D0F88040 		ldr	r4, [r0, #128]
 291:../../../support/device/gd32f4xx/peripherals/src/gd32f4xx_adc.c ****     if(ADC_OVERSAMPLING_ONE_CONVERT == mode) {
 487              		.loc 1 291 7 view .LVU120
 488 0006 B1F5007F 		cmp	r1, #512
 489              		.loc 1 292 35 view .LVU121
 490 000a 08BF     		it	eq
 491 000c 44F40074 		orreq	r4, r4, #512
 492 0010 00F18001 		add	r1, r0, #128
 493              	.LVL20:
 494              		.loc 1 292 9 is_stmt 1 view .LVU122
 293:../../../support/device/gd32f4xx/peripherals/src/gd32f4xx_adc.c ****     } else {
 294:../../../support/device/gd32f4xx/peripherals/src/gd32f4xx_adc.c ****         ADC_OVSAMPCTL(adc_periph) &= ~((uint32_t)ADC_OVSAMPCTL_TOVS);
ARM GAS  /var/folders/_f/88qcw_5n2jl40jjphvxyt7wh0000gn/T//cc2pJbeY.s 			page 15


 495              		.loc 1 294 9 view .LVU123
 496              		.loc 1 294 35 is_stmt 0 view .LVU124
 497 0014 18BF     		it	ne
 498 0016 24F40074 		bicne	r4, r4, #512
 499 001a C0F88040 		str	r4, [r0, #128]
 295:../../../support/device/gd32f4xx/peripherals/src/gd32f4xx_adc.c ****     }
 296:../../../support/device/gd32f4xx/peripherals/src/gd32f4xx_adc.c ****     /* config the shift and ratio */
 297:../../../support/device/gd32f4xx/peripherals/src/gd32f4xx_adc.c ****     ADC_OVSAMPCTL(adc_periph) &= ~((uint32_t)(ADC_OVSAMPCTL_OVSR | ADC_OVSAMPCTL_OVSS));
 500              		.loc 1 297 5 is_stmt 1 view .LVU125
 501              		.loc 1 297 31 is_stmt 0 view .LVU126
 502 001e 0868     		ldr	r0, [r1]
 503              	.LVL21:
 298:../../../support/device/gd32f4xx/peripherals/src/gd32f4xx_adc.c ****     ADC_OVSAMPCTL(adc_periph) |= ((uint32_t)shift | (uint32_t)ratio);
 299:../../../support/device/gd32f4xx/peripherals/src/gd32f4xx_adc.c **** }
 504              		.loc 1 299 1 view .LVU127
 505 0020 10BC     		pop	{r4}
 506              	.LCFI3:
 507              		.cfi_restore 4
 508              		.cfi_def_cfa_offset 0
 297:../../../support/device/gd32f4xx/peripherals/src/gd32f4xx_adc.c ****     ADC_OVSAMPCTL(adc_periph) |= ((uint32_t)shift | (uint32_t)ratio);
 509              		.loc 1 297 31 view .LVU128
 510 0022 20F4FE70 		bic	r0, r0, #508
 511 0026 0860     		str	r0, [r1]
 298:../../../support/device/gd32f4xx/peripherals/src/gd32f4xx_adc.c ****     ADC_OVSAMPCTL(adc_periph) |= ((uint32_t)shift | (uint32_t)ratio);
 512              		.loc 1 298 5 is_stmt 1 view .LVU129
 298:../../../support/device/gd32f4xx/peripherals/src/gd32f4xx_adc.c ****     ADC_OVSAMPCTL(adc_periph) |= ((uint32_t)shift | (uint32_t)ratio);
 513              		.loc 1 298 51 is_stmt 0 view .LVU130
 514 0028 1A43     		orrs	r2, r2, r3
 515              	.LVL22:
 298:../../../support/device/gd32f4xx/peripherals/src/gd32f4xx_adc.c ****     ADC_OVSAMPCTL(adc_periph) |= ((uint32_t)shift | (uint32_t)ratio);
 516              		.loc 1 298 31 view .LVU131
 517 002a 0B68     		ldr	r3, [r1]
 518              	.LVL23:
 298:../../../support/device/gd32f4xx/peripherals/src/gd32f4xx_adc.c ****     ADC_OVSAMPCTL(adc_periph) |= ((uint32_t)shift | (uint32_t)ratio);
 519              		.loc 1 298 31 view .LVU132
 520 002c 1A43     		orrs	r2, r2, r3
 521 002e 0A60     		str	r2, [r1]
 522              		.loc 1 299 1 view .LVU133
 523 0030 7047     		bx	lr
 524              		.cfi_endproc
 525              	.LFE125:
 527 0032 00BF     		.section	.text.adc_oversample_mode_enable,"ax",%progbits
 528              		.align	1
 529              		.p2align 2,,3
 530              		.global	adc_oversample_mode_enable
 531              		.syntax unified
 532              		.thumb
 533              		.thumb_func
 535              	adc_oversample_mode_enable:
 536              	.LVL24:
 537              	.LFB126:
 300:../../../support/device/gd32f4xx/peripherals/src/gd32f4xx_adc.c **** 
 301:../../../support/device/gd32f4xx/peripherals/src/gd32f4xx_adc.c **** /*!
 302:../../../support/device/gd32f4xx/peripherals/src/gd32f4xx_adc.c ****     \brief        enable ADC oversample mode
 303:../../../support/device/gd32f4xx/peripherals/src/gd32f4xx_adc.c ****     \param[in]    adc_periph: ADCx,x=0,1,2
 304:../../../support/device/gd32f4xx/peripherals/src/gd32f4xx_adc.c ****     \param[out]   none
 305:../../../support/device/gd32f4xx/peripherals/src/gd32f4xx_adc.c ****     \retval       none
ARM GAS  /var/folders/_f/88qcw_5n2jl40jjphvxyt7wh0000gn/T//cc2pJbeY.s 			page 16


 306:../../../support/device/gd32f4xx/peripherals/src/gd32f4xx_adc.c **** */
 307:../../../support/device/gd32f4xx/peripherals/src/gd32f4xx_adc.c **** void adc_oversample_mode_enable(uint32_t adc_periph)
 308:../../../support/device/gd32f4xx/peripherals/src/gd32f4xx_adc.c **** {
 538              		.loc 1 308 1 is_stmt 1 view -0
 539              		.cfi_startproc
 540              		@ args = 0, pretend = 0, frame = 0
 541              		@ frame_needed = 0, uses_anonymous_args = 0
 542              		@ link register save eliminated.
 309:../../../support/device/gd32f4xx/peripherals/src/gd32f4xx_adc.c ****     ADC_OVSAMPCTL(adc_periph) |= ADC_OVSAMPCTL_OVSEN;
 543              		.loc 1 309 5 view .LVU135
 544              		.loc 1 309 31 is_stmt 0 view .LVU136
 545 0000 D0F88030 		ldr	r3, [r0, #128]
 546 0004 43F00103 		orr	r3, r3, #1
 547 0008 C0F88030 		str	r3, [r0, #128]
 310:../../../support/device/gd32f4xx/peripherals/src/gd32f4xx_adc.c **** }
 548              		.loc 1 310 1 view .LVU137
 549 000c 7047     		bx	lr
 550              		.cfi_endproc
 551              	.LFE126:
 553 000e 00BF     		.section	.text.adc_oversample_mode_disable,"ax",%progbits
 554              		.align	1
 555              		.p2align 2,,3
 556              		.global	adc_oversample_mode_disable
 557              		.syntax unified
 558              		.thumb
 559              		.thumb_func
 561              	adc_oversample_mode_disable:
 562              	.LVL25:
 563              	.LFB127:
 311:../../../support/device/gd32f4xx/peripherals/src/gd32f4xx_adc.c **** 
 312:../../../support/device/gd32f4xx/peripherals/src/gd32f4xx_adc.c **** /*!
 313:../../../support/device/gd32f4xx/peripherals/src/gd32f4xx_adc.c ****     \brief        disable ADC oversample mode
 314:../../../support/device/gd32f4xx/peripherals/src/gd32f4xx_adc.c ****     \param[in]    adc_periph: ADCx,x=0,1,2
 315:../../../support/device/gd32f4xx/peripherals/src/gd32f4xx_adc.c ****     \param[out]   none
 316:../../../support/device/gd32f4xx/peripherals/src/gd32f4xx_adc.c ****     \retval       none
 317:../../../support/device/gd32f4xx/peripherals/src/gd32f4xx_adc.c **** */
 318:../../../support/device/gd32f4xx/peripherals/src/gd32f4xx_adc.c **** void adc_oversample_mode_disable(uint32_t adc_periph)
 319:../../../support/device/gd32f4xx/peripherals/src/gd32f4xx_adc.c **** {
 564              		.loc 1 319 1 is_stmt 1 view -0
 565              		.cfi_startproc
 566              		@ args = 0, pretend = 0, frame = 0
 567              		@ frame_needed = 0, uses_anonymous_args = 0
 568              		@ link register save eliminated.
 320:../../../support/device/gd32f4xx/peripherals/src/gd32f4xx_adc.c ****     ADC_OVSAMPCTL(adc_periph) &= ~((uint32_t)ADC_OVSAMPCTL_OVSEN);
 569              		.loc 1 320 5 view .LVU139
 570              		.loc 1 320 31 is_stmt 0 view .LVU140
 571 0000 D0F88030 		ldr	r3, [r0, #128]
 572 0004 23F00103 		bic	r3, r3, #1
 573 0008 C0F88030 		str	r3, [r0, #128]
 321:../../../support/device/gd32f4xx/peripherals/src/gd32f4xx_adc.c **** }
 574              		.loc 1 321 1 view .LVU141
 575 000c 7047     		bx	lr
 576              		.cfi_endproc
 577              	.LFE127:
 579 000e 00BF     		.section	.text.adc_dma_mode_enable,"ax",%progbits
 580              		.align	1
 581              		.p2align 2,,3
ARM GAS  /var/folders/_f/88qcw_5n2jl40jjphvxyt7wh0000gn/T//cc2pJbeY.s 			page 17


 582              		.global	adc_dma_mode_enable
 583              		.syntax unified
 584              		.thumb
 585              		.thumb_func
 587              	adc_dma_mode_enable:
 588              	.LVL26:
 589              	.LFB128:
 322:../../../support/device/gd32f4xx/peripherals/src/gd32f4xx_adc.c **** 
 323:../../../support/device/gd32f4xx/peripherals/src/gd32f4xx_adc.c **** /*!
 324:../../../support/device/gd32f4xx/peripherals/src/gd32f4xx_adc.c ****     \brief        enable DMA request
 325:../../../support/device/gd32f4xx/peripherals/src/gd32f4xx_adc.c ****     \param[in]    adc_periph: ADCx,x=0,1,2
 326:../../../support/device/gd32f4xx/peripherals/src/gd32f4xx_adc.c ****     \param[out]   none
 327:../../../support/device/gd32f4xx/peripherals/src/gd32f4xx_adc.c ****     \retval       none
 328:../../../support/device/gd32f4xx/peripherals/src/gd32f4xx_adc.c **** */
 329:../../../support/device/gd32f4xx/peripherals/src/gd32f4xx_adc.c **** void adc_dma_mode_enable(uint32_t adc_periph)
 330:../../../support/device/gd32f4xx/peripherals/src/gd32f4xx_adc.c **** {
 590              		.loc 1 330 1 is_stmt 1 view -0
 591              		.cfi_startproc
 592              		@ args = 0, pretend = 0, frame = 0
 593              		@ frame_needed = 0, uses_anonymous_args = 0
 594              		@ link register save eliminated.
 331:../../../support/device/gd32f4xx/peripherals/src/gd32f4xx_adc.c ****     /* enable DMA request */
 332:../../../support/device/gd32f4xx/peripherals/src/gd32f4xx_adc.c ****     ADC_CTL1(adc_periph) |= (uint32_t)(ADC_CTL1_DMA);
 595              		.loc 1 332 5 view .LVU143
 596              		.loc 1 332 26 is_stmt 0 view .LVU144
 597 0000 8368     		ldr	r3, [r0, #8]
 598 0002 43F48073 		orr	r3, r3, #256
 599 0006 8360     		str	r3, [r0, #8]
 333:../../../support/device/gd32f4xx/peripherals/src/gd32f4xx_adc.c **** }
 600              		.loc 1 333 1 view .LVU145
 601 0008 7047     		bx	lr
 602              		.cfi_endproc
 603              	.LFE128:
 605 000a 00BF     		.section	.text.adc_dma_mode_disable,"ax",%progbits
 606              		.align	1
 607              		.p2align 2,,3
 608              		.global	adc_dma_mode_disable
 609              		.syntax unified
 610              		.thumb
 611              		.thumb_func
 613              	adc_dma_mode_disable:
 614              	.LVL27:
 615              	.LFB129:
 334:../../../support/device/gd32f4xx/peripherals/src/gd32f4xx_adc.c **** 
 335:../../../support/device/gd32f4xx/peripherals/src/gd32f4xx_adc.c **** /*!
 336:../../../support/device/gd32f4xx/peripherals/src/gd32f4xx_adc.c ****     \brief      disable DMA request
 337:../../../support/device/gd32f4xx/peripherals/src/gd32f4xx_adc.c ****     \param[in]  adc_periph: ADCx,x=0,1,2
 338:../../../support/device/gd32f4xx/peripherals/src/gd32f4xx_adc.c ****     \param[out] none
 339:../../../support/device/gd32f4xx/peripherals/src/gd32f4xx_adc.c ****     \retval     none
 340:../../../support/device/gd32f4xx/peripherals/src/gd32f4xx_adc.c **** */
 341:../../../support/device/gd32f4xx/peripherals/src/gd32f4xx_adc.c **** void adc_dma_mode_disable(uint32_t adc_periph)
 342:../../../support/device/gd32f4xx/peripherals/src/gd32f4xx_adc.c **** {
 616              		.loc 1 342 1 is_stmt 1 view -0
 617              		.cfi_startproc
 618              		@ args = 0, pretend = 0, frame = 0
 619              		@ frame_needed = 0, uses_anonymous_args = 0
 620              		@ link register save eliminated.
ARM GAS  /var/folders/_f/88qcw_5n2jl40jjphvxyt7wh0000gn/T//cc2pJbeY.s 			page 18


 343:../../../support/device/gd32f4xx/peripherals/src/gd32f4xx_adc.c ****     /* disable DMA request */
 344:../../../support/device/gd32f4xx/peripherals/src/gd32f4xx_adc.c ****     ADC_CTL1(adc_periph) &= ~((uint32_t)ADC_CTL1_DMA);
 621              		.loc 1 344 5 view .LVU147
 622              		.loc 1 344 26 is_stmt 0 view .LVU148
 623 0000 8368     		ldr	r3, [r0, #8]
 624 0002 23F48073 		bic	r3, r3, #256
 625 0006 8360     		str	r3, [r0, #8]
 345:../../../support/device/gd32f4xx/peripherals/src/gd32f4xx_adc.c **** }
 626              		.loc 1 345 1 view .LVU149
 627 0008 7047     		bx	lr
 628              		.cfi_endproc
 629              	.LFE129:
 631 000a 00BF     		.section	.text.adc_dma_request_after_last_enable,"ax",%progbits
 632              		.align	1
 633              		.p2align 2,,3
 634              		.global	adc_dma_request_after_last_enable
 635              		.syntax unified
 636              		.thumb
 637              		.thumb_func
 639              	adc_dma_request_after_last_enable:
 640              	.LVL28:
 641              	.LFB130:
 346:../../../support/device/gd32f4xx/peripherals/src/gd32f4xx_adc.c **** 
 347:../../../support/device/gd32f4xx/peripherals/src/gd32f4xx_adc.c **** /*!
 348:../../../support/device/gd32f4xx/peripherals/src/gd32f4xx_adc.c ****     \brief    when DMA=1, the DMA engine issues a request at end of each routine conversion
 349:../../../support/device/gd32f4xx/peripherals/src/gd32f4xx_adc.c ****     \param[in]  adc_periph: ADCx,x=0,1,2
 350:../../../support/device/gd32f4xx/peripherals/src/gd32f4xx_adc.c ****     \param[out] none
 351:../../../support/device/gd32f4xx/peripherals/src/gd32f4xx_adc.c ****     \retval     none
 352:../../../support/device/gd32f4xx/peripherals/src/gd32f4xx_adc.c **** */
 353:../../../support/device/gd32f4xx/peripherals/src/gd32f4xx_adc.c **** void adc_dma_request_after_last_enable(uint32_t adc_periph)
 354:../../../support/device/gd32f4xx/peripherals/src/gd32f4xx_adc.c **** {
 642              		.loc 1 354 1 is_stmt 1 view -0
 643              		.cfi_startproc
 644              		@ args = 0, pretend = 0, frame = 0
 645              		@ frame_needed = 0, uses_anonymous_args = 0
 646              		@ link register save eliminated.
 355:../../../support/device/gd32f4xx/peripherals/src/gd32f4xx_adc.c ****     ADC_CTL1(adc_periph) |= (uint32_t)(ADC_CTL1_DDM);
 647              		.loc 1 355 5 view .LVU151
 648              		.loc 1 355 26 is_stmt 0 view .LVU152
 649 0000 8368     		ldr	r3, [r0, #8]
 650 0002 43F40073 		orr	r3, r3, #512
 651 0006 8360     		str	r3, [r0, #8]
 356:../../../support/device/gd32f4xx/peripherals/src/gd32f4xx_adc.c **** }
 652              		.loc 1 356 1 view .LVU153
 653 0008 7047     		bx	lr
 654              		.cfi_endproc
 655              	.LFE130:
 657 000a 00BF     		.section	.text.adc_dma_request_after_last_disable,"ax",%progbits
 658              		.align	1
 659              		.p2align 2,,3
 660              		.global	adc_dma_request_after_last_disable
 661              		.syntax unified
 662              		.thumb
 663              		.thumb_func
 665              	adc_dma_request_after_last_disable:
 666              	.LVL29:
 667              	.LFB131:
ARM GAS  /var/folders/_f/88qcw_5n2jl40jjphvxyt7wh0000gn/T//cc2pJbeY.s 			page 19


 357:../../../support/device/gd32f4xx/peripherals/src/gd32f4xx_adc.c **** 
 358:../../../support/device/gd32f4xx/peripherals/src/gd32f4xx_adc.c **** /*!
 359:../../../support/device/gd32f4xx/peripherals/src/gd32f4xx_adc.c ****     \brief    the DMA engine is disabled after the end of transfer signal from DMA controller is de
 360:../../../support/device/gd32f4xx/peripherals/src/gd32f4xx_adc.c ****     \param[in]  adc_periph: ADCx,x=0,1,2
 361:../../../support/device/gd32f4xx/peripherals/src/gd32f4xx_adc.c ****     \param[out] none
 362:../../../support/device/gd32f4xx/peripherals/src/gd32f4xx_adc.c ****     \retval     none
 363:../../../support/device/gd32f4xx/peripherals/src/gd32f4xx_adc.c **** */
 364:../../../support/device/gd32f4xx/peripherals/src/gd32f4xx_adc.c **** void adc_dma_request_after_last_disable(uint32_t adc_periph)
 365:../../../support/device/gd32f4xx/peripherals/src/gd32f4xx_adc.c **** {
 668              		.loc 1 365 1 is_stmt 1 view -0
 669              		.cfi_startproc
 670              		@ args = 0, pretend = 0, frame = 0
 671              		@ frame_needed = 0, uses_anonymous_args = 0
 672              		@ link register save eliminated.
 366:../../../support/device/gd32f4xx/peripherals/src/gd32f4xx_adc.c ****     ADC_CTL1(adc_periph) &= ~((uint32_t)ADC_CTL1_DDM);
 673              		.loc 1 366 5 view .LVU155
 674              		.loc 1 366 26 is_stmt 0 view .LVU156
 675 0000 8368     		ldr	r3, [r0, #8]
 676 0002 23F40073 		bic	r3, r3, #512
 677 0006 8360     		str	r3, [r0, #8]
 367:../../../support/device/gd32f4xx/peripherals/src/gd32f4xx_adc.c **** }
 678              		.loc 1 367 1 view .LVU157
 679 0008 7047     		bx	lr
 680              		.cfi_endproc
 681              	.LFE131:
 683 000a 00BF     		.section	.text.adc_discontinuous_mode_config,"ax",%progbits
 684              		.align	1
 685              		.p2align 2,,3
 686              		.global	adc_discontinuous_mode_config
 687              		.syntax unified
 688              		.thumb
 689              		.thumb_func
 691              	adc_discontinuous_mode_config:
 692              	.LVL30:
 693              	.LFB132:
 368:../../../support/device/gd32f4xx/peripherals/src/gd32f4xx_adc.c **** 
 369:../../../support/device/gd32f4xx/peripherals/src/gd32f4xx_adc.c **** /*!
 370:../../../support/device/gd32f4xx/peripherals/src/gd32f4xx_adc.c ****     \brief        configure ADC discontinuous mode
 371:../../../support/device/gd32f4xx/peripherals/src/gd32f4xx_adc.c ****     \param[in]    adc_periph: ADCx,x=0,1,2
 372:../../../support/device/gd32f4xx/peripherals/src/gd32f4xx_adc.c ****     \param[in]    adc_sequence: select the sequence
 373:../../../support/device/gd32f4xx/peripherals/src/gd32f4xx_adc.c ****                   only one parameter can be selected which is shown as below:
 374:../../../support/device/gd32f4xx/peripherals/src/gd32f4xx_adc.c ****     \arg          ADC_ROUTINE_CHANNEL: routine sequence
 375:../../../support/device/gd32f4xx/peripherals/src/gd32f4xx_adc.c ****     \arg          ADC_INSERTED_CHANNEL: inserted sequence
 376:../../../support/device/gd32f4xx/peripherals/src/gd32f4xx_adc.c ****     \arg          ADC_CHANNEL_DISCON_DISABLE: disable discontinuous mode of routine & inserted chan
 377:../../../support/device/gd32f4xx/peripherals/src/gd32f4xx_adc.c ****     \param[in]    length: number of conversions in discontinuous mode,the number can be 1..8
 378:../../../support/device/gd32f4xx/peripherals/src/gd32f4xx_adc.c ****                   for routine sequence ,the number has no effect for inserted sequence
 379:../../../support/device/gd32f4xx/peripherals/src/gd32f4xx_adc.c ****     \param[out]   none
 380:../../../support/device/gd32f4xx/peripherals/src/gd32f4xx_adc.c ****     \retval       none
 381:../../../support/device/gd32f4xx/peripherals/src/gd32f4xx_adc.c **** */
 382:../../../support/device/gd32f4xx/peripherals/src/gd32f4xx_adc.c **** void adc_discontinuous_mode_config(uint32_t adc_periph, uint8_t adc_sequence, uint8_t length)
 383:../../../support/device/gd32f4xx/peripherals/src/gd32f4xx_adc.c **** {
 694              		.loc 1 383 1 is_stmt 1 view -0
 695              		.cfi_startproc
 696              		@ args = 0, pretend = 0, frame = 0
 697              		@ frame_needed = 0, uses_anonymous_args = 0
 698              		@ link register save eliminated.
 384:../../../support/device/gd32f4xx/peripherals/src/gd32f4xx_adc.c ****     /* disable discontinuous mode of routine & inserted channel */
ARM GAS  /var/folders/_f/88qcw_5n2jl40jjphvxyt7wh0000gn/T//cc2pJbeY.s 			page 20


 385:../../../support/device/gd32f4xx/peripherals/src/gd32f4xx_adc.c ****     ADC_CTL0(adc_periph) &= ~((uint32_t)(ADC_CTL0_DISRC | ADC_CTL0_DISIC));
 699              		.loc 1 385 5 view .LVU159
 700              		.loc 1 385 26 is_stmt 0 view .LVU160
 701 0000 4368     		ldr	r3, [r0, #4]
 386:../../../support/device/gd32f4xx/peripherals/src/gd32f4xx_adc.c ****     switch(adc_sequence) {
 702              		.loc 1 386 5 view .LVU161
 703 0002 0129     		cmp	r1, #1
 385:../../../support/device/gd32f4xx/peripherals/src/gd32f4xx_adc.c ****     switch(adc_sequence) {
 704              		.loc 1 385 26 view .LVU162
 705 0004 23F4C053 		bic	r3, r3, #6144
 706 0008 4360     		str	r3, [r0, #4]
 707              		.loc 1 386 5 is_stmt 1 view .LVU163
 708 000a 07D0     		beq	.L77
 709 000c 0229     		cmp	r1, #2
 710 000e 04D1     		bne	.L81
 387:../../../support/device/gd32f4xx/peripherals/src/gd32f4xx_adc.c ****     case ADC_ROUTINE_CHANNEL:
 388:../../../support/device/gd32f4xx/peripherals/src/gd32f4xx_adc.c ****         /* config the number of conversions in discontinuous mode  */
 389:../../../support/device/gd32f4xx/peripherals/src/gd32f4xx_adc.c ****         ADC_CTL0(adc_periph) &= ~((uint32_t)ADC_CTL0_DISNUM);
 390:../../../support/device/gd32f4xx/peripherals/src/gd32f4xx_adc.c ****         if((length <= 8U) && (length >= 1U)) {
 391:../../../support/device/gd32f4xx/peripherals/src/gd32f4xx_adc.c ****             ADC_CTL0(adc_periph) |= CTL0_DISNUM(((uint32_t)length - ADC_CHANNEL_LENGTH_SUBTRACT_ONE
 392:../../../support/device/gd32f4xx/peripherals/src/gd32f4xx_adc.c ****         }
 393:../../../support/device/gd32f4xx/peripherals/src/gd32f4xx_adc.c ****         /* enable routine sequence discontinuous mode */
 394:../../../support/device/gd32f4xx/peripherals/src/gd32f4xx_adc.c ****         ADC_CTL0(adc_periph) |= (uint32_t)ADC_CTL0_DISRC;
 395:../../../support/device/gd32f4xx/peripherals/src/gd32f4xx_adc.c ****         break;
 396:../../../support/device/gd32f4xx/peripherals/src/gd32f4xx_adc.c ****     case ADC_INSERTED_CHANNEL:
 397:../../../support/device/gd32f4xx/peripherals/src/gd32f4xx_adc.c ****         /* enable inserted sequence discontinuous mode */
 398:../../../support/device/gd32f4xx/peripherals/src/gd32f4xx_adc.c ****         ADC_CTL0(adc_periph) |= (uint32_t)ADC_CTL0_DISIC;
 711              		.loc 1 398 9 view .LVU164
 712              		.loc 1 398 30 is_stmt 0 view .LVU165
 713 0010 4368     		ldr	r3, [r0, #4]
 714 0012 43F48053 		orr	r3, r3, #4096
 715 0016 4360     		str	r3, [r0, #4]
 399:../../../support/device/gd32f4xx/peripherals/src/gd32f4xx_adc.c ****         break;
 716              		.loc 1 399 9 is_stmt 1 view .LVU166
 400:../../../support/device/gd32f4xx/peripherals/src/gd32f4xx_adc.c ****     case ADC_CHANNEL_DISCON_DISABLE:
 401:../../../support/device/gd32f4xx/peripherals/src/gd32f4xx_adc.c ****     /* disable discontinuous mode of routine & inserted channel */
 402:../../../support/device/gd32f4xx/peripherals/src/gd32f4xx_adc.c ****     default:
 403:../../../support/device/gd32f4xx/peripherals/src/gd32f4xx_adc.c ****         break;
 404:../../../support/device/gd32f4xx/peripherals/src/gd32f4xx_adc.c ****     }
 405:../../../support/device/gd32f4xx/peripherals/src/gd32f4xx_adc.c **** }
 717              		.loc 1 405 1 is_stmt 0 view .LVU167
 718 0018 7047     		bx	lr
 719              	.L81:
 720 001a 7047     		bx	lr
 721              	.L77:
 389:../../../support/device/gd32f4xx/peripherals/src/gd32f4xx_adc.c ****         if((length <= 8U) && (length >= 1U)) {
 722              		.loc 1 389 9 is_stmt 1 view .LVU168
 389:../../../support/device/gd32f4xx/peripherals/src/gd32f4xx_adc.c ****         if((length <= 8U) && (length >= 1U)) {
 723              		.loc 1 389 30 is_stmt 0 view .LVU169
 724 001c 4368     		ldr	r3, [r0, #4]
 390:../../../support/device/gd32f4xx/peripherals/src/gd32f4xx_adc.c ****             ADC_CTL0(adc_periph) |= CTL0_DISNUM(((uint32_t)length - ADC_CHANNEL_LENGTH_SUBTRACT_ONE
 725              		.loc 1 390 27 view .LVU170
 726 001e 013A     		subs	r2, r2, #1
 727              	.LVL31:
 390:../../../support/device/gd32f4xx/peripherals/src/gd32f4xx_adc.c ****             ADC_CTL0(adc_periph) |= CTL0_DISNUM(((uint32_t)length - ADC_CHANNEL_LENGTH_SUBTRACT_ONE
 728              		.loc 1 390 11 view .LVU171
 729 0020 D1B2     		uxtb	r1, r2
ARM GAS  /var/folders/_f/88qcw_5n2jl40jjphvxyt7wh0000gn/T//cc2pJbeY.s 			page 21


 730              	.LVL32:
 389:../../../support/device/gd32f4xx/peripherals/src/gd32f4xx_adc.c ****         if((length <= 8U) && (length >= 1U)) {
 731              		.loc 1 389 30 view .LVU172
 732 0022 23F46043 		bic	r3, r3, #57344
 390:../../../support/device/gd32f4xx/peripherals/src/gd32f4xx_adc.c ****             ADC_CTL0(adc_periph) |= CTL0_DISNUM(((uint32_t)length - ADC_CHANNEL_LENGTH_SUBTRACT_ONE
 733              		.loc 1 390 11 view .LVU173
 734 0026 0729     		cmp	r1, #7
 389:../../../support/device/gd32f4xx/peripherals/src/gd32f4xx_adc.c ****         if((length <= 8U) && (length >= 1U)) {
 735              		.loc 1 389 30 view .LVU174
 736 0028 4360     		str	r3, [r0, #4]
 390:../../../support/device/gd32f4xx/peripherals/src/gd32f4xx_adc.c ****             ADC_CTL0(adc_periph) |= CTL0_DISNUM(((uint32_t)length - ADC_CHANNEL_LENGTH_SUBTRACT_ONE
 737              		.loc 1 390 9 is_stmt 1 view .LVU175
 390:../../../support/device/gd32f4xx/peripherals/src/gd32f4xx_adc.c ****             ADC_CTL0(adc_periph) |= CTL0_DISNUM(((uint32_t)length - ADC_CHANNEL_LENGTH_SUBTRACT_ONE
 738              		.loc 1 390 11 is_stmt 0 view .LVU176
 739 002a 03D8     		bhi	.L80
 391:../../../support/device/gd32f4xx/peripherals/src/gd32f4xx_adc.c ****         }
 740              		.loc 1 391 13 is_stmt 1 view .LVU177
 391:../../../support/device/gd32f4xx/peripherals/src/gd32f4xx_adc.c ****         }
 741              		.loc 1 391 34 is_stmt 0 view .LVU178
 742 002c 4368     		ldr	r3, [r0, #4]
 743 002e 43EA4232 		orr	r2, r3, r2, lsl #13
 744 0032 4260     		str	r2, [r0, #4]
 745              	.L80:
 394:../../../support/device/gd32f4xx/peripherals/src/gd32f4xx_adc.c ****         break;
 746              		.loc 1 394 9 is_stmt 1 view .LVU179
 394:../../../support/device/gd32f4xx/peripherals/src/gd32f4xx_adc.c ****         break;
 747              		.loc 1 394 30 is_stmt 0 view .LVU180
 748 0034 4368     		ldr	r3, [r0, #4]
 749 0036 43F40063 		orr	r3, r3, #2048
 750 003a 4360     		str	r3, [r0, #4]
 395:../../../support/device/gd32f4xx/peripherals/src/gd32f4xx_adc.c ****     case ADC_INSERTED_CHANNEL:
 751              		.loc 1 395 9 is_stmt 1 view .LVU181
 752 003c 7047     		bx	lr
 753              		.cfi_endproc
 754              	.LFE132:
 756 003e 00BF     		.section	.text.adc_channel_length_config,"ax",%progbits
 757              		.align	1
 758              		.p2align 2,,3
 759              		.global	adc_channel_length_config
 760              		.syntax unified
 761              		.thumb
 762              		.thumb_func
 764              	adc_channel_length_config:
 765              	.LVL33:
 766              	.LFB133:
 406:../../../support/device/gd32f4xx/peripherals/src/gd32f4xx_adc.c **** 
 407:../../../support/device/gd32f4xx/peripherals/src/gd32f4xx_adc.c **** /*!
 408:../../../support/device/gd32f4xx/peripherals/src/gd32f4xx_adc.c ****     \brief        configure the length of routine sequence or inserted sequence
 409:../../../support/device/gd32f4xx/peripherals/src/gd32f4xx_adc.c ****     \param[in]    adc_periph: ADCx,x=0,1,2
 410:../../../support/device/gd32f4xx/peripherals/src/gd32f4xx_adc.c ****     \param[in]    adc_sequence: select the sequence
 411:../../../support/device/gd32f4xx/peripherals/src/gd32f4xx_adc.c ****                   only one parameter can be selected which is shown as below:
 412:../../../support/device/gd32f4xx/peripherals/src/gd32f4xx_adc.c ****     \arg          ADC_ROUTINE_CHANNEL: routine sequence
 413:../../../support/device/gd32f4xx/peripherals/src/gd32f4xx_adc.c ****     \arg          ADC_INSERTED_CHANNEL: inserted sequence
 414:../../../support/device/gd32f4xx/peripherals/src/gd32f4xx_adc.c ****     \param[in]    length: the length of the channel
 415:../../../support/device/gd32f4xx/peripherals/src/gd32f4xx_adc.c ****                   routine channel 1-16
 416:../../../support/device/gd32f4xx/peripherals/src/gd32f4xx_adc.c ****                   inserted channel 1-4
 417:../../../support/device/gd32f4xx/peripherals/src/gd32f4xx_adc.c ****     \param[out]   none
ARM GAS  /var/folders/_f/88qcw_5n2jl40jjphvxyt7wh0000gn/T//cc2pJbeY.s 			page 22


 418:../../../support/device/gd32f4xx/peripherals/src/gd32f4xx_adc.c ****     \retval       none
 419:../../../support/device/gd32f4xx/peripherals/src/gd32f4xx_adc.c **** */
 420:../../../support/device/gd32f4xx/peripherals/src/gd32f4xx_adc.c **** void adc_channel_length_config(uint32_t adc_periph, uint8_t adc_sequence, uint32_t length)
 421:../../../support/device/gd32f4xx/peripherals/src/gd32f4xx_adc.c **** {
 767              		.loc 1 421 1 view -0
 768              		.cfi_startproc
 769              		@ args = 0, pretend = 0, frame = 0
 770              		@ frame_needed = 0, uses_anonymous_args = 0
 771              		@ link register save eliminated.
 422:../../../support/device/gd32f4xx/peripherals/src/gd32f4xx_adc.c ****     switch(adc_sequence) {
 772              		.loc 1 422 5 view .LVU183
 773 0000 0129     		cmp	r1, #1
 774 0002 0ED0     		beq	.L83
 775 0004 0229     		cmp	r1, #2
 776 0006 0BD1     		bne	.L86
 423:../../../support/device/gd32f4xx/peripherals/src/gd32f4xx_adc.c ****     case ADC_ROUTINE_CHANNEL:
 424:../../../support/device/gd32f4xx/peripherals/src/gd32f4xx_adc.c ****         if((length >= 1U) && (length <= 16U)) {
 425:../../../support/device/gd32f4xx/peripherals/src/gd32f4xx_adc.c ****             ADC_RSQ0(adc_periph) &= ~((uint32_t)ADC_RSQ0_RL);
 426:../../../support/device/gd32f4xx/peripherals/src/gd32f4xx_adc.c ****             ADC_RSQ0(adc_periph) |= RSQ0_RL((uint32_t)(length - ADC_CHANNEL_LENGTH_SUBTRACT_ONE));
 427:../../../support/device/gd32f4xx/peripherals/src/gd32f4xx_adc.c ****         }
 428:../../../support/device/gd32f4xx/peripherals/src/gd32f4xx_adc.c ****         break;
 429:../../../support/device/gd32f4xx/peripherals/src/gd32f4xx_adc.c ****     case ADC_INSERTED_CHANNEL:
 430:../../../support/device/gd32f4xx/peripherals/src/gd32f4xx_adc.c ****         if((length >= 1U) && (length <= 4U)) {
 777              		.loc 1 430 9 view .LVU184
 778              		.loc 1 430 27 is_stmt 0 view .LVU185
 779 0008 013A     		subs	r2, r2, #1
 780              	.LVL34:
 781              		.loc 1 430 11 view .LVU186
 782 000a 032A     		cmp	r2, #3
 783 000c 07D8     		bhi	.L82
 431:../../../support/device/gd32f4xx/peripherals/src/gd32f4xx_adc.c ****             ADC_ISQ(adc_periph) &= ~((uint32_t)ADC_ISQ_IL);
 784              		.loc 1 431 13 is_stmt 1 view .LVU187
 785              		.loc 1 431 33 is_stmt 0 view .LVU188
 786 000e 836B     		ldr	r3, [r0, #56]
 787 0010 23F44013 		bic	r3, r3, #3145728
 788 0014 8363     		str	r3, [r0, #56]
 432:../../../support/device/gd32f4xx/peripherals/src/gd32f4xx_adc.c ****             ADC_ISQ(adc_periph) |= ISQ_IL((uint32_t)(length - ADC_CHANNEL_LENGTH_SUBTRACT_ONE));
 789              		.loc 1 432 13 is_stmt 1 view .LVU189
 790              		.loc 1 432 33 is_stmt 0 view .LVU190
 791 0016 836B     		ldr	r3, [r0, #56]
 792 0018 43EA0252 		orr	r2, r3, r2, lsl #20
 793              	.LVL35:
 794              		.loc 1 432 33 view .LVU191
 795 001c 8263     		str	r2, [r0, #56]
 796              	.L82:
 433:../../../support/device/gd32f4xx/peripherals/src/gd32f4xx_adc.c ****         }
 434:../../../support/device/gd32f4xx/peripherals/src/gd32f4xx_adc.c ****         break;
 435:../../../support/device/gd32f4xx/peripherals/src/gd32f4xx_adc.c ****     default:
 436:../../../support/device/gd32f4xx/peripherals/src/gd32f4xx_adc.c ****         break;
 437:../../../support/device/gd32f4xx/peripherals/src/gd32f4xx_adc.c ****     }
 438:../../../support/device/gd32f4xx/peripherals/src/gd32f4xx_adc.c **** }
 797              		.loc 1 438 1 view .LVU192
 798 001e 7047     		bx	lr
 799              	.LVL36:
 800              	.L86:
 801              		.loc 1 438 1 view .LVU193
 802 0020 7047     		bx	lr
ARM GAS  /var/folders/_f/88qcw_5n2jl40jjphvxyt7wh0000gn/T//cc2pJbeY.s 			page 23


 803              	.L83:
 424:../../../support/device/gd32f4xx/peripherals/src/gd32f4xx_adc.c ****             ADC_RSQ0(adc_periph) &= ~((uint32_t)ADC_RSQ0_RL);
 804              		.loc 1 424 9 is_stmt 1 view .LVU194
 424:../../../support/device/gd32f4xx/peripherals/src/gd32f4xx_adc.c ****             ADC_RSQ0(adc_periph) &= ~((uint32_t)ADC_RSQ0_RL);
 805              		.loc 1 424 27 is_stmt 0 view .LVU195
 806 0022 013A     		subs	r2, r2, #1
 807              	.LVL37:
 424:../../../support/device/gd32f4xx/peripherals/src/gd32f4xx_adc.c ****             ADC_RSQ0(adc_periph) &= ~((uint32_t)ADC_RSQ0_RL);
 808              		.loc 1 424 11 view .LVU196
 809 0024 0F2A     		cmp	r2, #15
 810 0026 FAD8     		bhi	.L82
 425:../../../support/device/gd32f4xx/peripherals/src/gd32f4xx_adc.c ****             ADC_RSQ0(adc_periph) |= RSQ0_RL((uint32_t)(length - ADC_CHANNEL_LENGTH_SUBTRACT_ONE));
 811              		.loc 1 425 13 is_stmt 1 view .LVU197
 425:../../../support/device/gd32f4xx/peripherals/src/gd32f4xx_adc.c ****             ADC_RSQ0(adc_periph) |= RSQ0_RL((uint32_t)(length - ADC_CHANNEL_LENGTH_SUBTRACT_ONE));
 812              		.loc 1 425 34 is_stmt 0 view .LVU198
 813 0028 C36A     		ldr	r3, [r0, #44]
 814 002a 23F47003 		bic	r3, r3, #15728640
 815 002e C362     		str	r3, [r0, #44]
 426:../../../support/device/gd32f4xx/peripherals/src/gd32f4xx_adc.c ****         }
 816              		.loc 1 426 13 is_stmt 1 view .LVU199
 426:../../../support/device/gd32f4xx/peripherals/src/gd32f4xx_adc.c ****         }
 817              		.loc 1 426 34 is_stmt 0 view .LVU200
 818 0030 C36A     		ldr	r3, [r0, #44]
 819 0032 43EA0252 		orr	r2, r3, r2, lsl #20
 820              	.LVL38:
 426:../../../support/device/gd32f4xx/peripherals/src/gd32f4xx_adc.c ****         }
 821              		.loc 1 426 34 view .LVU201
 822 0036 C262     		str	r2, [r0, #44]
 823 0038 7047     		bx	lr
 824              		.cfi_endproc
 825              	.LFE133:
 827 003a 00BF     		.section	.text.adc_routine_channel_config,"ax",%progbits
 828              		.align	1
 829              		.p2align 2,,3
 830              		.global	adc_routine_channel_config
 831              		.syntax unified
 832              		.thumb
 833              		.thumb_func
 835              	adc_routine_channel_config:
 836              	.LVL39:
 837              	.LFB134:
 439:../../../support/device/gd32f4xx/peripherals/src/gd32f4xx_adc.c **** 
 440:../../../support/device/gd32f4xx/peripherals/src/gd32f4xx_adc.c **** /*!
 441:../../../support/device/gd32f4xx/peripherals/src/gd32f4xx_adc.c ****     \brief        configure ADC routine channel
 442:../../../support/device/gd32f4xx/peripherals/src/gd32f4xx_adc.c ****     \param[in]    adc_periph: ADCx,x=0,1,2
 443:../../../support/device/gd32f4xx/peripherals/src/gd32f4xx_adc.c ****     \param[in]    rank: the routine sequence rank,this parameter must be between 0 to 15
 444:../../../support/device/gd32f4xx/peripherals/src/gd32f4xx_adc.c ****     \param[in]    adc_channel: the selected ADC channel
 445:../../../support/device/gd32f4xx/peripherals/src/gd32f4xx_adc.c ****                   only one parameter can be selected which is shown as below:
 446:../../../support/device/gd32f4xx/peripherals/src/gd32f4xx_adc.c ****     \arg          ADC_CHANNEL_x(x=0..18): ADC channelx
 447:../../../support/device/gd32f4xx/peripherals/src/gd32f4xx_adc.c ****     \param[in]    sample_time: the sample time value
 448:../../../support/device/gd32f4xx/peripherals/src/gd32f4xx_adc.c ****                   only one parameter can be selected which is shown as below:
 449:../../../support/device/gd32f4xx/peripherals/src/gd32f4xx_adc.c ****     \arg          ADC_SAMPLETIME_3: 3 cycles
 450:../../../support/device/gd32f4xx/peripherals/src/gd32f4xx_adc.c ****     \arg          ADC_SAMPLETIME_15: 15 cycles
 451:../../../support/device/gd32f4xx/peripherals/src/gd32f4xx_adc.c ****     \arg          ADC_SAMPLETIME_28: 28 cycles
 452:../../../support/device/gd32f4xx/peripherals/src/gd32f4xx_adc.c ****     \arg          ADC_SAMPLETIME_56: 56 cycles
 453:../../../support/device/gd32f4xx/peripherals/src/gd32f4xx_adc.c ****     \arg          ADC_SAMPLETIME_84: 84 cycles
 454:../../../support/device/gd32f4xx/peripherals/src/gd32f4xx_adc.c ****     \arg          ADC_SAMPLETIME_112: 112 cycles
ARM GAS  /var/folders/_f/88qcw_5n2jl40jjphvxyt7wh0000gn/T//cc2pJbeY.s 			page 24


 455:../../../support/device/gd32f4xx/peripherals/src/gd32f4xx_adc.c ****     \arg          ADC_SAMPLETIME_144: 144 cycles
 456:../../../support/device/gd32f4xx/peripherals/src/gd32f4xx_adc.c ****     \arg          ADC_SAMPLETIME_480: 480 cycles
 457:../../../support/device/gd32f4xx/peripherals/src/gd32f4xx_adc.c ****     \param[out]   none
 458:../../../support/device/gd32f4xx/peripherals/src/gd32f4xx_adc.c ****     \retval       none
 459:../../../support/device/gd32f4xx/peripherals/src/gd32f4xx_adc.c **** */
 460:../../../support/device/gd32f4xx/peripherals/src/gd32f4xx_adc.c **** void adc_routine_channel_config(uint32_t adc_periph, uint8_t rank, uint8_t adc_channel, uint32_t sa
 461:../../../support/device/gd32f4xx/peripherals/src/gd32f4xx_adc.c **** {
 838              		.loc 1 461 1 is_stmt 1 view -0
 839              		.cfi_startproc
 840              		@ args = 0, pretend = 0, frame = 0
 841              		@ frame_needed = 0, uses_anonymous_args = 0
 842              		@ link register save eliminated.
 462:../../../support/device/gd32f4xx/peripherals/src/gd32f4xx_adc.c ****     uint32_t rsq, sampt;
 843              		.loc 1 462 5 view .LVU203
 463:../../../support/device/gd32f4xx/peripherals/src/gd32f4xx_adc.c **** 
 464:../../../support/device/gd32f4xx/peripherals/src/gd32f4xx_adc.c ****     /* ADC routine sequence config */
 465:../../../support/device/gd32f4xx/peripherals/src/gd32f4xx_adc.c ****     if(rank < ADC_ROUTINE_CHANNEL_RANK_SIX) {
 844              		.loc 1 465 5 view .LVU204
 845              		.loc 1 465 7 is_stmt 0 view .LVU205
 846 0000 0529     		cmp	r1, #5
 461:../../../support/device/gd32f4xx/peripherals/src/gd32f4xx_adc.c ****     uint32_t rsq, sampt;
 847              		.loc 1 461 1 view .LVU206
 848 0002 10B4     		push	{r4}
 849              	.LCFI4:
 850              		.cfi_def_cfa_offset 4
 851              		.cfi_offset 4, -4
 852              		.loc 1 465 7 view .LVU207
 853 0004 1ED8     		bhi	.L88
 466:../../../support/device/gd32f4xx/peripherals/src/gd32f4xx_adc.c ****         /* the routine sequence rank is smaller than six */
 467:../../../support/device/gd32f4xx/peripherals/src/gd32f4xx_adc.c ****         rsq = ADC_RSQ2(adc_periph);
 854              		.loc 1 467 9 is_stmt 1 view .LVU208
 855              		.loc 1 467 13 is_stmt 0 view .LVU209
 856 0006 446B     		ldr	r4, [r0, #52]
 857              	.LVL40:
 468:../../../support/device/gd32f4xx/peripherals/src/gd32f4xx_adc.c ****         rsq &=  ~((uint32_t)(ADC_RSQX_RSQN << (ADC_ROUTINE_CHANNEL_RANK_LENGTH * rank)));
 858              		.loc 1 468 9 is_stmt 1 view .LVU210
 859              		.loc 1 468 80 is_stmt 0 view .LVU211
 860 0008 01EB8101 		add	r1, r1, r1, lsl #2
 861              	.LVL41:
 862              		.loc 1 468 19 view .LVU212
 863 000c 4FF01F0C 		mov	ip, #31
 864 0010 0CFA01FC 		lsl	ip, ip, r1
 865              		.loc 1 468 13 view .LVU213
 866 0014 24EA0C0C 		bic	ip, r4, ip
 867              	.LVL42:
 469:../../../support/device/gd32f4xx/peripherals/src/gd32f4xx_adc.c ****         /* the channel number is written to these bits to select a channel as the nth conversion in
 470:../../../support/device/gd32f4xx/peripherals/src/gd32f4xx_adc.c ****         rsq |= ((uint32_t)adc_channel << (ADC_ROUTINE_CHANNEL_RANK_LENGTH * rank));
 868              		.loc 1 470 9 is_stmt 1 view .LVU214
 869              		.loc 1 470 39 is_stmt 0 view .LVU215
 870 0018 02FA01F1 		lsl	r1, r2, r1
 871              		.loc 1 470 13 view .LVU216
 872 001c 41EA0C01 		orr	r1, r1, ip
 873              	.LVL43:
 471:../../../support/device/gd32f4xx/peripherals/src/gd32f4xx_adc.c ****         ADC_RSQ2(adc_periph) = rsq;
 874              		.loc 1 471 9 is_stmt 1 view .LVU217
 875              		.loc 1 471 30 is_stmt 0 view .LVU218
 876 0020 4163     		str	r1, [r0, #52]
ARM GAS  /var/folders/_f/88qcw_5n2jl40jjphvxyt7wh0000gn/T//cc2pJbeY.s 			page 25


 877              	.LVL44:
 878              	.L89:
 472:../../../support/device/gd32f4xx/peripherals/src/gd32f4xx_adc.c ****     } else if(rank < ADC_ROUTINE_CHANNEL_RANK_TWELVE) {
 473:../../../support/device/gd32f4xx/peripherals/src/gd32f4xx_adc.c ****         /* the routine sequence rank is smaller than twelve */
 474:../../../support/device/gd32f4xx/peripherals/src/gd32f4xx_adc.c ****         rsq = ADC_RSQ1(adc_periph);
 475:../../../support/device/gd32f4xx/peripherals/src/gd32f4xx_adc.c ****         rsq &= ~((uint32_t)(ADC_RSQX_RSQN << (ADC_ROUTINE_CHANNEL_RANK_LENGTH * (rank - ADC_ROUTINE
 476:../../../support/device/gd32f4xx/peripherals/src/gd32f4xx_adc.c ****         /* the channel number is written to these bits to select a channel as the nth conversion in
 477:../../../support/device/gd32f4xx/peripherals/src/gd32f4xx_adc.c ****         rsq |= ((uint32_t)adc_channel << (ADC_ROUTINE_CHANNEL_RANK_LENGTH * (rank - ADC_ROUTINE_CHA
 478:../../../support/device/gd32f4xx/peripherals/src/gd32f4xx_adc.c ****         ADC_RSQ1(adc_periph) = rsq;
 479:../../../support/device/gd32f4xx/peripherals/src/gd32f4xx_adc.c ****     } else if(rank < ADC_ROUTINE_CHANNEL_RANK_SIXTEEN) {
 480:../../../support/device/gd32f4xx/peripherals/src/gd32f4xx_adc.c ****         /* the routine sequence rank is smaller than sixteen */
 481:../../../support/device/gd32f4xx/peripherals/src/gd32f4xx_adc.c ****         rsq = ADC_RSQ0(adc_periph);
 482:../../../support/device/gd32f4xx/peripherals/src/gd32f4xx_adc.c ****         rsq &= ~((uint32_t)(ADC_RSQX_RSQN << (ADC_ROUTINE_CHANNEL_RANK_LENGTH * (rank - ADC_ROUTINE
 483:../../../support/device/gd32f4xx/peripherals/src/gd32f4xx_adc.c ****         /* the channel number is written to these bits to select a channel as the nth conversion in
 484:../../../support/device/gd32f4xx/peripherals/src/gd32f4xx_adc.c ****         rsq |= ((uint32_t)adc_channel << (ADC_ROUTINE_CHANNEL_RANK_LENGTH * (rank - ADC_ROUTINE_CHA
 485:../../../support/device/gd32f4xx/peripherals/src/gd32f4xx_adc.c ****         ADC_RSQ0(adc_periph) = rsq;
 486:../../../support/device/gd32f4xx/peripherals/src/gd32f4xx_adc.c ****     } else {
 487:../../../support/device/gd32f4xx/peripherals/src/gd32f4xx_adc.c ****     }
 879              		.loc 1 487 5 is_stmt 1 view .LVU219
 488:../../../support/device/gd32f4xx/peripherals/src/gd32f4xx_adc.c **** 
 489:../../../support/device/gd32f4xx/peripherals/src/gd32f4xx_adc.c ****     /* ADC sampling time config */
 490:../../../support/device/gd32f4xx/peripherals/src/gd32f4xx_adc.c ****     if(adc_channel < ADC_CHANNEL_SAMPLE_TEN) {
 880              		.loc 1 490 5 view .LVU220
 881              		.loc 1 490 7 is_stmt 0 view .LVU221
 882 0022 092A     		cmp	r2, #9
 883 0024 20D8     		bhi	.L91
 884              	.L94:
 491:../../../support/device/gd32f4xx/peripherals/src/gd32f4xx_adc.c ****         /* the routine sequence rank is smaller than ten */
 492:../../../support/device/gd32f4xx/peripherals/src/gd32f4xx_adc.c ****         sampt = ADC_SAMPT1(adc_periph);
 885              		.loc 1 492 9 is_stmt 1 view .LVU222
 886              		.loc 1 492 15 is_stmt 0 view .LVU223
 887 0026 0169     		ldr	r1, [r0, #16]
 888              	.LVL45:
 493:../../../support/device/gd32f4xx/peripherals/src/gd32f4xx_adc.c ****         sampt &= ~((uint32_t)(ADC_SAMPTX_SPTN << (ADC_CHANNEL_SAMPLE_LENGTH * adc_channel)));
 889              		.loc 1 493 9 is_stmt 1 view .LVU224
 890              		.loc 1 493 77 is_stmt 0 view .LVU225
 891 0028 02EB4202 		add	r2, r2, r2, lsl #1
 892              	.LVL46:
 893              		.loc 1 493 20 view .LVU226
 894 002c 4FF0070C 		mov	ip, #7
 895 0030 0CFA02FC 		lsl	ip, ip, r2
 896              		.loc 1 493 15 view .LVU227
 897 0034 21EA0C01 		bic	r1, r1, ip
 898              	.LVL47:
 494:../../../support/device/gd32f4xx/peripherals/src/gd32f4xx_adc.c ****         /* channel sample time set*/
 495:../../../support/device/gd32f4xx/peripherals/src/gd32f4xx_adc.c ****         sampt |= (uint32_t)(sample_time << (ADC_CHANNEL_SAMPLE_LENGTH * adc_channel));
 899              		.loc 1 495 9 is_stmt 1 view .LVU228
 900              		.loc 1 495 41 is_stmt 0 view .LVU229
 901 0038 03FA02F2 		lsl	r2, r3, r2
 902              		.loc 1 495 15 view .LVU230
 903 003c 0A43     		orrs	r2, r2, r1
 904              	.LVL48:
 496:../../../support/device/gd32f4xx/peripherals/src/gd32f4xx_adc.c ****         ADC_SAMPT1(adc_periph) = sampt;
 905              		.loc 1 496 9 is_stmt 1 view .LVU231
 906              		.loc 1 496 32 is_stmt 0 view .LVU232
 907 003e 0261     		str	r2, [r0, #16]
 908              	.LVL49:
ARM GAS  /var/folders/_f/88qcw_5n2jl40jjphvxyt7wh0000gn/T//cc2pJbeY.s 			page 26


 909              	.L87:
 497:../../../support/device/gd32f4xx/peripherals/src/gd32f4xx_adc.c ****     } else if(adc_channel <= ADC_CHANNEL_SAMPLE_EIGHTEEN) {
 498:../../../support/device/gd32f4xx/peripherals/src/gd32f4xx_adc.c ****         /* the routine sequence rank is smaller than eighteen */
 499:../../../support/device/gd32f4xx/peripherals/src/gd32f4xx_adc.c ****         sampt = ADC_SAMPT0(adc_periph);
 500:../../../support/device/gd32f4xx/peripherals/src/gd32f4xx_adc.c ****         sampt &= ~((uint32_t)(ADC_SAMPTX_SPTN << (ADC_CHANNEL_SAMPLE_LENGTH * (adc_channel - ADC_CH
 501:../../../support/device/gd32f4xx/peripherals/src/gd32f4xx_adc.c ****         /* channel sample time set*/
 502:../../../support/device/gd32f4xx/peripherals/src/gd32f4xx_adc.c ****         sampt |= (uint32_t)(sample_time << (ADC_CHANNEL_SAMPLE_LENGTH * (adc_channel - ADC_CHANNEL_
 503:../../../support/device/gd32f4xx/peripherals/src/gd32f4xx_adc.c ****         ADC_SAMPT0(adc_periph) = sampt;
 504:../../../support/device/gd32f4xx/peripherals/src/gd32f4xx_adc.c ****     } else {
 505:../../../support/device/gd32f4xx/peripherals/src/gd32f4xx_adc.c ****     }
 506:../../../support/device/gd32f4xx/peripherals/src/gd32f4xx_adc.c **** }
 910              		.loc 1 506 1 view .LVU233
 911 0040 10BC     		pop	{r4}
 912              	.LCFI5:
 913              		.cfi_remember_state
 914              		.cfi_restore 4
 915              		.cfi_def_cfa_offset 0
 916 0042 7047     		bx	lr
 917              	.LVL50:
 918              	.L88:
 919              	.LCFI6:
 920              		.cfi_restore_state
 472:../../../support/device/gd32f4xx/peripherals/src/gd32f4xx_adc.c ****         /* the routine sequence rank is smaller than twelve */
 921              		.loc 1 472 12 is_stmt 1 view .LVU234
 472:../../../support/device/gd32f4xx/peripherals/src/gd32f4xx_adc.c ****         /* the routine sequence rank is smaller than twelve */
 922              		.loc 1 472 14 is_stmt 0 view .LVU235
 923 0044 0B29     		cmp	r1, #11
 924 0046 1ED8     		bhi	.L90
 474:../../../support/device/gd32f4xx/peripherals/src/gd32f4xx_adc.c ****         rsq &= ~((uint32_t)(ADC_RSQX_RSQN << (ADC_ROUTINE_CHANNEL_RANK_LENGTH * (rank - ADC_ROUTINE
 925              		.loc 1 474 9 is_stmt 1 view .LVU236
 475:../../../support/device/gd32f4xx/peripherals/src/gd32f4xx_adc.c ****         /* the channel number is written to these bits to select a channel as the nth conversion in
 926              		.loc 1 475 87 is_stmt 0 view .LVU237
 927 0048 0639     		subs	r1, r1, #6
 928              	.LVL51:
 474:../../../support/device/gd32f4xx/peripherals/src/gd32f4xx_adc.c ****         rsq &= ~((uint32_t)(ADC_RSQX_RSQN << (ADC_ROUTINE_CHANNEL_RANK_LENGTH * (rank - ADC_ROUTINE
 929              		.loc 1 474 13 view .LVU238
 930 004a 046B     		ldr	r4, [r0, #48]
 931              	.LVL52:
 475:../../../support/device/gd32f4xx/peripherals/src/gd32f4xx_adc.c ****         /* the channel number is written to these bits to select a channel as the nth conversion in
 932              		.loc 1 475 9 is_stmt 1 view .LVU239
 475:../../../support/device/gd32f4xx/peripherals/src/gd32f4xx_adc.c ****         /* the channel number is written to these bits to select a channel as the nth conversion in
 933              		.loc 1 475 79 is_stmt 0 view .LVU240
 934 004c 01EB8101 		add	r1, r1, r1, lsl #2
 475:../../../support/device/gd32f4xx/peripherals/src/gd32f4xx_adc.c ****         /* the channel number is written to these bits to select a channel as the nth conversion in
 935              		.loc 1 475 18 view .LVU241
 936 0050 4FF01F0C 		mov	ip, #31
 937 0054 0CFA01FC 		lsl	ip, ip, r1
 475:../../../support/device/gd32f4xx/peripherals/src/gd32f4xx_adc.c ****         /* the channel number is written to these bits to select a channel as the nth conversion in
 938              		.loc 1 475 13 view .LVU242
 939 0058 24EA0C04 		bic	r4, r4, ip
 940              	.LVL53:
 477:../../../support/device/gd32f4xx/peripherals/src/gd32f4xx_adc.c ****         ADC_RSQ1(adc_periph) = rsq;
 941              		.loc 1 477 9 is_stmt 1 view .LVU243
 477:../../../support/device/gd32f4xx/peripherals/src/gd32f4xx_adc.c ****         ADC_RSQ1(adc_periph) = rsq;
 942              		.loc 1 477 39 is_stmt 0 view .LVU244
 943 005c 02FA01F1 		lsl	r1, r2, r1
 477:../../../support/device/gd32f4xx/peripherals/src/gd32f4xx_adc.c ****         ADC_RSQ1(adc_periph) = rsq;
ARM GAS  /var/folders/_f/88qcw_5n2jl40jjphvxyt7wh0000gn/T//cc2pJbeY.s 			page 27


 944              		.loc 1 477 13 view .LVU245
 945 0060 2143     		orrs	r1, r1, r4
 946              	.LVL54:
 478:../../../support/device/gd32f4xx/peripherals/src/gd32f4xx_adc.c ****     } else if(rank < ADC_ROUTINE_CHANNEL_RANK_SIXTEEN) {
 947              		.loc 1 478 9 is_stmt 1 view .LVU246
 490:../../../support/device/gd32f4xx/peripherals/src/gd32f4xx_adc.c ****         /* the routine sequence rank is smaller than ten */
 948              		.loc 1 490 7 is_stmt 0 view .LVU247
 949 0062 092A     		cmp	r2, #9
 478:../../../support/device/gd32f4xx/peripherals/src/gd32f4xx_adc.c ****     } else if(rank < ADC_ROUTINE_CHANNEL_RANK_SIXTEEN) {
 950              		.loc 1 478 30 view .LVU248
 951 0064 0163     		str	r1, [r0, #48]
 487:../../../support/device/gd32f4xx/peripherals/src/gd32f4xx_adc.c **** 
 952              		.loc 1 487 5 is_stmt 1 view .LVU249
 490:../../../support/device/gd32f4xx/peripherals/src/gd32f4xx_adc.c ****         /* the routine sequence rank is smaller than ten */
 953              		.loc 1 490 5 view .LVU250
 490:../../../support/device/gd32f4xx/peripherals/src/gd32f4xx_adc.c ****         /* the routine sequence rank is smaller than ten */
 954              		.loc 1 490 7 is_stmt 0 view .LVU251
 955 0066 DED9     		bls	.L94
 956              	.LVL55:
 957              	.L91:
 497:../../../support/device/gd32f4xx/peripherals/src/gd32f4xx_adc.c ****         /* the routine sequence rank is smaller than eighteen */
 958              		.loc 1 497 12 is_stmt 1 view .LVU252
 497:../../../support/device/gd32f4xx/peripherals/src/gd32f4xx_adc.c ****         /* the routine sequence rank is smaller than eighteen */
 959              		.loc 1 497 14 is_stmt 0 view .LVU253
 960 0068 122A     		cmp	r2, #18
 961 006a E9D8     		bhi	.L87
 499:../../../support/device/gd32f4xx/peripherals/src/gd32f4xx_adc.c ****         sampt &= ~((uint32_t)(ADC_SAMPTX_SPTN << (ADC_CHANNEL_SAMPLE_LENGTH * (adc_channel - ADC_CH
 962              		.loc 1 499 9 is_stmt 1 view .LVU254
 500:../../../support/device/gd32f4xx/peripherals/src/gd32f4xx_adc.c ****         /* channel sample time set*/
 963              		.loc 1 500 92 is_stmt 0 view .LVU255
 964 006c 0A3A     		subs	r2, r2, #10
 965              	.LVL56:
 499:../../../support/device/gd32f4xx/peripherals/src/gd32f4xx_adc.c ****         sampt &= ~((uint32_t)(ADC_SAMPTX_SPTN << (ADC_CHANNEL_SAMPLE_LENGTH * (adc_channel - ADC_CH
 966              		.loc 1 499 15 view .LVU256
 967 006e C168     		ldr	r1, [r0, #12]
 968              	.LVL57:
 500:../../../support/device/gd32f4xx/peripherals/src/gd32f4xx_adc.c ****         /* channel sample time set*/
 969              		.loc 1 500 9 is_stmt 1 view .LVU257
 500:../../../support/device/gd32f4xx/peripherals/src/gd32f4xx_adc.c ****         /* channel sample time set*/
 970              		.loc 1 500 77 is_stmt 0 view .LVU258
 971 0070 02EB4202 		add	r2, r2, r2, lsl #1
 500:../../../support/device/gd32f4xx/peripherals/src/gd32f4xx_adc.c ****         /* channel sample time set*/
 972              		.loc 1 500 20 view .LVU259
 973 0074 0724     		movs	r4, #7
 974 0076 9440     		lsls	r4, r4, r2
 500:../../../support/device/gd32f4xx/peripherals/src/gd32f4xx_adc.c ****         /* channel sample time set*/
 975              		.loc 1 500 15 view .LVU260
 976 0078 21EA0401 		bic	r1, r1, r4
 977              	.LVL58:
 502:../../../support/device/gd32f4xx/peripherals/src/gd32f4xx_adc.c ****         ADC_SAMPT0(adc_periph) = sampt;
 978              		.loc 1 502 9 is_stmt 1 view .LVU261
 502:../../../support/device/gd32f4xx/peripherals/src/gd32f4xx_adc.c ****         ADC_SAMPT0(adc_periph) = sampt;
 979              		.loc 1 502 41 is_stmt 0 view .LVU262
 980 007c 9340     		lsls	r3, r3, r2
 981              	.LVL59:
 502:../../../support/device/gd32f4xx/peripherals/src/gd32f4xx_adc.c ****         ADC_SAMPT0(adc_periph) = sampt;
 982              		.loc 1 502 15 view .LVU263
ARM GAS  /var/folders/_f/88qcw_5n2jl40jjphvxyt7wh0000gn/T//cc2pJbeY.s 			page 28


 983 007e 0B43     		orrs	r3, r3, r1
 984              	.LVL60:
 503:../../../support/device/gd32f4xx/peripherals/src/gd32f4xx_adc.c ****     } else {
 985              		.loc 1 503 9 is_stmt 1 view .LVU264
 986              		.loc 1 506 1 is_stmt 0 view .LVU265
 987 0080 10BC     		pop	{r4}
 988              	.LCFI7:
 989              		.cfi_remember_state
 990              		.cfi_restore 4
 991              		.cfi_def_cfa_offset 0
 503:../../../support/device/gd32f4xx/peripherals/src/gd32f4xx_adc.c ****     } else {
 992              		.loc 1 503 32 view .LVU266
 993 0082 C360     		str	r3, [r0, #12]
 505:../../../support/device/gd32f4xx/peripherals/src/gd32f4xx_adc.c **** }
 994              		.loc 1 505 5 is_stmt 1 view .LVU267
 995              		.loc 1 506 1 is_stmt 0 view .LVU268
 996 0084 7047     		bx	lr
 997              	.LVL61:
 998              	.L90:
 999              	.LCFI8:
 1000              		.cfi_restore_state
 479:../../../support/device/gd32f4xx/peripherals/src/gd32f4xx_adc.c ****         /* the routine sequence rank is smaller than sixteen */
 1001              		.loc 1 479 12 is_stmt 1 view .LVU269
 479:../../../support/device/gd32f4xx/peripherals/src/gd32f4xx_adc.c ****         /* the routine sequence rank is smaller than sixteen */
 1002              		.loc 1 479 14 is_stmt 0 view .LVU270
 1003 0086 0F29     		cmp	r1, #15
 1004 0088 CBD8     		bhi	.L89
 481:../../../support/device/gd32f4xx/peripherals/src/gd32f4xx_adc.c ****         rsq &= ~((uint32_t)(ADC_RSQX_RSQN << (ADC_ROUTINE_CHANNEL_RANK_LENGTH * (rank - ADC_ROUTINE
 1005              		.loc 1 481 9 is_stmt 1 view .LVU271
 482:../../../support/device/gd32f4xx/peripherals/src/gd32f4xx_adc.c ****         /* the channel number is written to these bits to select a channel as the nth conversion in
 1006              		.loc 1 482 87 is_stmt 0 view .LVU272
 1007 008a 0C39     		subs	r1, r1, #12
 1008              	.LVL62:
 481:../../../support/device/gd32f4xx/peripherals/src/gd32f4xx_adc.c ****         rsq &= ~((uint32_t)(ADC_RSQX_RSQN << (ADC_ROUTINE_CHANNEL_RANK_LENGTH * (rank - ADC_ROUTINE
 1009              		.loc 1 481 13 view .LVU273
 1010 008c C46A     		ldr	r4, [r0, #44]
 1011              	.LVL63:
 482:../../../support/device/gd32f4xx/peripherals/src/gd32f4xx_adc.c ****         /* the channel number is written to these bits to select a channel as the nth conversion in
 1012              		.loc 1 482 9 is_stmt 1 view .LVU274
 482:../../../support/device/gd32f4xx/peripherals/src/gd32f4xx_adc.c ****         /* the channel number is written to these bits to select a channel as the nth conversion in
 1013              		.loc 1 482 79 is_stmt 0 view .LVU275
 1014 008e 01EB8101 		add	r1, r1, r1, lsl #2
 482:../../../support/device/gd32f4xx/peripherals/src/gd32f4xx_adc.c ****         /* the channel number is written to these bits to select a channel as the nth conversion in
 1015              		.loc 1 482 18 view .LVU276
 1016 0092 4FF01F0C 		mov	ip, #31
 1017 0096 0CFA01FC 		lsl	ip, ip, r1
 482:../../../support/device/gd32f4xx/peripherals/src/gd32f4xx_adc.c ****         /* the channel number is written to these bits to select a channel as the nth conversion in
 1018              		.loc 1 482 13 view .LVU277
 1019 009a 24EA0C04 		bic	r4, r4, ip
 1020              	.LVL64:
 484:../../../support/device/gd32f4xx/peripherals/src/gd32f4xx_adc.c ****         ADC_RSQ0(adc_periph) = rsq;
 1021              		.loc 1 484 9 is_stmt 1 view .LVU278
 484:../../../support/device/gd32f4xx/peripherals/src/gd32f4xx_adc.c ****         ADC_RSQ0(adc_periph) = rsq;
 1022              		.loc 1 484 39 is_stmt 0 view .LVU279
 1023 009e 02FA01F1 		lsl	r1, r2, r1
 484:../../../support/device/gd32f4xx/peripherals/src/gd32f4xx_adc.c ****         ADC_RSQ0(adc_periph) = rsq;
 1024              		.loc 1 484 13 view .LVU280
ARM GAS  /var/folders/_f/88qcw_5n2jl40jjphvxyt7wh0000gn/T//cc2pJbeY.s 			page 29


 1025 00a2 2143     		orrs	r1, r1, r4
 1026              	.LVL65:
 485:../../../support/device/gd32f4xx/peripherals/src/gd32f4xx_adc.c ****     } else {
 1027              		.loc 1 485 9 is_stmt 1 view .LVU281
 485:../../../support/device/gd32f4xx/peripherals/src/gd32f4xx_adc.c ****     } else {
 1028              		.loc 1 485 30 is_stmt 0 view .LVU282
 1029 00a4 C162     		str	r1, [r0, #44]
 1030 00a6 BCE7     		b	.L89
 1031              		.cfi_endproc
 1032              	.LFE134:
 1034              		.section	.text.adc_inserted_channel_config,"ax",%progbits
 1035              		.align	1
 1036              		.p2align 2,,3
 1037              		.global	adc_inserted_channel_config
 1038              		.syntax unified
 1039              		.thumb
 1040              		.thumb_func
 1042              	adc_inserted_channel_config:
 1043              	.LVL66:
 1044              	.LFB135:
 507:../../../support/device/gd32f4xx/peripherals/src/gd32f4xx_adc.c **** 
 508:../../../support/device/gd32f4xx/peripherals/src/gd32f4xx_adc.c **** /*!
 509:../../../support/device/gd32f4xx/peripherals/src/gd32f4xx_adc.c ****     \brief    configure ADC inserted channel
 510:../../../support/device/gd32f4xx/peripherals/src/gd32f4xx_adc.c ****     \param[in]  adc_periph: ADCx,x=0,1,2
 511:../../../support/device/gd32f4xx/peripherals/src/gd32f4xx_adc.c ****     \param[in]  rank: the inserted sequence rank,this parameter must be between 0 to 3
 512:../../../support/device/gd32f4xx/peripherals/src/gd32f4xx_adc.c ****     \param[in]  adc_channel: the selected ADC channel
 513:../../../support/device/gd32f4xx/peripherals/src/gd32f4xx_adc.c ****                 only one parameter can be selected which is shown as below:
 514:../../../support/device/gd32f4xx/peripherals/src/gd32f4xx_adc.c ****     \arg        ADC_CHANNEL_x(x=0..18): ADC Channelx
 515:../../../support/device/gd32f4xx/peripherals/src/gd32f4xx_adc.c ****     \param[in]  sample_time: The sample time value
 516:../../../support/device/gd32f4xx/peripherals/src/gd32f4xx_adc.c ****                 only one parameter can be selected which is shown as below:
 517:../../../support/device/gd32f4xx/peripherals/src/gd32f4xx_adc.c ****     \arg        ADC_SAMPLETIME_3: 3 cycles
 518:../../../support/device/gd32f4xx/peripherals/src/gd32f4xx_adc.c ****     \arg        ADC_SAMPLETIME_15: 15 cycles
 519:../../../support/device/gd32f4xx/peripherals/src/gd32f4xx_adc.c ****     \arg        ADC_SAMPLETIME_28: 28 cycles
 520:../../../support/device/gd32f4xx/peripherals/src/gd32f4xx_adc.c ****     \arg        ADC_SAMPLETIME_56: 56 cycles
 521:../../../support/device/gd32f4xx/peripherals/src/gd32f4xx_adc.c ****     \arg        ADC_SAMPLETIME_84: 84 cycles
 522:../../../support/device/gd32f4xx/peripherals/src/gd32f4xx_adc.c ****     \arg        ADC_SAMPLETIME_112: 112 cycles
 523:../../../support/device/gd32f4xx/peripherals/src/gd32f4xx_adc.c ****     \arg        ADC_SAMPLETIME_144: 144 cycles
 524:../../../support/device/gd32f4xx/peripherals/src/gd32f4xx_adc.c ****     \arg        ADC_SAMPLETIME_480: 480 cycles
 525:../../../support/device/gd32f4xx/peripherals/src/gd32f4xx_adc.c ****     \param[out] none
 526:../../../support/device/gd32f4xx/peripherals/src/gd32f4xx_adc.c ****     \retval     none
 527:../../../support/device/gd32f4xx/peripherals/src/gd32f4xx_adc.c **** */
 528:../../../support/device/gd32f4xx/peripherals/src/gd32f4xx_adc.c **** void adc_inserted_channel_config(uint32_t adc_periph, uint8_t rank, uint8_t adc_channel, uint32_t s
 529:../../../support/device/gd32f4xx/peripherals/src/gd32f4xx_adc.c **** {
 1045              		.loc 1 529 1 is_stmt 1 view -0
 1046              		.cfi_startproc
 1047              		@ args = 0, pretend = 0, frame = 0
 1048              		@ frame_needed = 0, uses_anonymous_args = 0
 1049              		@ link register save eliminated.
 530:../../../support/device/gd32f4xx/peripherals/src/gd32f4xx_adc.c ****     uint8_t inserted_length;
 1050              		.loc 1 530 5 view .LVU284
 531:../../../support/device/gd32f4xx/peripherals/src/gd32f4xx_adc.c ****     uint32_t isq, sampt;
 1051              		.loc 1 531 5 view .LVU285
 532:../../../support/device/gd32f4xx/peripherals/src/gd32f4xx_adc.c **** 
 533:../../../support/device/gd32f4xx/peripherals/src/gd32f4xx_adc.c ****     /* get inserted sequence length */
 534:../../../support/device/gd32f4xx/peripherals/src/gd32f4xx_adc.c ****     inserted_length = (uint8_t)GET_BITS(ADC_ISQ(adc_periph), 20U, 21U);
 1052              		.loc 1 534 5 view .LVU286
 535:../../../support/device/gd32f4xx/peripherals/src/gd32f4xx_adc.c ****     /* the channel number is written to these bits to select a channel as the nth conversion in the
ARM GAS  /var/folders/_f/88qcw_5n2jl40jjphvxyt7wh0000gn/T//cc2pJbeY.s 			page 30


 536:../../../support/device/gd32f4xx/peripherals/src/gd32f4xx_adc.c ****     if(rank < 4U) {
 1053              		.loc 1 536 7 is_stmt 0 view .LVU287
 1054 0000 0329     		cmp	r1, #3
 529:../../../support/device/gd32f4xx/peripherals/src/gd32f4xx_adc.c ****     uint8_t inserted_length;
 1055              		.loc 1 529 1 view .LVU288
 1056 0002 10B4     		push	{r4}
 1057              	.LCFI9:
 1058              		.cfi_def_cfa_offset 4
 1059              		.cfi_offset 4, -4
 534:../../../support/device/gd32f4xx/peripherals/src/gd32f4xx_adc.c ****     /* the channel number is written to these bits to select a channel as the nth conversion in the
 1060              		.loc 1 534 32 view .LVU289
 1061 0004 846B     		ldr	r4, [r0, #56]
 1062              	.LVL67:
 1063              		.loc 1 536 5 is_stmt 1 view .LVU290
 1064              		.loc 1 536 7 is_stmt 0 view .LVU291
 1065 0006 11D8     		bhi	.L96
 537:../../../support/device/gd32f4xx/peripherals/src/gd32f4xx_adc.c ****         isq = ADC_ISQ(adc_periph);
 1066              		.loc 1 537 9 is_stmt 1 view .LVU292
 538:../../../support/device/gd32f4xx/peripherals/src/gd32f4xx_adc.c ****         isq &= ~((uint32_t)(ADC_ISQ_ISQN << (ADC_INSERTED_CHANNEL_SHIFT_LENGTH - (inserted_length -
 1067              		.loc 1 538 99 is_stmt 0 view .LVU293
 1068 0008 C4F30154 		ubfx	r4, r4, #20, #2
 1069              	.LVL68:
 1070              		.loc 1 538 99 view .LVU294
 1071 000c 611A     		subs	r1, r4, r1
 1072              	.LVL69:
 1073              		.loc 1 538 107 view .LVU295
 1074 000e C1EB8174 		rsb	r4, r1, r1, lsl #30
 1075 0012 C1EB8401 		rsb	r1, r1, r4, lsl #2
 1076              		.loc 1 538 80 view .LVU296
 1077 0016 0F31     		adds	r1, r1, #15
 1078              		.loc 1 538 18 view .LVU297
 1079 0018 1F24     		movs	r4, #31
 1080 001a 04FA01FC 		lsl	ip, r4, r1
 537:../../../support/device/gd32f4xx/peripherals/src/gd32f4xx_adc.c ****         isq = ADC_ISQ(adc_periph);
 1081              		.loc 1 537 13 view .LVU298
 1082 001e 846B     		ldr	r4, [r0, #56]
 1083              	.LVL70:
 1084              		.loc 1 538 9 is_stmt 1 view .LVU299
 539:../../../support/device/gd32f4xx/peripherals/src/gd32f4xx_adc.c ****         isq |= ((uint32_t)adc_channel << (ADC_INSERTED_CHANNEL_SHIFT_LENGTH - (inserted_length - ra
 1085              		.loc 1 539 39 is_stmt 0 view .LVU300
 1086 0020 02FA01F1 		lsl	r1, r2, r1
 538:../../../support/device/gd32f4xx/peripherals/src/gd32f4xx_adc.c ****         isq &= ~((uint32_t)(ADC_ISQ_ISQN << (ADC_INSERTED_CHANNEL_SHIFT_LENGTH - (inserted_length -
 1087              		.loc 1 538 13 view .LVU301
 1088 0024 24EA0C04 		bic	r4, r4, ip
 1089              	.LVL71:
 1090              		.loc 1 539 9 is_stmt 1 view .LVU302
 1091              		.loc 1 539 13 is_stmt 0 view .LVU303
 1092 0028 2143     		orrs	r1, r1, r4
 1093              	.LVL72:
 540:../../../support/device/gd32f4xx/peripherals/src/gd32f4xx_adc.c ****         ADC_ISQ(adc_periph) = isq;
 1094              		.loc 1 540 9 is_stmt 1 view .LVU304
 1095              		.loc 1 540 29 is_stmt 0 view .LVU305
 1096 002a 8163     		str	r1, [r0, #56]
 1097              	.LVL73:
 1098              	.L96:
 541:../../../support/device/gd32f4xx/peripherals/src/gd32f4xx_adc.c ****     }
 542:../../../support/device/gd32f4xx/peripherals/src/gd32f4xx_adc.c **** 
ARM GAS  /var/folders/_f/88qcw_5n2jl40jjphvxyt7wh0000gn/T//cc2pJbeY.s 			page 31


 543:../../../support/device/gd32f4xx/peripherals/src/gd32f4xx_adc.c ****     /* ADC sampling time config */
 544:../../../support/device/gd32f4xx/peripherals/src/gd32f4xx_adc.c ****     if(adc_channel < ADC_CHANNEL_SAMPLE_TEN) {
 1099              		.loc 1 544 5 is_stmt 1 view .LVU306
 1100              		.loc 1 544 7 is_stmt 0 view .LVU307
 1101 002c 092A     		cmp	r2, #9
 1102 002e 0CD8     		bhi	.L97
 545:../../../support/device/gd32f4xx/peripherals/src/gd32f4xx_adc.c ****         /* the inserted sequence rank is smaller than ten */
 546:../../../support/device/gd32f4xx/peripherals/src/gd32f4xx_adc.c ****         sampt = ADC_SAMPT1(adc_periph);
 1103              		.loc 1 546 9 is_stmt 1 view .LVU308
 1104              		.loc 1 546 15 is_stmt 0 view .LVU309
 1105 0030 0169     		ldr	r1, [r0, #16]
 1106              	.LVL74:
 547:../../../support/device/gd32f4xx/peripherals/src/gd32f4xx_adc.c ****         sampt &= ~((uint32_t)(ADC_SAMPTX_SPTN << (ADC_CHANNEL_SAMPLE_LENGTH * adc_channel)));
 1107              		.loc 1 547 9 is_stmt 1 view .LVU310
 1108              		.loc 1 547 77 is_stmt 0 view .LVU311
 1109 0032 02EB4202 		add	r2, r2, r2, lsl #1
 1110              	.LVL75:
 1111              		.loc 1 547 20 view .LVU312
 1112 0036 0724     		movs	r4, #7
 1113 0038 9440     		lsls	r4, r4, r2
 1114              		.loc 1 547 15 view .LVU313
 1115 003a 21EA0401 		bic	r1, r1, r4
 1116              	.LVL76:
 548:../../../support/device/gd32f4xx/peripherals/src/gd32f4xx_adc.c ****         /* channel sample time set*/
 549:../../../support/device/gd32f4xx/peripherals/src/gd32f4xx_adc.c ****         sampt |= (uint32_t) sample_time << (ADC_CHANNEL_SAMPLE_LENGTH * adc_channel);
 1117              		.loc 1 549 9 is_stmt 1 view .LVU314
 1118              		.loc 1 549 41 is_stmt 0 view .LVU315
 1119 003e 03FA02F2 		lsl	r2, r3, r2
 1120              		.loc 1 549 15 view .LVU316
 1121 0042 0A43     		orrs	r2, r2, r1
 1122              	.LVL77:
 550:../../../support/device/gd32f4xx/peripherals/src/gd32f4xx_adc.c ****         ADC_SAMPT1(adc_periph) = sampt;
 1123              		.loc 1 550 9 is_stmt 1 view .LVU317
 1124              		.loc 1 550 32 is_stmt 0 view .LVU318
 1125 0044 0261     		str	r2, [r0, #16]
 1126              	.LVL78:
 1127              	.L95:
 551:../../../support/device/gd32f4xx/peripherals/src/gd32f4xx_adc.c ****     } else if(adc_channel <= ADC_CHANNEL_SAMPLE_EIGHTEEN) {
 552:../../../support/device/gd32f4xx/peripherals/src/gd32f4xx_adc.c ****         /* the inserted sequence rank is smaller than eighteen */
 553:../../../support/device/gd32f4xx/peripherals/src/gd32f4xx_adc.c ****         sampt = ADC_SAMPT0(adc_periph);
 554:../../../support/device/gd32f4xx/peripherals/src/gd32f4xx_adc.c ****         sampt &= ~((uint32_t)(ADC_SAMPTX_SPTN << (ADC_CHANNEL_SAMPLE_LENGTH * (adc_channel - ADC_CH
 555:../../../support/device/gd32f4xx/peripherals/src/gd32f4xx_adc.c ****         /* channel sample time set*/
 556:../../../support/device/gd32f4xx/peripherals/src/gd32f4xx_adc.c ****         sampt |= ((uint32_t)sample_time << (ADC_CHANNEL_SAMPLE_LENGTH * (adc_channel - ADC_CHANNEL_
 557:../../../support/device/gd32f4xx/peripherals/src/gd32f4xx_adc.c ****         ADC_SAMPT0(adc_periph) = sampt;
 558:../../../support/device/gd32f4xx/peripherals/src/gd32f4xx_adc.c ****     } else {
 559:../../../support/device/gd32f4xx/peripherals/src/gd32f4xx_adc.c ****     }
 560:../../../support/device/gd32f4xx/peripherals/src/gd32f4xx_adc.c **** }
 1128              		.loc 1 560 1 view .LVU319
 1129 0046 10BC     		pop	{r4}
 1130              	.LCFI10:
 1131              		.cfi_remember_state
 1132              		.cfi_restore 4
 1133              		.cfi_def_cfa_offset 0
 1134 0048 7047     		bx	lr
 1135              	.LVL79:
 1136              	.L97:
 1137              	.LCFI11:
ARM GAS  /var/folders/_f/88qcw_5n2jl40jjphvxyt7wh0000gn/T//cc2pJbeY.s 			page 32


 1138              		.cfi_restore_state
 551:../../../support/device/gd32f4xx/peripherals/src/gd32f4xx_adc.c ****     } else if(adc_channel <= ADC_CHANNEL_SAMPLE_EIGHTEEN) {
 1139              		.loc 1 551 12 is_stmt 1 view .LVU320
 551:../../../support/device/gd32f4xx/peripherals/src/gd32f4xx_adc.c ****     } else if(adc_channel <= ADC_CHANNEL_SAMPLE_EIGHTEEN) {
 1140              		.loc 1 551 14 is_stmt 0 view .LVU321
 1141 004a 122A     		cmp	r2, #18
 1142 004c FBD8     		bhi	.L95
 553:../../../support/device/gd32f4xx/peripherals/src/gd32f4xx_adc.c ****         sampt &= ~((uint32_t)(ADC_SAMPTX_SPTN << (ADC_CHANNEL_SAMPLE_LENGTH * (adc_channel - ADC_CH
 1143              		.loc 1 553 9 is_stmt 1 view .LVU322
 554:../../../support/device/gd32f4xx/peripherals/src/gd32f4xx_adc.c ****         /* channel sample time set*/
 1144              		.loc 1 554 92 is_stmt 0 view .LVU323
 1145 004e 0A3A     		subs	r2, r2, #10
 1146              	.LVL80:
 553:../../../support/device/gd32f4xx/peripherals/src/gd32f4xx_adc.c ****         sampt &= ~((uint32_t)(ADC_SAMPTX_SPTN << (ADC_CHANNEL_SAMPLE_LENGTH * (adc_channel - ADC_CH
 1147              		.loc 1 553 15 view .LVU324
 1148 0050 C168     		ldr	r1, [r0, #12]
 1149              	.LVL81:
 554:../../../support/device/gd32f4xx/peripherals/src/gd32f4xx_adc.c ****         /* channel sample time set*/
 1150              		.loc 1 554 9 is_stmt 1 view .LVU325
 554:../../../support/device/gd32f4xx/peripherals/src/gd32f4xx_adc.c ****         /* channel sample time set*/
 1151              		.loc 1 554 77 is_stmt 0 view .LVU326
 1152 0052 02EB4202 		add	r2, r2, r2, lsl #1
 554:../../../support/device/gd32f4xx/peripherals/src/gd32f4xx_adc.c ****         /* channel sample time set*/
 1153              		.loc 1 554 20 view .LVU327
 1154 0056 0724     		movs	r4, #7
 1155 0058 9440     		lsls	r4, r4, r2
 554:../../../support/device/gd32f4xx/peripherals/src/gd32f4xx_adc.c ****         /* channel sample time set*/
 1156              		.loc 1 554 15 view .LVU328
 1157 005a 21EA0401 		bic	r1, r1, r4
 1158              	.LVL82:
 556:../../../support/device/gd32f4xx/peripherals/src/gd32f4xx_adc.c ****         ADC_SAMPT0(adc_periph) = sampt;
 1159              		.loc 1 556 9 is_stmt 1 view .LVU329
 556:../../../support/device/gd32f4xx/peripherals/src/gd32f4xx_adc.c ****         ADC_SAMPT0(adc_periph) = sampt;
 1160              		.loc 1 556 41 is_stmt 0 view .LVU330
 1161 005e 03FA02F2 		lsl	r2, r3, r2
 556:../../../support/device/gd32f4xx/peripherals/src/gd32f4xx_adc.c ****         ADC_SAMPT0(adc_periph) = sampt;
 1162              		.loc 1 556 15 view .LVU331
 1163 0062 0A43     		orrs	r2, r2, r1
 1164              	.LVL83:
 557:../../../support/device/gd32f4xx/peripherals/src/gd32f4xx_adc.c ****     } else {
 1165              		.loc 1 557 9 is_stmt 1 view .LVU332
 1166              		.loc 1 560 1 is_stmt 0 view .LVU333
 1167 0064 10BC     		pop	{r4}
 1168              	.LCFI12:
 1169              		.cfi_restore 4
 1170              		.cfi_def_cfa_offset 0
 557:../../../support/device/gd32f4xx/peripherals/src/gd32f4xx_adc.c ****     } else {
 1171              		.loc 1 557 32 view .LVU334
 1172 0066 C260     		str	r2, [r0, #12]
 559:../../../support/device/gd32f4xx/peripherals/src/gd32f4xx_adc.c **** }
 1173              		.loc 1 559 5 is_stmt 1 view .LVU335
 1174              		.loc 1 560 1 is_stmt 0 view .LVU336
 1175 0068 7047     		bx	lr
 1176              		.cfi_endproc
 1177              	.LFE135:
 1179 006a 00BF     		.section	.text.adc_inserted_channel_offset_config,"ax",%progbits
 1180              		.align	1
ARM GAS  /var/folders/_f/88qcw_5n2jl40jjphvxyt7wh0000gn/T//cc2pJbeY.s 			page 33


 1181              		.p2align 2,,3
 1182              		.global	adc_inserted_channel_offset_config
 1183              		.syntax unified
 1184              		.thumb
 1185              		.thumb_func
 1187              	adc_inserted_channel_offset_config:
 1188              	.LVL84:
 1189              	.LFB136:
 561:../../../support/device/gd32f4xx/peripherals/src/gd32f4xx_adc.c **** 
 562:../../../support/device/gd32f4xx/peripherals/src/gd32f4xx_adc.c **** /*!
 563:../../../support/device/gd32f4xx/peripherals/src/gd32f4xx_adc.c ****     \brief      configure ADC inserted channel offset
 564:../../../support/device/gd32f4xx/peripherals/src/gd32f4xx_adc.c ****     \param[in]  adc_periph: ADCx,x=0,1,2
 565:../../../support/device/gd32f4xx/peripherals/src/gd32f4xx_adc.c ****     \param[in]  inserted_channel : insert channel select
 566:../../../support/device/gd32f4xx/peripherals/src/gd32f4xx_adc.c ****                 only one parameter can be selected which is shown as below:
 567:../../../support/device/gd32f4xx/peripherals/src/gd32f4xx_adc.c ****     \arg        ADC_INSERTED_CHANNEL_0: inserted channel0
 568:../../../support/device/gd32f4xx/peripherals/src/gd32f4xx_adc.c ****     \arg        ADC_INSERTED_CHANNEL_1: inserted channel1
 569:../../../support/device/gd32f4xx/peripherals/src/gd32f4xx_adc.c ****     \arg        ADC_INSERTED_CHANNEL_2: inserted channel2
 570:../../../support/device/gd32f4xx/peripherals/src/gd32f4xx_adc.c ****     \arg        ADC_INSERTED_CHANNEL_3: inserted channel3
 571:../../../support/device/gd32f4xx/peripherals/src/gd32f4xx_adc.c ****     \param[in]  offset : the offset data
 572:../../../support/device/gd32f4xx/peripherals/src/gd32f4xx_adc.c ****     \param[out] none
 573:../../../support/device/gd32f4xx/peripherals/src/gd32f4xx_adc.c ****     \retval     none
 574:../../../support/device/gd32f4xx/peripherals/src/gd32f4xx_adc.c **** */
 575:../../../support/device/gd32f4xx/peripherals/src/gd32f4xx_adc.c **** void adc_inserted_channel_offset_config(uint32_t adc_periph, uint8_t inserted_channel, uint16_t off
 576:../../../support/device/gd32f4xx/peripherals/src/gd32f4xx_adc.c **** {
 1190              		.loc 1 576 1 is_stmt 1 view -0
 1191              		.cfi_startproc
 1192              		@ args = 0, pretend = 0, frame = 0
 1193              		@ frame_needed = 0, uses_anonymous_args = 0
 1194              		@ link register save eliminated.
 577:../../../support/device/gd32f4xx/peripherals/src/gd32f4xx_adc.c ****     uint8_t inserted_length;
 1195              		.loc 1 577 5 view .LVU338
 578:../../../support/device/gd32f4xx/peripherals/src/gd32f4xx_adc.c ****     uint32_t num = 0U;
 1196              		.loc 1 578 5 view .LVU339
 579:../../../support/device/gd32f4xx/peripherals/src/gd32f4xx_adc.c **** 
 580:../../../support/device/gd32f4xx/peripherals/src/gd32f4xx_adc.c ****     inserted_length = (uint8_t)GET_BITS(ADC_ISQ(adc_periph), 20U, 21U);
 1197              		.loc 1 580 5 view .LVU340
 1198              		.loc 1 580 32 is_stmt 0 view .LVU341
 1199 0000 836B     		ldr	r3, [r0, #56]
 1200              	.LVL85:
 581:../../../support/device/gd32f4xx/peripherals/src/gd32f4xx_adc.c ****     num = ((uint32_t)ADC_OFFSET_LENGTH - ((uint32_t)inserted_length - (uint32_t)inserted_channel));
 1201              		.loc 1 581 5 is_stmt 1 view .LVU342
 1202              		.loc 1 581 9 is_stmt 0 view .LVU343
 1203 0002 0331     		adds	r1, r1, #3
 1204              	.LVL86:
 1205              		.loc 1 581 43 view .LVU344
 1206 0004 C3F30153 		ubfx	r3, r3, #20, #2
 1207              	.LVL87:
 1208              		.loc 1 581 9 view .LVU345
 1209 0008 C91A     		subs	r1, r1, r3
 1210              	.LVL88:
 582:../../../support/device/gd32f4xx/peripherals/src/gd32f4xx_adc.c **** 
 583:../../../support/device/gd32f4xx/peripherals/src/gd32f4xx_adc.c ****     if(num <= ADC_OFFSET_LENGTH) {
 1211              		.loc 1 583 5 is_stmt 1 view .LVU346
 1212              		.loc 1 583 7 is_stmt 0 view .LVU347
 1213 000a 0329     		cmp	r1, #3
 1214 000c 04D8     		bhi	.L100
 584:../../../support/device/gd32f4xx/peripherals/src/gd32f4xx_adc.c ****         /* calculate the offset of the register */
ARM GAS  /var/folders/_f/88qcw_5n2jl40jjphvxyt7wh0000gn/T//cc2pJbeY.s 			page 34


 585:../../../support/device/gd32f4xx/peripherals/src/gd32f4xx_adc.c ****         num = num * ADC_OFFSET_SHIFT_LENGTH;
 1215              		.loc 1 585 9 is_stmt 1 view .LVU348
 1216              	.LVL89:
 586:../../../support/device/gd32f4xx/peripherals/src/gd32f4xx_adc.c ****         /* config the offset of the selected channels */
 587:../../../support/device/gd32f4xx/peripherals/src/gd32f4xx_adc.c ****         REG32((adc_periph) + 0x14U + num) = IOFFX_IOFF((uint32_t)offset);
 1217              		.loc 1 587 9 view .LVU349
 1218 000e 1430     		adds	r0, r0, #20
 1219              	.LVL90:
 1220              		.loc 1 587 45 is_stmt 0 view .LVU350
 1221 0010 C2F30B02 		ubfx	r2, r2, #0, #12
 1222              	.LVL91:
 1223              		.loc 1 587 43 view .LVU351
 1224 0014 40F82120 		str	r2, [r0, r1, lsl #2]
 1225              	.LVL92:
 1226              	.L100:
 588:../../../support/device/gd32f4xx/peripherals/src/gd32f4xx_adc.c ****     }
 589:../../../support/device/gd32f4xx/peripherals/src/gd32f4xx_adc.c **** }
 1227              		.loc 1 589 1 view .LVU352
 1228 0018 7047     		bx	lr
 1229              		.cfi_endproc
 1230              	.LFE136:
 1232 001a 00BF     		.section	.text.adc_external_trigger_source_config,"ax",%progbits
 1233              		.align	1
 1234              		.p2align 2,,3
 1235              		.global	adc_external_trigger_source_config
 1236              		.syntax unified
 1237              		.thumb
 1238              		.thumb_func
 1240              	adc_external_trigger_source_config:
 1241              	.LVL93:
 1242              	.LFB137:
 590:../../../support/device/gd32f4xx/peripherals/src/gd32f4xx_adc.c **** 
 591:../../../support/device/gd32f4xx/peripherals/src/gd32f4xx_adc.c **** /*!
 592:../../../support/device/gd32f4xx/peripherals/src/gd32f4xx_adc.c ****     \brief      configure ADC external trigger source
 593:../../../support/device/gd32f4xx/peripherals/src/gd32f4xx_adc.c ****     \param[in]  adc_periph: ADCx,x=0,1,2
 594:../../../support/device/gd32f4xx/peripherals/src/gd32f4xx_adc.c ****     \param[in]  adc_sequence: select the sequence
 595:../../../support/device/gd32f4xx/peripherals/src/gd32f4xx_adc.c ****                 only one parameter can be selected which is shown as below:
 596:../../../support/device/gd32f4xx/peripherals/src/gd32f4xx_adc.c ****     \arg        ADC_ROUTINE_CHANNEL: routine sequence
 597:../../../support/device/gd32f4xx/peripherals/src/gd32f4xx_adc.c ****     \arg        ADC_INSERTED_CHANNEL: inserted sequence
 598:../../../support/device/gd32f4xx/peripherals/src/gd32f4xx_adc.c ****     \param[in]  external_trigger_source: routine or inserted sequence trigger source
 599:../../../support/device/gd32f4xx/peripherals/src/gd32f4xx_adc.c ****                 for routine sequence:
 600:../../../support/device/gd32f4xx/peripherals/src/gd32f4xx_adc.c ****                 only one parameter can be selected which is shown as below:
 601:../../../support/device/gd32f4xx/peripherals/src/gd32f4xx_adc.c ****     \arg        ADC_EXTTRIG_ROUTINE_T0_CH0: external trigger timer 0 CC0 event select for routine s
 602:../../../support/device/gd32f4xx/peripherals/src/gd32f4xx_adc.c ****     \arg        ADC_EXTTRIG_ROUTINE_T0_CH1: external trigger timer 0 CC1 event select for routine s
 603:../../../support/device/gd32f4xx/peripherals/src/gd32f4xx_adc.c ****     \arg        ADC_EXTTRIG_ROUTINE_T0_CH2: external trigger timer 0 CC2 event select for routine s
 604:../../../support/device/gd32f4xx/peripherals/src/gd32f4xx_adc.c ****     \arg        ADC_EXTTRIG_ROUTINE_T1_CH1: external trigger timer 1 CC1 event select for routine s
 605:../../../support/device/gd32f4xx/peripherals/src/gd32f4xx_adc.c ****     \arg        ADC_EXTTRIG_ROUTINE_T1_CH2: external trigger timer 1 CC2 event select for routine s
 606:../../../support/device/gd32f4xx/peripherals/src/gd32f4xx_adc.c ****     \arg        ADC_EXTTRIG_ROUTINE_T1_CH3: external trigger timer 1 CC3 event select for routine s
 607:../../../support/device/gd32f4xx/peripherals/src/gd32f4xx_adc.c ****     \arg        ADC_EXTTRIG_ROUTINE_T1_TRGO: external trigger timer 1 TRGO event select for routine
 608:../../../support/device/gd32f4xx/peripherals/src/gd32f4xx_adc.c ****     \arg        ADC_EXTTRIG_ROUTINE_T2_CH0 : external trigger timer 2 CC0 event select for routine 
 609:../../../support/device/gd32f4xx/peripherals/src/gd32f4xx_adc.c ****     \arg        ADC_EXTTRIG_ROUTINE_T2_TRGO : external trigger timer 2 TRGO event select for routin
 610:../../../support/device/gd32f4xx/peripherals/src/gd32f4xx_adc.c ****     \arg        ADC_EXTTRIG_ROUTINE_T3_CH3: external trigger timer 3 CC3 event select for routine s
 611:../../../support/device/gd32f4xx/peripherals/src/gd32f4xx_adc.c ****     \arg        ADC_EXTTRIG_ROUTINE_T4_CH0: external trigger timer 4 CC0 event select for routine s
 612:../../../support/device/gd32f4xx/peripherals/src/gd32f4xx_adc.c ****     \arg        ADC_EXTTRIG_ROUTINE_T4_CH1: external trigger timer 4 CC1 event select for routine s
 613:../../../support/device/gd32f4xx/peripherals/src/gd32f4xx_adc.c ****     \arg        ADC_EXTTRIG_ROUTINE_T4_CH2: external trigger timer 4 CC2 event select for routine s
 614:../../../support/device/gd32f4xx/peripherals/src/gd32f4xx_adc.c ****     \arg        ADC_EXTTRIG_ROUTINE_T7_CH0: external trigger timer 7 CC0 event select for routine s
 615:../../../support/device/gd32f4xx/peripherals/src/gd32f4xx_adc.c ****     \arg        ADC_EXTTRIG_ROUTINE_T7_TRGO: external trigger timer 7 TRGO event select for routine
ARM GAS  /var/folders/_f/88qcw_5n2jl40jjphvxyt7wh0000gn/T//cc2pJbeY.s 			page 35


 616:../../../support/device/gd32f4xx/peripherals/src/gd32f4xx_adc.c ****     \arg        ADC_EXTTRIG_ROUTINE_EXTI_11: external trigger extiline 11 select for routine sequen
 617:../../../support/device/gd32f4xx/peripherals/src/gd32f4xx_adc.c ****                 for inserted sequence:
 618:../../../support/device/gd32f4xx/peripherals/src/gd32f4xx_adc.c ****                 only one parameter can be selected which is shown as below:
 619:../../../support/device/gd32f4xx/peripherals/src/gd32f4xx_adc.c ****     \arg        ADC_EXTTRIG_INSERTED_T0_CH3: timer0 capture compare 3
 620:../../../support/device/gd32f4xx/peripherals/src/gd32f4xx_adc.c ****     \arg        ADC_EXTTRIG_INSERTED_T0_TRGO: timer0 TRGO event
 621:../../../support/device/gd32f4xx/peripherals/src/gd32f4xx_adc.c ****     \arg        ADC_EXTTRIG_INSERTED_T1_CH0: timer1 capture compare 0
 622:../../../support/device/gd32f4xx/peripherals/src/gd32f4xx_adc.c ****     \arg        ADC_EXTTRIG_INSERTED_T1_TRGO: timer1 TRGO event
 623:../../../support/device/gd32f4xx/peripherals/src/gd32f4xx_adc.c ****     \arg        ADC_EXTTRIG_INSERTED_T2_CH1: timer2 capture compare 1
 624:../../../support/device/gd32f4xx/peripherals/src/gd32f4xx_adc.c ****     \arg        ADC_EXTTRIG_INSERTED_T2_CH3: timer2 capture compare 3
 625:../../../support/device/gd32f4xx/peripherals/src/gd32f4xx_adc.c ****     \arg        ADC_EXTTRIG_INSERTED_T3_CH0: timer3 capture compare 0
 626:../../../support/device/gd32f4xx/peripherals/src/gd32f4xx_adc.c ****     \arg        ADC_EXTTRIG_INSERTED_T3_CH1: timer3 capture compare 1
 627:../../../support/device/gd32f4xx/peripherals/src/gd32f4xx_adc.c ****     \arg        ADC_EXTTRIG_INSERTED_T3_CH2: timer3 capture compare 2
 628:../../../support/device/gd32f4xx/peripherals/src/gd32f4xx_adc.c ****     \arg        ADC_EXTTRIG_INSERTED_T3_TRGO: timer3 capture compare TRGO
 629:../../../support/device/gd32f4xx/peripherals/src/gd32f4xx_adc.c ****     \arg        ADC_EXTTRIG_INSERTED_T4_CH3: timer4 capture compare 3
 630:../../../support/device/gd32f4xx/peripherals/src/gd32f4xx_adc.c ****     \arg        ADC_EXTTRIG_INSERTED_T4_TRGO: timer4 capture compare TRGO
 631:../../../support/device/gd32f4xx/peripherals/src/gd32f4xx_adc.c ****     \arg        ADC_EXTTRIG_INSERTED_T7_CH1: timer7 capture compare 1
 632:../../../support/device/gd32f4xx/peripherals/src/gd32f4xx_adc.c ****     \arg        ADC_EXTTRIG_INSERTED_T7_CH2: timer7 capture compare 2
 633:../../../support/device/gd32f4xx/peripherals/src/gd32f4xx_adc.c ****     \arg        ADC_EXTTRIG_INSERTED_T7_CH3: timer7 capture compare 3
 634:../../../support/device/gd32f4xx/peripherals/src/gd32f4xx_adc.c ****     \arg        ADC_EXTTRIG_INSERTED_EXTI_15: external interrupt line 15
 635:../../../support/device/gd32f4xx/peripherals/src/gd32f4xx_adc.c ****     \param[out] none
 636:../../../support/device/gd32f4xx/peripherals/src/gd32f4xx_adc.c ****     \retval     none
 637:../../../support/device/gd32f4xx/peripherals/src/gd32f4xx_adc.c **** */
 638:../../../support/device/gd32f4xx/peripherals/src/gd32f4xx_adc.c **** void adc_external_trigger_source_config(uint32_t adc_periph, uint8_t adc_sequence, uint32_t externa
 639:../../../support/device/gd32f4xx/peripherals/src/gd32f4xx_adc.c **** {
 1243              		.loc 1 639 1 is_stmt 1 view -0
 1244              		.cfi_startproc
 1245              		@ args = 0, pretend = 0, frame = 0
 1246              		@ frame_needed = 0, uses_anonymous_args = 0
 1247              		@ link register save eliminated.
 640:../../../support/device/gd32f4xx/peripherals/src/gd32f4xx_adc.c ****     switch(adc_sequence) {
 1248              		.loc 1 640 5 view .LVU354
 1249 0000 0129     		cmp	r1, #1
 1250 0002 0AD0     		beq	.L103
 1251 0004 0229     		cmp	r1, #2
 1252 0006 07D1     		bne	.L106
 641:../../../support/device/gd32f4xx/peripherals/src/gd32f4xx_adc.c ****     case ADC_ROUTINE_CHANNEL:
 642:../../../support/device/gd32f4xx/peripherals/src/gd32f4xx_adc.c ****         /* configure ADC routine sequence external trigger source */
 643:../../../support/device/gd32f4xx/peripherals/src/gd32f4xx_adc.c ****         ADC_CTL1(adc_periph) &= ~((uint32_t)ADC_CTL1_ETSRC);
 644:../../../support/device/gd32f4xx/peripherals/src/gd32f4xx_adc.c ****         ADC_CTL1(adc_periph) |= (uint32_t)external_trigger_source;
 645:../../../support/device/gd32f4xx/peripherals/src/gd32f4xx_adc.c ****         break;
 646:../../../support/device/gd32f4xx/peripherals/src/gd32f4xx_adc.c ****     case ADC_INSERTED_CHANNEL:
 647:../../../support/device/gd32f4xx/peripherals/src/gd32f4xx_adc.c ****         /* configure ADC inserted sequence external trigger source */
 648:../../../support/device/gd32f4xx/peripherals/src/gd32f4xx_adc.c ****         ADC_CTL1(adc_periph) &= ~((uint32_t)ADC_CTL1_ETSIC);
 1253              		.loc 1 648 9 view .LVU355
 1254              		.loc 1 648 30 is_stmt 0 view .LVU356
 1255 0008 8368     		ldr	r3, [r0, #8]
 1256 000a 23F47023 		bic	r3, r3, #983040
 1257 000e 8360     		str	r3, [r0, #8]
 649:../../../support/device/gd32f4xx/peripherals/src/gd32f4xx_adc.c ****         ADC_CTL1(adc_periph) |= (uint32_t)external_trigger_source;
 1258              		.loc 1 649 9 is_stmt 1 view .LVU357
 1259              		.loc 1 649 30 is_stmt 0 view .LVU358
 1260 0010 8368     		ldr	r3, [r0, #8]
 1261 0012 1A43     		orrs	r2, r2, r3
 1262              	.LVL94:
 1263              		.loc 1 649 30 view .LVU359
 1264 0014 8260     		str	r2, [r0, #8]
 650:../../../support/device/gd32f4xx/peripherals/src/gd32f4xx_adc.c ****         break;
ARM GAS  /var/folders/_f/88qcw_5n2jl40jjphvxyt7wh0000gn/T//cc2pJbeY.s 			page 36


 1265              		.loc 1 650 9 is_stmt 1 view .LVU360
 651:../../../support/device/gd32f4xx/peripherals/src/gd32f4xx_adc.c ****     default:
 652:../../../support/device/gd32f4xx/peripherals/src/gd32f4xx_adc.c ****         break;
 653:../../../support/device/gd32f4xx/peripherals/src/gd32f4xx_adc.c ****     }
 654:../../../support/device/gd32f4xx/peripherals/src/gd32f4xx_adc.c **** }
 1266              		.loc 1 654 1 is_stmt 0 view .LVU361
 1267 0016 7047     		bx	lr
 1268              	.LVL95:
 1269              	.L106:
 1270              		.loc 1 654 1 view .LVU362
 1271 0018 7047     		bx	lr
 1272              	.L103:
 643:../../../support/device/gd32f4xx/peripherals/src/gd32f4xx_adc.c ****         ADC_CTL1(adc_periph) |= (uint32_t)external_trigger_source;
 1273              		.loc 1 643 9 is_stmt 1 view .LVU363
 643:../../../support/device/gd32f4xx/peripherals/src/gd32f4xx_adc.c ****         ADC_CTL1(adc_periph) |= (uint32_t)external_trigger_source;
 1274              		.loc 1 643 30 is_stmt 0 view .LVU364
 1275 001a 8368     		ldr	r3, [r0, #8]
 1276 001c 23F07063 		bic	r3, r3, #251658240
 1277 0020 8360     		str	r3, [r0, #8]
 644:../../../support/device/gd32f4xx/peripherals/src/gd32f4xx_adc.c ****         break;
 1278              		.loc 1 644 9 is_stmt 1 view .LVU365
 644:../../../support/device/gd32f4xx/peripherals/src/gd32f4xx_adc.c ****         break;
 1279              		.loc 1 644 30 is_stmt 0 view .LVU366
 1280 0022 8368     		ldr	r3, [r0, #8]
 1281 0024 1A43     		orrs	r2, r2, r3
 1282              	.LVL96:
 644:../../../support/device/gd32f4xx/peripherals/src/gd32f4xx_adc.c ****         break;
 1283              		.loc 1 644 30 view .LVU367
 1284 0026 8260     		str	r2, [r0, #8]
 645:../../../support/device/gd32f4xx/peripherals/src/gd32f4xx_adc.c ****     case ADC_INSERTED_CHANNEL:
 1285              		.loc 1 645 9 is_stmt 1 view .LVU368
 1286 0028 7047     		bx	lr
 1287              		.cfi_endproc
 1288              	.LFE137:
 1290 002a 00BF     		.section	.text.adc_external_trigger_config,"ax",%progbits
 1291              		.align	1
 1292              		.p2align 2,,3
 1293              		.global	adc_external_trigger_config
 1294              		.syntax unified
 1295              		.thumb
 1296              		.thumb_func
 1298              	adc_external_trigger_config:
 1299              	.LVL97:
 1300              	.LFB138:
 655:../../../support/device/gd32f4xx/peripherals/src/gd32f4xx_adc.c **** 
 656:../../../support/device/gd32f4xx/peripherals/src/gd32f4xx_adc.c **** /*!
 657:../../../support/device/gd32f4xx/peripherals/src/gd32f4xx_adc.c ****     \brief      enable ADC external trigger
 658:../../../support/device/gd32f4xx/peripherals/src/gd32f4xx_adc.c ****     \param[in]  adc_periph: ADCx,x=0,1,2
 659:../../../support/device/gd32f4xx/peripherals/src/gd32f4xx_adc.c ****     \param[in]  adc_sequence: select the sequence
 660:../../../support/device/gd32f4xx/peripherals/src/gd32f4xx_adc.c ****                 only one parameter can be selected which is shown as below:
 661:../../../support/device/gd32f4xx/peripherals/src/gd32f4xx_adc.c ****     \arg        ADC_ROUTINE_CHANNEL: routine sequence
 662:../../../support/device/gd32f4xx/peripherals/src/gd32f4xx_adc.c ****     \arg        ADC_INSERTED_CHANNEL: inserted sequence
 663:../../../support/device/gd32f4xx/peripherals/src/gd32f4xx_adc.c ****     \param[in]  trigger_mode: external trigger mode
 664:../../../support/device/gd32f4xx/peripherals/src/gd32f4xx_adc.c ****                 only one parameter can be selected which is shown as below:
 665:../../../support/device/gd32f4xx/peripherals/src/gd32f4xx_adc.c ****     \arg        EXTERNAL_TRIGGER_DISABLE: external trigger disable
 666:../../../support/device/gd32f4xx/peripherals/src/gd32f4xx_adc.c ****     \arg        EXTERNAL_TRIGGER_RISING: rising edge of external trigger
 667:../../../support/device/gd32f4xx/peripherals/src/gd32f4xx_adc.c ****     \arg        EXTERNAL_TRIGGER_FALLING: falling edge of external trigger
ARM GAS  /var/folders/_f/88qcw_5n2jl40jjphvxyt7wh0000gn/T//cc2pJbeY.s 			page 37


 668:../../../support/device/gd32f4xx/peripherals/src/gd32f4xx_adc.c ****     \arg        EXTERNAL_TRIGGER_RISING_FALLING: rising and falling edge of external trigger
 669:../../../support/device/gd32f4xx/peripherals/src/gd32f4xx_adc.c ****     \param[out] none
 670:../../../support/device/gd32f4xx/peripherals/src/gd32f4xx_adc.c ****     \retval     none
 671:../../../support/device/gd32f4xx/peripherals/src/gd32f4xx_adc.c **** */
 672:../../../support/device/gd32f4xx/peripherals/src/gd32f4xx_adc.c **** void adc_external_trigger_config(uint32_t adc_periph, uint8_t adc_sequence, uint32_t trigger_mode)
 673:../../../support/device/gd32f4xx/peripherals/src/gd32f4xx_adc.c **** {
 1301              		.loc 1 673 1 view -0
 1302              		.cfi_startproc
 1303              		@ args = 0, pretend = 0, frame = 0
 1304              		@ frame_needed = 0, uses_anonymous_args = 0
 1305              		@ link register save eliminated.
 674:../../../support/device/gd32f4xx/peripherals/src/gd32f4xx_adc.c ****     switch(adc_sequence) {
 1306              		.loc 1 674 5 view .LVU370
 1307 0000 0129     		cmp	r1, #1
 1308 0002 0BD0     		beq	.L108
 1309 0004 0229     		cmp	r1, #2
 1310 0006 08D1     		bne	.L111
 675:../../../support/device/gd32f4xx/peripherals/src/gd32f4xx_adc.c ****     case ADC_ROUTINE_CHANNEL:
 676:../../../support/device/gd32f4xx/peripherals/src/gd32f4xx_adc.c ****         /* configure ADC routine sequence external trigger mode */
 677:../../../support/device/gd32f4xx/peripherals/src/gd32f4xx_adc.c ****         ADC_CTL1(adc_periph) &= ~((uint32_t)ADC_CTL1_ETMRC);
 678:../../../support/device/gd32f4xx/peripherals/src/gd32f4xx_adc.c ****         ADC_CTL1(adc_periph) |= (uint32_t)(trigger_mode << ROUTINE_TRIGGER_MODE);
 679:../../../support/device/gd32f4xx/peripherals/src/gd32f4xx_adc.c ****         break;
 680:../../../support/device/gd32f4xx/peripherals/src/gd32f4xx_adc.c ****     case ADC_INSERTED_CHANNEL:
 681:../../../support/device/gd32f4xx/peripherals/src/gd32f4xx_adc.c ****         /* configure ADC inserted sequence external trigger mode */
 682:../../../support/device/gd32f4xx/peripherals/src/gd32f4xx_adc.c ****         ADC_CTL1(adc_periph) &=  ~((uint32_t)ADC_CTL1_ETMIC);
 1311              		.loc 1 682 9 view .LVU371
 1312              		.loc 1 682 30 is_stmt 0 view .LVU372
 1313 0008 8368     		ldr	r3, [r0, #8]
 1314 000a 23F44013 		bic	r3, r3, #3145728
 1315 000e 8360     		str	r3, [r0, #8]
 683:../../../support/device/gd32f4xx/peripherals/src/gd32f4xx_adc.c ****         ADC_CTL1(adc_periph) |= (uint32_t)(trigger_mode << INSERTED_TRIGGER_MODE);
 1316              		.loc 1 683 9 is_stmt 1 view .LVU373
 1317              		.loc 1 683 30 is_stmt 0 view .LVU374
 1318 0010 8368     		ldr	r3, [r0, #8]
 1319 0012 43EA0252 		orr	r2, r3, r2, lsl #20
 1320              	.LVL98:
 1321              		.loc 1 683 30 view .LVU375
 1322 0016 8260     		str	r2, [r0, #8]
 684:../../../support/device/gd32f4xx/peripherals/src/gd32f4xx_adc.c ****         break;
 1323              		.loc 1 684 9 is_stmt 1 view .LVU376
 685:../../../support/device/gd32f4xx/peripherals/src/gd32f4xx_adc.c ****     default:
 686:../../../support/device/gd32f4xx/peripherals/src/gd32f4xx_adc.c ****         break;
 687:../../../support/device/gd32f4xx/peripherals/src/gd32f4xx_adc.c ****     }
 688:../../../support/device/gd32f4xx/peripherals/src/gd32f4xx_adc.c **** }
 1324              		.loc 1 688 1 is_stmt 0 view .LVU377
 1325 0018 7047     		bx	lr
 1326              	.LVL99:
 1327              	.L111:
 1328              		.loc 1 688 1 view .LVU378
 1329 001a 7047     		bx	lr
 1330              	.L108:
 677:../../../support/device/gd32f4xx/peripherals/src/gd32f4xx_adc.c ****         ADC_CTL1(adc_periph) |= (uint32_t)(trigger_mode << ROUTINE_TRIGGER_MODE);
 1331              		.loc 1 677 9 is_stmt 1 view .LVU379
 677:../../../support/device/gd32f4xx/peripherals/src/gd32f4xx_adc.c ****         ADC_CTL1(adc_periph) |= (uint32_t)(trigger_mode << ROUTINE_TRIGGER_MODE);
 1332              		.loc 1 677 30 is_stmt 0 view .LVU380
 1333 001c 8368     		ldr	r3, [r0, #8]
 1334 001e 23F04053 		bic	r3, r3, #805306368
ARM GAS  /var/folders/_f/88qcw_5n2jl40jjphvxyt7wh0000gn/T//cc2pJbeY.s 			page 38


 1335 0022 8360     		str	r3, [r0, #8]
 678:../../../support/device/gd32f4xx/peripherals/src/gd32f4xx_adc.c ****         break;
 1336              		.loc 1 678 9 is_stmt 1 view .LVU381
 678:../../../support/device/gd32f4xx/peripherals/src/gd32f4xx_adc.c ****         break;
 1337              		.loc 1 678 30 is_stmt 0 view .LVU382
 1338 0024 8368     		ldr	r3, [r0, #8]
 1339 0026 43EA0272 		orr	r2, r3, r2, lsl #28
 1340              	.LVL100:
 678:../../../support/device/gd32f4xx/peripherals/src/gd32f4xx_adc.c ****         break;
 1341              		.loc 1 678 30 view .LVU383
 1342 002a 8260     		str	r2, [r0, #8]
 679:../../../support/device/gd32f4xx/peripherals/src/gd32f4xx_adc.c ****     case ADC_INSERTED_CHANNEL:
 1343              		.loc 1 679 9 is_stmt 1 view .LVU384
 1344 002c 7047     		bx	lr
 1345              		.cfi_endproc
 1346              	.LFE138:
 1348 002e 00BF     		.section	.text.adc_software_trigger_enable,"ax",%progbits
 1349              		.align	1
 1350              		.p2align 2,,3
 1351              		.global	adc_software_trigger_enable
 1352              		.syntax unified
 1353              		.thumb
 1354              		.thumb_func
 1356              	adc_software_trigger_enable:
 1357              	.LVL101:
 1358              	.LFB139:
 689:../../../support/device/gd32f4xx/peripherals/src/gd32f4xx_adc.c **** 
 690:../../../support/device/gd32f4xx/peripherals/src/gd32f4xx_adc.c **** /*!
 691:../../../support/device/gd32f4xx/peripherals/src/gd32f4xx_adc.c ****     \brief      enable ADC software trigger
 692:../../../support/device/gd32f4xx/peripherals/src/gd32f4xx_adc.c ****     \param[in]  adc_periph: ADCx,x=0,1,2
 693:../../../support/device/gd32f4xx/peripherals/src/gd32f4xx_adc.c ****     \param[in]  adc_sequence: select the sequence
 694:../../../support/device/gd32f4xx/peripherals/src/gd32f4xx_adc.c ****                 only one parameter can be selected which is shown as below:
 695:../../../support/device/gd32f4xx/peripherals/src/gd32f4xx_adc.c ****     \arg        ADC_ROUTINE_CHANNEL: routine sequence
 696:../../../support/device/gd32f4xx/peripherals/src/gd32f4xx_adc.c ****     \arg        ADC_INSERTED_CHANNEL: inserted sequence
 697:../../../support/device/gd32f4xx/peripherals/src/gd32f4xx_adc.c ****     \param[out] none
 698:../../../support/device/gd32f4xx/peripherals/src/gd32f4xx_adc.c ****     \retval     none
 699:../../../support/device/gd32f4xx/peripherals/src/gd32f4xx_adc.c **** */
 700:../../../support/device/gd32f4xx/peripherals/src/gd32f4xx_adc.c **** void adc_software_trigger_enable(uint32_t adc_periph, uint8_t adc_sequence)
 701:../../../support/device/gd32f4xx/peripherals/src/gd32f4xx_adc.c **** {
 1359              		.loc 1 701 1 view -0
 1360              		.cfi_startproc
 1361              		@ args = 0, pretend = 0, frame = 0
 1362              		@ frame_needed = 0, uses_anonymous_args = 0
 1363              		@ link register save eliminated.
 702:../../../support/device/gd32f4xx/peripherals/src/gd32f4xx_adc.c ****     switch(adc_sequence) {
 1364              		.loc 1 702 5 view .LVU386
 1365 0000 0129     		cmp	r1, #1
 1366 0002 07D0     		beq	.L113
 1367 0004 0229     		cmp	r1, #2
 1368 0006 04D1     		bne	.L116
 703:../../../support/device/gd32f4xx/peripherals/src/gd32f4xx_adc.c ****     case ADC_ROUTINE_CHANNEL:
 704:../../../support/device/gd32f4xx/peripherals/src/gd32f4xx_adc.c ****         /* enable ADC routine sequence software trigger */
 705:../../../support/device/gd32f4xx/peripherals/src/gd32f4xx_adc.c ****         ADC_CTL1(adc_periph) |= (uint32_t)ADC_CTL1_SWRCST;
 706:../../../support/device/gd32f4xx/peripherals/src/gd32f4xx_adc.c ****         break;
 707:../../../support/device/gd32f4xx/peripherals/src/gd32f4xx_adc.c ****     case ADC_INSERTED_CHANNEL:
 708:../../../support/device/gd32f4xx/peripherals/src/gd32f4xx_adc.c ****         /* enable ADC inserted sequence software trigger */
 709:../../../support/device/gd32f4xx/peripherals/src/gd32f4xx_adc.c ****         ADC_CTL1(adc_periph) |= (uint32_t)ADC_CTL1_SWICST;
ARM GAS  /var/folders/_f/88qcw_5n2jl40jjphvxyt7wh0000gn/T//cc2pJbeY.s 			page 39


 1369              		.loc 1 709 9 view .LVU387
 1370              		.loc 1 709 30 is_stmt 0 view .LVU388
 1371 0008 8368     		ldr	r3, [r0, #8]
 1372 000a 43F48003 		orr	r3, r3, #4194304
 1373 000e 8360     		str	r3, [r0, #8]
 710:../../../support/device/gd32f4xx/peripherals/src/gd32f4xx_adc.c ****         break;
 1374              		.loc 1 710 9 is_stmt 1 view .LVU389
 711:../../../support/device/gd32f4xx/peripherals/src/gd32f4xx_adc.c ****     default:
 712:../../../support/device/gd32f4xx/peripherals/src/gd32f4xx_adc.c ****         break;
 713:../../../support/device/gd32f4xx/peripherals/src/gd32f4xx_adc.c ****     }
 714:../../../support/device/gd32f4xx/peripherals/src/gd32f4xx_adc.c **** }
 1375              		.loc 1 714 1 is_stmt 0 view .LVU390
 1376 0010 7047     		bx	lr
 1377              	.L116:
 1378 0012 7047     		bx	lr
 1379              	.L113:
 705:../../../support/device/gd32f4xx/peripherals/src/gd32f4xx_adc.c ****         break;
 1380              		.loc 1 705 9 is_stmt 1 view .LVU391
 705:../../../support/device/gd32f4xx/peripherals/src/gd32f4xx_adc.c ****         break;
 1381              		.loc 1 705 30 is_stmt 0 view .LVU392
 1382 0014 8368     		ldr	r3, [r0, #8]
 1383 0016 43F08043 		orr	r3, r3, #1073741824
 1384 001a 8360     		str	r3, [r0, #8]
 706:../../../support/device/gd32f4xx/peripherals/src/gd32f4xx_adc.c ****     case ADC_INSERTED_CHANNEL:
 1385              		.loc 1 706 9 is_stmt 1 view .LVU393
 1386 001c 7047     		bx	lr
 1387              		.cfi_endproc
 1388              	.LFE139:
 1390 001e 00BF     		.section	.text.adc_end_of_conversion_config,"ax",%progbits
 1391              		.align	1
 1392              		.p2align 2,,3
 1393              		.global	adc_end_of_conversion_config
 1394              		.syntax unified
 1395              		.thumb
 1396              		.thumb_func
 1398              	adc_end_of_conversion_config:
 1399              	.LVL102:
 1400              	.LFB140:
 715:../../../support/device/gd32f4xx/peripherals/src/gd32f4xx_adc.c **** 
 716:../../../support/device/gd32f4xx/peripherals/src/gd32f4xx_adc.c **** /*!
 717:../../../support/device/gd32f4xx/peripherals/src/gd32f4xx_adc.c ****     \brief      configure end of conversion mode
 718:../../../support/device/gd32f4xx/peripherals/src/gd32f4xx_adc.c ****     \param[in]  adc_periph: ADCx,x=0,1,2
 719:../../../support/device/gd32f4xx/peripherals/src/gd32f4xx_adc.c ****     \param[in]  end_selection: end of conversion mode
 720:../../../support/device/gd32f4xx/peripherals/src/gd32f4xx_adc.c ****                 only one parameter can be selected which is shown as below:
 721:../../../support/device/gd32f4xx/peripherals/src/gd32f4xx_adc.c ****     \arg        ADC_EOC_SET_SEQUENCE: only at the end of a sequence of routine conversions, the EOC
 722:../../../support/device/gd32f4xx/peripherals/src/gd32f4xx_adc.c ****     \arg        ADC_EOC_SET_CONVERSION: at the end of each routine conversion, the EOC bit is set.O
 723:../../../support/device/gd32f4xx/peripherals/src/gd32f4xx_adc.c ****     \param[out] none
 724:../../../support/device/gd32f4xx/peripherals/src/gd32f4xx_adc.c ****     \retval     none
 725:../../../support/device/gd32f4xx/peripherals/src/gd32f4xx_adc.c **** */
 726:../../../support/device/gd32f4xx/peripherals/src/gd32f4xx_adc.c **** void adc_end_of_conversion_config(uint32_t adc_periph, uint8_t end_selection)
 727:../../../support/device/gd32f4xx/peripherals/src/gd32f4xx_adc.c **** {
 1401              		.loc 1 727 1 view -0
 1402              		.cfi_startproc
 1403              		@ args = 0, pretend = 0, frame = 0
 1404              		@ frame_needed = 0, uses_anonymous_args = 0
 1405              		@ link register save eliminated.
 728:../../../support/device/gd32f4xx/peripherals/src/gd32f4xx_adc.c ****     switch(end_selection) {
ARM GAS  /var/folders/_f/88qcw_5n2jl40jjphvxyt7wh0000gn/T//cc2pJbeY.s 			page 40


 1406              		.loc 1 728 5 view .LVU395
 1407 0000 39B1     		cbz	r1, .L118
 1408 0002 0129     		cmp	r1, #1
 1409 0004 04D1     		bne	.L121
 729:../../../support/device/gd32f4xx/peripherals/src/gd32f4xx_adc.c ****     case ADC_EOC_SET_SEQUENCE:
 730:../../../support/device/gd32f4xx/peripherals/src/gd32f4xx_adc.c ****         /* only at the end of a sequence of routine conversions, the EOC bit is set */
 731:../../../support/device/gd32f4xx/peripherals/src/gd32f4xx_adc.c ****         ADC_CTL1(adc_periph) &= ~((uint32_t)ADC_CTL1_EOCM);
 732:../../../support/device/gd32f4xx/peripherals/src/gd32f4xx_adc.c ****         break;
 733:../../../support/device/gd32f4xx/peripherals/src/gd32f4xx_adc.c ****     case ADC_EOC_SET_CONVERSION:
 734:../../../support/device/gd32f4xx/peripherals/src/gd32f4xx_adc.c ****         /* at the end of each routine conversion, the EOC bit is set.Overflow is detected automatic
 735:../../../support/device/gd32f4xx/peripherals/src/gd32f4xx_adc.c ****         ADC_CTL1(adc_periph) |= (uint32_t)(ADC_CTL1_EOCM);
 1410              		.loc 1 735 9 view .LVU396
 1411              		.loc 1 735 30 is_stmt 0 view .LVU397
 1412 0006 8368     		ldr	r3, [r0, #8]
 1413 0008 43F48063 		orr	r3, r3, #1024
 1414 000c 8360     		str	r3, [r0, #8]
 736:../../../support/device/gd32f4xx/peripherals/src/gd32f4xx_adc.c ****         break;
 1415              		.loc 1 736 9 is_stmt 1 view .LVU398
 737:../../../support/device/gd32f4xx/peripherals/src/gd32f4xx_adc.c ****     default:
 738:../../../support/device/gd32f4xx/peripherals/src/gd32f4xx_adc.c ****         break;
 739:../../../support/device/gd32f4xx/peripherals/src/gd32f4xx_adc.c ****     }
 740:../../../support/device/gd32f4xx/peripherals/src/gd32f4xx_adc.c **** }
 1416              		.loc 1 740 1 is_stmt 0 view .LVU399
 1417 000e 7047     		bx	lr
 1418              	.L121:
 1419 0010 7047     		bx	lr
 1420              	.L118:
 731:../../../support/device/gd32f4xx/peripherals/src/gd32f4xx_adc.c ****         break;
 1421              		.loc 1 731 9 is_stmt 1 view .LVU400
 731:../../../support/device/gd32f4xx/peripherals/src/gd32f4xx_adc.c ****         break;
 1422              		.loc 1 731 30 is_stmt 0 view .LVU401
 1423 0012 8368     		ldr	r3, [r0, #8]
 1424 0014 23F48063 		bic	r3, r3, #1024
 1425 0018 8360     		str	r3, [r0, #8]
 732:../../../support/device/gd32f4xx/peripherals/src/gd32f4xx_adc.c ****     case ADC_EOC_SET_CONVERSION:
 1426              		.loc 1 732 9 is_stmt 1 view .LVU402
 1427 001a 7047     		bx	lr
 1428              		.cfi_endproc
 1429              	.LFE140:
 1431              		.section	.text.adc_routine_data_read,"ax",%progbits
 1432              		.align	1
 1433              		.p2align 2,,3
 1434              		.global	adc_routine_data_read
 1435              		.syntax unified
 1436              		.thumb
 1437              		.thumb_func
 1439              	adc_routine_data_read:
 1440              	.LVL103:
 1441              	.LFB141:
 741:../../../support/device/gd32f4xx/peripherals/src/gd32f4xx_adc.c **** 
 742:../../../support/device/gd32f4xx/peripherals/src/gd32f4xx_adc.c **** /*!
 743:../../../support/device/gd32f4xx/peripherals/src/gd32f4xx_adc.c ****     \brief      read ADC routine data register
 744:../../../support/device/gd32f4xx/peripherals/src/gd32f4xx_adc.c ****     \param[in]  adc_periph: ADCx,x=0,1,2
 745:../../../support/device/gd32f4xx/peripherals/src/gd32f4xx_adc.c ****     \param[in]  none
 746:../../../support/device/gd32f4xx/peripherals/src/gd32f4xx_adc.c ****     \param[out] none
 747:../../../support/device/gd32f4xx/peripherals/src/gd32f4xx_adc.c ****     \retval     the conversion value
 748:../../../support/device/gd32f4xx/peripherals/src/gd32f4xx_adc.c **** */
ARM GAS  /var/folders/_f/88qcw_5n2jl40jjphvxyt7wh0000gn/T//cc2pJbeY.s 			page 41


 749:../../../support/device/gd32f4xx/peripherals/src/gd32f4xx_adc.c **** uint16_t adc_routine_data_read(uint32_t adc_periph)
 750:../../../support/device/gd32f4xx/peripherals/src/gd32f4xx_adc.c **** {
 1442              		.loc 1 750 1 view -0
 1443              		.cfi_startproc
 1444              		@ args = 0, pretend = 0, frame = 0
 1445              		@ frame_needed = 0, uses_anonymous_args = 0
 1446              		@ link register save eliminated.
 751:../../../support/device/gd32f4xx/peripherals/src/gd32f4xx_adc.c ****     return (uint16_t)(ADC_RDATA(adc_periph));
 1447              		.loc 1 751 5 view .LVU404
 1448              		.loc 1 751 23 is_stmt 0 view .LVU405
 1449 0000 C06C     		ldr	r0, [r0, #76]
 1450              	.LVL104:
 752:../../../support/device/gd32f4xx/peripherals/src/gd32f4xx_adc.c **** }
 1451              		.loc 1 752 1 view .LVU406
 1452 0002 80B2     		uxth	r0, r0
 1453 0004 7047     		bx	lr
 1454              		.cfi_endproc
 1455              	.LFE141:
 1457 0006 00BF     		.section	.text.adc_inserted_data_read,"ax",%progbits
 1458              		.align	1
 1459              		.p2align 2,,3
 1460              		.global	adc_inserted_data_read
 1461              		.syntax unified
 1462              		.thumb
 1463              		.thumb_func
 1465              	adc_inserted_data_read:
 1466              	.LVL105:
 1467              	.LFB142:
 753:../../../support/device/gd32f4xx/peripherals/src/gd32f4xx_adc.c **** 
 754:../../../support/device/gd32f4xx/peripherals/src/gd32f4xx_adc.c **** /*!
 755:../../../support/device/gd32f4xx/peripherals/src/gd32f4xx_adc.c ****     \brief      read ADC inserted data register
 756:../../../support/device/gd32f4xx/peripherals/src/gd32f4xx_adc.c ****     \param[in]  adc_periph: ADCx,x=0,1,2
 757:../../../support/device/gd32f4xx/peripherals/src/gd32f4xx_adc.c ****     \param[in]  inserted_channel : insert channel select
 758:../../../support/device/gd32f4xx/peripherals/src/gd32f4xx_adc.c ****                 only one parameter can be selected which is shown as below:
 759:../../../support/device/gd32f4xx/peripherals/src/gd32f4xx_adc.c ****     \arg        ADC_INSERTED_CHANNEL_0: inserted channel0
 760:../../../support/device/gd32f4xx/peripherals/src/gd32f4xx_adc.c ****     \arg        ADC_INSERTED_CHANNEL_1: inserted channel1
 761:../../../support/device/gd32f4xx/peripherals/src/gd32f4xx_adc.c ****     \arg        ADC_INSERTED_CHANNEL_2: inserted channel2
 762:../../../support/device/gd32f4xx/peripherals/src/gd32f4xx_adc.c ****     \arg        ADC_INSERTED_CHANNEL_3: inserted channel3
 763:../../../support/device/gd32f4xx/peripherals/src/gd32f4xx_adc.c ****     \param[out] none
 764:../../../support/device/gd32f4xx/peripherals/src/gd32f4xx_adc.c ****     \retval     the conversion value
 765:../../../support/device/gd32f4xx/peripherals/src/gd32f4xx_adc.c **** */
 766:../../../support/device/gd32f4xx/peripherals/src/gd32f4xx_adc.c **** uint16_t adc_inserted_data_read(uint32_t adc_periph, uint8_t inserted_channel)
 767:../../../support/device/gd32f4xx/peripherals/src/gd32f4xx_adc.c **** {
 1468              		.loc 1 767 1 is_stmt 1 view -0
 1469              		.cfi_startproc
 1470              		@ args = 0, pretend = 0, frame = 0
 1471              		@ frame_needed = 0, uses_anonymous_args = 0
 1472              		@ link register save eliminated.
 768:../../../support/device/gd32f4xx/peripherals/src/gd32f4xx_adc.c ****     uint32_t idata;
 1473              		.loc 1 768 5 view .LVU408
 769:../../../support/device/gd32f4xx/peripherals/src/gd32f4xx_adc.c ****     /* read the data of the selected channel */
 770:../../../support/device/gd32f4xx/peripherals/src/gd32f4xx_adc.c ****     switch(inserted_channel) {
 1474              		.loc 1 770 5 view .LVU409
 1475 0000 0329     		cmp	r1, #3
 1476 0002 0FD8     		bhi	.L130
 1477 0004 DFE801F0 		tbb	[pc, r1]
 1478              	.L126:
ARM GAS  /var/folders/_f/88qcw_5n2jl40jjphvxyt7wh0000gn/T//cc2pJbeY.s 			page 42


 1479 0008 0B       		.byte	(.L129-.L126)/2
 1480 0009 08       		.byte	(.L128-.L126)/2
 1481 000a 05       		.byte	(.L127-.L126)/2
 1482 000b 02       		.byte	(.L125-.L126)/2
 1483              		.p2align 1
 1484              	.L125:
 771:../../../support/device/gd32f4xx/peripherals/src/gd32f4xx_adc.c ****     case ADC_INSERTED_CHANNEL_0:
 772:../../../support/device/gd32f4xx/peripherals/src/gd32f4xx_adc.c ****         /* read the data of channel 0 */
 773:../../../support/device/gd32f4xx/peripherals/src/gd32f4xx_adc.c ****         idata = ADC_IDATA0(adc_periph);
 774:../../../support/device/gd32f4xx/peripherals/src/gd32f4xx_adc.c ****         break;
 775:../../../support/device/gd32f4xx/peripherals/src/gd32f4xx_adc.c ****     case ADC_INSERTED_CHANNEL_1:
 776:../../../support/device/gd32f4xx/peripherals/src/gd32f4xx_adc.c ****         /* read the data of channel 1 */
 777:../../../support/device/gd32f4xx/peripherals/src/gd32f4xx_adc.c ****         idata = ADC_IDATA1(adc_periph);
 778:../../../support/device/gd32f4xx/peripherals/src/gd32f4xx_adc.c ****         break;
 779:../../../support/device/gd32f4xx/peripherals/src/gd32f4xx_adc.c ****     case ADC_INSERTED_CHANNEL_2:
 780:../../../support/device/gd32f4xx/peripherals/src/gd32f4xx_adc.c ****         /* read the data of channel 2 */
 781:../../../support/device/gd32f4xx/peripherals/src/gd32f4xx_adc.c ****         idata = ADC_IDATA2(adc_periph);
 782:../../../support/device/gd32f4xx/peripherals/src/gd32f4xx_adc.c ****         break;
 783:../../../support/device/gd32f4xx/peripherals/src/gd32f4xx_adc.c ****     case ADC_INSERTED_CHANNEL_3:
 784:../../../support/device/gd32f4xx/peripherals/src/gd32f4xx_adc.c ****         /* read the data of channel 3 */
 785:../../../support/device/gd32f4xx/peripherals/src/gd32f4xx_adc.c ****         idata = ADC_IDATA3(adc_periph);
 1485              		.loc 1 785 9 view .LVU410
 1486              		.loc 1 785 15 is_stmt 0 view .LVU411
 1487 000c 806C     		ldr	r0, [r0, #72]
 1488              	.LVL106:
 786:../../../support/device/gd32f4xx/peripherals/src/gd32f4xx_adc.c ****         break;
 1489              		.loc 1 786 9 is_stmt 1 view .LVU412
 787:../../../support/device/gd32f4xx/peripherals/src/gd32f4xx_adc.c ****     default:
 788:../../../support/device/gd32f4xx/peripherals/src/gd32f4xx_adc.c ****         idata = 0U;
 789:../../../support/device/gd32f4xx/peripherals/src/gd32f4xx_adc.c ****         break;
 790:../../../support/device/gd32f4xx/peripherals/src/gd32f4xx_adc.c ****     }
 791:../../../support/device/gd32f4xx/peripherals/src/gd32f4xx_adc.c ****     return (uint16_t)idata;
 1490              		.loc 1 791 12 is_stmt 0 view .LVU413
 1491 000e 80B2     		uxth	r0, r0
 1492              	.LVL107:
 786:../../../support/device/gd32f4xx/peripherals/src/gd32f4xx_adc.c ****         break;
 1493              		.loc 1 786 9 view .LVU414
 1494 0010 7047     		bx	lr
 1495              	.LVL108:
 1496              	.L127:
 781:../../../support/device/gd32f4xx/peripherals/src/gd32f4xx_adc.c ****         break;
 1497              		.loc 1 781 9 is_stmt 1 view .LVU415
 781:../../../support/device/gd32f4xx/peripherals/src/gd32f4xx_adc.c ****         break;
 1498              		.loc 1 781 15 is_stmt 0 view .LVU416
 1499 0012 406C     		ldr	r0, [r0, #68]
 1500              	.LVL109:
 782:../../../support/device/gd32f4xx/peripherals/src/gd32f4xx_adc.c ****     case ADC_INSERTED_CHANNEL_3:
 1501              		.loc 1 782 9 is_stmt 1 view .LVU417
 1502              		.loc 1 791 12 is_stmt 0 view .LVU418
 1503 0014 80B2     		uxth	r0, r0
 1504              	.LVL110:
 782:../../../support/device/gd32f4xx/peripherals/src/gd32f4xx_adc.c ****     case ADC_INSERTED_CHANNEL_3:
 1505              		.loc 1 782 9 view .LVU419
 1506 0016 7047     		bx	lr
 1507              	.LVL111:
 1508              	.L128:
 777:../../../support/device/gd32f4xx/peripherals/src/gd32f4xx_adc.c ****         break;
ARM GAS  /var/folders/_f/88qcw_5n2jl40jjphvxyt7wh0000gn/T//cc2pJbeY.s 			page 43


 1509              		.loc 1 777 9 is_stmt 1 view .LVU420
 777:../../../support/device/gd32f4xx/peripherals/src/gd32f4xx_adc.c ****         break;
 1510              		.loc 1 777 15 is_stmt 0 view .LVU421
 1511 0018 006C     		ldr	r0, [r0, #64]
 1512              	.LVL112:
 778:../../../support/device/gd32f4xx/peripherals/src/gd32f4xx_adc.c ****     case ADC_INSERTED_CHANNEL_2:
 1513              		.loc 1 778 9 is_stmt 1 view .LVU422
 1514              		.loc 1 791 12 is_stmt 0 view .LVU423
 1515 001a 80B2     		uxth	r0, r0
 1516              	.LVL113:
 778:../../../support/device/gd32f4xx/peripherals/src/gd32f4xx_adc.c ****     case ADC_INSERTED_CHANNEL_2:
 1517              		.loc 1 778 9 view .LVU424
 1518 001c 7047     		bx	lr
 1519              	.LVL114:
 1520              	.L129:
 773:../../../support/device/gd32f4xx/peripherals/src/gd32f4xx_adc.c ****         break;
 1521              		.loc 1 773 9 is_stmt 1 view .LVU425
 773:../../../support/device/gd32f4xx/peripherals/src/gd32f4xx_adc.c ****         break;
 1522              		.loc 1 773 15 is_stmt 0 view .LVU426
 1523 001e C06B     		ldr	r0, [r0, #60]
 1524              	.LVL115:
 774:../../../support/device/gd32f4xx/peripherals/src/gd32f4xx_adc.c ****     case ADC_INSERTED_CHANNEL_1:
 1525              		.loc 1 774 9 is_stmt 1 view .LVU427
 1526              		.loc 1 791 12 is_stmt 0 view .LVU428
 1527 0020 80B2     		uxth	r0, r0
 1528              	.LVL116:
 774:../../../support/device/gd32f4xx/peripherals/src/gd32f4xx_adc.c ****     case ADC_INSERTED_CHANNEL_1:
 1529              		.loc 1 774 9 view .LVU429
 1530 0022 7047     		bx	lr
 1531              	.LVL117:
 1532              	.L130:
 770:../../../support/device/gd32f4xx/peripherals/src/gd32f4xx_adc.c ****     case ADC_INSERTED_CHANNEL_0:
 1533              		.loc 1 770 5 view .LVU430
 1534 0024 0020     		movs	r0, #0
 1535              	.LVL118:
 1536              		.loc 1 791 5 is_stmt 1 view .LVU431
 792:../../../support/device/gd32f4xx/peripherals/src/gd32f4xx_adc.c **** }
 1537              		.loc 1 792 1 is_stmt 0 view .LVU432
 1538 0026 7047     		bx	lr
 1539              		.cfi_endproc
 1540              	.LFE142:
 1542              		.section	.text.adc_watchdog_single_channel_disable,"ax",%progbits
 1543              		.align	1
 1544              		.p2align 2,,3
 1545              		.global	adc_watchdog_single_channel_disable
 1546              		.syntax unified
 1547              		.thumb
 1548              		.thumb_func
 1550              	adc_watchdog_single_channel_disable:
 1551              	.LVL119:
 1552              	.LFB143:
 793:../../../support/device/gd32f4xx/peripherals/src/gd32f4xx_adc.c **** 
 794:../../../support/device/gd32f4xx/peripherals/src/gd32f4xx_adc.c **** /*!
 795:../../../support/device/gd32f4xx/peripherals/src/gd32f4xx_adc.c ****     \brief      disable ADC analog watchdog single channel
 796:../../../support/device/gd32f4xx/peripherals/src/gd32f4xx_adc.c ****     \param[in]  adc_periph: ADCx,x=0,1,2
 797:../../../support/device/gd32f4xx/peripherals/src/gd32f4xx_adc.c ****     \param[out] none
 798:../../../support/device/gd32f4xx/peripherals/src/gd32f4xx_adc.c ****     \retval     none
ARM GAS  /var/folders/_f/88qcw_5n2jl40jjphvxyt7wh0000gn/T//cc2pJbeY.s 			page 44


 799:../../../support/device/gd32f4xx/peripherals/src/gd32f4xx_adc.c **** */
 800:../../../support/device/gd32f4xx/peripherals/src/gd32f4xx_adc.c **** void adc_watchdog_single_channel_disable(uint32_t adc_periph)
 801:../../../support/device/gd32f4xx/peripherals/src/gd32f4xx_adc.c **** {
 1553              		.loc 1 801 1 is_stmt 1 view -0
 1554              		.cfi_startproc
 1555              		@ args = 0, pretend = 0, frame = 0
 1556              		@ frame_needed = 0, uses_anonymous_args = 0
 1557              		@ link register save eliminated.
 802:../../../support/device/gd32f4xx/peripherals/src/gd32f4xx_adc.c ****     ADC_CTL0(adc_periph) &= ~((uint32_t)ADC_CTL0_WDSC);
 1558              		.loc 1 802 5 view .LVU434
 1559              		.loc 1 802 26 is_stmt 0 view .LVU435
 1560 0000 4368     		ldr	r3, [r0, #4]
 1561 0002 23F40073 		bic	r3, r3, #512
 1562 0006 4360     		str	r3, [r0, #4]
 803:../../../support/device/gd32f4xx/peripherals/src/gd32f4xx_adc.c **** }
 1563              		.loc 1 803 1 view .LVU436
 1564 0008 7047     		bx	lr
 1565              		.cfi_endproc
 1566              	.LFE143:
 1568 000a 00BF     		.section	.text.adc_watchdog_single_channel_enable,"ax",%progbits
 1569              		.align	1
 1570              		.p2align 2,,3
 1571              		.global	adc_watchdog_single_channel_enable
 1572              		.syntax unified
 1573              		.thumb
 1574              		.thumb_func
 1576              	adc_watchdog_single_channel_enable:
 1577              	.LVL120:
 1578              	.LFB144:
 804:../../../support/device/gd32f4xx/peripherals/src/gd32f4xx_adc.c **** 
 805:../../../support/device/gd32f4xx/peripherals/src/gd32f4xx_adc.c **** /*!
 806:../../../support/device/gd32f4xx/peripherals/src/gd32f4xx_adc.c ****     \brief      enable ADC analog watchdog single channel
 807:../../../support/device/gd32f4xx/peripherals/src/gd32f4xx_adc.c ****     \param[in]  adc_periph: ADCx,x=0,1,2
 808:../../../support/device/gd32f4xx/peripherals/src/gd32f4xx_adc.c ****     \param[in]  adc_channel: the selected ADC channel
 809:../../../support/device/gd32f4xx/peripherals/src/gd32f4xx_adc.c ****                 only one parameter can be selected which is shown as below:
 810:../../../support/device/gd32f4xx/peripherals/src/gd32f4xx_adc.c ****     \arg        ADC_CHANNEL_x: ADC Channelx(x=0..18)
 811:../../../support/device/gd32f4xx/peripherals/src/gd32f4xx_adc.c ****     \param[out] none
 812:../../../support/device/gd32f4xx/peripherals/src/gd32f4xx_adc.c ****     \retval     none
 813:../../../support/device/gd32f4xx/peripherals/src/gd32f4xx_adc.c **** */
 814:../../../support/device/gd32f4xx/peripherals/src/gd32f4xx_adc.c **** void adc_watchdog_single_channel_enable(uint32_t adc_periph, uint8_t adc_channel)
 815:../../../support/device/gd32f4xx/peripherals/src/gd32f4xx_adc.c **** {
 1579              		.loc 1 815 1 is_stmt 1 view -0
 1580              		.cfi_startproc
 1581              		@ args = 0, pretend = 0, frame = 0
 1582              		@ frame_needed = 0, uses_anonymous_args = 0
 1583              		@ link register save eliminated.
 816:../../../support/device/gd32f4xx/peripherals/src/gd32f4xx_adc.c ****     ADC_CTL0(adc_periph) &= ~((uint32_t)ADC_CTL0_WDCHSEL);
 1584              		.loc 1 816 5 view .LVU438
 1585              		.loc 1 816 26 is_stmt 0 view .LVU439
 1586 0000 4368     		ldr	r3, [r0, #4]
 1587 0002 23F01F03 		bic	r3, r3, #31
 1588 0006 4360     		str	r3, [r0, #4]
 817:../../../support/device/gd32f4xx/peripherals/src/gd32f4xx_adc.c **** 
 818:../../../support/device/gd32f4xx/peripherals/src/gd32f4xx_adc.c ****     /* analog watchdog channel select */
 819:../../../support/device/gd32f4xx/peripherals/src/gd32f4xx_adc.c ****     ADC_CTL0(adc_periph) |= (uint32_t)adc_channel;
 1589              		.loc 1 819 5 is_stmt 1 view .LVU440
 1590              		.loc 1 819 26 is_stmt 0 view .LVU441
ARM GAS  /var/folders/_f/88qcw_5n2jl40jjphvxyt7wh0000gn/T//cc2pJbeY.s 			page 45


 1591 0008 4368     		ldr	r3, [r0, #4]
 1592 000a 1943     		orrs	r1, r1, r3
 1593              	.LVL121:
 1594              		.loc 1 819 26 view .LVU442
 1595 000c 4160     		str	r1, [r0, #4]
 820:../../../support/device/gd32f4xx/peripherals/src/gd32f4xx_adc.c ****     ADC_CTL0(adc_periph) |= (uint32_t) ADC_CTL0_WDSC;
 1596              		.loc 1 820 5 is_stmt 1 view .LVU443
 1597              		.loc 1 820 26 is_stmt 0 view .LVU444
 1598 000e 4368     		ldr	r3, [r0, #4]
 1599 0010 43F40073 		orr	r3, r3, #512
 1600 0014 4360     		str	r3, [r0, #4]
 821:../../../support/device/gd32f4xx/peripherals/src/gd32f4xx_adc.c **** }
 1601              		.loc 1 821 1 view .LVU445
 1602 0016 7047     		bx	lr
 1603              		.cfi_endproc
 1604              	.LFE144:
 1606              		.section	.text.adc_watchdog_sequence_channel_enable,"ax",%progbits
 1607              		.align	1
 1608              		.p2align 2,,3
 1609              		.global	adc_watchdog_sequence_channel_enable
 1610              		.syntax unified
 1611              		.thumb
 1612              		.thumb_func
 1614              	adc_watchdog_sequence_channel_enable:
 1615              	.LVL122:
 1616              	.LFB145:
 822:../../../support/device/gd32f4xx/peripherals/src/gd32f4xx_adc.c **** 
 823:../../../support/device/gd32f4xx/peripherals/src/gd32f4xx_adc.c **** /*!
 824:../../../support/device/gd32f4xx/peripherals/src/gd32f4xx_adc.c ****     \brief      configure ADC analog watchdog sequence channel
 825:../../../support/device/gd32f4xx/peripherals/src/gd32f4xx_adc.c ****     \param[in]  adc_periph: ADCx,x=0,1,2
 826:../../../support/device/gd32f4xx/peripherals/src/gd32f4xx_adc.c ****     \param[in]  adc_sequence: the sequence use analog watchdog
 827:../../../support/device/gd32f4xx/peripherals/src/gd32f4xx_adc.c ****                 only one parameter can be selected which is shown as below:
 828:../../../support/device/gd32f4xx/peripherals/src/gd32f4xx_adc.c ****     \arg        ADC_ROUTINE_CHANNEL: routine sequence
 829:../../../support/device/gd32f4xx/peripherals/src/gd32f4xx_adc.c ****     \arg        ADC_INSERTED_CHANNEL: inserted sequence
 830:../../../support/device/gd32f4xx/peripherals/src/gd32f4xx_adc.c ****     \arg        ADC_ROUTINE_INSERTED_CHANNEL: both routine and inserted sequence
 831:../../../support/device/gd32f4xx/peripherals/src/gd32f4xx_adc.c ****     \param[out] none
 832:../../../support/device/gd32f4xx/peripherals/src/gd32f4xx_adc.c ****     \retval     none
 833:../../../support/device/gd32f4xx/peripherals/src/gd32f4xx_adc.c **** */
 834:../../../support/device/gd32f4xx/peripherals/src/gd32f4xx_adc.c **** void adc_watchdog_sequence_channel_enable(uint32_t adc_periph, uint8_t adc_sequence)
 835:../../../support/device/gd32f4xx/peripherals/src/gd32f4xx_adc.c **** {
 1617              		.loc 1 835 1 is_stmt 1 view -0
 1618              		.cfi_startproc
 1619              		@ args = 0, pretend = 0, frame = 0
 1620              		@ frame_needed = 0, uses_anonymous_args = 0
 1621              		@ link register save eliminated.
 836:../../../support/device/gd32f4xx/peripherals/src/gd32f4xx_adc.c ****     ADC_CTL0(adc_periph) &= ~((uint32_t)(ADC_CTL0_RWDEN | ADC_CTL0_IWDEN | ADC_CTL0_WDSC));
 1622              		.loc 1 836 5 view .LVU447
 1623              		.loc 1 836 26 is_stmt 0 view .LVU448
 1624 0000 4368     		ldr	r3, [r0, #4]
 1625 0002 23F44003 		bic	r3, r3, #12582912
 1626 0006 23F40073 		bic	r3, r3, #512
 837:../../../support/device/gd32f4xx/peripherals/src/gd32f4xx_adc.c ****     /* select the sequence */
 838:../../../support/device/gd32f4xx/peripherals/src/gd32f4xx_adc.c ****     switch(adc_sequence) {
 1627              		.loc 1 838 5 view .LVU449
 1628 000a 0229     		cmp	r1, #2
 836:../../../support/device/gd32f4xx/peripherals/src/gd32f4xx_adc.c ****     ADC_CTL0(adc_periph) &= ~((uint32_t)(ADC_CTL0_RWDEN | ADC_CTL0_IWDEN | ADC_CTL0_WDSC));
 1629              		.loc 1 836 26 view .LVU450
ARM GAS  /var/folders/_f/88qcw_5n2jl40jjphvxyt7wh0000gn/T//cc2pJbeY.s 			page 46


 1630 000c 4360     		str	r3, [r0, #4]
 1631              		.loc 1 838 5 is_stmt 1 view .LVU451
 1632 000e 04D0     		beq	.L134
 1633 0010 0329     		cmp	r1, #3
 1634 0012 0CD0     		beq	.L135
 1635 0014 0129     		cmp	r1, #1
 1636 0016 05D0     		beq	.L137
 839:../../../support/device/gd32f4xx/peripherals/src/gd32f4xx_adc.c ****     case ADC_ROUTINE_CHANNEL:
 840:../../../support/device/gd32f4xx/peripherals/src/gd32f4xx_adc.c ****         /* routine channel analog watchdog enable */
 841:../../../support/device/gd32f4xx/peripherals/src/gd32f4xx_adc.c ****         ADC_CTL0(adc_periph) |= (uint32_t) ADC_CTL0_RWDEN;
 842:../../../support/device/gd32f4xx/peripherals/src/gd32f4xx_adc.c ****         break;
 843:../../../support/device/gd32f4xx/peripherals/src/gd32f4xx_adc.c ****     case ADC_INSERTED_CHANNEL:
 844:../../../support/device/gd32f4xx/peripherals/src/gd32f4xx_adc.c ****         /* inserted channel analog watchdog enable */
 845:../../../support/device/gd32f4xx/peripherals/src/gd32f4xx_adc.c ****         ADC_CTL0(adc_periph) |= (uint32_t) ADC_CTL0_IWDEN;
 846:../../../support/device/gd32f4xx/peripherals/src/gd32f4xx_adc.c ****         break;
 847:../../../support/device/gd32f4xx/peripherals/src/gd32f4xx_adc.c ****     case ADC_ROUTINE_INSERTED_CHANNEL:
 848:../../../support/device/gd32f4xx/peripherals/src/gd32f4xx_adc.c ****         /* routine and inserted channel analog watchdog enable */
 849:../../../support/device/gd32f4xx/peripherals/src/gd32f4xx_adc.c ****         ADC_CTL0(adc_periph) |= (uint32_t)(ADC_CTL0_RWDEN | ADC_CTL0_IWDEN);
 850:../../../support/device/gd32f4xx/peripherals/src/gd32f4xx_adc.c ****         break;
 851:../../../support/device/gd32f4xx/peripherals/src/gd32f4xx_adc.c ****     default:
 852:../../../support/device/gd32f4xx/peripherals/src/gd32f4xx_adc.c ****         break;
 853:../../../support/device/gd32f4xx/peripherals/src/gd32f4xx_adc.c ****     }
 854:../../../support/device/gd32f4xx/peripherals/src/gd32f4xx_adc.c **** }
 1637              		.loc 1 854 1 is_stmt 0 view .LVU452
 1638 0018 7047     		bx	lr
 1639              	.L134:
 845:../../../support/device/gd32f4xx/peripherals/src/gd32f4xx_adc.c ****         break;
 1640              		.loc 1 845 9 is_stmt 1 view .LVU453
 845:../../../support/device/gd32f4xx/peripherals/src/gd32f4xx_adc.c ****         break;
 1641              		.loc 1 845 30 is_stmt 0 view .LVU454
 1642 001a 4368     		ldr	r3, [r0, #4]
 1643 001c 43F48003 		orr	r3, r3, #4194304
 1644 0020 4360     		str	r3, [r0, #4]
 846:../../../support/device/gd32f4xx/peripherals/src/gd32f4xx_adc.c ****     case ADC_ROUTINE_INSERTED_CHANNEL:
 1645              		.loc 1 846 9 is_stmt 1 view .LVU455
 1646 0022 7047     		bx	lr
 1647              	.L137:
 841:../../../support/device/gd32f4xx/peripherals/src/gd32f4xx_adc.c ****         break;
 1648              		.loc 1 841 9 view .LVU456
 841:../../../support/device/gd32f4xx/peripherals/src/gd32f4xx_adc.c ****         break;
 1649              		.loc 1 841 30 is_stmt 0 view .LVU457
 1650 0024 4368     		ldr	r3, [r0, #4]
 1651 0026 43F40003 		orr	r3, r3, #8388608
 1652 002a 4360     		str	r3, [r0, #4]
 842:../../../support/device/gd32f4xx/peripherals/src/gd32f4xx_adc.c ****     case ADC_INSERTED_CHANNEL:
 1653              		.loc 1 842 9 is_stmt 1 view .LVU458
 1654 002c 7047     		bx	lr
 1655              	.L135:
 849:../../../support/device/gd32f4xx/peripherals/src/gd32f4xx_adc.c ****         break;
 1656              		.loc 1 849 9 view .LVU459
 849:../../../support/device/gd32f4xx/peripherals/src/gd32f4xx_adc.c ****         break;
 1657              		.loc 1 849 30 is_stmt 0 view .LVU460
 1658 002e 4368     		ldr	r3, [r0, #4]
 1659 0030 43F44003 		orr	r3, r3, #12582912
 1660 0034 4360     		str	r3, [r0, #4]
 850:../../../support/device/gd32f4xx/peripherals/src/gd32f4xx_adc.c ****     default:
 1661              		.loc 1 850 9 is_stmt 1 view .LVU461
ARM GAS  /var/folders/_f/88qcw_5n2jl40jjphvxyt7wh0000gn/T//cc2pJbeY.s 			page 47


 1662              		.loc 1 854 1 is_stmt 0 view .LVU462
 1663 0036 7047     		bx	lr
 1664              		.cfi_endproc
 1665              	.LFE145:
 1667              		.section	.text.adc_watchdog_disable,"ax",%progbits
 1668              		.align	1
 1669              		.p2align 2,,3
 1670              		.global	adc_watchdog_disable
 1671              		.syntax unified
 1672              		.thumb
 1673              		.thumb_func
 1675              	adc_watchdog_disable:
 1676              	.LVL123:
 1677              	.LFB146:
 855:../../../support/device/gd32f4xx/peripherals/src/gd32f4xx_adc.c **** 
 856:../../../support/device/gd32f4xx/peripherals/src/gd32f4xx_adc.c **** /*!
 857:../../../support/device/gd32f4xx/peripherals/src/gd32f4xx_adc.c ****     \brief      disable ADC analog watchdog
 858:../../../support/device/gd32f4xx/peripherals/src/gd32f4xx_adc.c ****     \param[in]  adc_periph: ADCx,x=0,1,2
 859:../../../support/device/gd32f4xx/peripherals/src/gd32f4xx_adc.c ****     \param[in]  adc_sequence: the sequence use analog watchdog
 860:../../../support/device/gd32f4xx/peripherals/src/gd32f4xx_adc.c ****                 only one parameter can be selected which is shown as below:
 861:../../../support/device/gd32f4xx/peripherals/src/gd32f4xx_adc.c ****     \arg        ADC_ROUTINE_CHANNEL: routine sequence
 862:../../../support/device/gd32f4xx/peripherals/src/gd32f4xx_adc.c ****     \arg        ADC_INSERTED_CHANNEL: inserted sequence
 863:../../../support/device/gd32f4xx/peripherals/src/gd32f4xx_adc.c ****     \arg        ADC_ROUTINE_INSERTED_CHANNEL: both routine and inserted sequence
 864:../../../support/device/gd32f4xx/peripherals/src/gd32f4xx_adc.c ****     \param[out] none
 865:../../../support/device/gd32f4xx/peripherals/src/gd32f4xx_adc.c ****     \retval     none
 866:../../../support/device/gd32f4xx/peripherals/src/gd32f4xx_adc.c **** */
 867:../../../support/device/gd32f4xx/peripherals/src/gd32f4xx_adc.c **** void adc_watchdog_disable(uint32_t adc_periph, uint8_t adc_sequence)
 868:../../../support/device/gd32f4xx/peripherals/src/gd32f4xx_adc.c **** {
 1678              		.loc 1 868 1 is_stmt 1 view -0
 1679              		.cfi_startproc
 1680              		@ args = 0, pretend = 0, frame = 0
 1681              		@ frame_needed = 0, uses_anonymous_args = 0
 1682              		@ link register save eliminated.
 869:../../../support/device/gd32f4xx/peripherals/src/gd32f4xx_adc.c ****     /* select the sequence */
 870:../../../support/device/gd32f4xx/peripherals/src/gd32f4xx_adc.c ****     switch(adc_sequence) {
 1683              		.loc 1 870 5 view .LVU464
 1684 0000 0229     		cmp	r1, #2
 1685 0002 04D0     		beq	.L139
 1686 0004 0329     		cmp	r1, #3
 1687 0006 0CD0     		beq	.L140
 1688 0008 0129     		cmp	r1, #1
 1689 000a 05D0     		beq	.L142
 871:../../../support/device/gd32f4xx/peripherals/src/gd32f4xx_adc.c ****     case ADC_ROUTINE_CHANNEL:
 872:../../../support/device/gd32f4xx/peripherals/src/gd32f4xx_adc.c ****         /* disable ADC analog watchdog routine sequence */
 873:../../../support/device/gd32f4xx/peripherals/src/gd32f4xx_adc.c ****         ADC_CTL0(adc_periph) &=  ~((uint32_t)ADC_CTL0_RWDEN);
 874:../../../support/device/gd32f4xx/peripherals/src/gd32f4xx_adc.c ****         break;
 875:../../../support/device/gd32f4xx/peripherals/src/gd32f4xx_adc.c ****     case ADC_INSERTED_CHANNEL:
 876:../../../support/device/gd32f4xx/peripherals/src/gd32f4xx_adc.c ****         /* disable ADC analog watchdog inserted sequence */
 877:../../../support/device/gd32f4xx/peripherals/src/gd32f4xx_adc.c ****         ADC_CTL0(adc_periph) &=  ~((uint32_t)ADC_CTL0_IWDEN);
 878:../../../support/device/gd32f4xx/peripherals/src/gd32f4xx_adc.c ****         break;
 879:../../../support/device/gd32f4xx/peripherals/src/gd32f4xx_adc.c ****     case ADC_ROUTINE_INSERTED_CHANNEL:
 880:../../../support/device/gd32f4xx/peripherals/src/gd32f4xx_adc.c ****         /* disable ADC analog watchdog routine and inserted sequence */
 881:../../../support/device/gd32f4xx/peripherals/src/gd32f4xx_adc.c ****         ADC_CTL0(adc_periph) &=  ~((uint32_t)(ADC_CTL0_RWDEN | ADC_CTL0_IWDEN));
 882:../../../support/device/gd32f4xx/peripherals/src/gd32f4xx_adc.c ****         break;
 883:../../../support/device/gd32f4xx/peripherals/src/gd32f4xx_adc.c ****     default:
 884:../../../support/device/gd32f4xx/peripherals/src/gd32f4xx_adc.c ****         break;
 885:../../../support/device/gd32f4xx/peripherals/src/gd32f4xx_adc.c ****     }
ARM GAS  /var/folders/_f/88qcw_5n2jl40jjphvxyt7wh0000gn/T//cc2pJbeY.s 			page 48


 886:../../../support/device/gd32f4xx/peripherals/src/gd32f4xx_adc.c **** }
 1690              		.loc 1 886 1 is_stmt 0 view .LVU465
 1691 000c 7047     		bx	lr
 1692              	.L139:
 877:../../../support/device/gd32f4xx/peripherals/src/gd32f4xx_adc.c ****         break;
 1693              		.loc 1 877 9 is_stmt 1 view .LVU466
 877:../../../support/device/gd32f4xx/peripherals/src/gd32f4xx_adc.c ****         break;
 1694              		.loc 1 877 30 is_stmt 0 view .LVU467
 1695 000e 4368     		ldr	r3, [r0, #4]
 1696 0010 23F48003 		bic	r3, r3, #4194304
 1697 0014 4360     		str	r3, [r0, #4]
 878:../../../support/device/gd32f4xx/peripherals/src/gd32f4xx_adc.c ****     case ADC_ROUTINE_INSERTED_CHANNEL:
 1698              		.loc 1 878 9 is_stmt 1 view .LVU468
 1699 0016 7047     		bx	lr
 1700              	.L142:
 873:../../../support/device/gd32f4xx/peripherals/src/gd32f4xx_adc.c ****         break;
 1701              		.loc 1 873 9 view .LVU469
 873:../../../support/device/gd32f4xx/peripherals/src/gd32f4xx_adc.c ****         break;
 1702              		.loc 1 873 30 is_stmt 0 view .LVU470
 1703 0018 4368     		ldr	r3, [r0, #4]
 1704 001a 23F40003 		bic	r3, r3, #8388608
 1705 001e 4360     		str	r3, [r0, #4]
 874:../../../support/device/gd32f4xx/peripherals/src/gd32f4xx_adc.c ****     case ADC_INSERTED_CHANNEL:
 1706              		.loc 1 874 9 is_stmt 1 view .LVU471
 1707 0020 7047     		bx	lr
 1708              	.L140:
 881:../../../support/device/gd32f4xx/peripherals/src/gd32f4xx_adc.c ****         break;
 1709              		.loc 1 881 9 view .LVU472
 881:../../../support/device/gd32f4xx/peripherals/src/gd32f4xx_adc.c ****         break;
 1710              		.loc 1 881 30 is_stmt 0 view .LVU473
 1711 0022 4368     		ldr	r3, [r0, #4]
 1712 0024 23F44003 		bic	r3, r3, #12582912
 1713 0028 4360     		str	r3, [r0, #4]
 882:../../../support/device/gd32f4xx/peripherals/src/gd32f4xx_adc.c ****     default:
 1714              		.loc 1 882 9 is_stmt 1 view .LVU474
 1715              		.loc 1 886 1 is_stmt 0 view .LVU475
 1716 002a 7047     		bx	lr
 1717              		.cfi_endproc
 1718              	.LFE146:
 1720              		.section	.text.adc_watchdog_threshold_config,"ax",%progbits
 1721              		.align	1
 1722              		.p2align 2,,3
 1723              		.global	adc_watchdog_threshold_config
 1724              		.syntax unified
 1725              		.thumb
 1726              		.thumb_func
 1728              	adc_watchdog_threshold_config:
 1729              	.LVL124:
 1730              	.LFB147:
 887:../../../support/device/gd32f4xx/peripherals/src/gd32f4xx_adc.c **** 
 888:../../../support/device/gd32f4xx/peripherals/src/gd32f4xx_adc.c **** /*!
 889:../../../support/device/gd32f4xx/peripherals/src/gd32f4xx_adc.c ****     \brief      configure ADC analog watchdog threshold
 890:../../../support/device/gd32f4xx/peripherals/src/gd32f4xx_adc.c ****     \param[in]  adc_periph: ADCx,x=0,1,2
 891:../../../support/device/gd32f4xx/peripherals/src/gd32f4xx_adc.c ****     \param[in]  low_threshold: analog watchdog low threshold,0..4095
 892:../../../support/device/gd32f4xx/peripherals/src/gd32f4xx_adc.c ****     \param[in]  high_threshold: analog watchdog high threshold,0..4095
 893:../../../support/device/gd32f4xx/peripherals/src/gd32f4xx_adc.c ****     \param[out] none
 894:../../../support/device/gd32f4xx/peripherals/src/gd32f4xx_adc.c ****     \retval     none
ARM GAS  /var/folders/_f/88qcw_5n2jl40jjphvxyt7wh0000gn/T//cc2pJbeY.s 			page 49


 895:../../../support/device/gd32f4xx/peripherals/src/gd32f4xx_adc.c **** */
 896:../../../support/device/gd32f4xx/peripherals/src/gd32f4xx_adc.c **** void adc_watchdog_threshold_config(uint32_t adc_periph, uint16_t low_threshold, uint16_t high_thres
 897:../../../support/device/gd32f4xx/peripherals/src/gd32f4xx_adc.c **** {
 1731              		.loc 1 897 1 is_stmt 1 view -0
 1732              		.cfi_startproc
 1733              		@ args = 0, pretend = 0, frame = 0
 1734              		@ frame_needed = 0, uses_anonymous_args = 0
 1735              		@ link register save eliminated.
 898:../../../support/device/gd32f4xx/peripherals/src/gd32f4xx_adc.c ****     /* configure ADC analog watchdog low threshold */
 899:../../../support/device/gd32f4xx/peripherals/src/gd32f4xx_adc.c ****     ADC_WDLT(adc_periph) = (uint32_t)WDLT_WDLT(low_threshold);
 1736              		.loc 1 899 5 view .LVU477
 1737              		.loc 1 899 28 is_stmt 0 view .LVU478
 1738 0000 C1F30B01 		ubfx	r1, r1, #0, #12
 1739              	.LVL125:
 900:../../../support/device/gd32f4xx/peripherals/src/gd32f4xx_adc.c ****     /* configure ADC analog watchdog high threshold */
 901:../../../support/device/gd32f4xx/peripherals/src/gd32f4xx_adc.c ****     ADC_WDHT(adc_periph) = (uint32_t)WDHT_WDHT(high_threshold);
 1740              		.loc 1 901 28 view .LVU479
 1741 0004 C2F30B02 		ubfx	r2, r2, #0, #12
 1742              	.LVL126:
 899:../../../support/device/gd32f4xx/peripherals/src/gd32f4xx_adc.c ****     /* configure ADC analog watchdog high threshold */
 1743              		.loc 1 899 26 view .LVU480
 1744 0008 8162     		str	r1, [r0, #40]
 1745              		.loc 1 901 5 is_stmt 1 view .LVU481
 1746              		.loc 1 901 26 is_stmt 0 view .LVU482
 1747 000a 4262     		str	r2, [r0, #36]
 902:../../../support/device/gd32f4xx/peripherals/src/gd32f4xx_adc.c **** }
 1748              		.loc 1 902 1 view .LVU483
 1749 000c 7047     		bx	lr
 1750              		.cfi_endproc
 1751              	.LFE147:
 1753 000e 00BF     		.section	.text.adc_flag_get,"ax",%progbits
 1754              		.align	1
 1755              		.p2align 2,,3
 1756              		.global	adc_flag_get
 1757              		.syntax unified
 1758              		.thumb
 1759              		.thumb_func
 1761              	adc_flag_get:
 1762              	.LVL127:
 1763              	.LFB148:
 903:../../../support/device/gd32f4xx/peripherals/src/gd32f4xx_adc.c **** 
 904:../../../support/device/gd32f4xx/peripherals/src/gd32f4xx_adc.c **** /*!
 905:../../../support/device/gd32f4xx/peripherals/src/gd32f4xx_adc.c ****     \brief      get the ADC flag bits
 906:../../../support/device/gd32f4xx/peripherals/src/gd32f4xx_adc.c ****     \param[in]  adc_periph: ADCx,x=0,1,2
 907:../../../support/device/gd32f4xx/peripherals/src/gd32f4xx_adc.c ****     \param[in]  adc_flag: the adc flag bits
 908:../../../support/device/gd32f4xx/peripherals/src/gd32f4xx_adc.c ****                 only one parameter can be selected which is shown as below:
 909:../../../support/device/gd32f4xx/peripherals/src/gd32f4xx_adc.c ****     \arg        ADC_FLAG_WDE: analog watchdog event flag
 910:../../../support/device/gd32f4xx/peripherals/src/gd32f4xx_adc.c ****     \arg        ADC_FLAG_EOC: end of sequence conversion flag
 911:../../../support/device/gd32f4xx/peripherals/src/gd32f4xx_adc.c ****     \arg        ADC_FLAG_EOIC: end of inserted sequence conversion flag
 912:../../../support/device/gd32f4xx/peripherals/src/gd32f4xx_adc.c ****     \arg        ADC_FLAG_STIC: start flag of inserted sequence
 913:../../../support/device/gd32f4xx/peripherals/src/gd32f4xx_adc.c ****     \arg        ADC_FLAG_STRC: start flag of routine sequence
 914:../../../support/device/gd32f4xx/peripherals/src/gd32f4xx_adc.c ****     \arg        ADC_FLAG_ROVF: routine data register overflow flag
 915:../../../support/device/gd32f4xx/peripherals/src/gd32f4xx_adc.c ****     \param[out] none
 916:../../../support/device/gd32f4xx/peripherals/src/gd32f4xx_adc.c ****     \retval     FlagStatus: SET or RESET
 917:../../../support/device/gd32f4xx/peripherals/src/gd32f4xx_adc.c **** */
 918:../../../support/device/gd32f4xx/peripherals/src/gd32f4xx_adc.c **** FlagStatus adc_flag_get(uint32_t adc_periph, uint32_t adc_flag)
 919:../../../support/device/gd32f4xx/peripherals/src/gd32f4xx_adc.c **** {
ARM GAS  /var/folders/_f/88qcw_5n2jl40jjphvxyt7wh0000gn/T//cc2pJbeY.s 			page 50


 1764              		.loc 1 919 1 is_stmt 1 view -0
 1765              		.cfi_startproc
 1766              		@ args = 0, pretend = 0, frame = 0
 1767              		@ frame_needed = 0, uses_anonymous_args = 0
 1768              		@ link register save eliminated.
 920:../../../support/device/gd32f4xx/peripherals/src/gd32f4xx_adc.c ****     FlagStatus reval = RESET;
 1769              		.loc 1 920 5 view .LVU485
 921:../../../support/device/gd32f4xx/peripherals/src/gd32f4xx_adc.c ****     if(ADC_STAT(adc_periph) & adc_flag) {
 1770              		.loc 1 921 5 view .LVU486
 1771              		.loc 1 921 8 is_stmt 0 view .LVU487
 1772 0000 0368     		ldr	r3, [r0]
 1773              	.LVL128:
 922:../../../support/device/gd32f4xx/peripherals/src/gd32f4xx_adc.c ****         reval = SET;
 923:../../../support/device/gd32f4xx/peripherals/src/gd32f4xx_adc.c ****     }
 924:../../../support/device/gd32f4xx/peripherals/src/gd32f4xx_adc.c ****     return reval;
 1774              		.loc 1 924 5 is_stmt 1 view .LVU488
 921:../../../support/device/gd32f4xx/peripherals/src/gd32f4xx_adc.c ****     if(ADC_STAT(adc_periph) & adc_flag) {
 1775              		.loc 1 921 7 is_stmt 0 view .LVU489
 1776 0002 0B42     		tst	r3, r1
 925:../../../support/device/gd32f4xx/peripherals/src/gd32f4xx_adc.c **** 
 926:../../../support/device/gd32f4xx/peripherals/src/gd32f4xx_adc.c **** }
 1777              		.loc 1 926 1 view .LVU490
 1778 0004 14BF     		ite	ne
 1779 0006 0120     		movne	r0, #1
 1780              	.LVL129:
 1781              		.loc 1 926 1 view .LVU491
 1782 0008 0020     		moveq	r0, #0
 1783 000a 7047     		bx	lr
 1784              		.cfi_endproc
 1785              	.LFE148:
 1787              		.section	.text.adc_flag_clear,"ax",%progbits
 1788              		.align	1
 1789              		.p2align 2,,3
 1790              		.global	adc_flag_clear
 1791              		.syntax unified
 1792              		.thumb
 1793              		.thumb_func
 1795              	adc_flag_clear:
 1796              	.LVL130:
 1797              	.LFB149:
 927:../../../support/device/gd32f4xx/peripherals/src/gd32f4xx_adc.c **** 
 928:../../../support/device/gd32f4xx/peripherals/src/gd32f4xx_adc.c **** /*!
 929:../../../support/device/gd32f4xx/peripherals/src/gd32f4xx_adc.c ****     \brief      clear the ADC flag bits
 930:../../../support/device/gd32f4xx/peripherals/src/gd32f4xx_adc.c ****     \param[in]  adc_periph: ADCx,x=0,1,2
 931:../../../support/device/gd32f4xx/peripherals/src/gd32f4xx_adc.c ****     \param[in]  adc_flag: the adc flag bits
 932:../../../support/device/gd32f4xx/peripherals/src/gd32f4xx_adc.c ****                 only one parameter can be selected which is shown as below:
 933:../../../support/device/gd32f4xx/peripherals/src/gd32f4xx_adc.c ****     \arg        ADC_FLAG_WDE: analog watchdog event flag
 934:../../../support/device/gd32f4xx/peripherals/src/gd32f4xx_adc.c ****     \arg        ADC_FLAG_EOC: end of sequence conversion flag
 935:../../../support/device/gd32f4xx/peripherals/src/gd32f4xx_adc.c ****     \arg        ADC_FLAG_EOIC: end of inserted sequence conversion flag
 936:../../../support/device/gd32f4xx/peripherals/src/gd32f4xx_adc.c ****     \arg        ADC_FLAG_STIC: start flag of inserted sequence
 937:../../../support/device/gd32f4xx/peripherals/src/gd32f4xx_adc.c ****     \arg        ADC_FLAG_STRC: start flag of routine sequence
 938:../../../support/device/gd32f4xx/peripherals/src/gd32f4xx_adc.c ****     \arg        ADC_FLAG_ROVF: routine data register overflow flag
 939:../../../support/device/gd32f4xx/peripherals/src/gd32f4xx_adc.c ****     \param[out] none
 940:../../../support/device/gd32f4xx/peripherals/src/gd32f4xx_adc.c ****     \retval     none
 941:../../../support/device/gd32f4xx/peripherals/src/gd32f4xx_adc.c **** */
 942:../../../support/device/gd32f4xx/peripherals/src/gd32f4xx_adc.c **** void adc_flag_clear(uint32_t adc_periph, uint32_t adc_flag)
 943:../../../support/device/gd32f4xx/peripherals/src/gd32f4xx_adc.c **** {
ARM GAS  /var/folders/_f/88qcw_5n2jl40jjphvxyt7wh0000gn/T//cc2pJbeY.s 			page 51


 1798              		.loc 1 943 1 is_stmt 1 view -0
 1799              		.cfi_startproc
 1800              		@ args = 0, pretend = 0, frame = 0
 1801              		@ frame_needed = 0, uses_anonymous_args = 0
 1802              		@ link register save eliminated.
 944:../../../support/device/gd32f4xx/peripherals/src/gd32f4xx_adc.c ****     ADC_STAT(adc_periph) &= ~((uint32_t)adc_flag);
 1803              		.loc 1 944 5 view .LVU493
 1804              		.loc 1 944 26 is_stmt 0 view .LVU494
 1805 0000 0368     		ldr	r3, [r0]
 1806 0002 23EA0103 		bic	r3, r3, r1
 1807 0006 0360     		str	r3, [r0]
 945:../../../support/device/gd32f4xx/peripherals/src/gd32f4xx_adc.c **** }
 1808              		.loc 1 945 1 view .LVU495
 1809 0008 7047     		bx	lr
 1810              		.cfi_endproc
 1811              	.LFE149:
 1813 000a 00BF     		.section	.text.adc_routine_software_startconv_flag_get,"ax",%progbits
 1814              		.align	1
 1815              		.p2align 2,,3
 1816              		.global	adc_routine_software_startconv_flag_get
 1817              		.syntax unified
 1818              		.thumb
 1819              		.thumb_func
 1821              	adc_routine_software_startconv_flag_get:
 1822              	.LVL131:
 1823              	.LFB150:
 946:../../../support/device/gd32f4xx/peripherals/src/gd32f4xx_adc.c **** 
 947:../../../support/device/gd32f4xx/peripherals/src/gd32f4xx_adc.c **** /*!
 948:../../../support/device/gd32f4xx/peripherals/src/gd32f4xx_adc.c ****     \brief      get the bit state of ADCx software start conversion
 949:../../../support/device/gd32f4xx/peripherals/src/gd32f4xx_adc.c ****     \param[in]  adc_periph: ADCx, x=0,1,2 only one among these parameters can be selected
 950:../../../support/device/gd32f4xx/peripherals/src/gd32f4xx_adc.c ****     \param[in]  none
 951:../../../support/device/gd32f4xx/peripherals/src/gd32f4xx_adc.c ****     \param[out] none
 952:../../../support/device/gd32f4xx/peripherals/src/gd32f4xx_adc.c ****     \retval     FlagStatus: SET or RESET
 953:../../../support/device/gd32f4xx/peripherals/src/gd32f4xx_adc.c **** */
 954:../../../support/device/gd32f4xx/peripherals/src/gd32f4xx_adc.c **** FlagStatus adc_routine_software_startconv_flag_get(uint32_t adc_periph)
 955:../../../support/device/gd32f4xx/peripherals/src/gd32f4xx_adc.c **** {
 1824              		.loc 1 955 1 is_stmt 1 view -0
 1825              		.cfi_startproc
 1826              		@ args = 0, pretend = 0, frame = 0
 1827              		@ frame_needed = 0, uses_anonymous_args = 0
 1828              		@ link register save eliminated.
 956:../../../support/device/gd32f4xx/peripherals/src/gd32f4xx_adc.c ****     FlagStatus reval = RESET;
 1829              		.loc 1 956 5 view .LVU497
 957:../../../support/device/gd32f4xx/peripherals/src/gd32f4xx_adc.c ****     if((uint32_t)RESET != (ADC_STAT(adc_periph) & ADC_STAT_STRC)) {
 1830              		.loc 1 957 5 view .LVU498
 1831              		.loc 1 957 28 is_stmt 0 view .LVU499
 1832 0000 0068     		ldr	r0, [r0]
 1833              	.LVL132:
 958:../../../support/device/gd32f4xx/peripherals/src/gd32f4xx_adc.c ****         reval = SET;
 959:../../../support/device/gd32f4xx/peripherals/src/gd32f4xx_adc.c ****     }
 960:../../../support/device/gd32f4xx/peripherals/src/gd32f4xx_adc.c ****     return reval;
 1834              		.loc 1 960 5 is_stmt 1 view .LVU500
 961:../../../support/device/gd32f4xx/peripherals/src/gd32f4xx_adc.c **** }
 1835              		.loc 1 961 1 is_stmt 0 view .LVU501
 1836 0002 C0F30010 		ubfx	r0, r0, #4, #1
 1837              	.LVL133:
 1838              		.loc 1 961 1 view .LVU502
ARM GAS  /var/folders/_f/88qcw_5n2jl40jjphvxyt7wh0000gn/T//cc2pJbeY.s 			page 52


 1839 0006 7047     		bx	lr
 1840              		.cfi_endproc
 1841              	.LFE150:
 1843              		.section	.text.adc_inserted_software_startconv_flag_get,"ax",%progbits
 1844              		.align	1
 1845              		.p2align 2,,3
 1846              		.global	adc_inserted_software_startconv_flag_get
 1847              		.syntax unified
 1848              		.thumb
 1849              		.thumb_func
 1851              	adc_inserted_software_startconv_flag_get:
 1852              	.LVL134:
 1853              	.LFB151:
 962:../../../support/device/gd32f4xx/peripherals/src/gd32f4xx_adc.c **** 
 963:../../../support/device/gd32f4xx/peripherals/src/gd32f4xx_adc.c **** /*!
 964:../../../support/device/gd32f4xx/peripherals/src/gd32f4xx_adc.c ****     \brief      get the bit state of ADCx software inserted channel start conversion
 965:../../../support/device/gd32f4xx/peripherals/src/gd32f4xx_adc.c ****     \param[in]  adc_periph: ADCx, x=0,1,2 only one among these parameters can be selected
 966:../../../support/device/gd32f4xx/peripherals/src/gd32f4xx_adc.c ****     \param[in]  none
 967:../../../support/device/gd32f4xx/peripherals/src/gd32f4xx_adc.c ****     \param[out] none
 968:../../../support/device/gd32f4xx/peripherals/src/gd32f4xx_adc.c ****     \retval     FlagStatus: SET or RESET
 969:../../../support/device/gd32f4xx/peripherals/src/gd32f4xx_adc.c **** */
 970:../../../support/device/gd32f4xx/peripherals/src/gd32f4xx_adc.c **** FlagStatus adc_inserted_software_startconv_flag_get(uint32_t adc_periph)
 971:../../../support/device/gd32f4xx/peripherals/src/gd32f4xx_adc.c **** {
 1854              		.loc 1 971 1 is_stmt 1 view -0
 1855              		.cfi_startproc
 1856              		@ args = 0, pretend = 0, frame = 0
 1857              		@ frame_needed = 0, uses_anonymous_args = 0
 1858              		@ link register save eliminated.
 972:../../../support/device/gd32f4xx/peripherals/src/gd32f4xx_adc.c ****     FlagStatus reval = RESET;
 1859              		.loc 1 972 5 view .LVU504
 973:../../../support/device/gd32f4xx/peripherals/src/gd32f4xx_adc.c ****     if((uint32_t)RESET != (ADC_STAT(adc_periph) & ADC_STAT_STIC)) {
 1860              		.loc 1 973 5 view .LVU505
 1861              		.loc 1 973 28 is_stmt 0 view .LVU506
 1862 0000 0068     		ldr	r0, [r0]
 1863              	.LVL135:
 974:../../../support/device/gd32f4xx/peripherals/src/gd32f4xx_adc.c ****         reval = SET;
 975:../../../support/device/gd32f4xx/peripherals/src/gd32f4xx_adc.c ****     }
 976:../../../support/device/gd32f4xx/peripherals/src/gd32f4xx_adc.c ****     return reval;
 1864              		.loc 1 976 5 is_stmt 1 view .LVU507
 977:../../../support/device/gd32f4xx/peripherals/src/gd32f4xx_adc.c **** }
 1865              		.loc 1 977 1 is_stmt 0 view .LVU508
 1866 0002 C0F3C000 		ubfx	r0, r0, #3, #1
 1867              	.LVL136:
 1868              		.loc 1 977 1 view .LVU509
 1869 0006 7047     		bx	lr
 1870              		.cfi_endproc
 1871              	.LFE151:
 1873              		.section	.text.adc_interrupt_flag_get,"ax",%progbits
 1874              		.align	1
 1875              		.p2align 2,,3
 1876              		.global	adc_interrupt_flag_get
 1877              		.syntax unified
 1878              		.thumb
 1879              		.thumb_func
 1881              	adc_interrupt_flag_get:
 1882              	.LVL137:
 1883              	.LFB152:
ARM GAS  /var/folders/_f/88qcw_5n2jl40jjphvxyt7wh0000gn/T//cc2pJbeY.s 			page 53


 978:../../../support/device/gd32f4xx/peripherals/src/gd32f4xx_adc.c **** 
 979:../../../support/device/gd32f4xx/peripherals/src/gd32f4xx_adc.c **** /*!
 980:../../../support/device/gd32f4xx/peripherals/src/gd32f4xx_adc.c ****     \brief      get the ADC interrupt bits
 981:../../../support/device/gd32f4xx/peripherals/src/gd32f4xx_adc.c ****     \param[in]  adc_periph: ADCx,x=0,1,2
 982:../../../support/device/gd32f4xx/peripherals/src/gd32f4xx_adc.c ****     \param[in]  adc_interrupt: the adc interrupt bits
 983:../../../support/device/gd32f4xx/peripherals/src/gd32f4xx_adc.c ****                 only one parameter can be selected which is shown as below:
 984:../../../support/device/gd32f4xx/peripherals/src/gd32f4xx_adc.c ****     \arg        ADC_INT_FLAG_WDE: analog watchdog interrupt
 985:../../../support/device/gd32f4xx/peripherals/src/gd32f4xx_adc.c ****     \arg        ADC_INT_FLAG_EOC: end of sequence conversion interrupt
 986:../../../support/device/gd32f4xx/peripherals/src/gd32f4xx_adc.c ****     \arg        ADC_INT_FLAG_EOIC: end of inserted sequence conversion interrupt
 987:../../../support/device/gd32f4xx/peripherals/src/gd32f4xx_adc.c ****     \arg        ADC_INT_FLAG_ROVF: routine data register overflow interrupt
 988:../../../support/device/gd32f4xx/peripherals/src/gd32f4xx_adc.c ****     \param[out] none
 989:../../../support/device/gd32f4xx/peripherals/src/gd32f4xx_adc.c ****     \retval     FlagStatus: SET or RESET
 990:../../../support/device/gd32f4xx/peripherals/src/gd32f4xx_adc.c **** */
 991:../../../support/device/gd32f4xx/peripherals/src/gd32f4xx_adc.c **** FlagStatus adc_interrupt_flag_get(uint32_t adc_periph, uint32_t adc_interrupt)
 992:../../../support/device/gd32f4xx/peripherals/src/gd32f4xx_adc.c **** {
 1884              		.loc 1 992 1 is_stmt 1 view -0
 1885              		.cfi_startproc
 1886              		@ args = 0, pretend = 0, frame = 0
 1887              		@ frame_needed = 0, uses_anonymous_args = 0
 1888              		@ link register save eliminated.
 993:../../../support/device/gd32f4xx/peripherals/src/gd32f4xx_adc.c ****     FlagStatus interrupt_flag = RESET;
 1889              		.loc 1 993 5 view .LVU511
 994:../../../support/device/gd32f4xx/peripherals/src/gd32f4xx_adc.c ****     uint32_t state;
 1890              		.loc 1 994 5 view .LVU512
 995:../../../support/device/gd32f4xx/peripherals/src/gd32f4xx_adc.c ****     /* check the interrupt bits */
 996:../../../support/device/gd32f4xx/peripherals/src/gd32f4xx_adc.c ****     switch(adc_interrupt) {
 1891              		.loc 1 996 5 view .LVU513
 1892 0000 0139     		subs	r1, r1, #1
 1893              	.LVL138:
 1894              		.loc 1 996 5 is_stmt 0 view .LVU514
 1895 0002 1F29     		cmp	r1, #31
 1896 0004 11D8     		bhi	.L155
 1897 0006 DFE801F0 		tbb	[pc, r1]
 1898              	.L151:
 1899 000a 2A       		.byte	(.L154-.L151)/2
 1900 000b 22       		.byte	(.L153-.L151)/2
 1901 000c 10       		.byte	(.L155-.L151)/2
 1902 000d 1A       		.byte	(.L152-.L151)/2
 1903 000e 10       		.byte	(.L155-.L151)/2
 1904 000f 10       		.byte	(.L155-.L151)/2
 1905 0010 10       		.byte	(.L155-.L151)/2
 1906 0011 10       		.byte	(.L155-.L151)/2
 1907 0012 10       		.byte	(.L155-.L151)/2
 1908 0013 10       		.byte	(.L155-.L151)/2
 1909 0014 10       		.byte	(.L155-.L151)/2
 1910 0015 10       		.byte	(.L155-.L151)/2
 1911 0016 10       		.byte	(.L155-.L151)/2
 1912 0017 10       		.byte	(.L155-.L151)/2
 1913 0018 10       		.byte	(.L155-.L151)/2
 1914 0019 10       		.byte	(.L155-.L151)/2
 1915 001a 10       		.byte	(.L155-.L151)/2
 1916 001b 10       		.byte	(.L155-.L151)/2
 1917 001c 10       		.byte	(.L155-.L151)/2
 1918 001d 10       		.byte	(.L155-.L151)/2
 1919 001e 10       		.byte	(.L155-.L151)/2
 1920 001f 10       		.byte	(.L155-.L151)/2
 1921 0020 10       		.byte	(.L155-.L151)/2
ARM GAS  /var/folders/_f/88qcw_5n2jl40jjphvxyt7wh0000gn/T//cc2pJbeY.s 			page 54


 1922 0021 10       		.byte	(.L155-.L151)/2
 1923 0022 10       		.byte	(.L155-.L151)/2
 1924 0023 10       		.byte	(.L155-.L151)/2
 1925 0024 10       		.byte	(.L155-.L151)/2
 1926 0025 10       		.byte	(.L155-.L151)/2
 1927 0026 10       		.byte	(.L155-.L151)/2
 1928 0027 10       		.byte	(.L155-.L151)/2
 1929 0028 10       		.byte	(.L155-.L151)/2
 1930 0029 12       		.byte	(.L150-.L151)/2
 1931              		.p2align 1
 1932              	.L155:
 1933 002a 0020     		movs	r0, #0
 1934              	.LVL139:
 1935              	.L149:
 997:../../../support/device/gd32f4xx/peripherals/src/gd32f4xx_adc.c ****     case ADC_INT_FLAG_WDE:
 998:../../../support/device/gd32f4xx/peripherals/src/gd32f4xx_adc.c ****         /* get the ADC analog watchdog interrupt bits */
 999:../../../support/device/gd32f4xx/peripherals/src/gd32f4xx_adc.c ****         state = ADC_STAT(adc_periph) & ADC_STAT_WDE;
1000:../../../support/device/gd32f4xx/peripherals/src/gd32f4xx_adc.c ****         if((ADC_CTL0(adc_periph) & ADC_CTL0_WDEIE) && state) {
1001:../../../support/device/gd32f4xx/peripherals/src/gd32f4xx_adc.c ****             interrupt_flag = SET;
1002:../../../support/device/gd32f4xx/peripherals/src/gd32f4xx_adc.c ****         }
1003:../../../support/device/gd32f4xx/peripherals/src/gd32f4xx_adc.c ****         break;
1004:../../../support/device/gd32f4xx/peripherals/src/gd32f4xx_adc.c ****     case ADC_INT_FLAG_EOC:
1005:../../../support/device/gd32f4xx/peripherals/src/gd32f4xx_adc.c ****         /* get the ADC end of sequence conversion interrupt bits */
1006:../../../support/device/gd32f4xx/peripherals/src/gd32f4xx_adc.c ****         state = ADC_STAT(adc_periph) & ADC_STAT_EOC;
1007:../../../support/device/gd32f4xx/peripherals/src/gd32f4xx_adc.c ****         if((ADC_CTL0(adc_periph) & ADC_CTL0_EOCIE) && state) {
1008:../../../support/device/gd32f4xx/peripherals/src/gd32f4xx_adc.c ****             interrupt_flag = SET;
1009:../../../support/device/gd32f4xx/peripherals/src/gd32f4xx_adc.c ****         }
1010:../../../support/device/gd32f4xx/peripherals/src/gd32f4xx_adc.c ****         break;
1011:../../../support/device/gd32f4xx/peripherals/src/gd32f4xx_adc.c ****     case ADC_INT_FLAG_EOIC:
1012:../../../support/device/gd32f4xx/peripherals/src/gd32f4xx_adc.c ****         /* get the ADC end of inserted sequence conversion interrupt bits */
1013:../../../support/device/gd32f4xx/peripherals/src/gd32f4xx_adc.c ****         state = ADC_STAT(adc_periph) & ADC_STAT_EOIC;
1014:../../../support/device/gd32f4xx/peripherals/src/gd32f4xx_adc.c ****         if((ADC_CTL0(adc_periph) & ADC_CTL0_EOICIE) && state) {
1015:../../../support/device/gd32f4xx/peripherals/src/gd32f4xx_adc.c ****             interrupt_flag = SET;
1016:../../../support/device/gd32f4xx/peripherals/src/gd32f4xx_adc.c ****         }
1017:../../../support/device/gd32f4xx/peripherals/src/gd32f4xx_adc.c ****         break;
1018:../../../support/device/gd32f4xx/peripherals/src/gd32f4xx_adc.c ****     case ADC_INT_FLAG_ROVF:
1019:../../../support/device/gd32f4xx/peripherals/src/gd32f4xx_adc.c ****         /* get the ADC routine data register overflow interrupt bits */
1020:../../../support/device/gd32f4xx/peripherals/src/gd32f4xx_adc.c ****         state = ADC_STAT(adc_periph) & ADC_STAT_ROVF;
1021:../../../support/device/gd32f4xx/peripherals/src/gd32f4xx_adc.c ****         if((ADC_CTL0(adc_periph) & ADC_CTL0_ROVFIE) && state) {
1022:../../../support/device/gd32f4xx/peripherals/src/gd32f4xx_adc.c ****             interrupt_flag = SET;
1023:../../../support/device/gd32f4xx/peripherals/src/gd32f4xx_adc.c ****         }
1024:../../../support/device/gd32f4xx/peripherals/src/gd32f4xx_adc.c ****         break;
1025:../../../support/device/gd32f4xx/peripherals/src/gd32f4xx_adc.c ****     default:
1026:../../../support/device/gd32f4xx/peripherals/src/gd32f4xx_adc.c ****         break;
1027:../../../support/device/gd32f4xx/peripherals/src/gd32f4xx_adc.c ****     }
1028:../../../support/device/gd32f4xx/peripherals/src/gd32f4xx_adc.c ****     return interrupt_flag;
 1936              		.loc 1 1028 5 is_stmt 1 view .LVU515
1029:../../../support/device/gd32f4xx/peripherals/src/gd32f4xx_adc.c **** }
 1937              		.loc 1 1029 1 is_stmt 0 view .LVU516
 1938 002c 7047     		bx	lr
 1939              	.LVL140:
 1940              	.L150:
1020:../../../support/device/gd32f4xx/peripherals/src/gd32f4xx_adc.c ****         if((ADC_CTL0(adc_periph) & ADC_CTL0_ROVFIE) && state) {
 1941              		.loc 1 1020 9 is_stmt 1 view .LVU517
1020:../../../support/device/gd32f4xx/peripherals/src/gd32f4xx_adc.c ****         if((ADC_CTL0(adc_periph) & ADC_CTL0_ROVFIE) && state) {
 1942              		.loc 1 1020 17 is_stmt 0 view .LVU518
 1943 002e 0368     		ldr	r3, [r0]
ARM GAS  /var/folders/_f/88qcw_5n2jl40jjphvxyt7wh0000gn/T//cc2pJbeY.s 			page 55


 1944              	.LVL141:
1021:../../../support/device/gd32f4xx/peripherals/src/gd32f4xx_adc.c ****             interrupt_flag = SET;
 1945              		.loc 1 1021 9 is_stmt 1 view .LVU519
1021:../../../support/device/gd32f4xx/peripherals/src/gd32f4xx_adc.c ****             interrupt_flag = SET;
 1946              		.loc 1 1021 13 is_stmt 0 view .LVU520
 1947 0030 4068     		ldr	r0, [r0, #4]
 1948              	.LVL142:
1021:../../../support/device/gd32f4xx/peripherals/src/gd32f4xx_adc.c ****             interrupt_flag = SET;
 1949              		.loc 1 1021 11 view .LVU521
 1950 0032 10F08060 		ands	r0, r0, #67108864
 1951 0036 F9D0     		beq	.L149
 993:../../../support/device/gd32f4xx/peripherals/src/gd32f4xx_adc.c ****     uint32_t state;
 1952              		.loc 1 993 16 discriminator 1 view .LVU522
 1953 0038 C3F34010 		ubfx	r0, r3, #5, #1
 1954 003c 7047     		bx	lr
 1955              	.LVL143:
 1956              	.L152:
1013:../../../support/device/gd32f4xx/peripherals/src/gd32f4xx_adc.c ****         if((ADC_CTL0(adc_periph) & ADC_CTL0_EOICIE) && state) {
 1957              		.loc 1 1013 9 is_stmt 1 view .LVU523
1013:../../../support/device/gd32f4xx/peripherals/src/gd32f4xx_adc.c ****         if((ADC_CTL0(adc_periph) & ADC_CTL0_EOICIE) && state) {
 1958              		.loc 1 1013 17 is_stmt 0 view .LVU524
 1959 003e 0368     		ldr	r3, [r0]
 1960              	.LVL144:
1014:../../../support/device/gd32f4xx/peripherals/src/gd32f4xx_adc.c ****             interrupt_flag = SET;
 1961              		.loc 1 1014 9 is_stmt 1 view .LVU525
1014:../../../support/device/gd32f4xx/peripherals/src/gd32f4xx_adc.c ****             interrupt_flag = SET;
 1962              		.loc 1 1014 13 is_stmt 0 view .LVU526
 1963 0040 4068     		ldr	r0, [r0, #4]
 1964              	.LVL145:
1014:../../../support/device/gd32f4xx/peripherals/src/gd32f4xx_adc.c ****             interrupt_flag = SET;
 1965              		.loc 1 1014 11 view .LVU527
 1966 0042 10F08000 		ands	r0, r0, #128
 1967 0046 F1D0     		beq	.L149
 993:../../../support/device/gd32f4xx/peripherals/src/gd32f4xx_adc.c ****     uint32_t state;
 1968              		.loc 1 993 16 discriminator 1 view .LVU528
 1969 0048 C3F38000 		ubfx	r0, r3, #2, #1
 1970 004c 7047     		bx	lr
 1971              	.LVL146:
 1972              	.L153:
1006:../../../support/device/gd32f4xx/peripherals/src/gd32f4xx_adc.c ****         if((ADC_CTL0(adc_periph) & ADC_CTL0_EOCIE) && state) {
 1973              		.loc 1 1006 9 is_stmt 1 view .LVU529
1006:../../../support/device/gd32f4xx/peripherals/src/gd32f4xx_adc.c ****         if((ADC_CTL0(adc_periph) & ADC_CTL0_EOCIE) && state) {
 1974              		.loc 1 1006 17 is_stmt 0 view .LVU530
 1975 004e 0368     		ldr	r3, [r0]
 1976              	.LVL147:
1007:../../../support/device/gd32f4xx/peripherals/src/gd32f4xx_adc.c ****             interrupt_flag = SET;
 1977              		.loc 1 1007 9 is_stmt 1 view .LVU531
1007:../../../support/device/gd32f4xx/peripherals/src/gd32f4xx_adc.c ****             interrupt_flag = SET;
 1978              		.loc 1 1007 13 is_stmt 0 view .LVU532
 1979 0050 4068     		ldr	r0, [r0, #4]
 1980              	.LVL148:
1007:../../../support/device/gd32f4xx/peripherals/src/gd32f4xx_adc.c ****             interrupt_flag = SET;
 1981              		.loc 1 1007 11 view .LVU533
 1982 0052 10F02000 		ands	r0, r0, #32
 1983 0056 E9D0     		beq	.L149
 993:../../../support/device/gd32f4xx/peripherals/src/gd32f4xx_adc.c ****     uint32_t state;
 1984              		.loc 1 993 16 discriminator 1 view .LVU534
ARM GAS  /var/folders/_f/88qcw_5n2jl40jjphvxyt7wh0000gn/T//cc2pJbeY.s 			page 56


 1985 0058 C3F34000 		ubfx	r0, r3, #1, #1
 1986 005c 7047     		bx	lr
 1987              	.LVL149:
 1988              	.L154:
 999:../../../support/device/gd32f4xx/peripherals/src/gd32f4xx_adc.c ****         if((ADC_CTL0(adc_periph) & ADC_CTL0_WDEIE) && state) {
 1989              		.loc 1 999 9 is_stmt 1 view .LVU535
 999:../../../support/device/gd32f4xx/peripherals/src/gd32f4xx_adc.c ****         if((ADC_CTL0(adc_periph) & ADC_CTL0_WDEIE) && state) {
 1990              		.loc 1 999 17 is_stmt 0 view .LVU536
 1991 005e 0368     		ldr	r3, [r0]
 1992              	.LVL150:
1000:../../../support/device/gd32f4xx/peripherals/src/gd32f4xx_adc.c ****             interrupt_flag = SET;
 1993              		.loc 1 1000 9 is_stmt 1 view .LVU537
1000:../../../support/device/gd32f4xx/peripherals/src/gd32f4xx_adc.c ****             interrupt_flag = SET;
 1994              		.loc 1 1000 13 is_stmt 0 view .LVU538
 1995 0060 4068     		ldr	r0, [r0, #4]
 1996              	.LVL151:
1000:../../../support/device/gd32f4xx/peripherals/src/gd32f4xx_adc.c ****             interrupt_flag = SET;
 1997              		.loc 1 1000 11 view .LVU539
 1998 0062 10F04000 		ands	r0, r0, #64
 1999 0066 E1D0     		beq	.L149
1000:../../../support/device/gd32f4xx/peripherals/src/gd32f4xx_adc.c ****             interrupt_flag = SET;
 2000              		.loc 1 1000 52 discriminator 1 view .LVU540
 2001 0068 03F00100 		and	r0, r3, #1
 2002              	.LVL152:
1000:../../../support/device/gd32f4xx/peripherals/src/gd32f4xx_adc.c ****             interrupt_flag = SET;
 2003              		.loc 1 1000 52 discriminator 1 view .LVU541
 2004 006c 7047     		bx	lr
 2005              		.cfi_endproc
 2006              	.LFE152:
 2008 006e 00BF     		.section	.text.adc_interrupt_flag_clear,"ax",%progbits
 2009              		.align	1
 2010              		.p2align 2,,3
 2011              		.global	adc_interrupt_flag_clear
 2012              		.syntax unified
 2013              		.thumb
 2014              		.thumb_func
 2016              	adc_interrupt_flag_clear:
 2017              	.LFB163:
 2018              		.cfi_startproc
 2019              		@ args = 0, pretend = 0, frame = 0
 2020              		@ frame_needed = 0, uses_anonymous_args = 0
 2021              		@ link register save eliminated.
 2022 0000 0368     		ldr	r3, [r0]
 2023 0002 23EA0103 		bic	r3, r3, r1
 2024 0006 0360     		str	r3, [r0]
 2025 0008 7047     		bx	lr
 2026              		.cfi_endproc
 2027              	.LFE163:
 2029 000a 00BF     		.section	.text.adc_interrupt_enable,"ax",%progbits
 2030              		.align	1
 2031              		.p2align 2,,3
 2032              		.global	adc_interrupt_enable
 2033              		.syntax unified
 2034              		.thumb
 2035              		.thumb_func
 2037              	adc_interrupt_enable:
 2038              	.LVL153:
ARM GAS  /var/folders/_f/88qcw_5n2jl40jjphvxyt7wh0000gn/T//cc2pJbeY.s 			page 57


 2039              	.LFB154:
1030:../../../support/device/gd32f4xx/peripherals/src/gd32f4xx_adc.c **** 
1031:../../../support/device/gd32f4xx/peripherals/src/gd32f4xx_adc.c **** /*!
1032:../../../support/device/gd32f4xx/peripherals/src/gd32f4xx_adc.c ****     \brief      clear the ADC flag
1033:../../../support/device/gd32f4xx/peripherals/src/gd32f4xx_adc.c ****     \param[in]  adc_periph: ADCx,x=0,1,2
1034:../../../support/device/gd32f4xx/peripherals/src/gd32f4xx_adc.c ****     \param[in]  adc_interrupt: the adc status flag
1035:../../../support/device/gd32f4xx/peripherals/src/gd32f4xx_adc.c ****                 only one parameter can be selected which is shown as below:
1036:../../../support/device/gd32f4xx/peripherals/src/gd32f4xx_adc.c ****     \arg        ADC_INT_FLAG_WDE: analog watchdog interrupt
1037:../../../support/device/gd32f4xx/peripherals/src/gd32f4xx_adc.c ****     \arg        ADC_INT_FLAG_EOC: end of sequence conversion interrupt
1038:../../../support/device/gd32f4xx/peripherals/src/gd32f4xx_adc.c ****     \arg        ADC_INT_FLAG_EOIC: end of inserted sequence conversion interrupt
1039:../../../support/device/gd32f4xx/peripherals/src/gd32f4xx_adc.c ****     \arg        ADC_INT_FLAG_ROVF: routine data register overflow interrupt
1040:../../../support/device/gd32f4xx/peripherals/src/gd32f4xx_adc.c ****     \param[out] none
1041:../../../support/device/gd32f4xx/peripherals/src/gd32f4xx_adc.c ****     \retval     none
1042:../../../support/device/gd32f4xx/peripherals/src/gd32f4xx_adc.c **** */
1043:../../../support/device/gd32f4xx/peripherals/src/gd32f4xx_adc.c **** void adc_interrupt_flag_clear(uint32_t adc_periph, uint32_t adc_interrupt)
1044:../../../support/device/gd32f4xx/peripherals/src/gd32f4xx_adc.c **** {
1045:../../../support/device/gd32f4xx/peripherals/src/gd32f4xx_adc.c ****     ADC_STAT(adc_periph) &= ~((uint32_t)adc_interrupt);
1046:../../../support/device/gd32f4xx/peripherals/src/gd32f4xx_adc.c **** }
1047:../../../support/device/gd32f4xx/peripherals/src/gd32f4xx_adc.c **** 
1048:../../../support/device/gd32f4xx/peripherals/src/gd32f4xx_adc.c **** /*!
1049:../../../support/device/gd32f4xx/peripherals/src/gd32f4xx_adc.c ****     \brief      enable ADC interrupt
1050:../../../support/device/gd32f4xx/peripherals/src/gd32f4xx_adc.c ****     \param[in]  adc_periph: ADCx,x=0,1,2
1051:../../../support/device/gd32f4xx/peripherals/src/gd32f4xx_adc.c ****     \param[in]  adc_interrupt: the adc interrupt flag
1052:../../../support/device/gd32f4xx/peripherals/src/gd32f4xx_adc.c ****                 only one parameter can be selected which is shown as below:
1053:../../../support/device/gd32f4xx/peripherals/src/gd32f4xx_adc.c ****     \arg        ADC_INT_WDE: analog watchdog interrupt flag
1054:../../../support/device/gd32f4xx/peripherals/src/gd32f4xx_adc.c ****     \arg        ADC_INT_EOC: end of sequence conversion interrupt flag
1055:../../../support/device/gd32f4xx/peripherals/src/gd32f4xx_adc.c ****     \arg        ADC_INT_EOIC: end of inserted sequence conversion interrupt flag
1056:../../../support/device/gd32f4xx/peripherals/src/gd32f4xx_adc.c ****     \arg        ADC_INT_ROVF: routine data register overflow interrupt flag
1057:../../../support/device/gd32f4xx/peripherals/src/gd32f4xx_adc.c ****     \param[out] none
1058:../../../support/device/gd32f4xx/peripherals/src/gd32f4xx_adc.c ****     \retval     none
1059:../../../support/device/gd32f4xx/peripherals/src/gd32f4xx_adc.c **** */
1060:../../../support/device/gd32f4xx/peripherals/src/gd32f4xx_adc.c **** void adc_interrupt_enable(uint32_t adc_periph, uint32_t adc_interrupt)
1061:../../../support/device/gd32f4xx/peripherals/src/gd32f4xx_adc.c **** {
 2040              		.loc 1 1061 1 is_stmt 1 view -0
 2041              		.cfi_startproc
 2042              		@ args = 0, pretend = 0, frame = 0
 2043              		@ frame_needed = 0, uses_anonymous_args = 0
 2044              		@ link register save eliminated.
1062:../../../support/device/gd32f4xx/peripherals/src/gd32f4xx_adc.c ****     switch(adc_interrupt) {
 2045              		.loc 1 1062 5 view .LVU543
 2046 0000 8029     		cmp	r1, #128
 2047 0002 17D0     		beq	.L162
 2048 0004 08D8     		bhi	.L163
 2049 0006 2029     		cmp	r1, #32
 2050 0008 0FD0     		beq	.L164
 2051 000a 4029     		cmp	r1, #64
 2052 000c 17D1     		bne	.L168
1063:../../../support/device/gd32f4xx/peripherals/src/gd32f4xx_adc.c ****     case ADC_INT_WDE:
1064:../../../support/device/gd32f4xx/peripherals/src/gd32f4xx_adc.c ****         /* enable analog watchdog interrupt */
1065:../../../support/device/gd32f4xx/peripherals/src/gd32f4xx_adc.c ****         ADC_CTL0(adc_periph) |= (uint32_t) ADC_CTL0_WDEIE;
 2053              		.loc 1 1065 9 view .LVU544
 2054              		.loc 1 1065 30 is_stmt 0 view .LVU545
 2055 000e 4368     		ldr	r3, [r0, #4]
 2056 0010 43F04003 		orr	r3, r3, #64
 2057 0014 4360     		str	r3, [r0, #4]
1066:../../../support/device/gd32f4xx/peripherals/src/gd32f4xx_adc.c ****         break;
 2058              		.loc 1 1066 9 is_stmt 1 view .LVU546
ARM GAS  /var/folders/_f/88qcw_5n2jl40jjphvxyt7wh0000gn/T//cc2pJbeY.s 			page 58


 2059 0016 7047     		bx	lr
 2060              	.L163:
1062:../../../support/device/gd32f4xx/peripherals/src/gd32f4xx_adc.c ****     switch(adc_interrupt) {
 2061              		.loc 1 1062 5 is_stmt 0 view .LVU547
 2062 0018 B1F1806F 		cmp	r1, #67108864
 2063 001c 04D1     		bne	.L169
1067:../../../support/device/gd32f4xx/peripherals/src/gd32f4xx_adc.c ****     case ADC_INT_EOC:
1068:../../../support/device/gd32f4xx/peripherals/src/gd32f4xx_adc.c ****         /* enable end of sequence conversion interrupt */
1069:../../../support/device/gd32f4xx/peripherals/src/gd32f4xx_adc.c ****         ADC_CTL0(adc_periph) |= (uint32_t) ADC_CTL0_EOCIE;
1070:../../../support/device/gd32f4xx/peripherals/src/gd32f4xx_adc.c ****         break;
1071:../../../support/device/gd32f4xx/peripherals/src/gd32f4xx_adc.c ****     case ADC_INT_EOIC:
1072:../../../support/device/gd32f4xx/peripherals/src/gd32f4xx_adc.c ****         /* enable end of inserted sequence conversion interrupt */
1073:../../../support/device/gd32f4xx/peripherals/src/gd32f4xx_adc.c ****         ADC_CTL0(adc_periph) |= (uint32_t) ADC_CTL0_EOICIE;
1074:../../../support/device/gd32f4xx/peripherals/src/gd32f4xx_adc.c ****         break;
1075:../../../support/device/gd32f4xx/peripherals/src/gd32f4xx_adc.c ****     case ADC_INT_ROVF:
1076:../../../support/device/gd32f4xx/peripherals/src/gd32f4xx_adc.c ****         ADC_CTL0(adc_periph) |= (uint32_t) ADC_CTL0_ROVFIE;
 2064              		.loc 1 1076 9 is_stmt 1 view .LVU548
 2065              		.loc 1 1076 30 is_stmt 0 view .LVU549
 2066 001e 4368     		ldr	r3, [r0, #4]
 2067 0020 43F08063 		orr	r3, r3, #67108864
 2068 0024 4360     		str	r3, [r0, #4]
1077:../../../support/device/gd32f4xx/peripherals/src/gd32f4xx_adc.c ****         break;
 2069              		.loc 1 1077 9 is_stmt 1 view .LVU550
1078:../../../support/device/gd32f4xx/peripherals/src/gd32f4xx_adc.c ****     default:
1079:../../../support/device/gd32f4xx/peripherals/src/gd32f4xx_adc.c ****         break;
1080:../../../support/device/gd32f4xx/peripherals/src/gd32f4xx_adc.c ****     }
1081:../../../support/device/gd32f4xx/peripherals/src/gd32f4xx_adc.c **** }
 2070              		.loc 1 1081 1 is_stmt 0 view .LVU551
 2071 0026 7047     		bx	lr
 2072              	.L169:
 2073              		.loc 1 1081 1 view .LVU552
 2074 0028 7047     		bx	lr
 2075              	.L164:
1069:../../../support/device/gd32f4xx/peripherals/src/gd32f4xx_adc.c ****         break;
 2076              		.loc 1 1069 9 is_stmt 1 view .LVU553
1069:../../../support/device/gd32f4xx/peripherals/src/gd32f4xx_adc.c ****         break;
 2077              		.loc 1 1069 30 is_stmt 0 view .LVU554
 2078 002a 4368     		ldr	r3, [r0, #4]
 2079 002c 43F02003 		orr	r3, r3, #32
 2080 0030 4360     		str	r3, [r0, #4]
1070:../../../support/device/gd32f4xx/peripherals/src/gd32f4xx_adc.c ****     case ADC_INT_EOIC:
 2081              		.loc 1 1070 9 is_stmt 1 view .LVU555
 2082 0032 7047     		bx	lr
 2083              	.L162:
1073:../../../support/device/gd32f4xx/peripherals/src/gd32f4xx_adc.c ****         break;
 2084              		.loc 1 1073 9 view .LVU556
1073:../../../support/device/gd32f4xx/peripherals/src/gd32f4xx_adc.c ****         break;
 2085              		.loc 1 1073 30 is_stmt 0 view .LVU557
 2086 0034 4368     		ldr	r3, [r0, #4]
 2087 0036 43F08003 		orr	r3, r3, #128
 2088 003a 4360     		str	r3, [r0, #4]
1074:../../../support/device/gd32f4xx/peripherals/src/gd32f4xx_adc.c ****     case ADC_INT_ROVF:
 2089              		.loc 1 1074 9 is_stmt 1 view .LVU558
 2090 003c 7047     		bx	lr
 2091              	.L168:
1074:../../../support/device/gd32f4xx/peripherals/src/gd32f4xx_adc.c ****     case ADC_INT_ROVF:
 2092              		.loc 1 1074 9 is_stmt 0 view .LVU559
ARM GAS  /var/folders/_f/88qcw_5n2jl40jjphvxyt7wh0000gn/T//cc2pJbeY.s 			page 59


 2093 003e 7047     		bx	lr
 2094              		.cfi_endproc
 2095              	.LFE154:
 2097              		.section	.text.adc_interrupt_disable,"ax",%progbits
 2098              		.align	1
 2099              		.p2align 2,,3
 2100              		.global	adc_interrupt_disable
 2101              		.syntax unified
 2102              		.thumb
 2103              		.thumb_func
 2105              	adc_interrupt_disable:
 2106              	.LVL154:
 2107              	.LFB155:
1082:../../../support/device/gd32f4xx/peripherals/src/gd32f4xx_adc.c **** 
1083:../../../support/device/gd32f4xx/peripherals/src/gd32f4xx_adc.c **** /*!
1084:../../../support/device/gd32f4xx/peripherals/src/gd32f4xx_adc.c ****     \brief      disable ADC interrupt
1085:../../../support/device/gd32f4xx/peripherals/src/gd32f4xx_adc.c ****     \param[in]  adc_periph: ADCx,x=0,1,2
1086:../../../support/device/gd32f4xx/peripherals/src/gd32f4xx_adc.c ****     \param[in]  adc_flag: the adc interrupt flag
1087:../../../support/device/gd32f4xx/peripherals/src/gd32f4xx_adc.c ****                 only one parameter can be selected which is shown as below:
1088:../../../support/device/gd32f4xx/peripherals/src/gd32f4xx_adc.c ****       \arg      ADC_INT_WDE: analog watchdog interrupt flag
1089:../../../support/device/gd32f4xx/peripherals/src/gd32f4xx_adc.c ****       \arg      ADC_INT_EOC: end of sequence conversion interrupt flag
1090:../../../support/device/gd32f4xx/peripherals/src/gd32f4xx_adc.c ****       \arg      ADC_INT_EOIC: end of inserted sequence conversion interrupt flag
1091:../../../support/device/gd32f4xx/peripherals/src/gd32f4xx_adc.c ****       \arg      ADC_INT_ROVF: routine data register overflow interrupt flag
1092:../../../support/device/gd32f4xx/peripherals/src/gd32f4xx_adc.c ****     \param[out] none
1093:../../../support/device/gd32f4xx/peripherals/src/gd32f4xx_adc.c ****     \retval     none
1094:../../../support/device/gd32f4xx/peripherals/src/gd32f4xx_adc.c **** */
1095:../../../support/device/gd32f4xx/peripherals/src/gd32f4xx_adc.c **** void adc_interrupt_disable(uint32_t adc_periph, uint32_t adc_interrupt)
1096:../../../support/device/gd32f4xx/peripherals/src/gd32f4xx_adc.c **** {
 2108              		.loc 1 1096 1 is_stmt 1 view -0
 2109              		.cfi_startproc
 2110              		@ args = 0, pretend = 0, frame = 0
 2111              		@ frame_needed = 0, uses_anonymous_args = 0
 2112              		@ link register save eliminated.
1097:../../../support/device/gd32f4xx/peripherals/src/gd32f4xx_adc.c ****     switch(adc_interrupt) {
 2113              		.loc 1 1097 5 view .LVU561
 2114 0000 8029     		cmp	r1, #128
 2115 0002 17D0     		beq	.L171
 2116 0004 08D8     		bhi	.L172
 2117 0006 2029     		cmp	r1, #32
 2118 0008 0FD0     		beq	.L173
 2119 000a 4029     		cmp	r1, #64
 2120 000c 17D1     		bne	.L177
1098:../../../support/device/gd32f4xx/peripherals/src/gd32f4xx_adc.c ****     /* select the interrupt source */
1099:../../../support/device/gd32f4xx/peripherals/src/gd32f4xx_adc.c ****     case ADC_INT_WDE:
1100:../../../support/device/gd32f4xx/peripherals/src/gd32f4xx_adc.c ****         ADC_CTL0(adc_periph) &= ~((uint32_t)ADC_CTL0_WDEIE);
 2121              		.loc 1 1100 9 view .LVU562
 2122              		.loc 1 1100 30 is_stmt 0 view .LVU563
 2123 000e 4368     		ldr	r3, [r0, #4]
 2124 0010 23F04003 		bic	r3, r3, #64
 2125 0014 4360     		str	r3, [r0, #4]
1101:../../../support/device/gd32f4xx/peripherals/src/gd32f4xx_adc.c ****         break;
 2126              		.loc 1 1101 9 is_stmt 1 view .LVU564
 2127 0016 7047     		bx	lr
 2128              	.L172:
1097:../../../support/device/gd32f4xx/peripherals/src/gd32f4xx_adc.c ****     switch(adc_interrupt) {
 2129              		.loc 1 1097 5 is_stmt 0 view .LVU565
 2130 0018 B1F1806F 		cmp	r1, #67108864
ARM GAS  /var/folders/_f/88qcw_5n2jl40jjphvxyt7wh0000gn/T//cc2pJbeY.s 			page 60


 2131 001c 04D1     		bne	.L178
1102:../../../support/device/gd32f4xx/peripherals/src/gd32f4xx_adc.c ****     case ADC_INT_EOC:
1103:../../../support/device/gd32f4xx/peripherals/src/gd32f4xx_adc.c ****         ADC_CTL0(adc_periph) &= ~((uint32_t)ADC_CTL0_EOCIE);
1104:../../../support/device/gd32f4xx/peripherals/src/gd32f4xx_adc.c ****         break;
1105:../../../support/device/gd32f4xx/peripherals/src/gd32f4xx_adc.c ****     case ADC_INT_EOIC:
1106:../../../support/device/gd32f4xx/peripherals/src/gd32f4xx_adc.c ****         ADC_CTL0(adc_periph) &= ~((uint32_t)ADC_CTL0_EOICIE);
1107:../../../support/device/gd32f4xx/peripherals/src/gd32f4xx_adc.c ****         break;
1108:../../../support/device/gd32f4xx/peripherals/src/gd32f4xx_adc.c ****     case ADC_INT_ROVF:
1109:../../../support/device/gd32f4xx/peripherals/src/gd32f4xx_adc.c ****         ADC_CTL0(adc_periph) &= ~((uint32_t)ADC_CTL0_ROVFIE);
 2132              		.loc 1 1109 9 is_stmt 1 view .LVU566
 2133              		.loc 1 1109 30 is_stmt 0 view .LVU567
 2134 001e 4368     		ldr	r3, [r0, #4]
 2135 0020 23F08063 		bic	r3, r3, #67108864
 2136 0024 4360     		str	r3, [r0, #4]
1110:../../../support/device/gd32f4xx/peripherals/src/gd32f4xx_adc.c ****         break;
 2137              		.loc 1 1110 9 is_stmt 1 view .LVU568
1111:../../../support/device/gd32f4xx/peripherals/src/gd32f4xx_adc.c ****     default:
1112:../../../support/device/gd32f4xx/peripherals/src/gd32f4xx_adc.c ****         break;
1113:../../../support/device/gd32f4xx/peripherals/src/gd32f4xx_adc.c ****     }
1114:../../../support/device/gd32f4xx/peripherals/src/gd32f4xx_adc.c **** }
 2138              		.loc 1 1114 1 is_stmt 0 view .LVU569
 2139 0026 7047     		bx	lr
 2140              	.L178:
 2141              		.loc 1 1114 1 view .LVU570
 2142 0028 7047     		bx	lr
 2143              	.L173:
1103:../../../support/device/gd32f4xx/peripherals/src/gd32f4xx_adc.c ****         break;
 2144              		.loc 1 1103 9 is_stmt 1 view .LVU571
1103:../../../support/device/gd32f4xx/peripherals/src/gd32f4xx_adc.c ****         break;
 2145              		.loc 1 1103 30 is_stmt 0 view .LVU572
 2146 002a 4368     		ldr	r3, [r0, #4]
 2147 002c 23F02003 		bic	r3, r3, #32
 2148 0030 4360     		str	r3, [r0, #4]
1104:../../../support/device/gd32f4xx/peripherals/src/gd32f4xx_adc.c ****     case ADC_INT_EOIC:
 2149              		.loc 1 1104 9 is_stmt 1 view .LVU573
 2150 0032 7047     		bx	lr
 2151              	.L171:
1106:../../../support/device/gd32f4xx/peripherals/src/gd32f4xx_adc.c ****         break;
 2152              		.loc 1 1106 9 view .LVU574
1106:../../../support/device/gd32f4xx/peripherals/src/gd32f4xx_adc.c ****         break;
 2153              		.loc 1 1106 30 is_stmt 0 view .LVU575
 2154 0034 4368     		ldr	r3, [r0, #4]
 2155 0036 23F08003 		bic	r3, r3, #128
 2156 003a 4360     		str	r3, [r0, #4]
1107:../../../support/device/gd32f4xx/peripherals/src/gd32f4xx_adc.c ****     case ADC_INT_ROVF:
 2157              		.loc 1 1107 9 is_stmt 1 view .LVU576
 2158 003c 7047     		bx	lr
 2159              	.L177:
1107:../../../support/device/gd32f4xx/peripherals/src/gd32f4xx_adc.c ****     case ADC_INT_ROVF:
 2160              		.loc 1 1107 9 is_stmt 0 view .LVU577
 2161 003e 7047     		bx	lr
 2162              		.cfi_endproc
 2163              	.LFE155:
 2165              		.section	.text.adc_sync_mode_config,"ax",%progbits
 2166              		.align	1
 2167              		.p2align 2,,3
 2168              		.global	adc_sync_mode_config
ARM GAS  /var/folders/_f/88qcw_5n2jl40jjphvxyt7wh0000gn/T//cc2pJbeY.s 			page 61


 2169              		.syntax unified
 2170              		.thumb
 2171              		.thumb_func
 2173              	adc_sync_mode_config:
 2174              	.LVL155:
 2175              	.LFB156:
1115:../../../support/device/gd32f4xx/peripherals/src/gd32f4xx_adc.c **** 
1116:../../../support/device/gd32f4xx/peripherals/src/gd32f4xx_adc.c **** /*!
1117:../../../support/device/gd32f4xx/peripherals/src/gd32f4xx_adc.c ****     \brief      configure the ADC sync mode
1118:../../../support/device/gd32f4xx/peripherals/src/gd32f4xx_adc.c ****     \param[in]  sync_mode: ADC sync mode
1119:../../../support/device/gd32f4xx/peripherals/src/gd32f4xx_adc.c ****                 only one parameter can be selected which is shown as below:
1120:../../../support/device/gd32f4xx/peripherals/src/gd32f4xx_adc.c ****     \arg        ADC_SYNC_MODE_INDEPENDENT: all the ADCs work independently
1121:../../../support/device/gd32f4xx/peripherals/src/gd32f4xx_adc.c ****     \arg        ADC_DAUL_ROUTINE_PARALLEL_INSERTED_PARALLEL: ADC0 and ADC1 work in combined routine
1122:../../../support/device/gd32f4xx/peripherals/src/gd32f4xx_adc.c ****     \arg        ADC_DAUL_ROUTINE_PARALLEL_INSERTED_ROTATION: ADC0 and ADC1 work in combined routine
1123:../../../support/device/gd32f4xx/peripherals/src/gd32f4xx_adc.c ****     \arg        ADC_DAUL_INSERTED_PARALLEL: ADC0 and ADC1 work in inserted parallel mode
1124:../../../support/device/gd32f4xx/peripherals/src/gd32f4xx_adc.c ****     \arg        ADC_DAUL_ROUTINE_PARALLEL: ADC0 and ADC1 work in routine parallel mode
1125:../../../support/device/gd32f4xx/peripherals/src/gd32f4xx_adc.c ****     \arg        ADC_DAUL_ROUTINE_FOLLOW_UP: ADC0 and ADC1 work in follow-up mode
1126:../../../support/device/gd32f4xx/peripherals/src/gd32f4xx_adc.c ****     \arg        ADC_DAUL_INSERTED_TRRIGGER_ROTATION: ADC0 and ADC1 work in trigger rotation mode
1127:../../../support/device/gd32f4xx/peripherals/src/gd32f4xx_adc.c ****     \arg        ADC_ALL_ROUTINE_PARALLEL_INSERTED_PARALLEL: all ADCs work in combined routine paral
1128:../../../support/device/gd32f4xx/peripherals/src/gd32f4xx_adc.c ****     \arg        ADC_ALL_ROUTINE_PARALLEL_INSERTED_ROTATION: all ADCs work in combined routine paral
1129:../../../support/device/gd32f4xx/peripherals/src/gd32f4xx_adc.c ****     \arg        ADC_ALL_INSERTED_PARALLEL: all ADCs work in inserted parallel mode
1130:../../../support/device/gd32f4xx/peripherals/src/gd32f4xx_adc.c ****     \arg        ADC_ALL_ROUTINE_PARALLEL: all ADCs work in routine parallel mode
1131:../../../support/device/gd32f4xx/peripherals/src/gd32f4xx_adc.c ****     \arg        ADC_ALL_ROUTINE_FOLLOW_UP: all ADCs work in follow-up mode
1132:../../../support/device/gd32f4xx/peripherals/src/gd32f4xx_adc.c ****     \arg        ADC_ALL_INSERTED_TRRIGGER_ROTATION: all ADCs work in trigger rotation mode
1133:../../../support/device/gd32f4xx/peripherals/src/gd32f4xx_adc.c ****     \param[out] none
1134:../../../support/device/gd32f4xx/peripherals/src/gd32f4xx_adc.c ****     \retval     none
1135:../../../support/device/gd32f4xx/peripherals/src/gd32f4xx_adc.c **** */
1136:../../../support/device/gd32f4xx/peripherals/src/gd32f4xx_adc.c **** void adc_sync_mode_config(uint32_t sync_mode)
1137:../../../support/device/gd32f4xx/peripherals/src/gd32f4xx_adc.c **** {
 2176              		.loc 1 1137 1 is_stmt 1 view -0
 2177              		.cfi_startproc
 2178              		@ args = 0, pretend = 0, frame = 0
 2179              		@ frame_needed = 0, uses_anonymous_args = 0
 2180              		@ link register save eliminated.
1138:../../../support/device/gd32f4xx/peripherals/src/gd32f4xx_adc.c ****     ADC_SYNCCTL &= ~(ADC_SYNCCTL_SYNCM);
 2181              		.loc 1 1138 5 view .LVU579
 2182              		.loc 1 1138 17 is_stmt 0 view .LVU580
 2183 0000 064B     		ldr	r3, .L180
 2184 0002 D3F80413 		ldr	r1, [r3, #772]
 2185 0006 21F01F01 		bic	r1, r1, #31
 2186 000a C3F80413 		str	r1, [r3, #772]
1139:../../../support/device/gd32f4xx/peripherals/src/gd32f4xx_adc.c ****     ADC_SYNCCTL |= sync_mode;
 2187              		.loc 1 1139 5 is_stmt 1 view .LVU581
 2188              		.loc 1 1139 17 is_stmt 0 view .LVU582
 2189 000e D3F80423 		ldr	r2, [r3, #772]
 2190 0012 0243     		orrs	r2, r2, r0
 2191 0014 C3F80423 		str	r2, [r3, #772]
1140:../../../support/device/gd32f4xx/peripherals/src/gd32f4xx_adc.c **** }
 2192              		.loc 1 1140 1 view .LVU583
 2193 0018 7047     		bx	lr
 2194              	.L181:
 2195 001a 00BF     		.align	2
 2196              	.L180:
 2197 001c 00200140 		.word	1073815552
 2198              		.cfi_endproc
 2199              	.LFE156:
 2201              		.section	.text.adc_sync_delay_config,"ax",%progbits
ARM GAS  /var/folders/_f/88qcw_5n2jl40jjphvxyt7wh0000gn/T//cc2pJbeY.s 			page 62


 2202              		.align	1
 2203              		.p2align 2,,3
 2204              		.global	adc_sync_delay_config
 2205              		.syntax unified
 2206              		.thumb
 2207              		.thumb_func
 2209              	adc_sync_delay_config:
 2210              	.LVL156:
 2211              	.LFB157:
1141:../../../support/device/gd32f4xx/peripherals/src/gd32f4xx_adc.c **** 
1142:../../../support/device/gd32f4xx/peripherals/src/gd32f4xx_adc.c **** /*!
1143:../../../support/device/gd32f4xx/peripherals/src/gd32f4xx_adc.c ****     \brief      configure the delay between 2 sampling phases in ADC sync modes
1144:../../../support/device/gd32f4xx/peripherals/src/gd32f4xx_adc.c ****     \param[in]  sample_delay:  the delay between 2 sampling phases in ADC sync modes
1145:../../../support/device/gd32f4xx/peripherals/src/gd32f4xx_adc.c ****                 only one parameter can be selected which is shown as below:
1146:../../../support/device/gd32f4xx/peripherals/src/gd32f4xx_adc.c ****       \arg      ADC_SYNC_DELAY_xCYCLE: x=5..20,the delay between 2 sampling phases in ADC sync mode
