ARM GAS  /var/folders/_f/88qcw_5n2jl40jjphvxyt7wh0000gn/T//ccH7fQoj.s 			page 1


   1              		.cpu cortex-m4
   2              		.arch armv7e-m
   3              		.fpu softvfp
   4              		.eabi_attribute 20, 1
   5              		.eabi_attribute 21, 1
   6              		.eabi_attribute 23, 3
   7              		.eabi_attribute 24, 1
   8              		.eabi_attribute 25, 1
   9              		.eabi_attribute 26, 1
  10              		.eabi_attribute 30, 2
  11              		.eabi_attribute 34, 1
  12              		.eabi_attribute 18, 4
  13              		.file	"gd32f4xx_trng.c"
  14              		.text
  15              	.Ltext0:
  16              		.cfi_sections	.debug_frame
  17              		.section	.text.trng_deinit,"ax",%progbits
  18              		.align	1
  19              		.p2align 2,,3
  20              		.global	trng_deinit
  21              		.syntax unified
  22              		.thumb
  23              		.thumb_func
  25              	trng_deinit:
  26              	.LFB116:
  27              		.file 1 "../../../support/device/gd32f4xx/peripherals/src/gd32f4xx_trng.c"
   1:../../../support/device/gd32f4xx/peripherals/src/gd32f4xx_trng.c **** /*!
   2:../../../support/device/gd32f4xx/peripherals/src/gd32f4xx_trng.c ****     \file    gd32f4xx_trng.c
   3:../../../support/device/gd32f4xx/peripherals/src/gd32f4xx_trng.c ****     \brief   TRNG driver
   4:../../../support/device/gd32f4xx/peripherals/src/gd32f4xx_trng.c **** 
   5:../../../support/device/gd32f4xx/peripherals/src/gd32f4xx_trng.c ****     \version 2016-08-15, V1.0.0, firmware for GD32F4xx
   6:../../../support/device/gd32f4xx/peripherals/src/gd32f4xx_trng.c ****     \version 2018-12-12, V2.0.0, firmware for GD32F4xx
   7:../../../support/device/gd32f4xx/peripherals/src/gd32f4xx_trng.c ****     \version 2020-09-30, V2.1.0, firmware for GD32F4xx
   8:../../../support/device/gd32f4xx/peripherals/src/gd32f4xx_trng.c ****     \version 2022-03-09, V3.0.0, firmware for GD32F4xx
   9:../../../support/device/gd32f4xx/peripherals/src/gd32f4xx_trng.c **** */
  10:../../../support/device/gd32f4xx/peripherals/src/gd32f4xx_trng.c **** 
  11:../../../support/device/gd32f4xx/peripherals/src/gd32f4xx_trng.c **** /*
  12:../../../support/device/gd32f4xx/peripherals/src/gd32f4xx_trng.c ****     Copyright (c) 2022, GigaDevice Semiconductor Inc.
  13:../../../support/device/gd32f4xx/peripherals/src/gd32f4xx_trng.c **** 
  14:../../../support/device/gd32f4xx/peripherals/src/gd32f4xx_trng.c ****     Redistribution and use in source and binary forms, with or without modification,
  15:../../../support/device/gd32f4xx/peripherals/src/gd32f4xx_trng.c **** are permitted provided that the following conditions are met:
  16:../../../support/device/gd32f4xx/peripherals/src/gd32f4xx_trng.c **** 
  17:../../../support/device/gd32f4xx/peripherals/src/gd32f4xx_trng.c ****     1. Redistributions of source code must retain the above copyright notice, this
  18:../../../support/device/gd32f4xx/peripherals/src/gd32f4xx_trng.c ****        list of conditions and the following disclaimer.
  19:../../../support/device/gd32f4xx/peripherals/src/gd32f4xx_trng.c ****     2. Redistributions in binary form must reproduce the above copyright notice,
  20:../../../support/device/gd32f4xx/peripherals/src/gd32f4xx_trng.c ****        this list of conditions and the following disclaimer in the documentation
  21:../../../support/device/gd32f4xx/peripherals/src/gd32f4xx_trng.c ****        and/or other materials provided with the distribution.
  22:../../../support/device/gd32f4xx/peripherals/src/gd32f4xx_trng.c ****     3. Neither the name of the copyright holder nor the names of its contributors
  23:../../../support/device/gd32f4xx/peripherals/src/gd32f4xx_trng.c ****        may be used to endorse or promote products derived from this software without
  24:../../../support/device/gd32f4xx/peripherals/src/gd32f4xx_trng.c ****        specific prior written permission.
  25:../../../support/device/gd32f4xx/peripherals/src/gd32f4xx_trng.c **** 
  26:../../../support/device/gd32f4xx/peripherals/src/gd32f4xx_trng.c ****     THIS SOFTWARE IS PROVIDED BY THE COPYRIGHT HOLDERS AND CONTRIBUTORS "AS IS"
  27:../../../support/device/gd32f4xx/peripherals/src/gd32f4xx_trng.c **** AND ANY EXPRESS OR IMPLIED WARRANTIES, INCLUDING, BUT NOT LIMITED TO, THE IMPLIED
  28:../../../support/device/gd32f4xx/peripherals/src/gd32f4xx_trng.c **** WARRANTIES OF MERCHANTABILITY AND FITNESS FOR A PARTICULAR PURPOSE ARE DISCLAIMED.
  29:../../../support/device/gd32f4xx/peripherals/src/gd32f4xx_trng.c **** IN NO EVENT SHALL THE COPYRIGHT HOLDER OR CONTRIBUTORS BE LIABLE FOR ANY DIRECT,
  30:../../../support/device/gd32f4xx/peripherals/src/gd32f4xx_trng.c **** INDIRECT, INCIDENTAL, SPECIAL, EXEMPLARY, OR CONSEQUENTIAL DAMAGES (INCLUDING, BUT
  31:../../../support/device/gd32f4xx/peripherals/src/gd32f4xx_trng.c **** NOT LIMITED TO, PROCUREMENT OF SUBSTITUTE GOODS OR SERVICES; LOSS OF USE, DATA, OR
ARM GAS  /var/folders/_f/88qcw_5n2jl40jjphvxyt7wh0000gn/T//ccH7fQoj.s 			page 2


  32:../../../support/device/gd32f4xx/peripherals/src/gd32f4xx_trng.c **** PROFITS; OR BUSINESS INTERRUPTION) HOWEVER CAUSED AND ON ANY THEORY OF LIABILITY,
  33:../../../support/device/gd32f4xx/peripherals/src/gd32f4xx_trng.c **** WHETHER IN CONTRACT, STRICT LIABILITY, OR TORT (INCLUDING NEGLIGENCE OR OTHERWISE)
  34:../../../support/device/gd32f4xx/peripherals/src/gd32f4xx_trng.c **** ARISING IN ANY WAY OUT OF THE USE OF THIS SOFTWARE, EVEN IF ADVISED OF THE POSSIBILITY
  35:../../../support/device/gd32f4xx/peripherals/src/gd32f4xx_trng.c **** OF SUCH DAMAGE.
  36:../../../support/device/gd32f4xx/peripherals/src/gd32f4xx_trng.c **** */
  37:../../../support/device/gd32f4xx/peripherals/src/gd32f4xx_trng.c **** 
  38:../../../support/device/gd32f4xx/peripherals/src/gd32f4xx_trng.c **** #include "gd32f4xx_trng.h"
  39:../../../support/device/gd32f4xx/peripherals/src/gd32f4xx_trng.c **** 
  40:../../../support/device/gd32f4xx/peripherals/src/gd32f4xx_trng.c **** /*!
  41:../../../support/device/gd32f4xx/peripherals/src/gd32f4xx_trng.c ****     \brief      reset TRNG
  42:../../../support/device/gd32f4xx/peripherals/src/gd32f4xx_trng.c ****     \param[in]  none
  43:../../../support/device/gd32f4xx/peripherals/src/gd32f4xx_trng.c ****     \param[out] none
  44:../../../support/device/gd32f4xx/peripherals/src/gd32f4xx_trng.c ****     \retval     none
  45:../../../support/device/gd32f4xx/peripherals/src/gd32f4xx_trng.c **** */
  46:../../../support/device/gd32f4xx/peripherals/src/gd32f4xx_trng.c **** void trng_deinit(void)
  47:../../../support/device/gd32f4xx/peripherals/src/gd32f4xx_trng.c **** {
  28              		.loc 1 47 1 view -0
  29              		.cfi_startproc
  30              		@ args = 0, pretend = 0, frame = 0
  31              		@ frame_needed = 0, uses_anonymous_args = 0
  48:../../../support/device/gd32f4xx/peripherals/src/gd32f4xx_trng.c ****     rcu_periph_reset_enable(RCU_TRNGRST);
  32              		.loc 1 48 5 view .LVU1
  47:../../../support/device/gd32f4xx/peripherals/src/gd32f4xx_trng.c ****     rcu_periph_reset_enable(RCU_TRNGRST);
  33              		.loc 1 47 1 is_stmt 0 view .LVU2
  34 0000 08B5     		push	{r3, lr}
  35              	.LCFI0:
  36              		.cfi_def_cfa_offset 8
  37              		.cfi_offset 3, -8
  38              		.cfi_offset 14, -4
  39              		.loc 1 48 5 view .LVU3
  40 0002 40F20650 		movw	r0, #1286
  41 0006 FFF7FEFF 		bl	rcu_periph_reset_enable
  42              	.LVL0:
  49:../../../support/device/gd32f4xx/peripherals/src/gd32f4xx_trng.c ****     rcu_periph_reset_disable(RCU_TRNGRST);
  43              		.loc 1 49 5 is_stmt 1 view .LVU4
  50:../../../support/device/gd32f4xx/peripherals/src/gd32f4xx_trng.c **** }
  44              		.loc 1 50 1 is_stmt 0 view .LVU5
  45 000a BDE80840 		pop	{r3, lr}
  46              	.LCFI1:
  47              		.cfi_restore 14
  48              		.cfi_restore 3
  49              		.cfi_def_cfa_offset 0
  49:../../../support/device/gd32f4xx/peripherals/src/gd32f4xx_trng.c ****     rcu_periph_reset_disable(RCU_TRNGRST);
  50              		.loc 1 49 5 view .LVU6
  51 000e 40F20650 		movw	r0, #1286
  52 0012 FFF7FEBF 		b	rcu_periph_reset_disable
  53              	.LVL1:
  54              		.cfi_endproc
  55              	.LFE116:
  57 0016 00BF     		.section	.text.trng_enable,"ax",%progbits
  58              		.align	1
  59              		.p2align 2,,3
  60              		.global	trng_enable
  61              		.syntax unified
  62              		.thumb
  63              		.thumb_func
  65              	trng_enable:
ARM GAS  /var/folders/_f/88qcw_5n2jl40jjphvxyt7wh0000gn/T//ccH7fQoj.s 			page 3


  66              	.LFB117:
  51:../../../support/device/gd32f4xx/peripherals/src/gd32f4xx_trng.c **** 
  52:../../../support/device/gd32f4xx/peripherals/src/gd32f4xx_trng.c **** /*!
  53:../../../support/device/gd32f4xx/peripherals/src/gd32f4xx_trng.c ****     \brief      enable TRNG 
  54:../../../support/device/gd32f4xx/peripherals/src/gd32f4xx_trng.c ****     \param[in]  none
  55:../../../support/device/gd32f4xx/peripherals/src/gd32f4xx_trng.c ****     \param[out] none
  56:../../../support/device/gd32f4xx/peripherals/src/gd32f4xx_trng.c ****     \retval     none
  57:../../../support/device/gd32f4xx/peripherals/src/gd32f4xx_trng.c **** */
  58:../../../support/device/gd32f4xx/peripherals/src/gd32f4xx_trng.c **** void trng_enable(void)
  59:../../../support/device/gd32f4xx/peripherals/src/gd32f4xx_trng.c **** {
  67              		.loc 1 59 1 is_stmt 1 view -0
  68              		.cfi_startproc
  69              		@ args = 0, pretend = 0, frame = 0
  70              		@ frame_needed = 0, uses_anonymous_args = 0
  71              		@ link register save eliminated.
  60:../../../support/device/gd32f4xx/peripherals/src/gd32f4xx_trng.c ****     TRNG_CTL |= TRNG_CTL_TRNGEN;
  72              		.loc 1 60 5 view .LVU8
  73              		.loc 1 60 14 is_stmt 0 view .LVU9
  74 0000 034A     		ldr	r2, .L5
  75 0002 D2F80038 		ldr	r3, [r2, #2048]
  76 0006 43F00403 		orr	r3, r3, #4
  77 000a C2F80038 		str	r3, [r2, #2048]
  61:../../../support/device/gd32f4xx/peripherals/src/gd32f4xx_trng.c **** }
  78              		.loc 1 61 1 view .LVU10
  79 000e 7047     		bx	lr
  80              	.L6:
  81              		.align	2
  82              	.L5:
  83 0010 00000650 		.word	1342570496
  84              		.cfi_endproc
  85              	.LFE117:
  87              		.section	.text.trng_disable,"ax",%progbits
  88              		.align	1
  89              		.p2align 2,,3
  90              		.global	trng_disable
  91              		.syntax unified
  92              		.thumb
  93              		.thumb_func
  95              	trng_disable:
  96              	.LFB118:
  62:../../../support/device/gd32f4xx/peripherals/src/gd32f4xx_trng.c **** 
  63:../../../support/device/gd32f4xx/peripherals/src/gd32f4xx_trng.c **** /*!
  64:../../../support/device/gd32f4xx/peripherals/src/gd32f4xx_trng.c ****     \brief      disable TRNG 
  65:../../../support/device/gd32f4xx/peripherals/src/gd32f4xx_trng.c ****     \param[in]  none
  66:../../../support/device/gd32f4xx/peripherals/src/gd32f4xx_trng.c ****     \param[out] none
  67:../../../support/device/gd32f4xx/peripherals/src/gd32f4xx_trng.c ****     \retval     none
  68:../../../support/device/gd32f4xx/peripherals/src/gd32f4xx_trng.c **** */
  69:../../../support/device/gd32f4xx/peripherals/src/gd32f4xx_trng.c **** void trng_disable(void)
  70:../../../support/device/gd32f4xx/peripherals/src/gd32f4xx_trng.c **** {
  97              		.loc 1 70 1 is_stmt 1 view -0
  98              		.cfi_startproc
  99              		@ args = 0, pretend = 0, frame = 0
 100              		@ frame_needed = 0, uses_anonymous_args = 0
 101              		@ link register save eliminated.
  71:../../../support/device/gd32f4xx/peripherals/src/gd32f4xx_trng.c ****     TRNG_CTL &= ~TRNG_CTL_TRNGEN;
 102              		.loc 1 71 5 view .LVU12
 103              		.loc 1 71 14 is_stmt 0 view .LVU13
ARM GAS  /var/folders/_f/88qcw_5n2jl40jjphvxyt7wh0000gn/T//ccH7fQoj.s 			page 4


 104 0000 034A     		ldr	r2, .L8
 105 0002 D2F80038 		ldr	r3, [r2, #2048]
 106 0006 23F00403 		bic	r3, r3, #4
 107 000a C2F80038 		str	r3, [r2, #2048]
  72:../../../support/device/gd32f4xx/peripherals/src/gd32f4xx_trng.c **** }
 108              		.loc 1 72 1 view .LVU14
 109 000e 7047     		bx	lr
 110              	.L9:
 111              		.align	2
 112              	.L8:
 113 0010 00000650 		.word	1342570496
 114              		.cfi_endproc
 115              	.LFE118:
 117              		.section	.text.trng_get_true_random_data,"ax",%progbits
 118              		.align	1
 119              		.p2align 2,,3
 120              		.global	trng_get_true_random_data
 121              		.syntax unified
 122              		.thumb
 123              		.thumb_func
 125              	trng_get_true_random_data:
 126              	.LFB119:
  73:../../../support/device/gd32f4xx/peripherals/src/gd32f4xx_trng.c **** 
  74:../../../support/device/gd32f4xx/peripherals/src/gd32f4xx_trng.c **** /*!
  75:../../../support/device/gd32f4xx/peripherals/src/gd32f4xx_trng.c ****     \brief      get the true random data
  76:../../../support/device/gd32f4xx/peripherals/src/gd32f4xx_trng.c ****     \param[in]  none
  77:../../../support/device/gd32f4xx/peripherals/src/gd32f4xx_trng.c ****     \param[out] none
  78:../../../support/device/gd32f4xx/peripherals/src/gd32f4xx_trng.c ****     \retval     uint32_t: 0x0-0xFFFFFFFF
  79:../../../support/device/gd32f4xx/peripherals/src/gd32f4xx_trng.c **** */
  80:../../../support/device/gd32f4xx/peripherals/src/gd32f4xx_trng.c **** uint32_t trng_get_true_random_data(void)
  81:../../../support/device/gd32f4xx/peripherals/src/gd32f4xx_trng.c **** {
 127              		.loc 1 81 1 is_stmt 1 view -0
 128              		.cfi_startproc
 129              		@ args = 0, pretend = 0, frame = 0
 130              		@ frame_needed = 0, uses_anonymous_args = 0
 131              		@ link register save eliminated.
  82:../../../support/device/gd32f4xx/peripherals/src/gd32f4xx_trng.c ****     return (TRNG_DATA);
 132              		.loc 1 82 5 view .LVU16
 133              		.loc 1 82 13 is_stmt 0 view .LVU17
 134 0000 014B     		ldr	r3, .L11
 135 0002 D3F80808 		ldr	r0, [r3, #2056]
  83:../../../support/device/gd32f4xx/peripherals/src/gd32f4xx_trng.c **** }
 136              		.loc 1 83 1 view .LVU18
 137 0006 7047     		bx	lr
 138              	.L12:
 139              		.align	2
 140              	.L11:
 141 0008 00000650 		.word	1342570496
 142              		.cfi_endproc
 143              	.LFE119:
 145              		.section	.text.trng_interrupt_enable,"ax",%progbits
 146              		.align	1
 147              		.p2align 2,,3
 148              		.global	trng_interrupt_enable
 149              		.syntax unified
 150              		.thumb
 151              		.thumb_func
ARM GAS  /var/folders/_f/88qcw_5n2jl40jjphvxyt7wh0000gn/T//ccH7fQoj.s 			page 5


 153              	trng_interrupt_enable:
 154              	.LFB120:
  84:../../../support/device/gd32f4xx/peripherals/src/gd32f4xx_trng.c **** 
  85:../../../support/device/gd32f4xx/peripherals/src/gd32f4xx_trng.c **** /*!
  86:../../../support/device/gd32f4xx/peripherals/src/gd32f4xx_trng.c ****     \brief      enable TRNG interrupt
  87:../../../support/device/gd32f4xx/peripherals/src/gd32f4xx_trng.c ****     \param[in]  none
  88:../../../support/device/gd32f4xx/peripherals/src/gd32f4xx_trng.c ****     \param[out] none
  89:../../../support/device/gd32f4xx/peripherals/src/gd32f4xx_trng.c ****     \retval     none
  90:../../../support/device/gd32f4xx/peripherals/src/gd32f4xx_trng.c **** */
  91:../../../support/device/gd32f4xx/peripherals/src/gd32f4xx_trng.c **** void trng_interrupt_enable(void)
  92:../../../support/device/gd32f4xx/peripherals/src/gd32f4xx_trng.c **** {
 155              		.loc 1 92 1 is_stmt 1 view -0
 156              		.cfi_startproc
 157              		@ args = 0, pretend = 0, frame = 0
 158              		@ frame_needed = 0, uses_anonymous_args = 0
 159              		@ link register save eliminated.
  93:../../../support/device/gd32f4xx/peripherals/src/gd32f4xx_trng.c ****     TRNG_CTL |= TRNG_CTL_TRNGIE;
 160              		.loc 1 93 5 view .LVU20
 161              		.loc 1 93 14 is_stmt 0 view .LVU21
 162 0000 034A     		ldr	r2, .L14
 163 0002 D2F80038 		ldr	r3, [r2, #2048]
 164 0006 43F00803 		orr	r3, r3, #8
 165 000a C2F80038 		str	r3, [r2, #2048]
  94:../../../support/device/gd32f4xx/peripherals/src/gd32f4xx_trng.c **** }
 166              		.loc 1 94 1 view .LVU22
 167 000e 7047     		bx	lr
 168              	.L15:
 169              		.align	2
 170              	.L14:
 171 0010 00000650 		.word	1342570496
 172              		.cfi_endproc
 173              	.LFE120:
 175              		.section	.text.trng_interrupt_disable,"ax",%progbits
 176              		.align	1
 177              		.p2align 2,,3
 178              		.global	trng_interrupt_disable
 179              		.syntax unified
 180              		.thumb
 181              		.thumb_func
 183              	trng_interrupt_disable:
 184              	.LFB121:
  95:../../../support/device/gd32f4xx/peripherals/src/gd32f4xx_trng.c **** 
  96:../../../support/device/gd32f4xx/peripherals/src/gd32f4xx_trng.c **** /*!
  97:../../../support/device/gd32f4xx/peripherals/src/gd32f4xx_trng.c ****     \brief      disable TRNG interrupt
  98:../../../support/device/gd32f4xx/peripherals/src/gd32f4xx_trng.c ****     \param[in]  none
  99:../../../support/device/gd32f4xx/peripherals/src/gd32f4xx_trng.c ****     \param[out] none
 100:../../../support/device/gd32f4xx/peripherals/src/gd32f4xx_trng.c ****     \retval     none
 101:../../../support/device/gd32f4xx/peripherals/src/gd32f4xx_trng.c **** */
 102:../../../support/device/gd32f4xx/peripherals/src/gd32f4xx_trng.c **** void trng_interrupt_disable(void)
 103:../../../support/device/gd32f4xx/peripherals/src/gd32f4xx_trng.c **** {
 185              		.loc 1 103 1 is_stmt 1 view -0
 186              		.cfi_startproc
 187              		@ args = 0, pretend = 0, frame = 0
 188              		@ frame_needed = 0, uses_anonymous_args = 0
 189              		@ link register save eliminated.
 104:../../../support/device/gd32f4xx/peripherals/src/gd32f4xx_trng.c ****     TRNG_CTL &= ~TRNG_CTL_TRNGIE;
 190              		.loc 1 104 5 view .LVU24
ARM GAS  /var/folders/_f/88qcw_5n2jl40jjphvxyt7wh0000gn/T//ccH7fQoj.s 			page 6


 191              		.loc 1 104 14 is_stmt 0 view .LVU25
 192 0000 034A     		ldr	r2, .L17
 193 0002 D2F80038 		ldr	r3, [r2, #2048]
 194 0006 23F00803 		bic	r3, r3, #8
 195 000a C2F80038 		str	r3, [r2, #2048]
 105:../../../support/device/gd32f4xx/peripherals/src/gd32f4xx_trng.c **** }
 196              		.loc 1 105 1 view .LVU26
 197 000e 7047     		bx	lr
 198              	.L18:
 199              		.align	2
 200              	.L17:
 201 0010 00000650 		.word	1342570496
 202              		.cfi_endproc
 203              	.LFE121:
 205              		.section	.text.trng_flag_get,"ax",%progbits
 206              		.align	1
 207              		.p2align 2,,3
 208              		.global	trng_flag_get
 209              		.syntax unified
 210              		.thumb
 211              		.thumb_func
 213              	trng_flag_get:
 214              	.LVL2:
 215              	.LFB122:
 106:../../../support/device/gd32f4xx/peripherals/src/gd32f4xx_trng.c **** 
 107:../../../support/device/gd32f4xx/peripherals/src/gd32f4xx_trng.c **** /*!
 108:../../../support/device/gd32f4xx/peripherals/src/gd32f4xx_trng.c ****     \brief      get TRNG flag status
 109:../../../support/device/gd32f4xx/peripherals/src/gd32f4xx_trng.c ****     \param[in]  flag: TRNG flag
 110:../../../support/device/gd32f4xx/peripherals/src/gd32f4xx_trng.c ****                 only one parameter can be selected which is shown as below:
 111:../../../support/device/gd32f4xx/peripherals/src/gd32f4xx_trng.c ****       \arg        TRNG_FLAG_DRDY: random Data ready status
 112:../../../support/device/gd32f4xx/peripherals/src/gd32f4xx_trng.c ****       \arg        TRNG_FLAG_CECS: clock error current status
 113:../../../support/device/gd32f4xx/peripherals/src/gd32f4xx_trng.c ****       \arg        TRNG_FLAG_SECS: seed error current status
 114:../../../support/device/gd32f4xx/peripherals/src/gd32f4xx_trng.c ****     \param[out] none
 115:../../../support/device/gd32f4xx/peripherals/src/gd32f4xx_trng.c ****     \retval     FlagStatus: SET or RESET
 116:../../../support/device/gd32f4xx/peripherals/src/gd32f4xx_trng.c **** */
 117:../../../support/device/gd32f4xx/peripherals/src/gd32f4xx_trng.c **** FlagStatus trng_flag_get(trng_flag_enum flag)
 118:../../../support/device/gd32f4xx/peripherals/src/gd32f4xx_trng.c **** {
 216              		.loc 1 118 1 is_stmt 1 view -0
 217              		.cfi_startproc
 218              		@ args = 0, pretend = 0, frame = 0
 219              		@ frame_needed = 0, uses_anonymous_args = 0
 220              		@ link register save eliminated.
 119:../../../support/device/gd32f4xx/peripherals/src/gd32f4xx_trng.c ****     if(RESET != (TRNG_STAT & flag)) {
 221              		.loc 1 119 5 view .LVU28
 222              		.loc 1 119 18 is_stmt 0 view .LVU29
 223 0000 034B     		ldr	r3, .L20
 224 0002 D3F80438 		ldr	r3, [r3, #2052]
 225              		.loc 1 119 7 view .LVU30
 226 0006 1842     		tst	r0, r3
 120:../../../support/device/gd32f4xx/peripherals/src/gd32f4xx_trng.c ****         return SET;
 121:../../../support/device/gd32f4xx/peripherals/src/gd32f4xx_trng.c ****     } else {
 122:../../../support/device/gd32f4xx/peripherals/src/gd32f4xx_trng.c ****         return RESET;
 123:../../../support/device/gd32f4xx/peripherals/src/gd32f4xx_trng.c ****     }
 124:../../../support/device/gd32f4xx/peripherals/src/gd32f4xx_trng.c **** }
 227              		.loc 1 124 1 view .LVU31
 228 0008 14BF     		ite	ne
 229 000a 0120     		movne	r0, #1
ARM GAS  /var/folders/_f/88qcw_5n2jl40jjphvxyt7wh0000gn/T//ccH7fQoj.s 			page 7


 230              	.LVL3:
 231              		.loc 1 124 1 view .LVU32
 232 000c 0020     		moveq	r0, #0
 233 000e 7047     		bx	lr
 234              	.L21:
 235              		.align	2
 236              	.L20:
 237 0010 00000650 		.word	1342570496
 238              		.cfi_endproc
 239              	.LFE122:
 241              		.section	.text.trng_interrupt_flag_get,"ax",%progbits
 242              		.align	1
 243              		.p2align 2,,3
 244              		.global	trng_interrupt_flag_get
 245              		.syntax unified
 246              		.thumb
 247              		.thumb_func
 249              	trng_interrupt_flag_get:
 250              	.LFB126:
 251              		.cfi_startproc
 252              		@ args = 0, pretend = 0, frame = 0
 253              		@ frame_needed = 0, uses_anonymous_args = 0
 254              		@ link register save eliminated.
 255 0000 034B     		ldr	r3, .L23
 256 0002 D3F80438 		ldr	r3, [r3, #2052]
 257 0006 1842     		tst	r0, r3
 258 0008 14BF     		ite	ne
 259 000a 0120     		movne	r0, #1
 260 000c 0020     		moveq	r0, #0
 261 000e 7047     		bx	lr
 262              	.L24:
 263              		.align	2
 264              	.L23:
 265 0010 00000650 		.word	1342570496
 266              		.cfi_endproc
 267              	.LFE126:
 269              		.section	.text.trng_interrupt_flag_clear,"ax",%progbits
 270              		.align	1
 271              		.p2align 2,,3
 272              		.global	trng_interrupt_flag_clear
 273              		.syntax unified
 274              		.thumb
 275              		.thumb_func
 277              	trng_interrupt_flag_clear:
 278              	.LVL4:
 279              	.LFB124:
 125:../../../support/device/gd32f4xx/peripherals/src/gd32f4xx_trng.c **** 
 126:../../../support/device/gd32f4xx/peripherals/src/gd32f4xx_trng.c **** /*!
 127:../../../support/device/gd32f4xx/peripherals/src/gd32f4xx_trng.c ****     \brief      get TRNG interrupt flag status
 128:../../../support/device/gd32f4xx/peripherals/src/gd32f4xx_trng.c ****     \param[in]  int_flag: TRNG interrupt flag
 129:../../../support/device/gd32f4xx/peripherals/src/gd32f4xx_trng.c ****                 only one parameter can be selected which is shown as below:
 130:../../../support/device/gd32f4xx/peripherals/src/gd32f4xx_trng.c ****       \arg        TRNG_INT_FLAG_CEIF: clock error interrupt flag
 131:../../../support/device/gd32f4xx/peripherals/src/gd32f4xx_trng.c ****       \arg        TRNG_INT_FLAG_SEIF: seed error interrupt flag
 132:../../../support/device/gd32f4xx/peripherals/src/gd32f4xx_trng.c ****     \param[out] none
 133:../../../support/device/gd32f4xx/peripherals/src/gd32f4xx_trng.c ****     \retval     FlagStatus: SET or RESET
 134:../../../support/device/gd32f4xx/peripherals/src/gd32f4xx_trng.c **** */
 135:../../../support/device/gd32f4xx/peripherals/src/gd32f4xx_trng.c **** FlagStatus trng_interrupt_flag_get(trng_int_flag_enum int_flag)
ARM GAS  /var/folders/_f/88qcw_5n2jl40jjphvxyt7wh0000gn/T//ccH7fQoj.s 			page 8


 136:../../../support/device/gd32f4xx/peripherals/src/gd32f4xx_trng.c **** {
 137:../../../support/device/gd32f4xx/peripherals/src/gd32f4xx_trng.c ****     if(RESET != (TRNG_STAT & int_flag)) {
 138:../../../support/device/gd32f4xx/peripherals/src/gd32f4xx_trng.c ****         return SET;
 139:../../../support/device/gd32f4xx/peripherals/src/gd32f4xx_trng.c ****     } else {
 140:../../../support/device/gd32f4xx/peripherals/src/gd32f4xx_trng.c ****         return RESET;
 141:../../../support/device/gd32f4xx/peripherals/src/gd32f4xx_trng.c ****     }
 142:../../../support/device/gd32f4xx/peripherals/src/gd32f4xx_trng.c **** }
 143:../../../support/device/gd32f4xx/peripherals/src/gd32f4xx_trng.c **** 
 144:../../../support/device/gd32f4xx/peripherals/src/gd32f4xx_trng.c **** /*!
 145:../../../support/device/gd32f4xx/peripherals/src/gd32f4xx_trng.c ****     \brief      clear TRNG interrupt flag status
 146:../../../support/device/gd32f4xx/peripherals/src/gd32f4xx_trng.c ****     \param[in]  int_flag: TRNG interrupt flag
 147:../../../support/device/gd32f4xx/peripherals/src/gd32f4xx_trng.c ****                 only one parameter can be selected which is shown as below:
 148:../../../support/device/gd32f4xx/peripherals/src/gd32f4xx_trng.c ****       \arg        TRNG_INT_FLAG_CEIF: clock error interrupt flag
 149:../../../support/device/gd32f4xx/peripherals/src/gd32f4xx_trng.c ****       \arg        TRNG_INT_FLAG_SEIF: seed error interrupt flag
 150:../../../support/device/gd32f4xx/peripherals/src/gd32f4xx_trng.c ****     \param[out] none
 151:../../../support/device/gd32f4xx/peripherals/src/gd32f4xx_trng.c ****     \retval     none
 152:../../../support/device/gd32f4xx/peripherals/src/gd32f4xx_trng.c **** */
 153:../../../support/device/gd32f4xx/peripherals/src/gd32f4xx_trng.c **** void trng_interrupt_flag_clear(trng_int_flag_enum int_flag)
 154:../../../support/device/gd32f4xx/peripherals/src/gd32f4xx_trng.c **** {
 280              		.loc 1 154 1 is_stmt 1 view -0
 281              		.cfi_startproc
 282              		@ args = 0, pretend = 0, frame = 0
 283              		@ frame_needed = 0, uses_anonymous_args = 0
 284              		@ link register save eliminated.
 155:../../../support/device/gd32f4xx/peripherals/src/gd32f4xx_trng.c ****     TRNG_STAT &= ~(uint32_t)int_flag;
 285              		.loc 1 155 5 view .LVU34
 286              		.loc 1 155 15 is_stmt 0 view .LVU35
 287 0000 034A     		ldr	r2, .L26
 288 0002 D2F80438 		ldr	r3, [r2, #2052]
 289 0006 23EA0003 		bic	r3, r3, r0
 290 000a C2F80438 		str	r3, [r2, #2052]
 156:../../../support/device/gd32f4xx/peripherals/src/gd32f4xx_trng.c **** }
 291              		.loc 1 156 1 view .LVU36
 292 000e 7047     		bx	lr
 293              	.L27:
 294              		.align	2
 295              	.L26:
 296 0010 00000650 		.word	1342570496
 297              		.cfi_endproc
 298              	.LFE124:
 300              		.text
 301              	.Letext0:
 302              		.file 2 "/Applications/ARM/arm-none-eabi/include/machine/_default_types.h"
 303              		.file 3 "/Applications/ARM/arm-none-eabi/include/sys/_stdint.h"
 304              		.file 4 "../../../support/device/gd32f4xx/inc/gd32f4xx.h"
 305              		.file 5 "../../../support/device/gd32f4xx/peripherals/inc/gd32f4xx_rcu.h"
 306              		.file 6 "../../../support/device/gd32f4xx/peripherals/inc/gd32f4xx_trng.h"
ARM GAS  /var/folders/_f/88qcw_5n2jl40jjphvxyt7wh0000gn/T//ccH7fQoj.s 			page 9

