ARM GAS  /var/folders/_f/88qcw_5n2jl40jjphvxyt7wh0000gn/T//ccLrzvpQ.s 			page 1


   1              		.cpu cortex-m4
   2              		.arch armv7e-m
   3              		.fpu softvfp
   4              		.eabi_attribute 20, 1
   5              		.eabi_attribute 21, 1
   6              		.eabi_attribute 23, 3
   7              		.eabi_attribute 24, 1
   8              		.eabi_attribute 25, 1
   9              		.eabi_attribute 26, 1
  10              		.eabi_attribute 30, 1
  11              		.eabi_attribute 34, 1
  12              		.eabi_attribute 18, 4
  13              		.file	"gd32f3x0_wwdgt.c"
  14              		.text
  15              	.Ltext0:
  16              		.cfi_sections	.debug_frame
  17              		.section	.text.wwdgt_deinit,"ax",%progbits
  18              		.align	1
  19              		.global	wwdgt_deinit
  20              		.syntax unified
  21              		.thumb
  22              		.thumb_func
  24              	wwdgt_deinit:
  25              	.LFB116:
  26              		.file 1 "../../../support/device/gd32f3x0/peripherals/src/gd32f3x0_wwdgt.c"
   1:../../../support/device/gd32f3x0/peripherals/src/gd32f3x0_wwdgt.c **** /*!
   2:../../../support/device/gd32f3x0/peripherals/src/gd32f3x0_wwdgt.c ****     \file    gd32f3x0_wwdgt.c
   3:../../../support/device/gd32f3x0/peripherals/src/gd32f3x0_wwdgt.c ****     \brief   WWDGT driver
   4:../../../support/device/gd32f3x0/peripherals/src/gd32f3x0_wwdgt.c **** 
   5:../../../support/device/gd32f3x0/peripherals/src/gd32f3x0_wwdgt.c ****     \version 2017-06-06, V1.0.0, firmware for GD32F3x0
   6:../../../support/device/gd32f3x0/peripherals/src/gd32f3x0_wwdgt.c ****     \version 2019-06-01, V2.0.0, firmware for GD32F3x0
   7:../../../support/device/gd32f3x0/peripherals/src/gd32f3x0_wwdgt.c ****     \version 2020-09-30, V2.1.0, firmware for GD32F3x0
   8:../../../support/device/gd32f3x0/peripherals/src/gd32f3x0_wwdgt.c ****     \version 2022-01-06, V2.2.0, firmware for GD32F3x0
   9:../../../support/device/gd32f3x0/peripherals/src/gd32f3x0_wwdgt.c **** */
  10:../../../support/device/gd32f3x0/peripherals/src/gd32f3x0_wwdgt.c **** 
  11:../../../support/device/gd32f3x0/peripherals/src/gd32f3x0_wwdgt.c **** /*
  12:../../../support/device/gd32f3x0/peripherals/src/gd32f3x0_wwdgt.c ****     Copyright (c) 2022, GigaDevice Semiconductor Inc.
  13:../../../support/device/gd32f3x0/peripherals/src/gd32f3x0_wwdgt.c **** 
  14:../../../support/device/gd32f3x0/peripherals/src/gd32f3x0_wwdgt.c ****     Redistribution and use in source and binary forms, with or without modification,
  15:../../../support/device/gd32f3x0/peripherals/src/gd32f3x0_wwdgt.c **** are permitted provided that the following conditions are met:
  16:../../../support/device/gd32f3x0/peripherals/src/gd32f3x0_wwdgt.c **** 
  17:../../../support/device/gd32f3x0/peripherals/src/gd32f3x0_wwdgt.c ****     1. Redistributions of source code must retain the above copyright notice, this
  18:../../../support/device/gd32f3x0/peripherals/src/gd32f3x0_wwdgt.c ****        list of conditions and the following disclaimer.
  19:../../../support/device/gd32f3x0/peripherals/src/gd32f3x0_wwdgt.c ****     2. Redistributions in binary form must reproduce the above copyright notice,
  20:../../../support/device/gd32f3x0/peripherals/src/gd32f3x0_wwdgt.c ****        this list of conditions and the following disclaimer in the documentation
  21:../../../support/device/gd32f3x0/peripherals/src/gd32f3x0_wwdgt.c ****        and/or other materials provided with the distribution.
  22:../../../support/device/gd32f3x0/peripherals/src/gd32f3x0_wwdgt.c ****     3. Neither the name of the copyright holder nor the names of its contributors
  23:../../../support/device/gd32f3x0/peripherals/src/gd32f3x0_wwdgt.c ****        may be used to endorse or promote products derived from this software without
  24:../../../support/device/gd32f3x0/peripherals/src/gd32f3x0_wwdgt.c ****        specific prior written permission.
  25:../../../support/device/gd32f3x0/peripherals/src/gd32f3x0_wwdgt.c **** 
  26:../../../support/device/gd32f3x0/peripherals/src/gd32f3x0_wwdgt.c ****     THIS SOFTWARE IS PROVIDED BY THE COPYRIGHT HOLDERS AND CONTRIBUTORS "AS IS"
  27:../../../support/device/gd32f3x0/peripherals/src/gd32f3x0_wwdgt.c **** AND ANY EXPRESS OR IMPLIED WARRANTIES, INCLUDING, BUT NOT LIMITED TO, THE IMPLIED
  28:../../../support/device/gd32f3x0/peripherals/src/gd32f3x0_wwdgt.c **** WARRANTIES OF MERCHANTABILITY AND FITNESS FOR A PARTICULAR PURPOSE ARE DISCLAIMED.
  29:../../../support/device/gd32f3x0/peripherals/src/gd32f3x0_wwdgt.c **** IN NO EVENT SHALL THE COPYRIGHT HOLDER OR CONTRIBUTORS BE LIABLE FOR ANY DIRECT,
  30:../../../support/device/gd32f3x0/peripherals/src/gd32f3x0_wwdgt.c **** INDIRECT, INCIDENTAL, SPECIAL, EXEMPLARY, OR CONSEQUENTIAL DAMAGES (INCLUDING, BUT
  31:../../../support/device/gd32f3x0/peripherals/src/gd32f3x0_wwdgt.c **** NOT LIMITED TO, PROCUREMENT OF SUBSTITUTE GOODS OR SERVICES; LOSS OF USE, DATA, OR
  32:../../../support/device/gd32f3x0/peripherals/src/gd32f3x0_wwdgt.c **** PROFITS; OR BUSINESS INTERRUPTION) HOWEVER CAUSED AND ON ANY THEORY OF LIABILITY,
ARM GAS  /var/folders/_f/88qcw_5n2jl40jjphvxyt7wh0000gn/T//ccLrzvpQ.s 			page 2


  33:../../../support/device/gd32f3x0/peripherals/src/gd32f3x0_wwdgt.c **** WHETHER IN CONTRACT, STRICT LIABILITY, OR TORT (INCLUDING NEGLIGENCE OR OTHERWISE)
  34:../../../support/device/gd32f3x0/peripherals/src/gd32f3x0_wwdgt.c **** ARISING IN ANY WAY OUT OF THE USE OF THIS SOFTWARE, EVEN IF ADVISED OF THE POSSIBILITY
  35:../../../support/device/gd32f3x0/peripherals/src/gd32f3x0_wwdgt.c **** OF SUCH DAMAGE.
  36:../../../support/device/gd32f3x0/peripherals/src/gd32f3x0_wwdgt.c **** */
  37:../../../support/device/gd32f3x0/peripherals/src/gd32f3x0_wwdgt.c **** 
  38:../../../support/device/gd32f3x0/peripherals/src/gd32f3x0_wwdgt.c **** #include "gd32f3x0_wwdgt.h"
  39:../../../support/device/gd32f3x0/peripherals/src/gd32f3x0_wwdgt.c **** #include "gd32f3x0_rcu.h"
  40:../../../support/device/gd32f3x0/peripherals/src/gd32f3x0_wwdgt.c **** 
  41:../../../support/device/gd32f3x0/peripherals/src/gd32f3x0_wwdgt.c **** /*!
  42:../../../support/device/gd32f3x0/peripherals/src/gd32f3x0_wwdgt.c ****     \brief      reset the window watchdog timer configuration
  43:../../../support/device/gd32f3x0/peripherals/src/gd32f3x0_wwdgt.c ****     \param[in]  none
  44:../../../support/device/gd32f3x0/peripherals/src/gd32f3x0_wwdgt.c ****     \param[out] none
  45:../../../support/device/gd32f3x0/peripherals/src/gd32f3x0_wwdgt.c ****     \retval     none
  46:../../../support/device/gd32f3x0/peripherals/src/gd32f3x0_wwdgt.c **** */
  47:../../../support/device/gd32f3x0/peripherals/src/gd32f3x0_wwdgt.c **** void wwdgt_deinit(void)
  48:../../../support/device/gd32f3x0/peripherals/src/gd32f3x0_wwdgt.c **** {
  27              		.loc 1 48 1 view -0
  28              		.cfi_startproc
  29              		@ args = 0, pretend = 0, frame = 0
  30              		@ frame_needed = 0, uses_anonymous_args = 0
  31 0000 08B5     		push	{r3, lr}
  32              	.LCFI0:
  33              		.cfi_def_cfa_offset 8
  34              		.cfi_offset 3, -8
  35              		.cfi_offset 14, -4
  49:../../../support/device/gd32f3x0/peripherals/src/gd32f3x0_wwdgt.c ****     rcu_periph_reset_enable(RCU_WWDGTRST);
  36              		.loc 1 49 5 view .LVU1
  37 0002 40F20B40 		movw	r0, #1035
  38 0006 FFF7FEFF 		bl	rcu_periph_reset_enable
  39              	.LVL0:
  50:../../../support/device/gd32f3x0/peripherals/src/gd32f3x0_wwdgt.c ****     rcu_periph_reset_disable(RCU_WWDGTRST);
  40              		.loc 1 50 5 view .LVU2
  41 000a 40F20B40 		movw	r0, #1035
  42 000e FFF7FEFF 		bl	rcu_periph_reset_disable
  43              	.LVL1:
  51:../../../support/device/gd32f3x0/peripherals/src/gd32f3x0_wwdgt.c **** }
  44              		.loc 1 51 1 is_stmt 0 view .LVU3
  45 0012 08BD     		pop	{r3, pc}
  46              		.cfi_endproc
  47              	.LFE116:
  49              		.section	.text.wwdgt_enable,"ax",%progbits
  50              		.align	1
  51              		.global	wwdgt_enable
  52              		.syntax unified
  53              		.thumb
  54              		.thumb_func
  56              	wwdgt_enable:
  57              	.LFB117:
  52:../../../support/device/gd32f3x0/peripherals/src/gd32f3x0_wwdgt.c **** 
  53:../../../support/device/gd32f3x0/peripherals/src/gd32f3x0_wwdgt.c **** /*!
  54:../../../support/device/gd32f3x0/peripherals/src/gd32f3x0_wwdgt.c ****     \brief      start the window watchdog timer counter
  55:../../../support/device/gd32f3x0/peripherals/src/gd32f3x0_wwdgt.c ****     \param[in]  none
  56:../../../support/device/gd32f3x0/peripherals/src/gd32f3x0_wwdgt.c ****     \param[out] none
  57:../../../support/device/gd32f3x0/peripherals/src/gd32f3x0_wwdgt.c ****     \retval     none
  58:../../../support/device/gd32f3x0/peripherals/src/gd32f3x0_wwdgt.c **** */
  59:../../../support/device/gd32f3x0/peripherals/src/gd32f3x0_wwdgt.c **** void wwdgt_enable(void)
  60:../../../support/device/gd32f3x0/peripherals/src/gd32f3x0_wwdgt.c **** {
ARM GAS  /var/folders/_f/88qcw_5n2jl40jjphvxyt7wh0000gn/T//ccLrzvpQ.s 			page 3


  58              		.loc 1 60 1 is_stmt 1 view -0
  59              		.cfi_startproc
  60              		@ args = 0, pretend = 0, frame = 0
  61              		@ frame_needed = 0, uses_anonymous_args = 0
  62              		@ link register save eliminated.
  61:../../../support/device/gd32f3x0/peripherals/src/gd32f3x0_wwdgt.c ****     WWDGT_CTL |= WWDGT_CTL_WDGTEN;
  63              		.loc 1 61 5 view .LVU5
  64              		.loc 1 61 15 is_stmt 0 view .LVU6
  65 0000 034A     		ldr	r2, .L4
  66 0002 D2F8003C 		ldr	r3, [r2, #3072]
  67 0006 43F08003 		orr	r3, r3, #128
  68 000a C2F8003C 		str	r3, [r2, #3072]
  62:../../../support/device/gd32f3x0/peripherals/src/gd32f3x0_wwdgt.c **** }
  69              		.loc 1 62 1 view .LVU7
  70 000e 7047     		bx	lr
  71              	.L5:
  72              		.align	2
  73              	.L4:
  74 0010 00200040 		.word	1073750016
  75              		.cfi_endproc
  76              	.LFE117:
  78              		.section	.text.wwdgt_counter_update,"ax",%progbits
  79              		.align	1
  80              		.global	wwdgt_counter_update
  81              		.syntax unified
  82              		.thumb
  83              		.thumb_func
  85              	wwdgt_counter_update:
  86              	.LVL2:
  87              	.LFB118:
  63:../../../support/device/gd32f3x0/peripherals/src/gd32f3x0_wwdgt.c **** 
  64:../../../support/device/gd32f3x0/peripherals/src/gd32f3x0_wwdgt.c **** /*!
  65:../../../support/device/gd32f3x0/peripherals/src/gd32f3x0_wwdgt.c ****     \brief      configure the window watchdog timer counter value
  66:../../../support/device/gd32f3x0/peripherals/src/gd32f3x0_wwdgt.c ****     \param[in]  counter_value: 0x00 - 0x7F
  67:../../../support/device/gd32f3x0/peripherals/src/gd32f3x0_wwdgt.c ****     \param[out] none
  68:../../../support/device/gd32f3x0/peripherals/src/gd32f3x0_wwdgt.c ****     \retval     none
  69:../../../support/device/gd32f3x0/peripherals/src/gd32f3x0_wwdgt.c **** */
  70:../../../support/device/gd32f3x0/peripherals/src/gd32f3x0_wwdgt.c **** void wwdgt_counter_update(uint16_t counter_value)
  71:../../../support/device/gd32f3x0/peripherals/src/gd32f3x0_wwdgt.c **** {
  88              		.loc 1 71 1 is_stmt 1 view -0
  89              		.cfi_startproc
  90              		@ args = 0, pretend = 0, frame = 0
  91              		@ frame_needed = 0, uses_anonymous_args = 0
  92              		@ link register save eliminated.
  72:../../../support/device/gd32f3x0/peripherals/src/gd32f3x0_wwdgt.c ****     WWDGT_CTL = (uint32_t)(CTL_CNT(counter_value));
  93              		.loc 1 72 5 view .LVU9
  94              		.loc 1 72 17 is_stmt 0 view .LVU10
  95 0000 00F07F00 		and	r0, r0, #127
  96              	.LVL3:
  97              		.loc 1 72 15 view .LVU11
  98 0004 014B     		ldr	r3, .L7
  99 0006 C3F8000C 		str	r0, [r3, #3072]
  73:../../../support/device/gd32f3x0/peripherals/src/gd32f3x0_wwdgt.c **** }
 100              		.loc 1 73 1 view .LVU12
 101 000a 7047     		bx	lr
 102              	.L8:
 103              		.align	2
ARM GAS  /var/folders/_f/88qcw_5n2jl40jjphvxyt7wh0000gn/T//ccLrzvpQ.s 			page 4


 104              	.L7:
 105 000c 00200040 		.word	1073750016
 106              		.cfi_endproc
 107              	.LFE118:
 109              		.section	.text.wwdgt_config,"ax",%progbits
 110              		.align	1
 111              		.global	wwdgt_config
 112              		.syntax unified
 113              		.thumb
 114              		.thumb_func
 116              	wwdgt_config:
 117              	.LVL4:
 118              	.LFB119:
  74:../../../support/device/gd32f3x0/peripherals/src/gd32f3x0_wwdgt.c **** 
  75:../../../support/device/gd32f3x0/peripherals/src/gd32f3x0_wwdgt.c **** /*!
  76:../../../support/device/gd32f3x0/peripherals/src/gd32f3x0_wwdgt.c ****     \brief      configure counter value, window value, and prescaler divider value
  77:../../../support/device/gd32f3x0/peripherals/src/gd32f3x0_wwdgt.c ****     \param[in]  counter: 0x00 - 0x7F
  78:../../../support/device/gd32f3x0/peripherals/src/gd32f3x0_wwdgt.c ****     \param[in]  window: 0x00 - 0x7F
  79:../../../support/device/gd32f3x0/peripherals/src/gd32f3x0_wwdgt.c ****     \param[in]  prescaler: wwdgt prescaler value
  80:../../../support/device/gd32f3x0/peripherals/src/gd32f3x0_wwdgt.c ****                 only one parameter can be selected which is shown as below:
  81:../../../support/device/gd32f3x0/peripherals/src/gd32f3x0_wwdgt.c ****       \arg        WWDGT_CFG_PSC_DIV1: the time base of window watchdog counter = (PCLK1/4096)/1
  82:../../../support/device/gd32f3x0/peripherals/src/gd32f3x0_wwdgt.c ****       \arg        WWDGT_CFG_PSC_DIV2: the time base of window watchdog counter = (PCLK1/4096)/2
  83:../../../support/device/gd32f3x0/peripherals/src/gd32f3x0_wwdgt.c ****       \arg        WWDGT_CFG_PSC_DIV4: the time base of window watchdog counter = (PCLK1/4096)/4
  84:../../../support/device/gd32f3x0/peripherals/src/gd32f3x0_wwdgt.c ****       \arg        WWDGT_CFG_PSC_DIV8: the time base of window watchdog counter = (PCLK1/4096)/8
  85:../../../support/device/gd32f3x0/peripherals/src/gd32f3x0_wwdgt.c ****     \param[out] none
  86:../../../support/device/gd32f3x0/peripherals/src/gd32f3x0_wwdgt.c ****     \retval     none
  87:../../../support/device/gd32f3x0/peripherals/src/gd32f3x0_wwdgt.c **** */
  88:../../../support/device/gd32f3x0/peripherals/src/gd32f3x0_wwdgt.c **** void wwdgt_config(uint16_t counter, uint16_t window, uint32_t prescaler)
  89:../../../support/device/gd32f3x0/peripherals/src/gd32f3x0_wwdgt.c **** {
 119              		.loc 1 89 1 is_stmt 1 view -0
 120              		.cfi_startproc
 121              		@ args = 0, pretend = 0, frame = 0
 122              		@ frame_needed = 0, uses_anonymous_args = 0
 123              		@ link register save eliminated.
  90:../../../support/device/gd32f3x0/peripherals/src/gd32f3x0_wwdgt.c ****     WWDGT_CTL = (uint32_t)(CTL_CNT(counter));
 124              		.loc 1 90 5 view .LVU14
 125              		.loc 1 90 17 is_stmt 0 view .LVU15
 126 0000 00F07F00 		and	r0, r0, #127
 127              	.LVL5:
 128              		.loc 1 90 15 view .LVU16
 129 0004 044B     		ldr	r3, .L10
 130 0006 C3F8000C 		str	r0, [r3, #3072]
  91:../../../support/device/gd32f3x0/peripherals/src/gd32f3x0_wwdgt.c ****     WWDGT_CFG = (uint32_t)(CFG_WIN(window) | prescaler);
 131              		.loc 1 91 5 is_stmt 1 view .LVU17
 132              		.loc 1 91 28 is_stmt 0 view .LVU18
 133 000a 01F07F01 		and	r1, r1, #127
 134              	.LVL6:
 135              		.loc 1 91 17 view .LVU19
 136 000e 1143     		orrs	r1, r1, r2
 137              		.loc 1 91 15 view .LVU20
 138 0010 C3F8041C 		str	r1, [r3, #3076]
  92:../../../support/device/gd32f3x0/peripherals/src/gd32f3x0_wwdgt.c **** }
 139              		.loc 1 92 1 view .LVU21
 140 0014 7047     		bx	lr
 141              	.L11:
 142 0016 00BF     		.align	2
 143              	.L10:
ARM GAS  /var/folders/_f/88qcw_5n2jl40jjphvxyt7wh0000gn/T//ccLrzvpQ.s 			page 5


 144 0018 00200040 		.word	1073750016
 145              		.cfi_endproc
 146              	.LFE119:
 148              		.section	.text.wwdgt_flag_get,"ax",%progbits
 149              		.align	1
 150              		.global	wwdgt_flag_get
 151              		.syntax unified
 152              		.thumb
 153              		.thumb_func
 155              	wwdgt_flag_get:
 156              	.LFB120:
  93:../../../support/device/gd32f3x0/peripherals/src/gd32f3x0_wwdgt.c **** 
  94:../../../support/device/gd32f3x0/peripherals/src/gd32f3x0_wwdgt.c **** /*!
  95:../../../support/device/gd32f3x0/peripherals/src/gd32f3x0_wwdgt.c ****     \brief      check early wakeup interrupt state of WWDGT
  96:../../../support/device/gd32f3x0/peripherals/src/gd32f3x0_wwdgt.c ****     \param[in]  none
  97:../../../support/device/gd32f3x0/peripherals/src/gd32f3x0_wwdgt.c ****     \param[out] none
  98:../../../support/device/gd32f3x0/peripherals/src/gd32f3x0_wwdgt.c ****     \retval     FlagStatus: SET or RESET
  99:../../../support/device/gd32f3x0/peripherals/src/gd32f3x0_wwdgt.c **** */
 100:../../../support/device/gd32f3x0/peripherals/src/gd32f3x0_wwdgt.c **** FlagStatus wwdgt_flag_get(void)
 101:../../../support/device/gd32f3x0/peripherals/src/gd32f3x0_wwdgt.c **** {
 157              		.loc 1 101 1 is_stmt 1 view -0
 158              		.cfi_startproc
 159              		@ args = 0, pretend = 0, frame = 0
 160              		@ frame_needed = 0, uses_anonymous_args = 0
 161              		@ link register save eliminated.
 102:../../../support/device/gd32f3x0/peripherals/src/gd32f3x0_wwdgt.c ****     if(WWDGT_STAT & WWDGT_STAT_EWIF) {
 162              		.loc 1 102 5 view .LVU23
 163              		.loc 1 102 8 is_stmt 0 view .LVU24
 164 0000 044B     		ldr	r3, .L15
 165 0002 D3F8083C 		ldr	r3, [r3, #3080]
 166              		.loc 1 102 7 view .LVU25
 167 0006 13F0010F 		tst	r3, #1
 168 000a 01D1     		bne	.L14
 103:../../../support/device/gd32f3x0/peripherals/src/gd32f3x0_wwdgt.c ****         return SET;
 104:../../../support/device/gd32f3x0/peripherals/src/gd32f3x0_wwdgt.c ****     }
 105:../../../support/device/gd32f3x0/peripherals/src/gd32f3x0_wwdgt.c ****     return RESET;
 169              		.loc 1 105 12 view .LVU26
 170 000c 0020     		movs	r0, #0
 171 000e 7047     		bx	lr
 172              	.L14:
 103:../../../support/device/gd32f3x0/peripherals/src/gd32f3x0_wwdgt.c ****         return SET;
 173              		.loc 1 103 16 view .LVU27
 174 0010 0120     		movs	r0, #1
 106:../../../support/device/gd32f3x0/peripherals/src/gd32f3x0_wwdgt.c **** }
 175              		.loc 1 106 1 view .LVU28
 176 0012 7047     		bx	lr
 177              	.L16:
 178              		.align	2
 179              	.L15:
 180 0014 00200040 		.word	1073750016
 181              		.cfi_endproc
 182              	.LFE120:
 184              		.section	.text.wwdgt_flag_clear,"ax",%progbits
 185              		.align	1
 186              		.global	wwdgt_flag_clear
 187              		.syntax unified
 188              		.thumb
ARM GAS  /var/folders/_f/88qcw_5n2jl40jjphvxyt7wh0000gn/T//ccLrzvpQ.s 			page 6


 189              		.thumb_func
 191              	wwdgt_flag_clear:
 192              	.LFB121:
 107:../../../support/device/gd32f3x0/peripherals/src/gd32f3x0_wwdgt.c **** 
 108:../../../support/device/gd32f3x0/peripherals/src/gd32f3x0_wwdgt.c **** /*!
 109:../../../support/device/gd32f3x0/peripherals/src/gd32f3x0_wwdgt.c ****     \brief      clear early wakeup interrupt state of WWDGT
 110:../../../support/device/gd32f3x0/peripherals/src/gd32f3x0_wwdgt.c ****     \param[in]  none
 111:../../../support/device/gd32f3x0/peripherals/src/gd32f3x0_wwdgt.c ****     \param[out] none
 112:../../../support/device/gd32f3x0/peripherals/src/gd32f3x0_wwdgt.c ****     \retval     none
 113:../../../support/device/gd32f3x0/peripherals/src/gd32f3x0_wwdgt.c **** */
 114:../../../support/device/gd32f3x0/peripherals/src/gd32f3x0_wwdgt.c **** void wwdgt_flag_clear(void)
 115:../../../support/device/gd32f3x0/peripherals/src/gd32f3x0_wwdgt.c **** {
 193              		.loc 1 115 1 is_stmt 1 view -0
 194              		.cfi_startproc
 195              		@ args = 0, pretend = 0, frame = 0
 196              		@ frame_needed = 0, uses_anonymous_args = 0
 197              		@ link register save eliminated.
 116:../../../support/device/gd32f3x0/peripherals/src/gd32f3x0_wwdgt.c ****     WWDGT_STAT = (uint32_t)(RESET);
 198              		.loc 1 116 5 view .LVU30
 199              		.loc 1 116 16 is_stmt 0 view .LVU31
 200 0000 024B     		ldr	r3, .L18
 201 0002 0022     		movs	r2, #0
 202 0004 C3F8082C 		str	r2, [r3, #3080]
 117:../../../support/device/gd32f3x0/peripherals/src/gd32f3x0_wwdgt.c **** }
 203              		.loc 1 117 1 view .LVU32
 204 0008 7047     		bx	lr
 205              	.L19:
 206 000a 00BF     		.align	2
 207              	.L18:
 208 000c 00200040 		.word	1073750016
 209              		.cfi_endproc
 210              	.LFE121:
 212              		.section	.text.wwdgt_interrupt_enable,"ax",%progbits
 213              		.align	1
 214              		.global	wwdgt_interrupt_enable
 215              		.syntax unified
 216              		.thumb
 217              		.thumb_func
 219              	wwdgt_interrupt_enable:
 220              	.LFB122:
 118:../../../support/device/gd32f3x0/peripherals/src/gd32f3x0_wwdgt.c **** 
 119:../../../support/device/gd32f3x0/peripherals/src/gd32f3x0_wwdgt.c **** /*!
 120:../../../support/device/gd32f3x0/peripherals/src/gd32f3x0_wwdgt.c ****     \brief      enable early wakeup interrupt of WWDGT
 121:../../../support/device/gd32f3x0/peripherals/src/gd32f3x0_wwdgt.c ****     \param[in]  none
 122:../../../support/device/gd32f3x0/peripherals/src/gd32f3x0_wwdgt.c ****     \param[out] none
 123:../../../support/device/gd32f3x0/peripherals/src/gd32f3x0_wwdgt.c ****     \retval     none
 124:../../../support/device/gd32f3x0/peripherals/src/gd32f3x0_wwdgt.c **** */
 125:../../../support/device/gd32f3x0/peripherals/src/gd32f3x0_wwdgt.c **** void wwdgt_interrupt_enable(void)
 126:../../../support/device/gd32f3x0/peripherals/src/gd32f3x0_wwdgt.c **** {
 221              		.loc 1 126 1 is_stmt 1 view -0
 222              		.cfi_startproc
 223              		@ args = 0, pretend = 0, frame = 0
 224              		@ frame_needed = 0, uses_anonymous_args = 0
 225              		@ link register save eliminated.
 127:../../../support/device/gd32f3x0/peripherals/src/gd32f3x0_wwdgt.c ****     WWDGT_CFG |= WWDGT_CFG_EWIE;
 226              		.loc 1 127 5 view .LVU34
 227              		.loc 1 127 15 is_stmt 0 view .LVU35
ARM GAS  /var/folders/_f/88qcw_5n2jl40jjphvxyt7wh0000gn/T//ccLrzvpQ.s 			page 7


 228 0000 034A     		ldr	r2, .L21
 229 0002 D2F8043C 		ldr	r3, [r2, #3076]
 230 0006 43F40073 		orr	r3, r3, #512
 231 000a C2F8043C 		str	r3, [r2, #3076]
 128:../../../support/device/gd32f3x0/peripherals/src/gd32f3x0_wwdgt.c **** }
 232              		.loc 1 128 1 view .LVU36
 233 000e 7047     		bx	lr
 234              	.L22:
 235              		.align	2
 236              	.L21:
 237 0010 00200040 		.word	1073750016
 238              		.cfi_endproc
 239              	.LFE122:
 241              		.text
 242              	.Letext0:
 243              		.file 2 "/Applications/ARM/arm-none-eabi/include/machine/_default_types.h"
 244              		.file 3 "/Applications/ARM/arm-none-eabi/include/sys/_stdint.h"
 245              		.file 4 "../../../support/device/gd32f3x0/inc/gd32f3x0.h"
 246              		.file 5 "../../../support/device/gd32f3x0/peripherals/inc/gd32f3x0_rcu.h"
ARM GAS  /var/folders/_f/88qcw_5n2jl40jjphvxyt7wh0000gn/T//ccLrzvpQ.s 			page 8

