ARM GAS  /var/folders/_f/88qcw_5n2jl40jjphvxyt7wh0000gn/T//cc4mKIyP.s 			page 1


   1              		.cpu cortex-m4
   2              		.arch armv7e-m
   3              		.fpu softvfp
   4              		.eabi_attribute 20, 1
   5              		.eabi_attribute 21, 1
   6              		.eabi_attribute 23, 3
   7              		.eabi_attribute 24, 1
   8              		.eabi_attribute 25, 1
   9              		.eabi_attribute 26, 1
  10              		.eabi_attribute 30, 1
  11              		.eabi_attribute 34, 1
  12              		.eabi_attribute 18, 4
  13              		.file	"gpio.c"
  14              		.text
  15              	.Ltext0:
  16              		.cfi_sections	.debug_frame
  17              		.section	.text.pin_init_output,"ax",%progbits
  18              		.align	1
  19              		.global	pin_init_output
  20              		.syntax unified
  21              		.thumb
  22              		.thumb_func
  24              	pin_init_output:
  25              	.LFB116:
  26              		.file 1 "gpio.c"
   1:gpio.c        **** #include "gpio.h"
   2:gpio.c        **** 
   3:gpio.c        **** pin di_1 = {GPIOB, GPIO_PIN_4};
   4:gpio.c        **** pin di_2 = {GPIOB, GPIO_PIN_7};
   5:gpio.c        **** pin di_3 = {GPIOB, GPIO_PIN_6};
   6:gpio.c        **** pin di_4 = {GPIOB, GPIO_PIN_5};
   7:gpio.c        **** pin dim_1 = {GPIOA, GPIO_PIN_9};
   8:gpio.c        **** pin dim_4 = {GPIOA, GPIO_PIN_12};
   9:gpio.c        **** pin rede = {GPIOA, GPIO_PIN_4};
  10:gpio.c        **** pin one_wire = {GPIOA, GPIO_PIN_15};
  11:gpio.c        **** 
  12:gpio.c        **** void pin_init_output(pin x) {
  27              		.loc 1 12 29 view -0
  28              		.cfi_startproc
  29              		@ args = 0, pretend = 0, frame = 8
  30              		@ frame_needed = 0, uses_anonymous_args = 0
  31 0000 30B5     		push	{r4, r5, lr}
  32              	.LCFI0:
  33              		.cfi_def_cfa_offset 12
  34              		.cfi_offset 4, -12
  35              		.cfi_offset 5, -8
  36              		.cfi_offset 14, -4
  37 0002 83B0     		sub	sp, sp, #12
  38              	.LCFI1:
  39              		.cfi_def_cfa_offset 24
  40 0004 02AB     		add	r3, sp, #8
  41 0006 03E90300 		stmdb	r3, {r0, r1}
  13:gpio.c        ****   gpio_mode_set(x.port, GPIO_MODE_OUTPUT, GPIO_PUPD_NONE, x.num);
  42              		.loc 1 13 3 view .LVU1
  43 000a 0446     		mov	r4, r0
  44 000c 0D46     		mov	r5, r1
  45 000e 0B46     		mov	r3, r1
ARM GAS  /var/folders/_f/88qcw_5n2jl40jjphvxyt7wh0000gn/T//cc4mKIyP.s 			page 2


  46 0010 0022     		movs	r2, #0
  47 0012 0121     		movs	r1, #1
  48 0014 FFF7FEFF 		bl	gpio_mode_set
  49              	.LVL0:
  14:gpio.c        ****   gpio_output_options_set(x.port, GPIO_OTYPE_PP, GPIO_OSPEED_50MHZ, x.num);
  50              		.loc 1 14 3 view .LVU2
  51 0018 2B46     		mov	r3, r5
  52 001a 0322     		movs	r2, #3
  53 001c 0021     		movs	r1, #0
  54 001e 2046     		mov	r0, r4
  55 0020 FFF7FEFF 		bl	gpio_output_options_set
  56              	.LVL1:
  15:gpio.c        **** }
  57              		.loc 1 15 1 is_stmt 0 view .LVU3
  58 0024 03B0     		add	sp, sp, #12
  59              	.LCFI2:
  60              		.cfi_def_cfa_offset 12
  61              		@ sp needed
  62 0026 30BD     		pop	{r4, r5, pc}
  63              		.cfi_endproc
  64              	.LFE116:
  66              		.section	.text.pin_init_output_OD,"ax",%progbits
  67              		.align	1
  68              		.global	pin_init_output_OD
  69              		.syntax unified
  70              		.thumb
  71              		.thumb_func
  73              	pin_init_output_OD:
  74              	.LFB117:
  16:gpio.c        **** 
  17:gpio.c        **** void pin_init_output_OD(pin x) {
  75              		.loc 1 17 32 is_stmt 1 view -0
  76              		.cfi_startproc
  77              		@ args = 0, pretend = 0, frame = 8
  78              		@ frame_needed = 0, uses_anonymous_args = 0
  79 0000 30B5     		push	{r4, r5, lr}
  80              	.LCFI3:
  81              		.cfi_def_cfa_offset 12
  82              		.cfi_offset 4, -12
  83              		.cfi_offset 5, -8
  84              		.cfi_offset 14, -4
  85 0002 83B0     		sub	sp, sp, #12
  86              	.LCFI4:
  87              		.cfi_def_cfa_offset 24
  88 0004 02AB     		add	r3, sp, #8
  89 0006 03E90300 		stmdb	r3, {r0, r1}
  18:gpio.c        ****   gpio_mode_set(x.port, GPIO_MODE_OUTPUT, GPIO_PUPD_NONE, x.num);
  90              		.loc 1 18 3 view .LVU5
  91 000a 0446     		mov	r4, r0
  92 000c 0D46     		mov	r5, r1
  93 000e 0B46     		mov	r3, r1
  94 0010 0022     		movs	r2, #0
  95 0012 0121     		movs	r1, #1
  96 0014 FFF7FEFF 		bl	gpio_mode_set
  97              	.LVL2:
  19:gpio.c        ****   gpio_output_options_set(x.port, GPIO_OTYPE_OD, GPIO_OSPEED_MAX, x.num);
  98              		.loc 1 19 3 view .LVU6
ARM GAS  /var/folders/_f/88qcw_5n2jl40jjphvxyt7wh0000gn/T//cc4mKIyP.s 			page 3


  99 0018 2B46     		mov	r3, r5
 100 001a 4FF6FF72 		movw	r2, #65535
 101 001e 0121     		movs	r1, #1
 102 0020 2046     		mov	r0, r4
 103 0022 FFF7FEFF 		bl	gpio_output_options_set
 104              	.LVL3:
  20:gpio.c        **** }
 105              		.loc 1 20 1 is_stmt 0 view .LVU7
 106 0026 03B0     		add	sp, sp, #12
 107              	.LCFI5:
 108              		.cfi_def_cfa_offset 12
 109              		@ sp needed
 110 0028 30BD     		pop	{r4, r5, pc}
 111              		.cfi_endproc
 112              	.LFE117:
 114              		.section	.text.pin_init_input,"ax",%progbits
 115              		.align	1
 116              		.global	pin_init_input
 117              		.syntax unified
 118              		.thumb
 119              		.thumb_func
 121              	pin_init_input:
 122              	.LFB118:
  21:gpio.c        **** 
  22:gpio.c        **** void pin_init_input(pin x) {
 123              		.loc 1 22 28 is_stmt 1 view -0
 124              		.cfi_startproc
 125              		@ args = 0, pretend = 0, frame = 8
 126              		@ frame_needed = 0, uses_anonymous_args = 0
 127 0000 00B5     		push	{lr}
 128              	.LCFI6:
 129              		.cfi_def_cfa_offset 4
 130              		.cfi_offset 14, -4
 131 0002 83B0     		sub	sp, sp, #12
 132              	.LCFI7:
 133              		.cfi_def_cfa_offset 16
 134 0004 02AB     		add	r3, sp, #8
 135 0006 03E90300 		stmdb	r3, {r0, r1}
  23:gpio.c        ****   gpio_mode_set(x.port, GPIO_MODE_INPUT, GPIO_PUPD_PULLUP, x.num);
 136              		.loc 1 23 3 view .LVU9
 137 000a 0B46     		mov	r3, r1
 138 000c 0122     		movs	r2, #1
 139 000e 0021     		movs	r1, #0
 140 0010 FFF7FEFF 		bl	gpio_mode_set
 141              	.LVL4:
  24:gpio.c        **** }
 142              		.loc 1 24 1 is_stmt 0 view .LVU10
 143 0014 03B0     		add	sp, sp, #12
 144              	.LCFI8:
 145              		.cfi_def_cfa_offset 4
 146              		@ sp needed
 147 0016 5DF804FB 		ldr	pc, [sp], #4
 148              		.cfi_endproc
 149              	.LFE118:
 151              		.section	.text.pin_toggle,"ax",%progbits
 152              		.align	1
 153              		.global	pin_toggle
ARM GAS  /var/folders/_f/88qcw_5n2jl40jjphvxyt7wh0000gn/T//cc4mKIyP.s 			page 4


 154              		.syntax unified
 155              		.thumb
 156              		.thumb_func
 158              	pin_toggle:
 159              	.LFB119:
  25:gpio.c        **** 
  26:gpio.c        **** void pin_toggle(pin x) { gpio_bit_toggle(x.port, x.num); }
 160              		.loc 1 26 24 is_stmt 1 view -0
 161              		.cfi_startproc
 162              		@ args = 0, pretend = 0, frame = 8
 163              		@ frame_needed = 0, uses_anonymous_args = 0
 164 0000 00B5     		push	{lr}
 165              	.LCFI9:
 166              		.cfi_def_cfa_offset 4
 167              		.cfi_offset 14, -4
 168 0002 83B0     		sub	sp, sp, #12
 169              	.LCFI10:
 170              		.cfi_def_cfa_offset 16
 171 0004 02AB     		add	r3, sp, #8
 172 0006 03E90300 		stmdb	r3, {r0, r1}
 173              		.loc 1 26 26 view .LVU12
 174 000a FFF7FEFF 		bl	gpio_bit_toggle
 175              	.LVL5:
 176              		.loc 1 26 58 is_stmt 0 view .LVU13
 177 000e 03B0     		add	sp, sp, #12
 178              	.LCFI11:
 179              		.cfi_def_cfa_offset 4
 180              		@ sp needed
 181 0010 5DF804FB 		ldr	pc, [sp], #4
 182              		.cfi_endproc
 183              	.LFE119:
 185              		.section	.text.pin_set,"ax",%progbits
 186              		.align	1
 187              		.global	pin_set
 188              		.syntax unified
 189              		.thumb
 190              		.thumb_func
 192              	pin_set:
 193              	.LFB120:
  27:gpio.c        **** void pin_set(pin x) { gpio_bit_set(x.port, x.num); }
 194              		.loc 1 27 21 is_stmt 1 view -0
 195              		.cfi_startproc
 196              		@ args = 0, pretend = 0, frame = 8
 197              		@ frame_needed = 0, uses_anonymous_args = 0
 198 0000 00B5     		push	{lr}
 199              	.LCFI12:
 200              		.cfi_def_cfa_offset 4
 201              		.cfi_offset 14, -4
 202 0002 83B0     		sub	sp, sp, #12
 203              	.LCFI13:
 204              		.cfi_def_cfa_offset 16
 205 0004 02AB     		add	r3, sp, #8
 206 0006 03E90300 		stmdb	r3, {r0, r1}
 207              		.loc 1 27 23 view .LVU15
 208 000a FFF7FEFF 		bl	gpio_bit_set
 209              	.LVL6:
 210              		.loc 1 27 52 is_stmt 0 view .LVU16
ARM GAS  /var/folders/_f/88qcw_5n2jl40jjphvxyt7wh0000gn/T//cc4mKIyP.s 			page 5


 211 000e 03B0     		add	sp, sp, #12
 212              	.LCFI14:
 213              		.cfi_def_cfa_offset 4
 214              		@ sp needed
 215 0010 5DF804FB 		ldr	pc, [sp], #4
 216              		.cfi_endproc
 217              	.LFE120:
 219              		.section	.text.pin_reset,"ax",%progbits
 220              		.align	1
 221              		.global	pin_reset
 222              		.syntax unified
 223              		.thumb
 224              		.thumb_func
 226              	pin_reset:
 227              	.LFB121:
  28:gpio.c        **** void pin_reset(pin x) { gpio_bit_reset(x.port, x.num); }
 228              		.loc 1 28 23 is_stmt 1 view -0
 229              		.cfi_startproc
 230              		@ args = 0, pretend = 0, frame = 8
 231              		@ frame_needed = 0, uses_anonymous_args = 0
 232 0000 00B5     		push	{lr}
 233              	.LCFI15:
 234              		.cfi_def_cfa_offset 4
 235              		.cfi_offset 14, -4
 236 0002 83B0     		sub	sp, sp, #12
 237              	.LCFI16:
 238              		.cfi_def_cfa_offset 16
 239 0004 02AB     		add	r3, sp, #8
 240 0006 03E90300 		stmdb	r3, {r0, r1}
 241              		.loc 1 28 25 view .LVU18
 242 000a FFF7FEFF 		bl	gpio_bit_reset
 243              	.LVL7:
 244              		.loc 1 28 56 is_stmt 0 view .LVU19
 245 000e 03B0     		add	sp, sp, #12
 246              	.LCFI17:
 247              		.cfi_def_cfa_offset 4
 248              		@ sp needed
 249 0010 5DF804FB 		ldr	pc, [sp], #4
 250              		.cfi_endproc
 251              	.LFE121:
 253              		.section	.text.pin_get,"ax",%progbits
 254              		.align	1
 255              		.global	pin_get
 256              		.syntax unified
 257              		.thumb
 258              		.thumb_func
 260              	pin_get:
 261              	.LFB122:
  29:gpio.c        **** bool pin_get(pin x) { return gpio_input_bit_get(x.port, x.num); }...
 262              		.loc 1 29 21 is_stmt 1 view -0
 263              		.cfi_startproc
 264              		@ args = 0, pretend = 0, frame = 8
 265              		@ frame_needed = 0, uses_anonymous_args = 0
 266 0000 00B5     		push	{lr}
 267              	.LCFI18:
 268              		.cfi_def_cfa_offset 4
 269              		.cfi_offset 14, -4
ARM GAS  /var/folders/_f/88qcw_5n2jl40jjphvxyt7wh0000gn/T//cc4mKIyP.s 			page 6


 270 0002 83B0     		sub	sp, sp, #12
 271              	.LCFI19:
 272              		.cfi_def_cfa_offset 16
 273 0004 02AB     		add	r3, sp, #8
 274 0006 03E90300 		stmdb	r3, {r0, r1}
 275              		.loc 1 29 23 view .LVU21
 276              		.loc 1 29 30 is_stmt 0 view .LVU22
 277 000a FFF7FEFF 		bl	gpio_input_bit_get
 278              	.LVL8:
 279              		.loc 1 29 65 view .LVU23
 280 000e 0038     		subs	r0, r0, #0
 281 0010 18BF     		it	ne
 282 0012 0120     		movne	r0, #1
 283 0014 03B0     		add	sp, sp, #12
 284              	.LCFI20:
 285              		.cfi_def_cfa_offset 4
 286              		@ sp needed
 287 0016 5DF804FB 		ldr	pc, [sp], #4
 288              		.cfi_endproc
 289              	.LFE122:
 291              		.global	one_wire
 292              		.global	rede
 293              		.global	dim_4
 294              		.global	dim_1
 295              		.global	di_4
 296              		.global	di_3
 297              		.global	di_2
 298              		.global	di_1
 299              		.section	.data.di_1,"aw"
 300              		.align	2
 303              	di_1:
 304 0000 00040048 		.word	1207960576
 305 0004 10000000 		.word	16
 306              		.section	.data.di_2,"aw"
 307              		.align	2
 310              	di_2:
 311 0000 00040048 		.word	1207960576
 312 0004 80000000 		.word	128
 313              		.section	.data.di_3,"aw"
 314              		.align	2
 317              	di_3:
 318 0000 00040048 		.word	1207960576
 319 0004 40000000 		.word	64
 320              		.section	.data.di_4,"aw"
 321              		.align	2
 324              	di_4:
 325 0000 00040048 		.word	1207960576
 326 0004 20000000 		.word	32
 327              		.section	.data.dim_1,"aw"
 328              		.align	2
 331              	dim_1:
 332 0000 00000048 		.word	1207959552
 333 0004 00020000 		.word	512
 334              		.section	.data.dim_4,"aw"
 335              		.align	2
 338              	dim_4:
 339 0000 00000048 		.word	1207959552
ARM GAS  /var/folders/_f/88qcw_5n2jl40jjphvxyt7wh0000gn/T//cc4mKIyP.s 			page 7


 340 0004 00100000 		.word	4096
 341              		.section	.data.one_wire,"aw"
 342              		.align	2
 345              	one_wire:
 346 0000 00000048 		.word	1207959552
 347 0004 00800000 		.word	32768
 348              		.section	.data.rede,"aw"
 349              		.align	2
 352              	rede:
 353 0000 00000048 		.word	1207959552
 354 0004 10000000 		.word	16
 355              		.text
 356              	.Letext0:
 357              		.file 2 "/Applications/ARM/arm-none-eabi/include/machine/_default_types.h"
 358              		.file 3 "/Applications/ARM/arm-none-eabi/include/sys/_stdint.h"
 359              		.file 4 "../../../support/device/gd32f3x0/peripherals/inc/gd32f3x0_dbg.h"
 360              		.file 5 "../../../support/device/gd32f3x0/peripherals/inc/gd32f3x0_rcu.h"
 361              		.file 6 "../../../support/device/gd32f3x0/peripherals/inc/gd32f3x0_gpio.h"
 362              		.file 7 "gpio.h"
ARM GAS  /var/folders/_f/88qcw_5n2jl40jjphvxyt7wh0000gn/T//cc4mKIyP.s 			page 8

