ARM GAS  /var/folders/_f/88qcw_5n2jl40jjphvxyt7wh0000gn/T//ccsut5KR.s 			page 1


   1              		.cpu cortex-m4
   2              		.arch armv7e-m
   3              		.fpu softvfp
   4              		.eabi_attribute 20, 1
   5              		.eabi_attribute 21, 1
   6              		.eabi_attribute 23, 3
   7              		.eabi_attribute 24, 1
   8              		.eabi_attribute 25, 1
   9              		.eabi_attribute 26, 1
  10              		.eabi_attribute 30, 1
  11              		.eabi_attribute 34, 1
  12              		.eabi_attribute 18, 4
  13              		.file	"main.c"
  14              		.text
  15              	.Ltext0:
  16              		.cfi_sections	.debug_frame
  17              		.section	.text.main,"ax",%progbits
  18              		.align	1
  19              		.global	main
  20              		.syntax unified
  21              		.thumb
  22              		.thumb_func
  24              	main:
  25              	.LFB116:
  26              		.file 1 "main.c"
   1:main.c        **** #include <stdint.h>
   2:main.c        **** 
   3:main.c        **** #include "gd32f3x0.h"
   4:main.c        **** #include "gd32f3x0_rcu.h"
   5:main.c        **** #include "gpio.h"
   6:main.c        **** #include "sk6812.h"
   7:main.c        **** 
   8:main.c        **** extern pin di_1;
   9:main.c        **** extern pin di_2;
  10:main.c        **** extern pin di_3;
  11:main.c        **** extern pin di_4;
  12:main.c        **** 
  13:main.c        **** int main() {
  27              		.loc 1 13 12 view -0
  28              		.cfi_startproc
  29              		@ Volatile: function does not return.
  30              		@ args = 0, pretend = 0, frame = 0
  31              		@ frame_needed = 0, uses_anonymous_args = 0
  32 0000 08B5     		push	{r3, lr}
  33              	.LCFI0:
  34              		.cfi_def_cfa_offset 8
  35              		.cfi_offset 3, -8
  36              		.cfi_offset 14, -4
  14:main.c        ****   SystemInit();
  37              		.loc 1 14 3 view .LVU1
  38 0002 FFF7FEFF 		bl	SystemInit
  39              	.LVL0:
  15:main.c        ****   rcu_periph_clock_enable(RCU_GPIOA);
  40              		.loc 1 15 3 view .LVU2
  41 0006 40F21150 		movw	r0, #1297
  42 000a FFF7FEFF 		bl	rcu_periph_clock_enable
  43              	.LVL1:
ARM GAS  /var/folders/_f/88qcw_5n2jl40jjphvxyt7wh0000gn/T//ccsut5KR.s 			page 2


  16:main.c        ****   rcu_periph_clock_enable(RCU_GPIOB);
  44              		.loc 1 16 3 view .LVU3
  45 000e 40F21250 		movw	r0, #1298
  46 0012 FFF7FEFF 		bl	rcu_periph_clock_enable
  47              	.LVL2:
  17:main.c        **** 
  18:main.c        ****   gpio_mode_set(GPIOB, GPIO_MODE_OUTPUT, GPIO_PUPD_NONE, GPIO_PIN_8);
  48              		.loc 1 18 3 view .LVU4
  49 0016 424C     		ldr	r4, .L10
  50 0018 4FF48073 		mov	r3, #256
  51 001c 0022     		movs	r2, #0
  52 001e 0121     		movs	r1, #1
  53 0020 2046     		mov	r0, r4
  54 0022 FFF7FEFF 		bl	gpio_mode_set
  55              	.LVL3:
  19:main.c        ****   gpio_output_options_set(GPIOB, GPIO_OTYPE_PP, GPIO_OSPEED_50MHZ, GPIO_PIN_8);
  56              		.loc 1 19 3 view .LVU5
  57 0026 4FF48073 		mov	r3, #256
  58 002a 0322     		movs	r2, #3
  59 002c 0021     		movs	r1, #0
  60 002e 2046     		mov	r0, r4
  61 0030 FFF7FEFF 		bl	gpio_output_options_set
  62              	.LVL4:
  20:main.c        **** 
  21:main.c        ****   gpio_mode_set(GPIOA, GPIO_MODE_OUTPUT, GPIO_PUPD_NONE, GPIO_PIN_4);
  63              		.loc 1 21 3 view .LVU6
  64 0034 1023     		movs	r3, #16
  65 0036 0022     		movs	r2, #0
  66 0038 0121     		movs	r1, #1
  67 003a 4FF09040 		mov	r0, #1207959552
  68 003e FFF7FEFF 		bl	gpio_mode_set
  69              	.LVL5:
  22:main.c        ****   gpio_output_options_set(GPIOA, GPIO_OTYPE_PP, GPIO_OSPEED_50MHZ, GPIO_PIN_4);
  70              		.loc 1 22 3 view .LVU7
  71 0042 1023     		movs	r3, #16
  72 0044 0322     		movs	r2, #3
  73 0046 0021     		movs	r1, #0
  74 0048 4FF09040 		mov	r0, #1207959552
  75 004c FFF7FEFF 		bl	gpio_output_options_set
  76              	.LVL6:
  23:main.c        ****   gpio_bit_reset(GPIOA, GPIO_PIN_4);
  77              		.loc 1 23 3 view .LVU8
  78 0050 1021     		movs	r1, #16
  79 0052 4FF09040 		mov	r0, #1207959552
  80 0056 FFF7FEFF 		bl	gpio_bit_reset
  81              	.LVL7:
  24:main.c        **** 
  25:main.c        ****   gpio_mode_set(GPIOA, GPIO_MODE_OUTPUT, GPIO_PUPD_NONE, GPIO_PIN_15);
  82              		.loc 1 25 3 view .LVU9
  83 005a 4FF40043 		mov	r3, #32768
  84 005e 0022     		movs	r2, #0
  85 0060 0121     		movs	r1, #1
  86 0062 4FF09040 		mov	r0, #1207959552
  87 0066 FFF7FEFF 		bl	gpio_mode_set
  88              	.LVL8:
  26:main.c        ****   gpio_output_options_set(GPIOA, GPIO_OTYPE_PP, GPIO_OSPEED_50MHZ, GPIO_PIN_15);
  89              		.loc 1 26 3 view .LVU10
ARM GAS  /var/folders/_f/88qcw_5n2jl40jjphvxyt7wh0000gn/T//ccsut5KR.s 			page 3


  90 006a 4FF40043 		mov	r3, #32768
  91 006e 0322     		movs	r2, #3
  92 0070 0021     		movs	r1, #0
  93 0072 4FF09040 		mov	r0, #1207959552
  94 0076 FFF7FEFF 		bl	gpio_output_options_set
  95              	.LVL9:
  27:main.c        **** 
  28:main.c        **** 	pin_init_input(di_1);
  96              		.loc 1 28 2 view .LVU11
  97 007a 2A4B     		ldr	r3, .L10+4
  98 007c 93E80300 		ldm	r3, {r0, r1}
  99 0080 FFF7FEFF 		bl	pin_init_input
 100              	.LVL10:
  29:main.c        **** 	pin_init_input(di_2);
 101              		.loc 1 29 2 view .LVU12
 102 0084 284B     		ldr	r3, .L10+8
 103 0086 93E80300 		ldm	r3, {r0, r1}
 104 008a FFF7FEFF 		bl	pin_init_input
 105              	.LVL11:
  30:main.c        **** 	pin_init_input(di_3);
 106              		.loc 1 30 2 view .LVU13
 107 008e 274B     		ldr	r3, .L10+12
 108 0090 93E80300 		ldm	r3, {r0, r1}
 109 0094 FFF7FEFF 		bl	pin_init_input
 110              	.LVL12:
  31:main.c        **** 	pin_init_input(di_4);
 111              		.loc 1 31 2 view .LVU14
 112 0098 254B     		ldr	r3, .L10+16
 113 009a 93E80300 		ldm	r3, {r0, r1}
 114 009e FFF7FEFF 		bl	pin_init_input
 115              	.LVL13:
  32:main.c        **** 
  33:main.c        ****   sk6812_initialize();
 116              		.loc 1 33 3 view .LVU15
 117 00a2 FFF7FEFF 		bl	sk6812_initialize
 118              	.LVL14:
 119 00a6 05E0     		b	.L2
 120              	.L9:
  34:main.c        ****   while (1) {
  35:main.c        ****     if (!pin_get(di_1)) {
  36:main.c        ****       sk6812_set(1, 255, 0, 0);
 121              		.loc 1 36 7 view .LVU16
 122 00a8 0023     		movs	r3, #0
 123 00aa 1A46     		mov	r2, r3
 124 00ac FF21     		movs	r1, #255
 125 00ae 0120     		movs	r0, #1
 126 00b0 FFF7FEFF 		bl	sk6812_set
 127              	.LVL15:
 128              	.L2:
  34:main.c        ****   while (1) {
 129              		.loc 1 34 3 view .LVU17
  35:main.c        ****       sk6812_set(1, 255, 0, 0);
 130              		.loc 1 35 5 view .LVU18
  35:main.c        ****       sk6812_set(1, 255, 0, 0);
 131              		.loc 1 35 10 is_stmt 0 view .LVU19
 132 00b4 1B4B     		ldr	r3, .L10+4
 133 00b6 93E80300 		ldm	r3, {r0, r1}
ARM GAS  /var/folders/_f/88qcw_5n2jl40jjphvxyt7wh0000gn/T//ccsut5KR.s 			page 4


 134 00ba FFF7FEFF 		bl	pin_get
 135              	.LVL16:
  35:main.c        ****       sk6812_set(1, 255, 0, 0);
 136              		.loc 1 35 8 view .LVU20
 137 00be 0028     		cmp	r0, #0
 138 00c0 F2D0     		beq	.L9
  37:main.c        ****     } else if (!pin_get(di_2)) {
 139              		.loc 1 37 12 is_stmt 1 view .LVU21
 140              		.loc 1 37 17 is_stmt 0 view .LVU22
 141 00c2 194B     		ldr	r3, .L10+8
 142 00c4 93E80300 		ldm	r3, {r0, r1}
 143 00c8 FFF7FEFF 		bl	pin_get
 144              	.LVL17:
 145              		.loc 1 37 15 view .LVU23
 146 00cc 30B9     		cbnz	r0, .L5
  38:main.c        ****       sk6812_set(1, 0, 255, 0);
 147              		.loc 1 38 7 is_stmt 1 view .LVU24
 148 00ce 0023     		movs	r3, #0
 149 00d0 FF22     		movs	r2, #255
 150 00d2 1946     		mov	r1, r3
 151 00d4 0120     		movs	r0, #1
 152 00d6 FFF7FEFF 		bl	sk6812_set
 153              	.LVL18:
 154 00da EBE7     		b	.L2
 155              	.L5:
  39:main.c        ****     } else if (!pin_get(di_3)) {
 156              		.loc 1 39 12 view .LVU25
 157              		.loc 1 39 17 is_stmt 0 view .LVU26
 158 00dc 134B     		ldr	r3, .L10+12
 159 00de 93E80300 		ldm	r3, {r0, r1}
 160 00e2 FFF7FEFF 		bl	pin_get
 161              	.LVL19:
 162              		.loc 1 39 15 view .LVU27
 163 00e6 30B9     		cbnz	r0, .L6
  40:main.c        ****       sk6812_set(1, 0, 0, 255);
 164              		.loc 1 40 7 is_stmt 1 view .LVU28
 165 00e8 FF23     		movs	r3, #255
 166 00ea 0022     		movs	r2, #0
 167 00ec 1146     		mov	r1, r2
 168 00ee 0120     		movs	r0, #1
 169 00f0 FFF7FEFF 		bl	sk6812_set
 170              	.LVL20:
 171 00f4 DEE7     		b	.L2
 172              	.L6:
  41:main.c        ****     } else if (!pin_get(di_4)) {
 173              		.loc 1 41 12 view .LVU29
 174              		.loc 1 41 17 is_stmt 0 view .LVU30
 175 00f6 0E4B     		ldr	r3, .L10+16
 176 00f8 93E80300 		ldm	r3, {r0, r1}
 177 00fc FFF7FEFF 		bl	pin_get
 178              	.LVL21:
 179              		.loc 1 41 15 view .LVU31
 180 0100 30B9     		cbnz	r0, .L7
  42:main.c        ****       sk6812_set(1, 127, 0, 127);
 181              		.loc 1 42 7 is_stmt 1 view .LVU32
 182 0102 7F23     		movs	r3, #127
 183 0104 0022     		movs	r2, #0
ARM GAS  /var/folders/_f/88qcw_5n2jl40jjphvxyt7wh0000gn/T//ccsut5KR.s 			page 5


 184 0106 1946     		mov	r1, r3
 185 0108 0120     		movs	r0, #1
 186 010a FFF7FEFF 		bl	sk6812_set
 187              	.LVL22:
 188 010e D1E7     		b	.L2
 189              	.L7:
  43:main.c        ****     } else {
  44:main.c        ****       sk6812_set(1, 0, 0, 0);
 190              		.loc 1 44 7 view .LVU33
 191 0110 0023     		movs	r3, #0
 192 0112 1A46     		mov	r2, r3
 193 0114 1946     		mov	r1, r3
 194 0116 0120     		movs	r0, #1
 195 0118 FFF7FEFF 		bl	sk6812_set
 196              	.LVL23:
 197 011c CAE7     		b	.L2
 198              	.L11:
 199 011e 00BF     		.align	2
 200              	.L10:
 201 0120 00040048 		.word	1207960576
 202 0124 00000000 		.word	di_1
 203 0128 00000000 		.word	di_2
 204 012c 00000000 		.word	di_3
 205 0130 00000000 		.word	di_4
 206              		.cfi_endproc
 207              	.LFE116:
 209              		.text
 210              	.Letext0:
 211              		.file 2 "/Applications/ARM/arm-none-eabi/include/machine/_default_types.h"
 212              		.file 3 "/Applications/ARM/arm-none-eabi/include/sys/_stdint.h"
 213              		.file 4 "../../../support/device/gd32f3x0/inc/system_gd32f3x0.h"
 214              		.file 5 "../../../support/device/gd32f3x0/peripherals/inc/gd32f3x0_rcu.h"
 215              		.file 6 "../../../support/device/gd32f3x0/peripherals/inc/gd32f3x0_gpio.h"
 216              		.file 7 "gpio.h"
 217              		.file 8 "sk6812.h"
ARM GAS  /var/folders/_f/88qcw_5n2jl40jjphvxyt7wh0000gn/T//ccsut5KR.s 			page 6


DEFINED SYMBOLS
                            *ABS*:0000000000000000 main.c
/var/folders/_f/88qcw_5n2jl40jjphvxyt7wh0000gn/T//ccsut5KR.s:18     .text.main:0000000000000000 $t
/var/folders/_f/88qcw_5n2jl40jjphvxyt7wh0000gn/T//ccsut5KR.s:24     .text.main:0000000000000000 main
/var/folders/_f/88qcw_5n2jl40jjphvxyt7wh0000gn/T//ccsut5KR.s:201    .text.main:0000000000000120 $d

UNDEFINED SYMBOLS
SystemInit
rcu_periph_clock_enable
gpio_mode_set
gpio_output_options_set
gpio_bit_reset
pin_init_input
sk6812_initialize
sk6812_set
pin_get
di_1
di_2
di_3
di_4
