ARM GAS  /var/folders/_f/88qcw_5n2jl40jjphvxyt7wh0000gn/T//ccdRHdXr.s 			page 1


   1              		.cpu cortex-m4
   2              		.arch armv7e-m
   3              		.fpu softvfp
   4              		.eabi_attribute 20, 1
   5              		.eabi_attribute 21, 1
   6              		.eabi_attribute 23, 3
   7              		.eabi_attribute 24, 1
   8              		.eabi_attribute 25, 1
   9              		.eabi_attribute 26, 1
  10              		.eabi_attribute 30, 1
  11              		.eabi_attribute 34, 1
  12              		.eabi_attribute 18, 4
  13              		.file	"gpio.c"
  14              		.text
  15              	.Ltext0:
  16              		.cfi_sections	.debug_frame
  17              		.section	.text.pin_init_out,"ax",%progbits
  18              		.align	1
  19              		.global	pin_init_out
  20              		.syntax unified
  21              		.thumb
  22              		.thumb_func
  24              	pin_init_out:
  25              	.LFB116:
  26              		.file 1 "src/gpio.c"
   1:src/gpio.c    **** #include "gpio.h"
   2:src/gpio.c    **** 
   3:src/gpio.c    **** 
   4:src/gpio.c    **** pin dim_1 = {GPIOA, GPIO_PIN_9};
   5:src/gpio.c    **** pin dim_4 = {GPIOA, GPIO_PIN_12};
   6:src/gpio.c    **** pin rede = {GPIOA, GPIO_PIN_4};
   7:src/gpio.c    **** pin one_wire = {GPIOA, GPIO_PIN_15};
   8:src/gpio.c    **** 
   9:src/gpio.c    **** void pin_init_out(pin x) {
  27              		.loc 1 9 26 view -0
  28              		.cfi_startproc
  29              		@ args = 0, pretend = 0, frame = 8
  30              		@ frame_needed = 0, uses_anonymous_args = 0
  31 0000 30B5     		push	{r4, r5, lr}
  32              	.LCFI0:
  33              		.cfi_def_cfa_offset 12
  34              		.cfi_offset 4, -12
  35              		.cfi_offset 5, -8
  36              		.cfi_offset 14, -4
  37 0002 83B0     		sub	sp, sp, #12
  38              	.LCFI1:
  39              		.cfi_def_cfa_offset 24
  40 0004 02AB     		add	r3, sp, #8
  41 0006 03E90300 		stmdb	r3, {r0, r1}
  10:src/gpio.c    ****   gpio_mode_set(x.port, GPIO_MODE_OUTPUT, GPIO_PUPD_NONE, x.num);
  42              		.loc 1 10 3 view .LVU1
  43 000a 0446     		mov	r4, r0
  44 000c 0D46     		mov	r5, r1
  45 000e 0B46     		mov	r3, r1
  46 0010 0022     		movs	r2, #0
  47 0012 0121     		movs	r1, #1
  48 0014 FFF7FEFF 		bl	gpio_mode_set
ARM GAS  /var/folders/_f/88qcw_5n2jl40jjphvxyt7wh0000gn/T//ccdRHdXr.s 			page 2


  49              	.LVL0:
  11:src/gpio.c    ****   gpio_output_options_set(x.port, GPIO_OTYPE_PP, GPIO_OSPEED_50MHZ, x.num);
  50              		.loc 1 11 3 view .LVU2
  51 0018 2B46     		mov	r3, r5
  52 001a 0322     		movs	r2, #3
  53 001c 0021     		movs	r1, #0
  54 001e 2046     		mov	r0, r4
  55 0020 FFF7FEFF 		bl	gpio_output_options_set
  56              	.LVL1:
  12:src/gpio.c    **** }
  57              		.loc 1 12 1 is_stmt 0 view .LVU3
  58 0024 03B0     		add	sp, sp, #12
  59              	.LCFI2:
  60              		.cfi_def_cfa_offset 12
  61              		@ sp needed
  62 0026 30BD     		pop	{r4, r5, pc}
  63              		.cfi_endproc
  64              	.LFE116:
  66              		.section	.text.pin_init_out_OD,"ax",%progbits
  67              		.align	1
  68              		.global	pin_init_out_OD
  69              		.syntax unified
  70              		.thumb
  71              		.thumb_func
  73              	pin_init_out_OD:
  74              	.LFB117:
  13:src/gpio.c    **** 
  14:src/gpio.c    **** void pin_init_out_OD(pin x) {
  75              		.loc 1 14 29 is_stmt 1 view -0
  76              		.cfi_startproc
  77              		@ args = 0, pretend = 0, frame = 8
  78              		@ frame_needed = 0, uses_anonymous_args = 0
  79 0000 30B5     		push	{r4, r5, lr}
  80              	.LCFI3:
  81              		.cfi_def_cfa_offset 12
  82              		.cfi_offset 4, -12
  83              		.cfi_offset 5, -8
  84              		.cfi_offset 14, -4
  85 0002 83B0     		sub	sp, sp, #12
  86              	.LCFI4:
  87              		.cfi_def_cfa_offset 24
  88 0004 02AB     		add	r3, sp, #8
  89 0006 03E90300 		stmdb	r3, {r0, r1}
  15:src/gpio.c    ****   gpio_mode_set(x.port, GPIO_MODE_OUTPUT, GPIO_PUPD_PULLUP, x.num);
  90              		.loc 1 15 3 view .LVU5
  91 000a 0446     		mov	r4, r0
  92 000c 0D46     		mov	r5, r1
  93 000e 0B46     		mov	r3, r1
  94 0010 0122     		movs	r2, #1
  95 0012 1146     		mov	r1, r2
  96 0014 FFF7FEFF 		bl	gpio_mode_set
  97              	.LVL2:
  16:src/gpio.c    ****   gpio_output_options_set(x.port, GPIO_OTYPE_OD, GPIO_OSPEED_MAX, x.num);
  98              		.loc 1 16 3 view .LVU6
  99 0018 2B46     		mov	r3, r5
 100 001a 4FF6FF72 		movw	r2, #65535
 101 001e 0121     		movs	r1, #1
ARM GAS  /var/folders/_f/88qcw_5n2jl40jjphvxyt7wh0000gn/T//ccdRHdXr.s 			page 3


 102 0020 2046     		mov	r0, r4
 103 0022 FFF7FEFF 		bl	gpio_output_options_set
 104              	.LVL3:
  17:src/gpio.c    **** }
 105              		.loc 1 17 1 is_stmt 0 view .LVU7
 106 0026 03B0     		add	sp, sp, #12
 107              	.LCFI5:
 108              		.cfi_def_cfa_offset 12
 109              		@ sp needed
 110 0028 30BD     		pop	{r4, r5, pc}
 111              		.cfi_endproc
 112              	.LFE117:
 114              		.section	.text.pin_toggle,"ax",%progbits
 115              		.align	1
 116              		.global	pin_toggle
 117              		.syntax unified
 118              		.thumb
 119              		.thumb_func
 121              	pin_toggle:
 122              	.LFB118:
  18:src/gpio.c    **** 
  19:src/gpio.c    **** void pin_toggle(pin x) { gpio_bit_toggle(x.port, x.num); }
 123              		.loc 1 19 24 is_stmt 1 view -0
 124              		.cfi_startproc
 125              		@ args = 0, pretend = 0, frame = 8
 126              		@ frame_needed = 0, uses_anonymous_args = 0
 127 0000 00B5     		push	{lr}
 128              	.LCFI6:
 129              		.cfi_def_cfa_offset 4
 130              		.cfi_offset 14, -4
 131 0002 83B0     		sub	sp, sp, #12
 132              	.LCFI7:
 133              		.cfi_def_cfa_offset 16
 134 0004 02AB     		add	r3, sp, #8
 135 0006 03E90300 		stmdb	r3, {r0, r1}
 136              		.loc 1 19 26 view .LVU9
 137 000a FFF7FEFF 		bl	gpio_bit_toggle
 138              	.LVL4:
 139              		.loc 1 19 58 is_stmt 0 view .LVU10
 140 000e 03B0     		add	sp, sp, #12
 141              	.LCFI8:
 142              		.cfi_def_cfa_offset 4
 143              		@ sp needed
 144 0010 5DF804FB 		ldr	pc, [sp], #4
 145              		.cfi_endproc
 146              	.LFE118:
 148              		.section	.text.pin_set,"ax",%progbits
 149              		.align	1
 150              		.global	pin_set
 151              		.syntax unified
 152              		.thumb
 153              		.thumb_func
 155              	pin_set:
 156              	.LFB119:
  20:src/gpio.c    **** void pin_set(pin x) { gpio_bit_set(x.port, x.num); }
 157              		.loc 1 20 21 is_stmt 1 view -0
 158              		.cfi_startproc
ARM GAS  /var/folders/_f/88qcw_5n2jl40jjphvxyt7wh0000gn/T//ccdRHdXr.s 			page 4


 159              		@ args = 0, pretend = 0, frame = 8
 160              		@ frame_needed = 0, uses_anonymous_args = 0
 161 0000 00B5     		push	{lr}
 162              	.LCFI9:
 163              		.cfi_def_cfa_offset 4
 164              		.cfi_offset 14, -4
 165 0002 83B0     		sub	sp, sp, #12
 166              	.LCFI10:
 167              		.cfi_def_cfa_offset 16
 168 0004 02AB     		add	r3, sp, #8
 169 0006 03E90300 		stmdb	r3, {r0, r1}
 170              		.loc 1 20 23 view .LVU12
 171 000a FFF7FEFF 		bl	gpio_bit_set
 172              	.LVL5:
 173              		.loc 1 20 52 is_stmt 0 view .LVU13
 174 000e 03B0     		add	sp, sp, #12
 175              	.LCFI11:
 176              		.cfi_def_cfa_offset 4
 177              		@ sp needed
 178 0010 5DF804FB 		ldr	pc, [sp], #4
 179              		.cfi_endproc
 180              	.LFE119:
 182              		.section	.text.pin_reset,"ax",%progbits
 183              		.align	1
 184              		.global	pin_reset
 185              		.syntax unified
 186              		.thumb
 187              		.thumb_func
 189              	pin_reset:
 190              	.LFB120:
  21:src/gpio.c    **** void pin_reset(pin x) { gpio_bit_reset(x.port, x.num); }
 191              		.loc 1 21 23 is_stmt 1 view -0
 192              		.cfi_startproc
 193              		@ args = 0, pretend = 0, frame = 8
 194              		@ frame_needed = 0, uses_anonymous_args = 0
 195 0000 00B5     		push	{lr}
 196              	.LCFI12:
 197              		.cfi_def_cfa_offset 4
 198              		.cfi_offset 14, -4
 199 0002 83B0     		sub	sp, sp, #12
 200              	.LCFI13:
 201              		.cfi_def_cfa_offset 16
 202 0004 02AB     		add	r3, sp, #8
 203 0006 03E90300 		stmdb	r3, {r0, r1}
 204              		.loc 1 21 25 view .LVU15
 205 000a FFF7FEFF 		bl	gpio_bit_reset
 206              	.LVL6:
 207              		.loc 1 21 56 is_stmt 0 view .LVU16
 208 000e 03B0     		add	sp, sp, #12
 209              	.LCFI14:
 210              		.cfi_def_cfa_offset 4
 211              		@ sp needed
 212 0010 5DF804FB 		ldr	pc, [sp], #4
 213              		.cfi_endproc
 214              	.LFE120:
 216              		.section	.text.pin_get,"ax",%progbits
 217              		.align	1
ARM GAS  /var/folders/_f/88qcw_5n2jl40jjphvxyt7wh0000gn/T//ccdRHdXr.s 			page 5


 218              		.global	pin_get
 219              		.syntax unified
 220              		.thumb
 221              		.thumb_func
 223              	pin_get:
 224              	.LFB121:
  22:src/gpio.c    **** bool pin_get(pin x) { return gpio_input_bit_get(x.port, x.num); }...
 225              		.loc 1 22 21 is_stmt 1 view -0
 226              		.cfi_startproc
 227              		@ args = 0, pretend = 0, frame = 8
 228              		@ frame_needed = 0, uses_anonymous_args = 0
 229 0000 00B5     		push	{lr}
 230              	.LCFI15:
 231              		.cfi_def_cfa_offset 4
 232              		.cfi_offset 14, -4
 233 0002 83B0     		sub	sp, sp, #12
 234              	.LCFI16:
 235              		.cfi_def_cfa_offset 16
 236 0004 02AB     		add	r3, sp, #8
 237 0006 03E90300 		stmdb	r3, {r0, r1}
 238              		.loc 1 22 23 view .LVU18
 239              		.loc 1 22 30 is_stmt 0 view .LVU19
 240 000a FFF7FEFF 		bl	gpio_input_bit_get
 241              	.LVL7:
 242              		.loc 1 22 65 view .LVU20
 243 000e 03B0     		add	sp, sp, #12
 244              	.LCFI17:
 245              		.cfi_def_cfa_offset 4
 246              		@ sp needed
 247 0010 5DF804FB 		ldr	pc, [sp], #4
 248              		.cfi_endproc
 249              	.LFE121:
 251              		.global	one_wire
 252              		.global	rede
 253              		.global	dim_4
 254              		.global	dim_1
 255              		.section	.data.dim_1,"aw"
 256              		.align	2
 259              	dim_1:
 260 0000 00000048 		.word	1207959552
 261 0004 00020000 		.word	512
 262              		.section	.data.dim_4,"aw"
 263              		.align	2
 266              	dim_4:
 267 0000 00000048 		.word	1207959552
 268 0004 00100000 		.word	4096
 269              		.section	.data.one_wire,"aw"
 270              		.align	2
 273              	one_wire:
 274 0000 00000048 		.word	1207959552
 275 0004 00800000 		.word	32768
 276              		.section	.data.rede,"aw"
 277              		.align	2
 280              	rede:
 281 0000 00000048 		.word	1207959552
 282 0004 10000000 		.word	16
 283              		.text
ARM GAS  /var/folders/_f/88qcw_5n2jl40jjphvxyt7wh0000gn/T//ccdRHdXr.s 			page 6


 284              	.Letext0:
 285              		.file 2 "/Applications/ARM/arm-none-eabi/include/machine/_default_types.h"
 286              		.file 3 "/Applications/ARM/arm-none-eabi/include/sys/_stdint.h"
 287              		.file 4 "lib/CMSIS/GD/GD32F3x0/Include/gd32f3x0.h"
 288              		.file 5 "lib/GD32F3x0/Include/gd32f3x0_dbg.h"
 289              		.file 6 "lib/GD32F3x0/Include/gd32f3x0_rcu.h"
 290              		.file 7 "lib/GD32F3x0/Include/gd32f3x0_gpio.h"
 291              		.file 8 "inc/gpio.h"
ARM GAS  /var/folders/_f/88qcw_5n2jl40jjphvxyt7wh0000gn/T//ccdRHdXr.s 			page 7

